
bin/main.elf:     file format elf32-littlearm


Disassembly of section .isr_vector:

08000000 <InterruptVector>:
 8000000:	20008000 	andcs	r8, r0, r0
 8000004:	0800019d 	stmdaeq	r0, {r0, r2, r3, r4, r7, r8}
 8000008:	08000189 	stmdaeq	r0, {r0, r3, r7, r8}
 800000c:	08000193 	stmdaeq	r0, {r0, r1, r4, r7, r8}
 8000010:	08000189 	stmdaeq	r0, {r0, r3, r7, r8}
 8000014:	08000189 	stmdaeq	r0, {r0, r3, r7, r8}
 8000018:	08000189 	stmdaeq	r0, {r0, r3, r7, r8}
 800001c:	00000000 	andeq	r0, r0, r0
 8000020:	00000000 	andeq	r0, r0, r0
 8000024:	00000000 	andeq	r0, r0, r0
 8000028:	00000000 	andeq	r0, r0, r0
 800002c:	08000189 	stmdaeq	r0, {r0, r3, r7, r8}
 8000030:	08000189 	stmdaeq	r0, {r0, r3, r7, r8}
 8000034:	00000000 	andeq	r0, r0, r0
 8000038:	08000189 	stmdaeq	r0, {r0, r3, r7, r8}
 800003c:	08000189 	stmdaeq	r0, {r0, r3, r7, r8}
 8000040:	08000189 	stmdaeq	r0, {r0, r3, r7, r8}
 8000044:	08000189 	stmdaeq	r0, {r0, r3, r7, r8}
 8000048:	08000189 	stmdaeq	r0, {r0, r3, r7, r8}
 800004c:	08000189 	stmdaeq	r0, {r0, r3, r7, r8}
 8000050:	08000189 	stmdaeq	r0, {r0, r3, r7, r8}
 8000054:	08000189 	stmdaeq	r0, {r0, r3, r7, r8}
 8000058:	08000189 	stmdaeq	r0, {r0, r3, r7, r8}
 800005c:	08000189 	stmdaeq	r0, {r0, r3, r7, r8}
 8000060:	08000189 	stmdaeq	r0, {r0, r3, r7, r8}
 8000064:	08000189 	stmdaeq	r0, {r0, r3, r7, r8}
 8000068:	08000189 	stmdaeq	r0, {r0, r3, r7, r8}
 800006c:	08000189 	stmdaeq	r0, {r0, r3, r7, r8}
 8000070:	08000189 	stmdaeq	r0, {r0, r3, r7, r8}
 8000074:	08000189 	stmdaeq	r0, {r0, r3, r7, r8}
 8000078:	08000189 	stmdaeq	r0, {r0, r3, r7, r8}
 800007c:	08000189 	stmdaeq	r0, {r0, r3, r7, r8}
 8000080:	08000189 	stmdaeq	r0, {r0, r3, r7, r8}
 8000084:	08000189 	stmdaeq	r0, {r0, r3, r7, r8}
 8000088:	08000189 	stmdaeq	r0, {r0, r3, r7, r8}
 800008c:	08000189 	stmdaeq	r0, {r0, r3, r7, r8}
 8000090:	08000189 	stmdaeq	r0, {r0, r3, r7, r8}
 8000094:	08000189 	stmdaeq	r0, {r0, r3, r7, r8}
 8000098:	08000189 	stmdaeq	r0, {r0, r3, r7, r8}
 800009c:	08002765 	stmdaeq	r0, {r0, r2, r5, r6, r8, r9, sl, sp}
 80000a0:	08000189 	stmdaeq	r0, {r0, r3, r7, r8}
 80000a4:	08000189 	stmdaeq	r0, {r0, r3, r7, r8}
 80000a8:	08000189 	stmdaeq	r0, {r0, r3, r7, r8}
 80000ac:	08000189 	stmdaeq	r0, {r0, r3, r7, r8}
 80000b0:	08002fd5 	stmdaeq	r0, {r0, r2, r4, r6, r7, r8, r9, sl, fp, sp}
 80000b4:	08000189 	stmdaeq	r0, {r0, r3, r7, r8}
 80000b8:	08000189 	stmdaeq	r0, {r0, r3, r7, r8}
 80000bc:	08000189 	stmdaeq	r0, {r0, r3, r7, r8}
 80000c0:	08000189 	stmdaeq	r0, {r0, r3, r7, r8}
 80000c4:	08000189 	stmdaeq	r0, {r0, r3, r7, r8}
 80000c8:	08000189 	stmdaeq	r0, {r0, r3, r7, r8}
 80000cc:	08000189 	stmdaeq	r0, {r0, r3, r7, r8}
 80000d0:	08000189 	stmdaeq	r0, {r0, r3, r7, r8}
 80000d4:	08000189 	stmdaeq	r0, {r0, r3, r7, r8}
 80000d8:	08000189 	stmdaeq	r0, {r0, r3, r7, r8}
 80000dc:	08000189 	stmdaeq	r0, {r0, r3, r7, r8}
 80000e0:	08002795 	stmdaeq	r0, {r0, r2, r4, r7, r8, r9, sl, sp}
 80000e4:	08000189 	stmdaeq	r0, {r0, r3, r7, r8}
 80000e8:	08000189 	stmdaeq	r0, {r0, r3, r7, r8}
 80000ec:	08000189 	stmdaeq	r0, {r0, r3, r7, r8}
 80000f0:	08000189 	stmdaeq	r0, {r0, r3, r7, r8}
 80000f4:	08000189 	stmdaeq	r0, {r0, r3, r7, r8}
 80000f8:	08000189 	stmdaeq	r0, {r0, r3, r7, r8}
 80000fc:	08000189 	stmdaeq	r0, {r0, r3, r7, r8}
 8000100:	00000000 	andeq	r0, r0, r0
 8000104:	00000000 	andeq	r0, r0, r0
 8000108:	00000000 	andeq	r0, r0, r0
 800010c:	08000189 	stmdaeq	r0, {r0, r3, r7, r8}
 8000110:	08000189 	stmdaeq	r0, {r0, r3, r7, r8}
 8000114:	08000189 	stmdaeq	r0, {r0, r3, r7, r8}
 8000118:	08000189 	stmdaeq	r0, {r0, r3, r7, r8}
 800011c:	08000189 	stmdaeq	r0, {r0, r3, r7, r8}
 8000120:	08000189 	stmdaeq	r0, {r0, r3, r7, r8}
 8000124:	08000189 	stmdaeq	r0, {r0, r3, r7, r8}
 8000128:	08000189 	stmdaeq	r0, {r0, r3, r7, r8}
 800012c:	08000189 	stmdaeq	r0, {r0, r3, r7, r8}
 8000130:	08000189 	stmdaeq	r0, {r0, r3, r7, r8}
 8000134:	08000189 	stmdaeq	r0, {r0, r3, r7, r8}
 8000138:	00000000 	andeq	r0, r0, r0
 800013c:	00000000 	andeq	r0, r0, r0
 8000140:	08000189 	stmdaeq	r0, {r0, r3, r7, r8}
 8000144:	08000189 	stmdaeq	r0, {r0, r3, r7, r8}
 8000148:	08000189 	stmdaeq	r0, {r0, r3, r7, r8}
 800014c:	00000000 	andeq	r0, r0, r0
 8000150:	00000000 	andeq	r0, r0, r0
 8000154:	00000000 	andeq	r0, r0, r0
 8000158:	00000000 	andeq	r0, r0, r0
 800015c:	00000000 	andeq	r0, r0, r0
 8000160:	00000000 	andeq	r0, r0, r0
 8000164:	00000000 	andeq	r0, r0, r0
 8000168:	08000189 	stmdaeq	r0, {r0, r3, r7, r8}
 800016c:	08000189 	stmdaeq	r0, {r0, r3, r7, r8}
 8000170:	08000189 	stmdaeq	r0, {r0, r3, r7, r8}
 8000174:	00000000 	andeq	r0, r0, r0
 8000178:	00000000 	andeq	r0, r0, r0
 800017c:	00000000 	andeq	r0, r0, r0
 8000180:	00000000 	andeq	r0, r0, r0
 8000184:	08000189 	stmdaeq	r0, {r0, r3, r7, r8}

Disassembly of section .text:

08000188 <Default_Handler>:
 8000188:	4668      	mov	r0, sp
 800018a:	f020 0107 	bic.w	r1, r0, #7
 800018e:	468d      	mov	sp, r1
 8000190:	e7fe      	b.n	8000190 <Default_Handler+0x8>

08000192 <HardFault_Handler>:
 8000192:	4668      	mov	r0, sp
 8000194:	f020 0107 	bic.w	r1, r0, #7
 8000198:	468d      	mov	sp, r1
 800019a:	e7fe      	b.n	800019a <HardFault_Handler+0x8>

0800019c <Reset_Handler>:
 800019c:	4915      	ldr	r1, [pc, #84]	; (80001f4 <Reset_Handler+0x58>)
 800019e:	4a16      	ldr	r2, [pc, #88]	; (80001f8 <Reset_Handler+0x5c>)
 80001a0:	4816      	ldr	r0, [pc, #88]	; (80001fc <Reset_Handler+0x60>)
 80001a2:	1a52      	subs	r2, r2, r1
 80001a4:	1092      	asrs	r2, r2, #2
 80001a6:	2300      	movs	r3, #0
 80001a8:	429a      	cmp	r2, r3
 80001aa:	d117      	bne.n	80001dc <Reset_Handler+0x40>
 80001ac:	4a14      	ldr	r2, [pc, #80]	; (8000200 <Reset_Handler+0x64>)
 80001ae:	4e15      	ldr	r6, [pc, #84]	; (8000204 <Reset_Handler+0x68>)
 80001b0:	f8d2 3088 	ldr.w	r3, [r2, #136]	; 0x88
 80001b4:	4c14      	ldr	r4, [pc, #80]	; (8000208 <Reset_Handler+0x6c>)
 80001b6:	f443 0370 	orr.w	r3, r3, #15728640	; 0xf00000
 80001ba:	f8c2 3088 	str.w	r3, [r2, #136]	; 0x88
 80001be:	f8d2 3234 	ldr.w	r3, [r2, #564]	; 0x234
 80001c2:	1ba4      	subs	r4, r4, r6
 80001c4:	f043 4340 	orr.w	r3, r3, #3221225472	; 0xc0000000
 80001c8:	f8c2 3234 	str.w	r3, [r2, #564]	; 0x234
 80001cc:	10a4      	asrs	r4, r4, #2
 80001ce:	2500      	movs	r5, #0
 80001d0:	42a5      	cmp	r5, r4
 80001d2:	d109      	bne.n	80001e8 <Reset_Handler+0x4c>
 80001d4:	f000 f81a 	bl	800020c <SystemInit>
 80001d8:	f001 ba16 	b.w	8001608 <main>
 80001dc:	f850 4023 	ldr.w	r4, [r0, r3, lsl #2]
 80001e0:	f841 4023 	str.w	r4, [r1, r3, lsl #2]
 80001e4:	3301      	adds	r3, #1
 80001e6:	e7df      	b.n	80001a8 <Reset_Handler+0xc>
 80001e8:	f856 3025 	ldr.w	r3, [r6, r5, lsl #2]
 80001ec:	4798      	blx	r3
 80001ee:	3501      	adds	r5, #1
 80001f0:	e7ee      	b.n	80001d0 <Reset_Handler+0x34>
 80001f2:	bf00      	nop
 80001f4:	20000000 	andcs	r0, r0, r0
 80001f8:	20000000 	andcs	r0, r0, r0
 80001fc:	08004b78 	stmdaeq	r0, {r3, r4, r5, r6, r8, r9, fp, lr}
 8000200:	e000ed00 	and	lr, r0, r0, lsl #26
 8000204:	08004b78 	stmdaeq	r0, {r3, r4, r5, r6, r8, r9, fp, lr}
 8000208:	08004b7c 	stmdaeq	r0, {r2, r3, r4, r5, r6, r8, r9, fp, lr}

0800020c <SystemInit>:
 800020c:	4a39      	ldr	r2, [pc, #228]	; (80002f4 <SystemInit+0xe8>)
 800020e:	f8d2 3088 	ldr.w	r3, [r2, #136]	; 0x88
 8000212:	f443 0370 	orr.w	r3, r3, #15728640	; 0xf00000
 8000216:	f8c2 3088 	str.w	r3, [r2, #136]	; 0x88
 800021a:	4b37      	ldr	r3, [pc, #220]	; (80002f8 <SystemInit+0xec>)
 800021c:	681a      	ldr	r2, [r3, #0]
 800021e:	f042 0201 	orr.w	r2, r2, #1
 8000222:	601a      	str	r2, [r3, #0]
 8000224:	6859      	ldr	r1, [r3, #4]
 8000226:	4a35      	ldr	r2, [pc, #212]	; (80002fc <SystemInit+0xf0>)
 8000228:	400a      	ands	r2, r1
 800022a:	605a      	str	r2, [r3, #4]
 800022c:	681a      	ldr	r2, [r3, #0]
 800022e:	f022 7284 	bic.w	r2, r2, #17301504	; 0x1080000
 8000232:	f422 3280 	bic.w	r2, r2, #65536	; 0x10000
 8000236:	601a      	str	r2, [r3, #0]
 8000238:	681a      	ldr	r2, [r3, #0]
 800023a:	f422 2280 	bic.w	r2, r2, #262144	; 0x40000
 800023e:	601a      	str	r2, [r3, #0]
 8000240:	685a      	ldr	r2, [r3, #4]
 8000242:	f422 02fe 	bic.w	r2, r2, #8323072	; 0x7f0000
 8000246:	605a      	str	r2, [r3, #4]
 8000248:	6ada      	ldr	r2, [r3, #44]	; 0x2c
 800024a:	f022 020f 	bic.w	r2, r2, #15
 800024e:	62da      	str	r2, [r3, #44]	; 0x2c
 8000250:	6b19      	ldr	r1, [r3, #48]	; 0x30
 8000252:	4a2b      	ldr	r2, [pc, #172]	; (8000300 <SystemInit+0xf4>)
 8000254:	b082      	sub	sp, #8
 8000256:	400a      	ands	r2, r1
 8000258:	631a      	str	r2, [r3, #48]	; 0x30
 800025a:	2200      	movs	r2, #0
 800025c:	609a      	str	r2, [r3, #8]
 800025e:	9200      	str	r2, [sp, #0]
 8000260:	9201      	str	r2, [sp, #4]
 8000262:	681a      	ldr	r2, [r3, #0]
 8000264:	f442 3280 	orr.w	r2, r2, #65536	; 0x10000
 8000268:	601a      	str	r2, [r3, #0]
 800026a:	681a      	ldr	r2, [r3, #0]
 800026c:	f402 3200 	and.w	r2, r2, #131072	; 0x20000
 8000270:	9201      	str	r2, [sp, #4]
 8000272:	9a00      	ldr	r2, [sp, #0]
 8000274:	3201      	adds	r2, #1
 8000276:	9200      	str	r2, [sp, #0]
 8000278:	9a01      	ldr	r2, [sp, #4]
 800027a:	b91a      	cbnz	r2, 8000284 <SystemInit+0x78>
 800027c:	9a00      	ldr	r2, [sp, #0]
 800027e:	f5b2 6fa0 	cmp.w	r2, #1280	; 0x500
 8000282:	d1f2      	bne.n	800026a <SystemInit+0x5e>
 8000284:	681a      	ldr	r2, [r3, #0]
 8000286:	f412 3200 	ands.w	r2, r2, #131072	; 0x20000
 800028a:	bf18      	it	ne
 800028c:	2201      	movne	r2, #1
 800028e:	9201      	str	r2, [sp, #4]
 8000290:	9a01      	ldr	r2, [sp, #4]
 8000292:	2a01      	cmp	r2, #1
 8000294:	d005      	beq.n	80002a2 <SystemInit+0x96>
 8000296:	4b17      	ldr	r3, [pc, #92]	; (80002f4 <SystemInit+0xe8>)
 8000298:	f04f 6200 	mov.w	r2, #134217728	; 0x8000000
 800029c:	609a      	str	r2, [r3, #8]
 800029e:	b002      	add	sp, #8
 80002a0:	4770      	bx	lr
 80002a2:	4a18      	ldr	r2, [pc, #96]	; (8000304 <SystemInit+0xf8>)
 80002a4:	2112      	movs	r1, #18
 80002a6:	6011      	str	r1, [r2, #0]
 80002a8:	685a      	ldr	r2, [r3, #4]
 80002aa:	605a      	str	r2, [r3, #4]
 80002ac:	685a      	ldr	r2, [r3, #4]
 80002ae:	605a      	str	r2, [r3, #4]
 80002b0:	685a      	ldr	r2, [r3, #4]
 80002b2:	f442 6280 	orr.w	r2, r2, #1024	; 0x400
 80002b6:	605a      	str	r2, [r3, #4]
 80002b8:	685a      	ldr	r2, [r3, #4]
 80002ba:	f422 127c 	bic.w	r2, r2, #4128768	; 0x3f0000
 80002be:	605a      	str	r2, [r3, #4]
 80002c0:	685a      	ldr	r2, [r3, #4]
 80002c2:	f442 12e8 	orr.w	r2, r2, #1900544	; 0x1d0000
 80002c6:	605a      	str	r2, [r3, #4]
 80002c8:	681a      	ldr	r2, [r3, #0]
 80002ca:	f042 7280 	orr.w	r2, r2, #16777216	; 0x1000000
 80002ce:	601a      	str	r2, [r3, #0]
 80002d0:	681a      	ldr	r2, [r3, #0]
 80002d2:	0192      	lsls	r2, r2, #6
 80002d4:	d5fc      	bpl.n	80002d0 <SystemInit+0xc4>
 80002d6:	685a      	ldr	r2, [r3, #4]
 80002d8:	f022 0203 	bic.w	r2, r2, #3
 80002dc:	605a      	str	r2, [r3, #4]
 80002de:	685a      	ldr	r2, [r3, #4]
 80002e0:	f042 0202 	orr.w	r2, r2, #2
 80002e4:	605a      	str	r2, [r3, #4]
 80002e6:	685a      	ldr	r2, [r3, #4]
 80002e8:	f002 020c 	and.w	r2, r2, #12
 80002ec:	2a08      	cmp	r2, #8
 80002ee:	d1fa      	bne.n	80002e6 <SystemInit+0xda>
 80002f0:	e7d1      	b.n	8000296 <SystemInit+0x8a>
 80002f2:	bf00      	nop
 80002f4:	e000ed00 	and	lr, r0, r0, lsl #26
 80002f8:	40021000 	andmi	r1, r2, r0
 80002fc:	f87fc00c 			; <UNDEFINED> instruction: 0xf87fc00c
 8000300:	ff00fccc 			; <UNDEFINED> instruction: 0xff00fccc
 8000304:	40022000 	andmi	r2, r2, r0

08000308 <_Z9nvic_initmmm>:
 8000308:	4b0e      	ldr	r3, [pc, #56]	; (8000344 <_Z9nvic_initmmm+0x3c>)
 800030a:	68db      	ldr	r3, [r3, #12]
 800030c:	43db      	mvns	r3, r3
 800030e:	b510      	push	{r4, lr}
 8000310:	f3c3 2402 	ubfx	r4, r3, #8, #3
 8000314:	f1c4 0304 	rsb	r3, r4, #4
 8000318:	b2db      	uxtb	r3, r3
 800031a:	4099      	lsls	r1, r3
 800031c:	230f      	movs	r3, #15
 800031e:	4123      	asrs	r3, r4
 8000320:	4013      	ands	r3, r2
 8000322:	4a09      	ldr	r2, [pc, #36]	; (8000348 <_Z9nvic_initmmm+0x40>)
 8000324:	430b      	orrs	r3, r1
 8000326:	011b      	lsls	r3, r3, #4
 8000328:	1811      	adds	r1, r2, r0
 800032a:	f003 03f0 	and.w	r3, r3, #240	; 0xf0
 800032e:	f881 3300 	strb.w	r3, [r1, #768]	; 0x300
 8000332:	0941      	lsrs	r1, r0, #5
 8000334:	2301      	movs	r3, #1
 8000336:	f000 001f 	and.w	r0, r0, #31
 800033a:	fa03 f000 	lsl.w	r0, r3, r0
 800033e:	f842 0021 	str.w	r0, [r2, r1, lsl #2]
 8000342:	bd10      	pop	{r4, pc}
 8000344:	e000ed00 	and	lr, r0, r0, lsl #26
 8000348:	e000e100 	and	lr, r0, r0, lsl #2

0800034c <_Z10timer_initP11TIM_TypeDefmmmm>:
 800034c:	b530      	push	{r4, r5, lr}
 800034e:	8805      	ldrh	r5, [r0, #0]
 8000350:	b2ac      	uxth	r4, r5
 8000352:	4d24      	ldr	r5, [pc, #144]	; (80003e4 <_Z10timer_initP11TIM_TypeDefmmmm+0x98>)
 8000354:	42a8      	cmp	r0, r5
 8000356:	d00e      	beq.n	8000376 <_Z10timer_initP11TIM_TypeDefmmmm+0x2a>
 8000358:	f505 6500 	add.w	r5, r5, #2048	; 0x800
 800035c:	42a8      	cmp	r0, r5
 800035e:	d00a      	beq.n	8000376 <_Z10timer_initP11TIM_TypeDefmmmm+0x2a>
 8000360:	f1b0 4f80 	cmp.w	r0, #1073741824	; 0x40000000
 8000364:	d007      	beq.n	8000376 <_Z10timer_initP11TIM_TypeDefmmmm+0x2a>
 8000366:	f5a5 3598 	sub.w	r5, r5, #77824	; 0x13000
 800036a:	42a8      	cmp	r0, r5
 800036c:	d003      	beq.n	8000376 <_Z10timer_initP11TIM_TypeDefmmmm+0x2a>
 800036e:	f505 6580 	add.w	r5, r5, #1024	; 0x400
 8000372:	42a8      	cmp	r0, r5
 8000374:	d103      	bne.n	800037e <_Z10timer_initP11TIM_TypeDefmmmm+0x32>
 8000376:	f024 0470 	bic.w	r4, r4, #112	; 0x70
 800037a:	430c      	orrs	r4, r1
 800037c:	b2a4      	uxth	r4, r4
 800037e:	491a      	ldr	r1, [pc, #104]	; (80003e8 <_Z10timer_initP11TIM_TypeDefmmmm+0x9c>)
 8000380:	4288      	cmp	r0, r1
 8000382:	d008      	beq.n	8000396 <_Z10timer_initP11TIM_TypeDefmmmm+0x4a>
 8000384:	f501 6180 	add.w	r1, r1, #1024	; 0x400
 8000388:	4288      	cmp	r0, r1
 800038a:	bf1f      	itttt	ne
 800038c:	f424 7440 	bicne.w	r4, r4, #768	; 0x300
 8000390:	b2a4      	uxthne	r4, r4
 8000392:	4314      	orrne	r4, r2
 8000394:	b2a4      	uxthne	r4, r4
 8000396:	8004      	strh	r4, [r0, #0]
 8000398:	62c3      	str	r3, [r0, #44]	; 0x2c
 800039a:	f8bd 300c 	ldrh.w	r3, [sp, #12]
 800039e:	8503      	strh	r3, [r0, #40]	; 0x28
 80003a0:	4b10      	ldr	r3, [pc, #64]	; (80003e4 <_Z10timer_initP11TIM_TypeDefmmmm+0x98>)
 80003a2:	4298      	cmp	r0, r3
 80003a4:	d00f      	beq.n	80003c6 <_Z10timer_initP11TIM_TypeDefmmmm+0x7a>
 80003a6:	f503 6300 	add.w	r3, r3, #2048	; 0x800
 80003aa:	4298      	cmp	r0, r3
 80003ac:	d00b      	beq.n	80003c6 <_Z10timer_initP11TIM_TypeDefmmmm+0x7a>
 80003ae:	f503 6340 	add.w	r3, r3, #3072	; 0xc00
 80003b2:	4298      	cmp	r0, r3
 80003b4:	d007      	beq.n	80003c6 <_Z10timer_initP11TIM_TypeDefmmmm+0x7a>
 80003b6:	f503 6380 	add.w	r3, r3, #1024	; 0x400
 80003ba:	4298      	cmp	r0, r3
 80003bc:	d003      	beq.n	80003c6 <_Z10timer_initP11TIM_TypeDefmmmm+0x7a>
 80003be:	f503 6380 	add.w	r3, r3, #1024	; 0x400
 80003c2:	4298      	cmp	r0, r3
 80003c4:	d101      	bne.n	80003ca <_Z10timer_initP11TIM_TypeDefmmmm+0x7e>
 80003c6:	2300      	movs	r3, #0
 80003c8:	8603      	strh	r3, [r0, #48]	; 0x30
 80003ca:	2301      	movs	r3, #1
 80003cc:	6143      	str	r3, [r0, #20]
 80003ce:	8803      	ldrh	r3, [r0, #0]
 80003d0:	b29b      	uxth	r3, r3
 80003d2:	f043 0301 	orr.w	r3, r3, #1
 80003d6:	8003      	strh	r3, [r0, #0]
 80003d8:	68c3      	ldr	r3, [r0, #12]
 80003da:	f043 0301 	orr.w	r3, r3, #1
 80003de:	60c3      	str	r3, [r0, #12]
 80003e0:	bd30      	pop	{r4, r5, pc}
 80003e2:	bf00      	nop
 80003e4:	40012c00 	andmi	r2, r1, r0, lsl #24
 80003e8:	40001000 	andmi	r1, r0, r0

080003ec <_Z22exti_clear_pending_bitm>:
 80003ec:	f020 021f 	bic.w	r2, r0, #31
 80003f0:	2301      	movs	r3, #1
 80003f2:	f000 001f 	and.w	r0, r0, #31
 80003f6:	fa03 f000 	lsl.w	r0, r3, r0
 80003fa:	4b01      	ldr	r3, [pc, #4]	; (8000400 <_Z22exti_clear_pending_bitm+0x14>)
 80003fc:	50d0      	str	r0, [r2, r3]
 80003fe:	4770      	bx	lr
 8000400:	40010414 	andmi	r0, r1, r4, lsl r4

08000404 <_Z16exti_line_confighh>:
 8000404:	f001 0303 	and.w	r3, r1, #3
 8000408:	f001 01fc 	and.w	r1, r1, #252	; 0xfc
 800040c:	f101 4180 	add.w	r1, r1, #1073741824	; 0x40000000
 8000410:	f501 3180 	add.w	r1, r1, #65536	; 0x10000
 8000414:	b510      	push	{r4, lr}
 8000416:	688a      	ldr	r2, [r1, #8]
 8000418:	009b      	lsls	r3, r3, #2
 800041a:	240f      	movs	r4, #15
 800041c:	409c      	lsls	r4, r3
 800041e:	ea22 0204 	bic.w	r2, r2, r4
 8000422:	608a      	str	r2, [r1, #8]
 8000424:	688a      	ldr	r2, [r1, #8]
 8000426:	4098      	lsls	r0, r3
 8000428:	4310      	orrs	r0, r2
 800042a:	6088      	str	r0, [r1, #8]
 800042c:	bd10      	pop	{r4, pc}

0800042e <_Z14configure_extimm>:
 800042e:	f020 031f 	bic.w	r3, r0, #31
 8000432:	f103 4380 	add.w	r3, r3, #1073741824	; 0x40000000
 8000436:	f503 3382 	add.w	r3, r3, #66560	; 0x10400
 800043a:	2201      	movs	r2, #1
 800043c:	f000 001f 	and.w	r0, r0, #31
 8000440:	b530      	push	{r4, r5, lr}
 8000442:	fa02 f000 	lsl.w	r0, r2, r0
 8000446:	681c      	ldr	r4, [r3, #0]
 8000448:	43c2      	mvns	r2, r0
 800044a:	4014      	ands	r4, r2
 800044c:	601c      	str	r4, [r3, #0]
 800044e:	685d      	ldr	r5, [r3, #4]
 8000450:	4015      	ands	r5, r2
 8000452:	605d      	str	r5, [r3, #4]
 8000454:	681d      	ldr	r5, [r3, #0]
 8000456:	4305      	orrs	r5, r0
 8000458:	601d      	str	r5, [r3, #0]
 800045a:	689d      	ldr	r5, [r3, #8]
 800045c:	4015      	ands	r5, r2
 800045e:	609d      	str	r5, [r3, #8]
 8000460:	68dd      	ldr	r5, [r3, #12]
 8000462:	f103 4440 	add.w	r4, r3, #3221225472	; 0xc0000000
 8000466:	402a      	ands	r2, r5
 8000468:	2910      	cmp	r1, #16
 800046a:	f5a4 3482 	sub.w	r4, r4, #66560	; 0x10400
 800046e:	60da      	str	r2, [r3, #12]
 8000470:	d106      	bne.n	8000480 <_Z14configure_extimm+0x52>
 8000472:	689a      	ldr	r2, [r3, #8]
 8000474:	4302      	orrs	r2, r0
 8000476:	609a      	str	r2, [r3, #8]
 8000478:	68da      	ldr	r2, [r3, #12]
 800047a:	4310      	orrs	r0, r2
 800047c:	60d8      	str	r0, [r3, #12]
 800047e:	bd30      	pop	{r4, r5, pc}
 8000480:	f101 4180 	add.w	r1, r1, #1073741824	; 0x40000000
 8000484:	f501 3182 	add.w	r1, r1, #66560	; 0x10400
 8000488:	590b      	ldr	r3, [r1, r4]
 800048a:	4318      	orrs	r0, r3
 800048c:	5108      	str	r0, [r1, r4]
 800048e:	bd30      	pop	{r4, r5, pc}

08000490 <_ZN9SpeedRampIfED1Ev>:
 8000490:	4770      	bx	lr

08000492 <_ZN5ArrayIiLj8EED1Ev>:
 8000492:	4770      	bx	lr

08000494 <_ZN9SpeedRampIfED0Ev>:
 8000494:	b510      	push	{r4, lr}
 8000496:	210c      	movs	r1, #12
 8000498:	4604      	mov	r4, r0
 800049a:	f000 ffd1 	bl	8001440 <_ZdlPvj>
 800049e:	4620      	mov	r0, r4
 80004a0:	bd10      	pop	{r4, pc}

080004a2 <_ZN5ArrayIiLj8EED0Ev>:
 80004a2:	b510      	push	{r4, lr}
 80004a4:	2124      	movs	r1, #36	; 0x24
 80004a6:	4604      	mov	r4, r0
 80004a8:	f000 ffca 	bl	8001440 <_ZdlPvj>
 80004ac:	4620      	mov	r0, r4
 80004ae:	bd10      	pop	{r4, pc}

080004b0 <_ZN5RobotC1Ev>:
 80004b0:	e92d 4ff0 	stmdb	sp!, {r4, r5, r6, r7, r8, r9, sl, fp, lr}
 80004b4:	4607      	mov	r7, r0
 80004b6:	4b38      	ldr	r3, [pc, #224]	; (8000598 <_ZN5RobotC1Ev+0xe8>)
 80004b8:	f847 3b04 	str.w	r3, [r7], #4
 80004bc:	b08d      	sub	sp, #52	; 0x34
 80004be:	4604      	mov	r4, r0
 80004c0:	2600      	movs	r6, #0
 80004c2:	f04f 537e 	mov.w	r3, #1065353216	; 0x3f800000
 80004c6:	4632      	mov	r2, r6
 80004c8:	4631      	mov	r1, r6
 80004ca:	9300      	str	r3, [sp, #0]
 80004cc:	f104 0b30 	add.w	fp, r4, #48	; 0x30
 80004d0:	4633      	mov	r3, r6
 80004d2:	4638      	mov	r0, r7
 80004d4:	f001 f840 	bl	8001558 <_ZN3PIDC1Effff>
 80004d8:	f104 0ae0 	add.w	sl, r4, #224	; 0xe0
 80004dc:	4658      	mov	r0, fp
 80004de:	f003 fb27 	bl	8003b30 <_ZN11LineNetworkC1Ev>
 80004e2:	4650      	mov	r0, sl
 80004e4:	f003 fa72 	bl	80039cc <_ZN13LinePredictorC1Ev>
 80004e8:	f504 7098 	add.w	r0, r4, #304	; 0x130
 80004ec:	f003 f97c 	bl	80037e8 <_ZN10LineSearchC1Ev>
 80004f0:	f504 70c8 	add.w	r0, r4, #400	; 0x190
 80004f4:	f003 fe86 	bl	8004204 <_ZN10BrickAvoidC1Ev>
 80004f8:	f504 79fa 	add.w	r9, r4, #500	; 0x1f4
 80004fc:	4b27      	ldr	r3, [pc, #156]	; (800059c <_ZN5RobotC1Ev+0xec>)
 80004fe:	f8c4 31e8 	str.w	r3, [r4, #488]	; 0x1e8
 8000502:	f504 780b 	add.w	r8, r4, #556	; 0x22c
 8000506:	f8c4 61ec 	str.w	r6, [r4, #492]	; 0x1ec
 800050a:	f8c4 61f0 	str.w	r6, [r4, #496]	; 0x1f0
 800050e:	4648      	mov	r0, r9
 8000510:	f001 f8a8 	bl	8001664 <_ZN14BrickDetectionC1Ev>
 8000514:	4640      	mov	r0, r8
 8000516:	f001 f90f 	bl	8001738 <_ZN11LineMappingC1Ev>
 800051a:	f641 338c 	movw	r3, #7052	; 0x1b8c
 800051e:	2500      	movs	r5, #0
 8000520:	54e5      	strb	r5, [r4, r3]
 8000522:	f641 338d 	movw	r3, #7053	; 0x1b8d
 8000526:	4632      	mov	r2, r6
 8000528:	54e5      	strb	r5, [r4, r3]
 800052a:	4b1d      	ldr	r3, [pc, #116]	; (80005a0 <_ZN5RobotC1Ev+0xf0>)
 800052c:	9300      	str	r3, [sp, #0]
 800052e:	4638      	mov	r0, r7
 8000530:	4b1c      	ldr	r3, [pc, #112]	; (80005a4 <_ZN5RobotC1Ev+0xf4>)
 8000532:	491d      	ldr	r1, [pc, #116]	; (80005a8 <_ZN5RobotC1Ev+0xf8>)
 8000534:	f000 fff8 	bl	8001528 <_ZN3PID4initEffff>
 8000538:	4b1c      	ldr	r3, [pc, #112]	; (80005ac <_ZN5RobotC1Ev+0xfc>)
 800053a:	f8c4 31f0 	str.w	r3, [r4, #496]	; 0x1f0
 800053e:	4659      	mov	r1, fp
 8000540:	4650      	mov	r0, sl
 8000542:	f8c4 61ec 	str.w	r6, [r4, #492]	; 0x1ec
 8000546:	f003 fa55 	bl	80039f4 <_ZN13LinePredictor4initER13NeuralNetwork>
 800054a:	4b19      	ldr	r3, [pc, #100]	; (80005b0 <_ZN5RobotC1Ev+0x100>)
 800054c:	9303      	str	r3, [sp, #12]
 800054e:	2301      	movs	r3, #1
 8000550:	9304      	str	r3, [sp, #16]
 8000552:	22c8      	movs	r2, #200	; 0xc8
 8000554:	f04f 33ff 	mov.w	r3, #4294967295	; 0xffffffff
 8000558:	a903      	add	r1, sp, #12
 800055a:	4648      	mov	r0, r9
 800055c:	9305      	str	r3, [sp, #20]
 800055e:	9507      	str	r5, [sp, #28]
 8000560:	9508      	str	r5, [sp, #32]
 8000562:	9509      	str	r5, [sp, #36]	; 0x24
 8000564:	950a      	str	r5, [sp, #40]	; 0x28
 8000566:	950b      	str	r5, [sp, #44]	; 0x2c
 8000568:	f001 f894 	bl	8001694 <_ZN14BrickDetection4initER5ArrayIiLj8EEi>
 800056c:	f504 53dc 	add.w	r3, r4, #7040	; 0x1b80
 8000570:	4640      	mov	r0, r8
 8000572:	601d      	str	r5, [r3, #0]
 8000574:	f641 3388 	movw	r3, #7048	; 0x1b88
 8000578:	50e5      	str	r5, [r4, r3]
 800057a:	f001 f941 	bl	8001800 <_ZN11LineMapping4initEv>
 800057e:	f641 3384 	movw	r3, #7044	; 0x1b84
 8000582:	f44f 62fa 	mov.w	r2, #2000	; 0x7d0
 8000586:	50e2      	str	r2, [r4, r3]
 8000588:	f641 338e 	movw	r3, #7054	; 0x1b8e
 800058c:	4620      	mov	r0, r4
 800058e:	54e5      	strb	r5, [r4, r3]
 8000590:	b00d      	add	sp, #52	; 0x34
 8000592:	e8bd 8ff0 	ldmia.w	sp!, {r4, r5, r6, r7, r8, r9, sl, fp, pc}
 8000596:	bf00      	nop
 8000598:	08004434 	stmdaeq	r0, {r2, r4, r5, sl, lr}
 800059c:	08004424 	stmdaeq	r0, {r2, r5, sl, lr}
 80005a0:	41200000 			; <UNDEFINED> instruction: 0x41200000
 80005a4:	3f99999a 	svccc	0x0099999a
 80005a8:	3e99999a 			; <UNDEFINED> instruction: 0x3e99999a
 80005ac:	3b83126f 	blcc	60c4f70 <__text_size__+0x60c0580>
 80005b0:	08004414 	stmdaeq	r0, {r2, r4, sl, lr}

080005b4 <_ZN5Robot14line_followingEv>:
 80005b4:	b570      	push	{r4, r5, r6, lr}
 80005b6:	4604      	mov	r4, r0
 80005b8:	ed2d 8b04 	vpush	{d8-d9}
 80005bc:	4861      	ldr	r0, [pc, #388]	; (8000744 <_ZN5Robot14line_followingEv+0x190>)
 80005be:	f002 f8af 	bl	8002720 <_ZN13EncoderSensor12get_distanceEv>
 80005c2:	230a      	movs	r3, #10
 80005c4:	4602      	mov	r2, r0
 80005c6:	4960      	ldr	r1, [pc, #384]	; (8000748 <_ZN5Robot14line_followingEv+0x194>)
 80005c8:	f104 00e0 	add.w	r0, r4, #224	; 0xe0
 80005cc:	f003 fa22 	bl	8003a14 <_ZN13LinePredictor7processER5ArrayIiLj8EEli>
 80005d0:	f8d4 3128 	ldr.w	r3, [r4, #296]	; 0x128
 80005d4:	2b02      	cmp	r3, #2
 80005d6:	f000 80a7 	beq.w	8000728 <_ZN5Robot14line_followingEv+0x174>
 80005da:	2b03      	cmp	r3, #3
 80005dc:	d002      	beq.n	80005e4 <_ZN5Robot14line_followingEv+0x30>
 80005de:	2b01      	cmp	r3, #1
 80005e0:	f040 809f 	bne.w	8000722 <_ZN5Robot14line_followingEv+0x16e>
 80005e4:	ed9f 8a59 	vldr	s16, [pc, #356]	; 800074c <_ZN5Robot14line_followingEv+0x198>
 80005e8:	ed9f 9a59 	vldr	s18, [pc, #356]	; 8000750 <_ZN5Robot14line_followingEv+0x19c>
 80005ec:	f641 358d 	movw	r5, #7053	; 0x1b8d
 80005f0:	5d63      	ldrb	r3, [r4, r5]
 80005f2:	b33b      	cbz	r3, 8000644 <_ZN5Robot14line_followingEv+0x90>
 80005f4:	f641 3384 	movw	r3, #7044	; 0x1b84
 80005f8:	4852      	ldr	r0, [pc, #328]	; (8000744 <_ZN5Robot14line_followingEv+0x190>)
 80005fa:	58e6      	ldr	r6, [r4, r3]
 80005fc:	f002 f890 	bl	8002720 <_ZN13EncoderSensor12get_distanceEv>
 8000600:	4286      	cmp	r6, r0
 8000602:	f280 8094 	bge.w	800072e <_ZN5Robot14line_followingEv+0x17a>
 8000606:	484f      	ldr	r0, [pc, #316]	; (8000744 <_ZN5Robot14line_followingEv+0x190>)
 8000608:	f002 f88a 	bl	8002720 <_ZN13EncoderSensor12get_distanceEv>
 800060c:	f504 750b 	add.w	r5, r4, #556	; 0x22c
 8000610:	4601      	mov	r1, r0
 8000612:	4628      	mov	r0, r5
 8000614:	f001 f8cf 	bl	80017b6 <_ZN11LineMapping11get_closestEi>
 8000618:	4606      	mov	r6, r0
 800061a:	484a      	ldr	r0, [pc, #296]	; (8000744 <_ZN5Robot14line_followingEv+0x190>)
 800061c:	f002 f880 	bl	8002720 <_ZN13EncoderSensor12get_distanceEv>
 8000620:	f100 0164 	add.w	r1, r0, #100	; 0x64
 8000624:	4628      	mov	r0, r5
 8000626:	f001 f8c6 	bl	80017b6 <_ZN11LineMapping11get_closestEi>
 800062a:	f036 0304 	bics.w	r3, r6, #4
 800062e:	f000 8086 	beq.w	800073e <_ZN5Robot14line_followingEv+0x18a>
 8000632:	eddf 7a48 	vldr	s15, [pc, #288]	; 8000754 <_ZN5Robot14line_followingEv+0x1a0>
 8000636:	ed9f 8a48 	vldr	s16, [pc, #288]	; 8000758 <_ZN5Robot14line_followingEv+0x1a4>
 800063a:	f030 0304 	bics.w	r3, r0, #4
 800063e:	bf18      	it	ne
 8000640:	eeb0 8a67 	vmovne.f32	s16, s15
 8000644:	4b45      	ldr	r3, [pc, #276]	; (800075c <_ZN5Robot14line_followingEv+0x1a8>)
 8000646:	eddf 7a44 	vldr	s15, [pc, #272]	; 8000758 <_ZN5Robot14line_followingEv+0x1a4>
 800064a:	f893 20c1 	ldrb.w	r2, [r3, #193]	; 0xc1
 800064e:	ed94 7a7b 	vldr	s14, [r4, #492]	; 0x1ec
 8000652:	2a03      	cmp	r2, #3
 8000654:	4a42      	ldr	r2, [pc, #264]	; (8000760 <_ZN5Robot14line_followingEv+0x1ac>)
 8000656:	7c12      	ldrb	r2, [r2, #16]
 8000658:	bf08      	it	eq
 800065a:	eeb0 8a67 	vmoveq.f32	s16, s15
 800065e:	2a00      	cmp	r2, #0
 8000660:	bf18      	it	ne
 8000662:	eeb0 8a67 	vmovne.f32	s16, s15
 8000666:	eeb4 8ac7 	vcmpe.f32	s16, s14
 800066a:	eef1 fa10 	vmrs	APSR_nzcv, fpscr
 800066e:	bfca      	itet	gt
 8000670:	edd4 7a7c 	vldrgt	s15, [r4, #496]	; 0x1f0
 8000674:	ed84 8a7b 	vstrle	s16, [r4, #492]	; 0x1ec
 8000678:	ee77 7a87 	vaddgt.f32	s15, s15, s14
 800067c:	ed93 8a34 	vldr	s16, [r3, #208]	; 0xd0
 8000680:	bfc8      	it	gt
 8000682:	edc4 7a7b 	vstrgt	s15, [r4, #492]	; 0x1ec
 8000686:	ee79 7a48 	vsub.f32	s15, s18, s16
 800068a:	ee18 2a10 	vmov	r2, s16
 800068e:	ee17 1a90 	vmov	r1, s15
 8000692:	1d20      	adds	r0, r4, #4
 8000694:	edd4 8a7b 	vldr	s17, [r4, #492]	; 0x1ec
 8000698:	f000 ff6a 	bl	8001570 <_ZN3PID7processEff>
 800069c:	ee07 0a90 	vmov	s15, r0
 80006a0:	ee38 9ae7 	vsub.f32	s18, s17, s15
 80006a4:	ee77 7aa8 	vadd.f32	s15, s15, s17
 80006a8:	482e      	ldr	r0, [pc, #184]	; (8000764 <_ZN5Robot14line_followingEv+0x1b0>)
 80006aa:	ee17 1a90 	vmov	r1, s15
 80006ae:	f002 f957 	bl	8002960 <_ZN13MotorControll14set_left_speedEf>
 80006b2:	ee19 1a10 	vmov	r1, s18
 80006b6:	482b      	ldr	r0, [pc, #172]	; (8000764 <_ZN5Robot14line_followingEv+0x1b0>)
 80006b8:	f002 f954 	bl	8002964 <_ZN13MotorControll15set_right_speedEf>
 80006bc:	ee18 1a10 	vmov	r1, s16
 80006c0:	f504 7098 	add.w	r0, r4, #304	; 0x130
 80006c4:	f003 f8a6 	bl	8003814 <_ZN10LineSearch22set_last_line_positionEf>
 80006c8:	f641 338c 	movw	r3, #7052	; 0x1b8c
 80006cc:	5ce3      	ldrb	r3, [r4, r3]
 80006ce:	b32b      	cbz	r3, 800071c <_ZN5Robot14line_followingEv+0x168>
 80006d0:	481c      	ldr	r0, [pc, #112]	; (8000744 <_ZN5Robot14line_followingEv+0x190>)
 80006d2:	f504 55dc 	add.w	r5, r4, #7040	; 0x1b80
 80006d6:	f002 f823 	bl	8002720 <_ZN13EncoderSensor12get_distanceEv>
 80006da:	682b      	ldr	r3, [r5, #0]
 80006dc:	4298      	cmp	r0, r3
 80006de:	db1d      	blt.n	800071c <_ZN5Robot14line_followingEv+0x168>
 80006e0:	eddf 7a1c 	vldr	s15, [pc, #112]	; 8000754 <_ZN5Robot14line_followingEv+0x1a0>
 80006e4:	ee38 8a27 	vadd.f32	s16, s16, s15
 80006e8:	eddf 7a1f 	vldr	s15, [pc, #124]	; 8000768 <_ZN5Robot14line_followingEv+0x1b4>
 80006ec:	ee28 8a27 	vmul.f32	s16, s16, s15
 80006f0:	f641 3388 	movw	r3, #7048	; 0x1b88
 80006f4:	eebd 8ac8 	vcvt.s32.f32	s16, s16
 80006f8:	58e1      	ldr	r1, [r4, r3]
 80006fa:	50e0      	str	r0, [r4, r3]
 80006fc:	ee18 3a10 	vmov	r3, s16
 8000700:	1a41      	subs	r1, r0, r1
 8000702:	f383 0208 	usat	r2, #8, r3
 8000706:	f381 0108 	usat	r1, #8, r1
 800070a:	b2d2      	uxtb	r2, r2
 800070c:	b2c9      	uxtb	r1, r1
 800070e:	f504 700b 	add.w	r0, r4, #556	; 0x22c
 8000712:	f001 f845 	bl	80017a0 <_ZN11LineMapping3addEhh>
 8000716:	682b      	ldr	r3, [r5, #0]
 8000718:	3364      	adds	r3, #100	; 0x64
 800071a:	602b      	str	r3, [r5, #0]
 800071c:	ecbd 8b04 	vpop	{d8-d9}
 8000720:	bd70      	pop	{r4, r5, r6, pc}
 8000722:	ed9f 8a0d 	vldr	s16, [pc, #52]	; 8000758 <_ZN5Robot14line_followingEv+0x1a4>
 8000726:	e75f      	b.n	80005e8 <_ZN5Robot14line_followingEv+0x34>
 8000728:	ed9f 8a0a 	vldr	s16, [pc, #40]	; 8000754 <_ZN5Robot14line_followingEv+0x1a0>
 800072c:	e75c      	b.n	80005e8 <_ZN5Robot14line_followingEv+0x34>
 800072e:	2300      	movs	r3, #0
 8000730:	5563      	strb	r3, [r4, r5]
 8000732:	4b0e      	ldr	r3, [pc, #56]	; (800076c <_ZN5Robot14line_followingEv+0x1b8>)
 8000734:	ed84 9a7b 	vstr	s18, [r4, #492]	; 0x1ec
 8000738:	f8c4 31f0 	str.w	r3, [r4, #496]	; 0x1f0
 800073c:	e782      	b.n	8000644 <_ZN5Robot14line_followingEv+0x90>
 800073e:	ed9f 8a06 	vldr	s16, [pc, #24]	; 8000758 <_ZN5Robot14line_followingEv+0x1a4>
 8000742:	e77f      	b.n	8000644 <_ZN5Robot14line_followingEv+0x90>
 8000744:	20000240 	andcs	r0, r0, r0, asr #4
 8000748:	200002d4 	ldrdcs	r0, [r0], -r4
 800074c:	3f333333 	svccc	0x00333333
 8000750:	00000000 	andeq	r0, r0, r0
 8000754:	3f800000 	svccc	0x00800000
 8000758:	3ecccccd 	cdpcc	12, 12, cr12, cr12, cr13, {6}
 800075c:	200002c4 	andcs	r0, r0, r4, asr #5
 8000760:	20000158 	andcs	r0, r0, r8, asr r1
 8000764:	2000039c 	mulcs	r0, ip, r3
 8000768:	42c80000 	sbcmi	r0, r8, #0
 800076c:	3b83126f 	blcc	60c5130 <__text_size__+0x60c0740>

08000770 <_ZN5Robot14allign_to_lineEj>:
 8000770:	b5f8      	push	{r3, r4, r5, r6, r7, lr}
 8000772:	4f16      	ldr	r7, [pc, #88]	; (80007cc <_ZN5Robot14allign_to_lineEj+0x5c>)
 8000774:	ed2d 8b02 	vpush	{d8}
 8000778:	eddf 8a15 	vldr	s17, [pc, #84]	; 80007d0 <_ZN5Robot14allign_to_lineEj+0x60>
 800077c:	4605      	mov	r5, r0
 800077e:	460c      	mov	r4, r1
 8000780:	b30c      	cbz	r4, 80007c6 <_ZN5Robot14allign_to_lineEj+0x56>
 8000782:	4638      	mov	r0, r7
 8000784:	f001 f948 	bl	8001a18 <_ZN13LineSensorNew5readyEv>
 8000788:	2800      	cmp	r0, #0
 800078a:	d0f9      	beq.n	8000780 <_ZN5Robot14allign_to_lineEj+0x10>
 800078c:	ed97 8a32 	vldr	s16, [r7, #200]	; 0xc8
 8000790:	ee78 7ac8 	vsub.f32	s15, s17, s16
 8000794:	ee18 2a10 	vmov	r2, s16
 8000798:	ee17 1a90 	vmov	r1, s15
 800079c:	1d28      	adds	r0, r5, #4
 800079e:	f000 fee7 	bl	8001570 <_ZN3PID7processEff>
 80007a2:	4601      	mov	r1, r0
 80007a4:	4606      	mov	r6, r0
 80007a6:	480b      	ldr	r0, [pc, #44]	; (80007d4 <_ZN5Robot14allign_to_lineEj+0x64>)
 80007a8:	f002 f8da 	bl	8002960 <_ZN13MotorControll14set_left_speedEf>
 80007ac:	f086 4100 	eor.w	r1, r6, #2147483648	; 0x80000000
 80007b0:	4808      	ldr	r0, [pc, #32]	; (80007d4 <_ZN5Robot14allign_to_lineEj+0x64>)
 80007b2:	f002 f8d7 	bl	8002964 <_ZN13MotorControll15set_right_speedEf>
 80007b6:	ee18 1a10 	vmov	r1, s16
 80007ba:	f505 7098 	add.w	r0, r5, #304	; 0x130
 80007be:	f003 f829 	bl	8003814 <_ZN10LineSearch22set_last_line_positionEf>
 80007c2:	3c01      	subs	r4, #1
 80007c4:	e7dc      	b.n	8000780 <_ZN5Robot14allign_to_lineEj+0x10>
 80007c6:	ecbd 8b02 	vpop	{d8}
 80007ca:	bdf8      	pop	{r3, r4, r5, r6, r7, pc}
 80007cc:	200002c4 	andcs	r0, r0, r4, asr #5
 80007d0:	00000000 	andeq	r0, r0, r0
 80007d4:	2000039c 	mulcs	r0, ip, r3

080007d8 <_ZN5Robot9spot_moveEv>:
 80007d8:	b510      	push	{r4, lr}
 80007da:	2100      	movs	r1, #0
 80007dc:	4811      	ldr	r0, [pc, #68]	; (8000824 <_ZN5Robot9spot_moveEv+0x4c>)
 80007de:	4c12      	ldr	r4, [pc, #72]	; (8000828 <_ZN5Robot9spot_moveEv+0x50>)
 80007e0:	f002 f8be 	bl	8002960 <_ZN13MotorControll14set_left_speedEf>
 80007e4:	2100      	movs	r1, #0
 80007e6:	480f      	ldr	r0, [pc, #60]	; (8000824 <_ZN5Robot9spot_moveEv+0x4c>)
 80007e8:	f002 f8bc 	bl	8002964 <_ZN13MotorControll15set_right_speedEf>
 80007ec:	480e      	ldr	r0, [pc, #56]	; (8000828 <_ZN5Robot9spot_moveEv+0x50>)
 80007ee:	f001 f913 	bl	8001a18 <_ZN13LineSensorNew5readyEv>
 80007f2:	2800      	cmp	r0, #0
 80007f4:	d0fa      	beq.n	80007ec <_ZN5Robot9spot_moveEv+0x14>
 80007f6:	2100      	movs	r1, #0
 80007f8:	480a      	ldr	r0, [pc, #40]	; (8000824 <_ZN5Robot9spot_moveEv+0x4c>)
 80007fa:	f002 f8b3 	bl	8002964 <_ZN13MotorControll15set_right_speedEf>
 80007fe:	490b      	ldr	r1, [pc, #44]	; (800082c <_ZN5Robot9spot_moveEv+0x54>)
 8000800:	4808      	ldr	r0, [pc, #32]	; (8000824 <_ZN5Robot9spot_moveEv+0x4c>)
 8000802:	f002 f8ad 	bl	8002960 <_ZN13MotorControll14set_left_speedEf>
 8000806:	f8d4 30c4 	ldr.w	r3, [r4, #196]	; 0xc4
 800080a:	2b03      	cmp	r3, #3
 800080c:	d8ee      	bhi.n	80007ec <_ZN5Robot9spot_moveEv+0x14>
 800080e:	2100      	movs	r1, #0
 8000810:	4804      	ldr	r0, [pc, #16]	; (8000824 <_ZN5Robot9spot_moveEv+0x4c>)
 8000812:	f002 f8a5 	bl	8002960 <_ZN13MotorControll14set_left_speedEf>
 8000816:	2100      	movs	r1, #0
 8000818:	4802      	ldr	r0, [pc, #8]	; (8000824 <_ZN5Robot9spot_moveEv+0x4c>)
 800081a:	e8bd 4010 	ldmia.w	sp!, {r4, lr}
 800081e:	f002 b8a1 	b.w	8002964 <_ZN13MotorControll15set_right_speedEf>
 8000822:	bf00      	nop
 8000824:	2000039c 	mulcs	r0, ip, r3
 8000828:	200002c4 	andcs	r0, r0, r4, asr #5
 800082c:	3ecccccd 	cdpcc	12, 12, cr12, cr12, cr13, {6}

08000830 <_ZN5Robot4mainEv>:
 8000830:	b580      	push	{r7, lr}
 8000832:	f8df 80a4 	ldr.w	r8, [pc, #164]	; 80008d8 <_ZN5Robot4mainEv+0xa8>
 8000836:	4d25      	ldr	r5, [pc, #148]	; (80008cc <_ZN5Robot4mainEv+0x9c>)
 8000838:	4604      	mov	r4, r0
 800083a:	2600      	movs	r6, #0
 800083c:	4640      	mov	r0, r8
 800083e:	f002 fb19 	bl	8002e74 <_ZN14DistanceSensor5readyEv>
 8000842:	b130      	cbz	r0, 8000852 <_ZN5Robot4mainEv+0x22>
 8000844:	f504 77fa 	add.w	r7, r4, #500	; 0x1f4
 8000848:	4921      	ldr	r1, [pc, #132]	; (80008d0 <_ZN5Robot4mainEv+0xa0>)
 800084a:	4638      	mov	r0, r7
 800084c:	f000 ff32 	bl	80016b4 <_ZN14BrickDetection7processER15sDistanceSensor>
 8000850:	bb70      	cbnz	r0, 80008b0 <_ZN5Robot4mainEv+0x80>
 8000852:	4628      	mov	r0, r5
 8000854:	f001 f8e0 	bl	8001a18 <_ZN13LineSensorNew5readyEv>
 8000858:	2800      	cmp	r0, #0
 800085a:	d0ef      	beq.n	800083c <_ZN5Robot4mainEv+0xc>
 800085c:	f895 30c0 	ldrb.w	r3, [r5, #192]	; 0xc0
 8000860:	b1eb      	cbz	r3, 800089e <_ZN5Robot4mainEv+0x6e>
 8000862:	f895 30c1 	ldrb.w	r3, [r5, #193]	; 0xc1
 8000866:	2b03      	cmp	r3, #3
 8000868:	4620      	mov	r0, r4
 800086a:	d115      	bne.n	8000898 <_ZN5Robot4mainEv+0x68>
 800086c:	f7ff ffb4 	bl	80007d8 <_ZN5Robot9spot_moveEv>
 8000870:	f8c4 61ec 	str.w	r6, [r4, #492]	; 0x1ec
 8000874:	f8d5 10c8 	ldr.w	r1, [r5, #200]	; 0xc8
 8000878:	1d20      	adds	r0, r4, #4
 800087a:	f000 feb9 	bl	80015f0 <_ZN3PID5resetEf>
 800087e:	e7dd      	b.n	800083c <_ZN5Robot4mainEv+0xc>
 8000880:	2101      	movs	r1, #1
 8000882:	f003 fd07 	bl	8004294 <_ZN10BrickAvoid5avoidEi>
 8000886:	2100      	movs	r1, #0
 8000888:	4812      	ldr	r0, [pc, #72]	; (80008d4 <_ZN5Robot4mainEv+0xa4>)
 800088a:	f002 f869 	bl	8002960 <_ZN13MotorControll14set_left_speedEf>
 800088e:	2100      	movs	r1, #0
 8000890:	4810      	ldr	r0, [pc, #64]	; (80008d4 <_ZN5Robot4mainEv+0xa4>)
 8000892:	f002 f867 	bl	8002964 <_ZN13MotorControll15set_right_speedEf>
 8000896:	e7eb      	b.n	8000870 <_ZN5Robot4mainEv+0x40>
 8000898:	f7ff fe8c 	bl	80005b4 <_ZN5Robot14line_followingEv>
 800089c:	e7ce      	b.n	800083c <_ZN5Robot4mainEv+0xc>
 800089e:	f504 7798 	add.w	r7, r4, #304	; 0x130
 80008a2:	4638      	mov	r0, r7
 80008a4:	f002 ffb8 	bl	8003818 <_ZN10LineSearch17keep_speed_enableEv>
 80008a8:	4638      	mov	r0, r7
 80008aa:	f002 ffed 	bl	8003888 <_ZN10LineSearch4mainEv>
 80008ae:	e7ea      	b.n	8000886 <_ZN5Robot4mainEv+0x56>
 80008b0:	2132      	movs	r1, #50	; 0x32
 80008b2:	4620      	mov	r0, r4
 80008b4:	f7ff ff5c 	bl	8000770 <_ZN5Robot14allign_to_lineEj>
 80008b8:	4638      	mov	r0, r7
 80008ba:	f000 ff21 	bl	8001700 <_ZN14BrickDetection3getEv>
 80008be:	2800      	cmp	r0, #0
 80008c0:	f504 70c8 	add.w	r0, r4, #400	; 0x190
 80008c4:	dcdc      	bgt.n	8000880 <_ZN5Robot4mainEv+0x50>
 80008c6:	f04f 31ff 	mov.w	r1, #4294967295	; 0xffffffff
 80008ca:	e7da      	b.n	8000882 <_ZN5Robot4mainEv+0x52>
 80008cc:	200002c4 	andcs	r0, r0, r4, asr #5
 80008d0:	2000015c 	andcs	r0, r0, ip, asr r1
 80008d4:	2000039c 	mulcs	r0, ip, r3
 80008d8:	20000158 	andcs	r0, r0, r8, asr r1

080008dc <_ZN5Robot14mapping_enableEv>:
 80008dc:	f641 338c 	movw	r3, #7052	; 0x1b8c
 80008e0:	2201      	movs	r2, #1
 80008e2:	54c2      	strb	r2, [r0, r3]
 80008e4:	4770      	bx	lr
 80008e6:	0000      	movs	r0, r0

080008e8 <_ZN5Robot15fast_run_enableEv>:
 80008e8:	f641 338d 	movw	r3, #7053	; 0x1b8d
 80008ec:	2201      	movs	r2, #1
 80008ee:	54c2      	strb	r2, [r0, r3]
 80008f0:	2300      	movs	r3, #0
 80008f2:	f8c0 31ec 	str.w	r3, [r0, #492]	; 0x1ec
 80008f6:	4b02      	ldr	r3, [pc, #8]	; (8000900 <_ZN5Robot15fast_run_enableEv+0x18>)
 80008f8:	f8c0 31f0 	str.w	r3, [r0, #496]	; 0x1f0
 80008fc:	4770      	bx	lr
 80008fe:	bf00      	nop
 8000900:	3ba3d70a 	blcc	68f6530 <__text_size__+0x68f1b40>

08000904 <_ZN5RobotD1Ev>:
 8000904:	4b10      	ldr	r3, [pc, #64]	; (8000948 <_ZN5RobotD1Ev+0x44>)
 8000906:	b510      	push	{r4, lr}
 8000908:	4604      	mov	r4, r0
 800090a:	6003      	str	r3, [r0, #0]
 800090c:	f500 700b 	add.w	r0, r0, #556	; 0x22c
 8000910:	f000 fef8 	bl	8001704 <_ZN11LineMappingD1Ev>
 8000914:	f504 70fa 	add.w	r0, r4, #500	; 0x1f4
 8000918:	f000 fe9c 	bl	8001654 <_ZN14BrickDetectionD1Ev>
 800091c:	f504 70c8 	add.w	r0, r4, #400	; 0x190
 8000920:	f003 fca2 	bl	8004268 <_ZN10BrickAvoidD1Ev>
 8000924:	f504 7098 	add.w	r0, r4, #304	; 0x130
 8000928:	f003 f832 	bl	8003990 <_ZN10LineSearchD1Ev>
 800092c:	f104 00e0 	add.w	r0, r4, #224	; 0xe0
 8000930:	f003 f844 	bl	80039bc <_ZN13LinePredictorD1Ev>
 8000934:	f104 0030 	add.w	r0, r4, #48	; 0x30
 8000938:	f003 f8d4 	bl	8003ae4 <_ZN11LineNetworkD1Ev>
 800093c:	1d20      	adds	r0, r4, #4
 800093e:	f000 fdeb 	bl	8001518 <_ZN3PIDD1Ev>
 8000942:	4620      	mov	r0, r4
 8000944:	bd10      	pop	{r4, pc}
 8000946:	bf00      	nop
 8000948:	08004434 	stmdaeq	r0, {r2, r4, r5, sl, lr}

0800094c <_ZN5RobotD0Ev>:
 800094c:	b510      	push	{r4, lr}
 800094e:	4604      	mov	r4, r0
 8000950:	f7ff ffd8 	bl	8000904 <_ZN5RobotD1Ev>
 8000954:	4620      	mov	r0, r4
 8000956:	f641 3190 	movw	r1, #7056	; 0x1b90
 800095a:	f000 fd71 	bl	8001440 <_ZdlPvj>
 800095e:	4620      	mov	r0, r4
 8000960:	bd10      	pop	{r4, pc}

08000962 <_ZN13I2C_Interface5startEv>:
 8000962:	4770      	bx	lr

08000964 <_ZN13I2C_Interface4stopEv>:
 8000964:	4770      	bx	lr

08000966 <_ZN13I2C_Interface4initEv>:
 8000966:	2314      	movs	r3, #20
 8000968:	6043      	str	r3, [r0, #4]
 800096a:	4770      	bx	lr

0800096c <_ZN13I2C_Interface5writeEh>:
 800096c:	2000      	movs	r0, #0
 800096e:	4770      	bx	lr

08000970 <_ZN13I2C_Interface4readEh>:
 8000970:	2000      	movs	r0, #0
 8000972:	4770      	bx	lr

08000974 <_ZN13I2C_InterfaceD1Ev>:
 8000974:	4770      	bx	lr

08000976 <_ZN13I2C_InterfaceD0Ev>:
 8000976:	b510      	push	{r4, lr}
 8000978:	2108      	movs	r1, #8
 800097a:	4604      	mov	r4, r0
 800097c:	f000 fd60 	bl	8001440 <_ZdlPvj>
 8000980:	4620      	mov	r0, r4
 8000982:	bd10      	pop	{r4, pc}

08000984 <_ZN13I2C_InterfaceC1Ev>:
 8000984:	4b01      	ldr	r3, [pc, #4]	; (800098c <_ZN13I2C_InterfaceC1Ev+0x8>)
 8000986:	6003      	str	r3, [r0, #0]
 8000988:	4770      	bx	lr
 800098a:	bf00      	nop
 800098c:	08004444 	stmdaeq	r0, {r2, r6, sl, lr}

08000990 <_ZN13I2C_Interface9write_regEhhh>:
 8000990:	e92d 41f0 	stmdb	sp!, {r4, r5, r6, r7, r8, lr}
 8000994:	461d      	mov	r5, r3
 8000996:	6803      	ldr	r3, [r0, #0]
 8000998:	4604      	mov	r4, r0
 800099a:	689b      	ldr	r3, [r3, #8]
 800099c:	4616      	mov	r6, r2
 800099e:	460f      	mov	r7, r1
 80009a0:	4798      	blx	r3
 80009a2:	6823      	ldr	r3, [r4, #0]
 80009a4:	4639      	mov	r1, r7
 80009a6:	695b      	ldr	r3, [r3, #20]
 80009a8:	4620      	mov	r0, r4
 80009aa:	4798      	blx	r3
 80009ac:	6823      	ldr	r3, [r4, #0]
 80009ae:	4631      	mov	r1, r6
 80009b0:	695b      	ldr	r3, [r3, #20]
 80009b2:	4620      	mov	r0, r4
 80009b4:	4798      	blx	r3
 80009b6:	6823      	ldr	r3, [r4, #0]
 80009b8:	4629      	mov	r1, r5
 80009ba:	695a      	ldr	r2, [r3, #20]
 80009bc:	4620      	mov	r0, r4
 80009be:	4790      	blx	r2
 80009c0:	6823      	ldr	r3, [r4, #0]
 80009c2:	4620      	mov	r0, r4
 80009c4:	68db      	ldr	r3, [r3, #12]
 80009c6:	e8bd 41f0 	ldmia.w	sp!, {r4, r5, r6, r7, r8, lr}
 80009ca:	4718      	bx	r3

080009cc <_ZN13I2C_Interface8read_regEhh>:
 80009cc:	6803      	ldr	r3, [r0, #0]
 80009ce:	b570      	push	{r4, r5, r6, lr}
 80009d0:	4604      	mov	r4, r0
 80009d2:	689b      	ldr	r3, [r3, #8]
 80009d4:	4616      	mov	r6, r2
 80009d6:	460d      	mov	r5, r1
 80009d8:	4798      	blx	r3
 80009da:	6823      	ldr	r3, [r4, #0]
 80009dc:	4629      	mov	r1, r5
 80009de:	695b      	ldr	r3, [r3, #20]
 80009e0:	4620      	mov	r0, r4
 80009e2:	4798      	blx	r3
 80009e4:	6823      	ldr	r3, [r4, #0]
 80009e6:	4631      	mov	r1, r6
 80009e8:	695b      	ldr	r3, [r3, #20]
 80009ea:	4620      	mov	r0, r4
 80009ec:	4798      	blx	r3
 80009ee:	6823      	ldr	r3, [r4, #0]
 80009f0:	4620      	mov	r0, r4
 80009f2:	689b      	ldr	r3, [r3, #8]
 80009f4:	4798      	blx	r3
 80009f6:	6823      	ldr	r3, [r4, #0]
 80009f8:	f045 0101 	orr.w	r1, r5, #1
 80009fc:	695b      	ldr	r3, [r3, #20]
 80009fe:	4620      	mov	r0, r4
 8000a00:	4798      	blx	r3
 8000a02:	6823      	ldr	r3, [r4, #0]
 8000a04:	2100      	movs	r1, #0
 8000a06:	699b      	ldr	r3, [r3, #24]
 8000a08:	4620      	mov	r0, r4
 8000a0a:	4798      	blx	r3
 8000a0c:	6823      	ldr	r3, [r4, #0]
 8000a0e:	4605      	mov	r5, r0
 8000a10:	68db      	ldr	r3, [r3, #12]
 8000a12:	4620      	mov	r0, r4
 8000a14:	4798      	blx	r3
 8000a16:	4628      	mov	r0, r5
 8000a18:	bd70      	pop	{r4, r5, r6, pc}

08000a1a <_ZN13I2C_Interface5delayEv>:
 8000a1a:	6842      	ldr	r2, [r0, #4]
 8000a1c:	2300      	movs	r3, #0
 8000a1e:	4293      	cmp	r3, r2
 8000a20:	d002      	beq.n	8000a28 <_ZN13I2C_Interface5delayEv+0xe>
 8000a22:	bf00      	nop
 8000a24:	3301      	adds	r3, #1
 8000a26:	e7fa      	b.n	8000a1e <_ZN13I2C_Interface5delayEv+0x4>
 8000a28:	4770      	bx	lr
 8000a2a:	0000      	movs	r0, r0

08000a2c <_ZN10NetFcLayerD1Ev>:
 8000a2c:	b510      	push	{r4, lr}
 8000a2e:	4b03      	ldr	r3, [pc, #12]	; (8000a3c <_ZN10NetFcLayerD1Ev+0x10>)
 8000a30:	6003      	str	r3, [r0, #0]
 8000a32:	4604      	mov	r4, r0
 8000a34:	f000 fc82 	bl	800133c <_ZN12NetworkLayerD1Ev>
 8000a38:	4620      	mov	r0, r4
 8000a3a:	bd10      	pop	{r4, pc}
 8000a3c:	08004468 	stmdaeq	r0, {r3, r5, r6, sl, lr}

08000a40 <_ZN10NetFcLayerD0Ev>:
 8000a40:	b510      	push	{r4, lr}
 8000a42:	4604      	mov	r4, r0
 8000a44:	f7ff fff2 	bl	8000a2c <_ZN10NetFcLayerD1Ev>
 8000a48:	4620      	mov	r0, r4
 8000a4a:	2140      	movs	r1, #64	; 0x40
 8000a4c:	f000 fcf8 	bl	8001440 <_ZdlPvj>
 8000a50:	4620      	mov	r0, r4
 8000a52:	bd10      	pop	{r4, pc}

08000a54 <_ZN10NetFcLayer7forwardEPaS0_>:
 8000a54:	e92d 4ff8 	stmdb	sp!, {r3, r4, r5, r6, r7, r8, r9, sl, fp, lr}
 8000a58:	4604      	mov	r4, r0
 8000a5a:	460e      	mov	r6, r1
 8000a5c:	4692      	mov	sl, r2
 8000a5e:	460d      	mov	r5, r1
 8000a60:	f04f 0980 	mov.w	r9, #128	; 0x80
 8000a64:	f44f 6880 	mov.w	r8, #1024	; 0x400
 8000a68:	f06f 077e 	mvn.w	r7, #126	; 0x7e
 8000a6c:	6ba3      	ldr	r3, [r4, #56]	; 0x38
 8000a6e:	eba5 0b06 	sub.w	fp, r5, r6
 8000a72:	455b      	cmp	r3, fp
 8000a74:	d91b      	bls.n	8000aae <_ZN10NetFcLayer7forwardEPaS0_+0x5a>
 8000a76:	6be2      	ldr	r2, [r4, #60]	; 0x3c
 8000a78:	6aa0      	ldr	r0, [r4, #40]	; 0x28
 8000a7a:	4651      	mov	r1, sl
 8000a7c:	fb0b 0002 	mla	r0, fp, r2, r0
 8000a80:	f000 fc26 	bl	80012d0 <_Z18network_dot_kernelPaS_j>
 8000a84:	6b23      	ldr	r3, [r4, #48]	; 0x30
 8000a86:	6b62      	ldr	r2, [r4, #52]	; 0x34
 8000a88:	4358      	muls	r0, r3
 8000a8a:	6ae3      	ldr	r3, [r4, #44]	; 0x2c
 8000a8c:	fb90 f0f9 	sdiv	r0, r0, r9
 8000a90:	f913 300b 	ldrsb.w	r3, [r3, fp]
 8000a94:	fb02 0003 	mla	r0, r2, r3, r0
 8000a98:	fb90 f0f8 	sdiv	r0, r0, r8
 8000a9c:	42b8      	cmp	r0, r7
 8000a9e:	bfb8      	it	lt
 8000aa0:	4638      	movlt	r0, r7
 8000aa2:	287f      	cmp	r0, #127	; 0x7f
 8000aa4:	bfa8      	it	ge
 8000aa6:	207f      	movge	r0, #127	; 0x7f
 8000aa8:	f805 0b01 	strb.w	r0, [r5], #1
 8000aac:	e7de      	b.n	8000a6c <_ZN10NetFcLayer7forwardEPaS0_+0x18>
 8000aae:	e8bd 8ff8 	ldmia.w	sp!, {r3, r4, r5, r6, r7, r8, r9, sl, fp, pc}
 8000ab2:	0000      	movs	r0, r0

08000ab4 <_ZN10NetFcLayerC1E14sLayerGeometryS0_S0_PKaS2_ii>:
 8000ab4:	b530      	push	{r4, r5, lr}
 8000ab6:	b085      	sub	sp, #20
 8000ab8:	4604      	mov	r4, r0
 8000aba:	ad01      	add	r5, sp, #4
 8000abc:	e885 000e 	stmia.w	r5, {r1, r2, r3}
 8000ac0:	f000 fc46 	bl	8001350 <_ZN12NetworkLayerC1Ev>
 8000ac4:	4623      	mov	r3, r4
 8000ac6:	4a14      	ldr	r2, [pc, #80]	; (8000b18 <_ZN10NetFcLayerC1E14sLayerGeometryS0_S0_PKaS2_ii+0x64>)
 8000ac8:	f843 2b1c 	str.w	r2, [r3], #28
 8000acc:	e895 0007 	ldmia.w	r5, {r0, r1, r2}
 8000ad0:	e883 0007 	stmia.w	r3, {r0, r1, r2}
 8000ad4:	aa08      	add	r2, sp, #32
 8000ad6:	ca07      	ldmia	r2, {r0, r1, r2}
 8000ad8:	1d23      	adds	r3, r4, #4
 8000ada:	e883 0007 	stmia.w	r3, {r0, r1, r2}
 8000ade:	aa0b      	add	r2, sp, #44	; 0x2c
 8000ae0:	ca07      	ldmia	r2, {r0, r1, r2}
 8000ae2:	f104 0310 	add.w	r3, r4, #16
 8000ae6:	e883 0007 	stmia.w	r3, {r0, r1, r2}
 8000aea:	9b0e      	ldr	r3, [sp, #56]	; 0x38
 8000aec:	62a3      	str	r3, [r4, #40]	; 0x28
 8000aee:	9b0f      	ldr	r3, [sp, #60]	; 0x3c
 8000af0:	62e3      	str	r3, [r4, #44]	; 0x2c
 8000af2:	9b10      	ldr	r3, [sp, #64]	; 0x40
 8000af4:	6323      	str	r3, [r4, #48]	; 0x30
 8000af6:	9b11      	ldr	r3, [sp, #68]	; 0x44
 8000af8:	6363      	str	r3, [r4, #52]	; 0x34
 8000afa:	6862      	ldr	r2, [r4, #4]
 8000afc:	68a3      	ldr	r3, [r4, #8]
 8000afe:	435a      	muls	r2, r3
 8000b00:	68e3      	ldr	r3, [r4, #12]
 8000b02:	4353      	muls	r3, r2
 8000b04:	63e3      	str	r3, [r4, #60]	; 0x3c
 8000b06:	6963      	ldr	r3, [r4, #20]
 8000b08:	4602      	mov	r2, r0
 8000b0a:	435a      	muls	r2, r3
 8000b0c:	69a3      	ldr	r3, [r4, #24]
 8000b0e:	4620      	mov	r0, r4
 8000b10:	4353      	muls	r3, r2
 8000b12:	63a3      	str	r3, [r4, #56]	; 0x38
 8000b14:	b005      	add	sp, #20
 8000b16:	bd30      	pop	{r4, r5, pc}
 8000b18:	08004468 	stmdaeq	r0, {r3, r5, r6, sl, lr}

08000b1c <_ZN12NetReluLayer7forwardEPaS0_>:
 8000b1c:	b570      	push	{r4, r5, r6, lr}
 8000b1e:	3a01      	subs	r2, #1
 8000b20:	460b      	mov	r3, r1
 8000b22:	2500      	movs	r5, #0
 8000b24:	6a86      	ldr	r6, [r0, #40]	; 0x28
 8000b26:	1a5c      	subs	r4, r3, r1
 8000b28:	42a6      	cmp	r6, r4
 8000b2a:	d907      	bls.n	8000b3c <_ZN12NetReluLayer7forwardEPaS0_+0x20>
 8000b2c:	f912 4f01 	ldrsb.w	r4, [r2, #1]!
 8000b30:	2c00      	cmp	r4, #0
 8000b32:	bfb4      	ite	lt
 8000b34:	701d      	strblt	r5, [r3, #0]
 8000b36:	701c      	strbge	r4, [r3, #0]
 8000b38:	3301      	adds	r3, #1
 8000b3a:	e7f3      	b.n	8000b24 <_ZN12NetReluLayer7forwardEPaS0_+0x8>
 8000b3c:	bd70      	pop	{r4, r5, r6, pc}
 8000b3e:	0000      	movs	r0, r0

08000b40 <_ZN12NetReluLayerD1Ev>:
 8000b40:	b510      	push	{r4, lr}
 8000b42:	4b03      	ldr	r3, [pc, #12]	; (8000b50 <_ZN12NetReluLayerD1Ev+0x10>)
 8000b44:	6003      	str	r3, [r0, #0]
 8000b46:	4604      	mov	r4, r0
 8000b48:	f000 fbf8 	bl	800133c <_ZN12NetworkLayerD1Ev>
 8000b4c:	4620      	mov	r0, r4
 8000b4e:	bd10      	pop	{r4, pc}
 8000b50:	0800447c 	stmdaeq	r0, {r2, r3, r4, r5, r6, sl, lr}

08000b54 <_ZN12NetReluLayerD0Ev>:
 8000b54:	b510      	push	{r4, lr}
 8000b56:	4604      	mov	r4, r0
 8000b58:	f7ff fff2 	bl	8000b40 <_ZN12NetReluLayerD1Ev>
 8000b5c:	4620      	mov	r0, r4
 8000b5e:	212c      	movs	r1, #44	; 0x2c
 8000b60:	f000 fc6e 	bl	8001440 <_ZdlPvj>
 8000b64:	4620      	mov	r0, r4
 8000b66:	bd10      	pop	{r4, pc}

08000b68 <_ZN12NetReluLayerC1E14sLayerGeometryS0_S0_>:
 8000b68:	b530      	push	{r4, r5, lr}
 8000b6a:	b085      	sub	sp, #20
 8000b6c:	4604      	mov	r4, r0
 8000b6e:	ad01      	add	r5, sp, #4
 8000b70:	e885 000e 	stmia.w	r5, {r1, r2, r3}
 8000b74:	f000 fbec 	bl	8001350 <_ZN12NetworkLayerC1Ev>
 8000b78:	4623      	mov	r3, r4
 8000b7a:	4a0d      	ldr	r2, [pc, #52]	; (8000bb0 <_ZN12NetReluLayerC1E14sLayerGeometryS0_S0_+0x48>)
 8000b7c:	f843 2b1c 	str.w	r2, [r3], #28
 8000b80:	e895 0007 	ldmia.w	r5, {r0, r1, r2}
 8000b84:	e883 0007 	stmia.w	r3, {r0, r1, r2}
 8000b88:	aa08      	add	r2, sp, #32
 8000b8a:	ca07      	ldmia	r2, {r0, r1, r2}
 8000b8c:	1d23      	adds	r3, r4, #4
 8000b8e:	e883 0007 	stmia.w	r3, {r0, r1, r2}
 8000b92:	aa0b      	add	r2, sp, #44	; 0x2c
 8000b94:	ca07      	ldmia	r2, {r0, r1, r2}
 8000b96:	f104 0310 	add.w	r3, r4, #16
 8000b9a:	e883 0007 	stmia.w	r3, {r0, r1, r2}
 8000b9e:	68a3      	ldr	r3, [r4, #8]
 8000ba0:	6862      	ldr	r2, [r4, #4]
 8000ba2:	435a      	muls	r2, r3
 8000ba4:	68e3      	ldr	r3, [r4, #12]
 8000ba6:	4620      	mov	r0, r4
 8000ba8:	4353      	muls	r3, r2
 8000baa:	62a3      	str	r3, [r4, #40]	; 0x28
 8000bac:	b005      	add	sp, #20
 8000bae:	bd30      	pop	{r4, r5, pc}
 8000bb0:	0800447c 	stmdaeq	r0, {r2, r3, r4, r5, r6, sl, lr}

08000bb4 <_Z28t_network_convolution_kernelILj3EEvPaS0_S0_S0_iijjjj>:
 8000bb4:	e92d 4ff0 	stmdb	sp!, {r4, r5, r6, r7, r8, r9, sl, fp, lr}
 8000bb8:	b08d      	sub	sp, #52	; 0x34
 8000bba:	9c18      	ldr	r4, [sp, #96]	; 0x60
 8000bbc:	910a      	str	r1, [sp, #40]	; 0x28
 8000bbe:	9919      	ldr	r1, [sp, #100]	; 0x64
 8000bc0:	9009      	str	r0, [sp, #36]	; 0x24
 8000bc2:	1e8d      	subs	r5, r1, #2
 8000bc4:	4361      	muls	r1, r4
 8000bc6:	9103      	str	r1, [sp, #12]
 8000bc8:	991b      	ldr	r1, [sp, #108]	; 0x6c
 8000bca:	981a      	ldr	r0, [sp, #104]	; 0x68
 8000bcc:	9505      	str	r5, [sp, #20]
 8000bce:	1859      	adds	r1, r3, r1
 8000bd0:	eb00 00c0 	add.w	r0, r0, r0, lsl #3
 8000bd4:	9107      	str	r1, [sp, #28]
 8000bd6:	0061      	lsls	r1, r4, #1
 8000bd8:	9104      	str	r1, [sp, #16]
 8000bda:	4601      	mov	r1, r0
 8000bdc:	1ea5      	subs	r5, r4, #2
 8000bde:	3109      	adds	r1, #9
 8000be0:	9506      	str	r5, [sp, #24]
 8000be2:	9002      	str	r0, [sp, #8]
 8000be4:	9201      	str	r2, [sp, #4]
 8000be6:	46a4      	mov	ip, r4
 8000be8:	910b      	str	r1, [sp, #44]	; 0x2c
 8000bea:	9907      	ldr	r1, [sp, #28]
 8000bec:	428b      	cmp	r3, r1
 8000bee:	d07b      	beq.n	8000ce8 <_Z28t_network_convolution_kernelILj3EEvPaS0_S0_S0_iijjjj+0x134>
 8000bf0:	990b      	ldr	r1, [sp, #44]	; 0x2c
 8000bf2:	9a01      	ldr	r2, [sp, #4]
 8000bf4:	2500      	movs	r5, #0
 8000bf6:	4411      	add	r1, r2
 8000bf8:	9108      	str	r1, [sp, #32]
 8000bfa:	46a8      	mov	r8, r5
 8000bfc:	9909      	ldr	r1, [sp, #36]	; 0x24
 8000bfe:	eb05 0e0c 	add.w	lr, r5, ip
 8000c02:	448e      	add	lr, r1
 8000c04:	2700      	movs	r7, #0
 8000c06:	990a      	ldr	r1, [sp, #40]	; 0x28
 8000c08:	1978      	adds	r0, r7, r5
 8000c0a:	4408      	add	r0, r1
 8000c0c:	9901      	ldr	r1, [sp, #4]
 8000c0e:	2600      	movs	r6, #0
 8000c10:	9a08      	ldr	r2, [sp, #32]
 8000c12:	3109      	adds	r1, #9
 8000c14:	4291      	cmp	r1, r2
 8000c16:	d03c      	beq.n	8000c92 <_Z28t_network_convolution_kernelILj3EEvPaS0_S0_S0_iijjjj+0xde>
 8000c18:	f990 b000 	ldrsb.w	fp, [r0]
 8000c1c:	f911 ac09 	ldrsb.w	sl, [r1, #-9]
 8000c20:	f911 9c07 	ldrsb.w	r9, [r1, #-7]
 8000c24:	9a04      	ldr	r2, [sp, #16]
 8000c26:	fb1a 660b 	smlabb	r6, sl, fp, r6
 8000c2a:	f990 b001 	ldrsb.w	fp, [r0, #1]
 8000c2e:	f911 ac08 	ldrsb.w	sl, [r1, #-8]
 8000c32:	fb1a 660b 	smlabb	r6, sl, fp, r6
 8000c36:	f990 b002 	ldrsb.w	fp, [r0, #2]
 8000c3a:	fb19 6b0b 	smlabb	fp, r9, fp, r6
 8000c3e:	f911 9c06 	ldrsb.w	r9, [r1, #-6]
 8000c42:	5706      	ldrsb	r6, [r0, r4]
 8000c44:	fb19 b606 	smlabb	r6, r9, r6, fp
 8000c48:	eb00 0904 	add.w	r9, r0, r4
 8000c4c:	f911 bc05 	ldrsb.w	fp, [r1, #-5]
 8000c50:	f999 a001 	ldrsb.w	sl, [r9, #1]
 8000c54:	fb1b 660a 	smlabb	r6, fp, sl, r6
 8000c58:	f999 b002 	ldrsb.w	fp, [r9, #2]
 8000c5c:	f911 ac04 	ldrsb.w	sl, [r1, #-4]
 8000c60:	f911 9c03 	ldrsb.w	r9, [r1, #-3]
 8000c64:	fb1a 6a0b 	smlabb	sl, sl, fp, r6
 8000c68:	f910 6014 	ldrsb.w	r6, [r0, r4, lsl #1]
 8000c6c:	f911 bc02 	ldrsb.w	fp, [r1, #-2]
 8000c70:	fb19 a606 	smlabb	r6, r9, r6, sl
 8000c74:	eb00 0902 	add.w	r9, r0, r2
 8000c78:	9a03      	ldr	r2, [sp, #12]
 8000c7a:	f999 a001 	ldrsb.w	sl, [r9, #1]
 8000c7e:	fb1b 660a 	smlabb	r6, fp, sl, r6
 8000c82:	f911 ac01 	ldrsb.w	sl, [r1, #-1]
 8000c86:	f999 b002 	ldrsb.w	fp, [r9, #2]
 8000c8a:	4410      	add	r0, r2
 8000c8c:	fb1a 660b 	smlabb	r6, sl, fp, r6
 8000c90:	e7be      	b.n	8000c10 <_Z28t_network_convolution_kernelILj3EEvPaS0_S0_S0_iijjjj+0x5c>
 8000c92:	9a16      	ldr	r2, [sp, #88]	; 0x58
 8000c94:	f993 1000 	ldrsb.w	r1, [r3]
 8000c98:	4356      	muls	r6, r2
 8000c9a:	2280      	movs	r2, #128	; 0x80
 8000c9c:	fb96 f6f2 	sdiv	r6, r6, r2
 8000ca0:	9a17      	ldr	r2, [sp, #92]	; 0x5c
 8000ca2:	fb02 6101 	mla	r1, r2, r1, r6
 8000ca6:	f44f 6280 	mov.w	r2, #1024	; 0x400
 8000caa:	fb91 f1f2 	sdiv	r1, r1, r2
 8000cae:	f06f 027e 	mvn.w	r2, #126	; 0x7e
 8000cb2:	4291      	cmp	r1, r2
 8000cb4:	bfb8      	it	lt
 8000cb6:	4611      	movlt	r1, r2
 8000cb8:	9a06      	ldr	r2, [sp, #24]
 8000cba:	297f      	cmp	r1, #127	; 0x7f
 8000cbc:	f107 0701 	add.w	r7, r7, #1
 8000cc0:	bfa8      	it	ge
 8000cc2:	217f      	movge	r1, #127	; 0x7f
 8000cc4:	42ba      	cmp	r2, r7
 8000cc6:	f80e 1f01 	strb.w	r1, [lr, #1]!
 8000cca:	d29c      	bcs.n	8000c06 <_Z28t_network_convolution_kernelILj3EEvPaS0_S0_S0_iijjjj+0x52>
 8000ccc:	9a05      	ldr	r2, [sp, #20]
 8000cce:	f108 0801 	add.w	r8, r8, #1
 8000cd2:	4542      	cmp	r2, r8
 8000cd4:	4425      	add	r5, r4
 8000cd6:	d291      	bcs.n	8000bfc <_Z28t_network_convolution_kernelILj3EEvPaS0_S0_S0_iijjjj+0x48>
 8000cd8:	9a02      	ldr	r2, [sp, #8]
 8000cda:	9901      	ldr	r1, [sp, #4]
 8000cdc:	4411      	add	r1, r2
 8000cde:	9a03      	ldr	r2, [sp, #12]
 8000ce0:	9101      	str	r1, [sp, #4]
 8000ce2:	3301      	adds	r3, #1
 8000ce4:	4494      	add	ip, r2
 8000ce6:	e780      	b.n	8000bea <_Z28t_network_convolution_kernelILj3EEvPaS0_S0_S0_iijjjj+0x36>
 8000ce8:	b00d      	add	sp, #52	; 0x34
 8000cea:	e8bd 8ff0 	ldmia.w	sp!, {r4, r5, r6, r7, r8, r9, sl, fp, pc}

08000cee <_Z26network_convolution_kernelPaS_S_S_ii14sLayerGeometryS0_>:
 8000cee:	e92d 4ff0 	stmdb	sp!, {r4, r5, r6, r7, r8, r9, sl, fp, lr}
 8000cf2:	b08d      	sub	sp, #52	; 0x34
 8000cf4:	ac1a      	add	r4, sp, #104	; 0x68
 8000cf6:	e894 1110 	ldmia.w	r4, {r4, r8, ip}
 8000cfa:	f1b8 0f01 	cmp.w	r8, #1
 8000cfe:	9008      	str	r0, [sp, #32]
 8000d00:	9109      	str	r1, [sp, #36]	; 0x24
 8000d02:	4696      	mov	lr, r2
 8000d04:	461f      	mov	r7, r3
 8000d06:	9d18      	ldr	r5, [sp, #96]	; 0x60
 8000d08:	f8dd b064 	ldr.w	fp, [sp, #100]	; 0x64
 8000d0c:	9e1d      	ldr	r6, [sp, #116]	; 0x74
 8000d0e:	d154      	bne.n	8000dba <_Z26network_convolution_kernelPaS_S_S_ii14sLayerGeometryS0_+0xcc>
 8000d10:	f1bc 0f01 	cmp.w	ip, #1
 8000d14:	d162      	bne.n	8000ddc <_Z26network_convolution_kernelPaS_S_S_ii14sLayerGeometryS0_+0xee>
 8000d16:	fb0b f205 	mul.w	r2, fp, r5
 8000d1a:	1999      	adds	r1, r3, r6
 8000d1c:	f8cd e018 	str.w	lr, [sp, #24]
 8000d20:	9207      	str	r2, [sp, #28]
 8000d22:	f1ce 0e00 	rsb	lr, lr, #0
 8000d26:	910a      	str	r1, [sp, #40]	; 0x28
 8000d28:	f04f 0c00 	mov.w	ip, #0
 8000d2c:	990a      	ldr	r1, [sp, #40]	; 0x28
 8000d2e:	4299      	cmp	r1, r3
 8000d30:	d054      	beq.n	8000ddc <_Z26network_convolution_kernelPaS_S_S_ii14sLayerGeometryS0_+0xee>
 8000d32:	2000      	movs	r0, #0
 8000d34:	4680      	mov	r8, r0
 8000d36:	9f08      	ldr	r7, [sp, #32]
 8000d38:	eb0c 0100 	add.w	r1, ip, r0
 8000d3c:	1879      	adds	r1, r7, r1
 8000d3e:	2600      	movs	r6, #0
 8000d40:	910b      	str	r1, [sp, #44]	; 0x2c
 8000d42:	9909      	ldr	r1, [sp, #36]	; 0x24
 8000d44:	f8dd 9018 	ldr.w	r9, [sp, #24]
 8000d48:	1987      	adds	r7, r0, r6
 8000d4a:	440f      	add	r7, r1
 8000d4c:	2100      	movs	r1, #0
 8000d4e:	eb0e 0a09 	add.w	sl, lr, r9
 8000d52:	4554      	cmp	r4, sl
 8000d54:	d908      	bls.n	8000d68 <_Z26network_convolution_kernelPaS_S_S_ii14sLayerGeometryS0_+0x7a>
 8000d56:	f919 2b01 	ldrsb.w	r2, [r9], #1
 8000d5a:	f997 a000 	ldrsb.w	sl, [r7]
 8000d5e:	fb12 110a 	smlabb	r1, r2, sl, r1
 8000d62:	9a07      	ldr	r2, [sp, #28]
 8000d64:	4417      	add	r7, r2
 8000d66:	e7f2      	b.n	8000d4e <_Z26network_convolution_kernelPaS_S_S_ii14sLayerGeometryS0_+0x60>
 8000d68:	9a16      	ldr	r2, [sp, #88]	; 0x58
 8000d6a:	f993 7000 	ldrsb.w	r7, [r3]
 8000d6e:	4351      	muls	r1, r2
 8000d70:	2280      	movs	r2, #128	; 0x80
 8000d72:	fb91 f1f2 	sdiv	r1, r1, r2
 8000d76:	9a17      	ldr	r2, [sp, #92]	; 0x5c
 8000d78:	fb02 1707 	mla	r7, r2, r7, r1
 8000d7c:	f44f 6280 	mov.w	r2, #1024	; 0x400
 8000d80:	fb97 f7f2 	sdiv	r7, r7, r2
 8000d84:	f06f 027e 	mvn.w	r2, #126	; 0x7e
 8000d88:	4297      	cmp	r7, r2
 8000d8a:	bfb8      	it	lt
 8000d8c:	4617      	movlt	r7, r2
 8000d8e:	2f7f      	cmp	r7, #127	; 0x7f
 8000d90:	9a0b      	ldr	r2, [sp, #44]	; 0x2c
 8000d92:	bfa8      	it	ge
 8000d94:	277f      	movge	r7, #127	; 0x7f
 8000d96:	5597      	strb	r7, [r2, r6]
 8000d98:	3601      	adds	r6, #1
 8000d9a:	42b5      	cmp	r5, r6
 8000d9c:	d2d1      	bcs.n	8000d42 <_Z26network_convolution_kernelPaS_S_S_ii14sLayerGeometryS0_+0x54>
 8000d9e:	f108 0801 	add.w	r8, r8, #1
 8000da2:	45c3      	cmp	fp, r8
 8000da4:	4428      	add	r0, r5
 8000da6:	d2c6      	bcs.n	8000d36 <_Z26network_convolution_kernelPaS_S_S_ii14sLayerGeometryS0_+0x48>
 8000da8:	9a07      	ldr	r2, [sp, #28]
 8000daa:	4494      	add	ip, r2
 8000dac:	9a06      	ldr	r2, [sp, #24]
 8000dae:	4422      	add	r2, r4
 8000db0:	3301      	adds	r3, #1
 8000db2:	9206      	str	r2, [sp, #24]
 8000db4:	ebae 0e04 	sub.w	lr, lr, r4
 8000db8:	e7b8      	b.n	8000d2c <_Z26network_convolution_kernelPaS_S_S_ii14sLayerGeometryS0_+0x3e>
 8000dba:	f1b8 0f03 	cmp.w	r8, #3
 8000dbe:	d10d      	bne.n	8000ddc <_Z26network_convolution_kernelPaS_S_S_ii14sLayerGeometryS0_+0xee>
 8000dc0:	f1bc 0f03 	cmp.w	ip, #3
 8000dc4:	d10d      	bne.n	8000de2 <_Z26network_convolution_kernelPaS_S_S_ii14sLayerGeometryS0_+0xf4>
 8000dc6:	9404      	str	r4, [sp, #16]
 8000dc8:	9c17      	ldr	r4, [sp, #92]	; 0x5c
 8000dca:	9401      	str	r4, [sp, #4]
 8000dcc:	9c16      	ldr	r4, [sp, #88]	; 0x58
 8000dce:	9605      	str	r6, [sp, #20]
 8000dd0:	f8cd b00c 	str.w	fp, [sp, #12]
 8000dd4:	9502      	str	r5, [sp, #8]
 8000dd6:	9400      	str	r4, [sp, #0]
 8000dd8:	f7ff feec 	bl	8000bb4 <_Z28t_network_convolution_kernelILj3EEvPaS0_S0_S0_iijjjj>
 8000ddc:	b00d      	add	sp, #52	; 0x34
 8000dde:	e8bd 8ff0 	ldmia.w	sp!, {r4, r5, r6, r7, r8, r9, sl, fp, pc}
 8000de2:	f1bc 0f01 	cmp.w	ip, #1
 8000de6:	d1f9      	bne.n	8000ddc <_Z26network_convolution_kernelPaS_S_S_ii14sLayerGeometryS0_+0xee>
 8000de8:	1eab      	subs	r3, r5, #2
 8000dea:	9306      	str	r3, [sp, #24]
 8000dec:	eb04 03c4 	add.w	r3, r4, r4, lsl #3
 8000df0:	9307      	str	r3, [sp, #28]
 8000df2:	9b08      	ldr	r3, [sp, #32]
 8000df4:	eb04 0444 	add.w	r4, r4, r4, lsl #1
 8000df8:	442b      	add	r3, r5
 8000dfa:	469c      	mov	ip, r3
 8000dfc:	1ce3      	adds	r3, r4, #3
 8000dfe:	f04f 0e00 	mov.w	lr, #0
 8000e02:	930a      	str	r3, [sp, #40]	; 0x28
 8000e04:	4576      	cmp	r6, lr
 8000e06:	d0e9      	beq.n	8000ddc <_Z26network_convolution_kernelPaS_S_S_ii14sLayerGeometryS0_+0xee>
 8000e08:	f10e 0301 	add.w	r3, lr, #1
 8000e0c:	9308      	str	r3, [sp, #32]
 8000e0e:	9b0a      	ldr	r3, [sp, #40]	; 0x28
 8000e10:	46e0      	mov	r8, ip
 8000e12:	eb03 0902 	add.w	r9, r3, r2
 8000e16:	2400      	movs	r4, #0
 8000e18:	9b09      	ldr	r3, [sp, #36]	; 0x24
 8000e1a:	4611      	mov	r1, r2
 8000e1c:	1918      	adds	r0, r3, r4
 8000e1e:	2300      	movs	r3, #0
 8000e20:	3103      	adds	r1, #3
 8000e22:	4549      	cmp	r1, r9
 8000e24:	d013      	beq.n	8000e4e <_Z26network_convolution_kernelPaS_S_S_ii14sLayerGeometryS0_+0x160>
 8000e26:	f990 a000 	ldrsb.w	sl, [r0]
 8000e2a:	f911 bc03 	ldrsb.w	fp, [r1, #-3]
 8000e2e:	fb1b 330a 	smlabb	r3, fp, sl, r3
 8000e32:	f990 a001 	ldrsb.w	sl, [r0, #1]
 8000e36:	f911 bc02 	ldrsb.w	fp, [r1, #-2]
 8000e3a:	fb1b 330a 	smlabb	r3, fp, sl, r3
 8000e3e:	f990 a002 	ldrsb.w	sl, [r0, #2]
 8000e42:	f911 bc01 	ldrsb.w	fp, [r1, #-1]
 8000e46:	4428      	add	r0, r5
 8000e48:	fb1b 330a 	smlabb	r3, fp, sl, r3
 8000e4c:	e7e8      	b.n	8000e20 <_Z26network_convolution_kernelPaS_S_S_ii14sLayerGeometryS0_+0x132>
 8000e4e:	9916      	ldr	r1, [sp, #88]	; 0x58
 8000e50:	2080      	movs	r0, #128	; 0x80
 8000e52:	434b      	muls	r3, r1
 8000e54:	f917 100e 	ldrsb.w	r1, [r7, lr]
 8000e58:	fb93 f3f0 	sdiv	r3, r3, r0
 8000e5c:	9817      	ldr	r0, [sp, #92]	; 0x5c
 8000e5e:	fb00 3101 	mla	r1, r0, r1, r3
 8000e62:	f44f 6380 	mov.w	r3, #1024	; 0x400
 8000e66:	fb91 f1f3 	sdiv	r1, r1, r3
 8000e6a:	f06f 037e 	mvn.w	r3, #126	; 0x7e
 8000e6e:	4299      	cmp	r1, r3
 8000e70:	bfb8      	it	lt
 8000e72:	4619      	movlt	r1, r3
 8000e74:	9b06      	ldr	r3, [sp, #24]
 8000e76:	297f      	cmp	r1, #127	; 0x7f
 8000e78:	f104 0401 	add.w	r4, r4, #1
 8000e7c:	bfa8      	it	ge
 8000e7e:	217f      	movge	r1, #127	; 0x7f
 8000e80:	42a3      	cmp	r3, r4
 8000e82:	f808 1f01 	strb.w	r1, [r8, #1]!
 8000e86:	d2c7      	bcs.n	8000e18 <_Z26network_convolution_kernelPaS_S_S_ii14sLayerGeometryS0_+0x12a>
 8000e88:	9b07      	ldr	r3, [sp, #28]
 8000e8a:	f8dd e020 	ldr.w	lr, [sp, #32]
 8000e8e:	441a      	add	r2, r3
 8000e90:	44ac      	add	ip, r5
 8000e92:	e7b7      	b.n	8000e04 <_Z26network_convolution_kernelPaS_S_S_ii14sLayerGeometryS0_+0x116>

08000e94 <_ZN24NetDenseConvolutionLayerD1Ev>:
 8000e94:	b510      	push	{r4, lr}
 8000e96:	4b03      	ldr	r3, [pc, #12]	; (8000ea4 <_ZN24NetDenseConvolutionLayerD1Ev+0x10>)
 8000e98:	6003      	str	r3, [r0, #0]
 8000e9a:	4604      	mov	r4, r0
 8000e9c:	f000 fa4e 	bl	800133c <_ZN12NetworkLayerD1Ev>
 8000ea0:	4620      	mov	r0, r4
 8000ea2:	bd10      	pop	{r4, pc}
 8000ea4:	08004490 	stmdaeq	r0, {r4, r7, sl, lr}

08000ea8 <_ZN24NetDenseConvolutionLayerD0Ev>:
 8000ea8:	b510      	push	{r4, lr}
 8000eaa:	4604      	mov	r4, r0
 8000eac:	f7ff fff2 	bl	8000e94 <_ZN24NetDenseConvolutionLayerD1Ev>
 8000eb0:	4620      	mov	r0, r4
 8000eb2:	2138      	movs	r1, #56	; 0x38
 8000eb4:	f000 fac4 	bl	8001440 <_ZdlPvj>
 8000eb8:	4620      	mov	r0, r4
 8000eba:	bd10      	pop	{r4, pc}

08000ebc <_ZN24NetDenseConvolutionLayer7forwardEPaS0_>:
 8000ebc:	b570      	push	{r4, r5, r6, lr}
 8000ebe:	4615      	mov	r5, r2
 8000ec0:	f100 021c 	add.w	r2, r0, #28
 8000ec4:	4604      	mov	r4, r0
 8000ec6:	460e      	mov	r6, r1
 8000ec8:	ca07      	ldmia	r2, {r0, r1, r2}
 8000eca:	b088      	sub	sp, #32
 8000ecc:	ab05      	add	r3, sp, #20
 8000ece:	e883 0007 	stmia.w	r3, {r0, r1, r2}
 8000ed2:	1d22      	adds	r2, r4, #4
 8000ed4:	ca07      	ldmia	r2, {r0, r1, r2}
 8000ed6:	ab02      	add	r3, sp, #8
 8000ed8:	e883 0007 	stmia.w	r3, {r0, r1, r2}
 8000edc:	6b63      	ldr	r3, [r4, #52]	; 0x34
 8000ede:	9301      	str	r3, [sp, #4]
 8000ee0:	6b23      	ldr	r3, [r4, #48]	; 0x30
 8000ee2:	9300      	str	r3, [sp, #0]
 8000ee4:	4629      	mov	r1, r5
 8000ee6:	6ae3      	ldr	r3, [r4, #44]	; 0x2c
 8000ee8:	6aa2      	ldr	r2, [r4, #40]	; 0x28
 8000eea:	4630      	mov	r0, r6
 8000eec:	f7ff feff 	bl	8000cee <_Z26network_convolution_kernelPaS_S_S_ii14sLayerGeometryS0_>
 8000ef0:	6863      	ldr	r3, [r4, #4]
 8000ef2:	68a1      	ldr	r1, [r4, #8]
 8000ef4:	4359      	muls	r1, r3
 8000ef6:	6a63      	ldr	r3, [r4, #36]	; 0x24
 8000ef8:	fb03 6101 	mla	r1, r3, r1, r6
 8000efc:	462b      	mov	r3, r5
 8000efe:	68a2      	ldr	r2, [r4, #8]
 8000f00:	6860      	ldr	r0, [r4, #4]
 8000f02:	4350      	muls	r0, r2
 8000f04:	68e2      	ldr	r2, [r4, #12]
 8000f06:	4342      	muls	r2, r0
 8000f08:	1b58      	subs	r0, r3, r5
 8000f0a:	4282      	cmp	r2, r0
 8000f0c:	d904      	bls.n	8000f18 <_ZN24NetDenseConvolutionLayer7forwardEPaS0_+0x5c>
 8000f0e:	f913 2b01 	ldrsb.w	r2, [r3], #1
 8000f12:	f801 2b01 	strb.w	r2, [r1], #1
 8000f16:	e7f2      	b.n	8000efe <_ZN24NetDenseConvolutionLayer7forwardEPaS0_+0x42>
 8000f18:	b008      	add	sp, #32
 8000f1a:	bd70      	pop	{r4, r5, r6, pc}

08000f1c <_ZN24NetDenseConvolutionLayerC1E14sLayerGeometryS0_S0_PKaS2_ii>:
 8000f1c:	b530      	push	{r4, r5, lr}
 8000f1e:	b085      	sub	sp, #20
 8000f20:	4604      	mov	r4, r0
 8000f22:	ad01      	add	r5, sp, #4
 8000f24:	e885 000e 	stmia.w	r5, {r1, r2, r3}
 8000f28:	f000 fa12 	bl	8001350 <_ZN12NetworkLayerC1Ev>
 8000f2c:	4623      	mov	r3, r4
 8000f2e:	4a0e      	ldr	r2, [pc, #56]	; (8000f68 <_ZN24NetDenseConvolutionLayerC1E14sLayerGeometryS0_S0_PKaS2_ii+0x4c>)
 8000f30:	f843 2b1c 	str.w	r2, [r3], #28
 8000f34:	e895 0007 	ldmia.w	r5, {r0, r1, r2}
 8000f38:	e883 0007 	stmia.w	r3, {r0, r1, r2}
 8000f3c:	aa08      	add	r2, sp, #32
 8000f3e:	ca07      	ldmia	r2, {r0, r1, r2}
 8000f40:	1d23      	adds	r3, r4, #4
 8000f42:	e883 0007 	stmia.w	r3, {r0, r1, r2}
 8000f46:	aa0b      	add	r2, sp, #44	; 0x2c
 8000f48:	ca07      	ldmia	r2, {r0, r1, r2}
 8000f4a:	f104 0310 	add.w	r3, r4, #16
 8000f4e:	e883 0007 	stmia.w	r3, {r0, r1, r2}
 8000f52:	9b0e      	ldr	r3, [sp, #56]	; 0x38
 8000f54:	62a3      	str	r3, [r4, #40]	; 0x28
 8000f56:	9b0f      	ldr	r3, [sp, #60]	; 0x3c
 8000f58:	62e3      	str	r3, [r4, #44]	; 0x2c
 8000f5a:	9b10      	ldr	r3, [sp, #64]	; 0x40
 8000f5c:	6323      	str	r3, [r4, #48]	; 0x30
 8000f5e:	9b11      	ldr	r3, [sp, #68]	; 0x44
 8000f60:	6363      	str	r3, [r4, #52]	; 0x34
 8000f62:	4620      	mov	r0, r4
 8000f64:	b005      	add	sp, #20
 8000f66:	bd30      	pop	{r4, r5, pc}
 8000f68:	08004490 	stmdaeq	r0, {r4, r7, sl, lr}

08000f6c <_ZN18NetMaxPoolingLayerD1Ev>:
 8000f6c:	b510      	push	{r4, lr}
 8000f6e:	4b03      	ldr	r3, [pc, #12]	; (8000f7c <_ZN18NetMaxPoolingLayerD1Ev+0x10>)
 8000f70:	6003      	str	r3, [r0, #0]
 8000f72:	4604      	mov	r4, r0
 8000f74:	f000 f9e2 	bl	800133c <_ZN12NetworkLayerD1Ev>
 8000f78:	4620      	mov	r0, r4
 8000f7a:	bd10      	pop	{r4, pc}
 8000f7c:	080044a4 	stmdaeq	r0, {r2, r5, r7, sl, lr}

08000f80 <_ZN18NetMaxPoolingLayerD0Ev>:
 8000f80:	b510      	push	{r4, lr}
 8000f82:	4604      	mov	r4, r0
 8000f84:	f7ff fff2 	bl	8000f6c <_ZN18NetMaxPoolingLayerD1Ev>
 8000f88:	4620      	mov	r0, r4
 8000f8a:	2128      	movs	r1, #40	; 0x28
 8000f8c:	f000 fa58 	bl	8001440 <_ZdlPvj>
 8000f90:	4620      	mov	r0, r4
 8000f92:	bd10      	pop	{r4, pc}

08000f94 <_Z26network_max_pooling_kernelPaS_14sLayerGeometry>:
 8000f94:	b082      	sub	sp, #8
 8000f96:	e92d 4ff0 	stmdb	sp!, {r4, r5, r6, r7, r8, r9, sl, fp, lr}
 8000f9a:	b087      	sub	sp, #28
 8000f9c:	ea4f 0e42 	mov.w	lr, r2, lsl #1
 8000fa0:	9100      	str	r1, [sp, #0]
 8000fa2:	a910      	add	r1, sp, #64	; 0x40
 8000fa4:	e881 000c 	stmia.w	r1, {r2, r3}
 8000fa8:	f8dd c044 	ldr.w	ip, [sp, #68]	; 0x44
 8000fac:	9b12      	ldr	r3, [sp, #72]	; 0x48
 8000fae:	9301      	str	r3, [sp, #4]
 8000fb0:	ea4f 034c 	mov.w	r3, ip, lsl #1
 8000fb4:	fb0e f303 	mul.w	r3, lr, r3
 8000fb8:	9302      	str	r3, [sp, #8]
 8000fba:	2500      	movs	r5, #0
 8000fbc:	fb0c f302 	mul.w	r3, ip, r2
 8000fc0:	9303      	str	r3, [sp, #12]
 8000fc2:	462f      	mov	r7, r5
 8000fc4:	9b01      	ldr	r3, [sp, #4]
 8000fc6:	429f      	cmp	r7, r3
 8000fc8:	d039      	beq.n	800103e <_Z26network_max_pooling_kernelPaS_14sLayerGeometry+0xaa>
 8000fca:	4680      	mov	r8, r0
 8000fcc:	462e      	mov	r6, r5
 8000fce:	f04f 0a00 	mov.w	sl, #0
 8000fd2:	45e2      	cmp	sl, ip
 8000fd4:	d02d      	beq.n	8001032 <_Z26network_max_pooling_kernelPaS_14sLayerGeometry+0x9e>
 8000fd6:	9900      	ldr	r1, [sp, #0]
 8000fd8:	9b00      	ldr	r3, [sp, #0]
 8000fda:	eb0e 0906 	add.w	r9, lr, r6
 8000fde:	4449      	add	r1, r9
 8000fe0:	199c      	adds	r4, r3, r6
 8000fe2:	9105      	str	r1, [sp, #20]
 8000fe4:	2300      	movs	r3, #0
 8000fe6:	4293      	cmp	r3, r2
 8000fe8:	f104 0402 	add.w	r4, r4, #2
 8000fec:	d01b      	beq.n	8001026 <_Z26network_max_pooling_kernelPaS_14sLayerGeometry+0x92>
 8000fee:	f914 bc02 	ldrsb.w	fp, [r4, #-2]
 8000ff2:	f914 1c01 	ldrsb.w	r1, [r4, #-1]
 8000ff6:	458b      	cmp	fp, r1
 8000ff8:	bfb8      	it	lt
 8000ffa:	468b      	movlt	fp, r1
 8000ffc:	1ba1      	subs	r1, r4, r6
 8000ffe:	4449      	add	r1, r9
 8001000:	ea2b 7beb 	bic.w	fp, fp, fp, asr #31
 8001004:	f911 1c01 	ldrsb.w	r1, [r1, #-1]
 8001008:	4559      	cmp	r1, fp
 800100a:	bfb8      	it	lt
 800100c:	4659      	movlt	r1, fp
 800100e:	9104      	str	r1, [sp, #16]
 8001010:	9905      	ldr	r1, [sp, #20]
 8001012:	f911 b013 	ldrsb.w	fp, [r1, r3, lsl #1]
 8001016:	9904      	ldr	r1, [sp, #16]
 8001018:	4559      	cmp	r1, fp
 800101a:	bfb8      	it	lt
 800101c:	4659      	movlt	r1, fp
 800101e:	f808 1003 	strb.w	r1, [r8, r3]
 8001022:	3301      	adds	r3, #1
 8001024:	e7df      	b.n	8000fe6 <_Z26network_max_pooling_kernelPaS_14sLayerGeometry+0x52>
 8001026:	f10a 0a01 	add.w	sl, sl, #1
 800102a:	eb0e 0609 	add.w	r6, lr, r9
 800102e:	4490      	add	r8, r2
 8001030:	e7cf      	b.n	8000fd2 <_Z26network_max_pooling_kernelPaS_14sLayerGeometry+0x3e>
 8001032:	9b02      	ldr	r3, [sp, #8]
 8001034:	441d      	add	r5, r3
 8001036:	9b03      	ldr	r3, [sp, #12]
 8001038:	3701      	adds	r7, #1
 800103a:	4418      	add	r0, r3
 800103c:	e7c2      	b.n	8000fc4 <_Z26network_max_pooling_kernelPaS_14sLayerGeometry+0x30>
 800103e:	b007      	add	sp, #28
 8001040:	e8bd 4ff0 	ldmia.w	sp!, {r4, r5, r6, r7, r8, r9, sl, fp, lr}
 8001044:	b002      	add	sp, #8
 8001046:	4770      	bx	lr

08001048 <_Z29network_max_pooling_kernel_1dPaS_14sLayerGeometry>:
 8001048:	b082      	sub	sp, #8
 800104a:	e92d 41f0 	stmdb	sp!, {r4, r5, r6, r7, r8, lr}
 800104e:	f8dd c020 	ldr.w	ip, [sp, #32]
 8001052:	ac06      	add	r4, sp, #24
 8001054:	e884 000c 	stmia.w	r4, {r2, r3}
 8001058:	ea4f 0e42 	mov.w	lr, r2, lsl #1
 800105c:	4244      	negs	r4, r0
 800105e:	2500      	movs	r5, #0
 8001060:	4565      	cmp	r5, ip
 8001062:	d015      	beq.n	8001090 <_Z29network_max_pooling_kernel_1dPaS_14sLayerGeometry+0x48>
 8001064:	4606      	mov	r6, r0
 8001066:	460b      	mov	r3, r1
 8001068:	1937      	adds	r7, r6, r4
 800106a:	42ba      	cmp	r2, r7
 800106c:	f103 0302 	add.w	r3, r3, #2
 8001070:	d909      	bls.n	8001086 <_Z29network_max_pooling_kernel_1dPaS_14sLayerGeometry+0x3e>
 8001072:	f913 7c02 	ldrsb.w	r7, [r3, #-2]
 8001076:	f913 8c01 	ldrsb.w	r8, [r3, #-1]
 800107a:	4547      	cmp	r7, r8
 800107c:	bfb8      	it	lt
 800107e:	4647      	movlt	r7, r8
 8001080:	f806 7b01 	strb.w	r7, [r6], #1
 8001084:	e7f0      	b.n	8001068 <_Z29network_max_pooling_kernel_1dPaS_14sLayerGeometry+0x20>
 8001086:	3501      	adds	r5, #1
 8001088:	4471      	add	r1, lr
 800108a:	4410      	add	r0, r2
 800108c:	1aa4      	subs	r4, r4, r2
 800108e:	e7e7      	b.n	8001060 <_Z29network_max_pooling_kernel_1dPaS_14sLayerGeometry+0x18>
 8001090:	e8bd 41f0 	ldmia.w	sp!, {r4, r5, r6, r7, r8, lr}
 8001094:	b002      	add	sp, #8
 8001096:	4770      	bx	lr

08001098 <_ZN18NetMaxPoolingLayer7forwardEPaS0_>:
 8001098:	4603      	mov	r3, r0
 800109a:	b507      	push	{r0, r1, r2, lr}
 800109c:	4608      	mov	r0, r1
 800109e:	4611      	mov	r1, r2
 80010a0:	69da      	ldr	r2, [r3, #28]
 80010a2:	2a02      	cmp	r2, #2
 80010a4:	d108      	bne.n	80010b8 <_ZN18NetMaxPoolingLayer7forwardEPaS0_+0x20>
 80010a6:	6a1a      	ldr	r2, [r3, #32]
 80010a8:	2a02      	cmp	r2, #2
 80010aa:	d108      	bne.n	80010be <_ZN18NetMaxPoolingLayer7forwardEPaS0_+0x26>
 80010ac:	699a      	ldr	r2, [r3, #24]
 80010ae:	9200      	str	r2, [sp, #0]
 80010b0:	3310      	adds	r3, #16
 80010b2:	cb0c      	ldmia	r3, {r2, r3}
 80010b4:	f7ff ff6e 	bl	8000f94 <_Z26network_max_pooling_kernelPaS_14sLayerGeometry>
 80010b8:	b003      	add	sp, #12
 80010ba:	f85d fb04 	ldr.w	pc, [sp], #4
 80010be:	2a01      	cmp	r2, #1
 80010c0:	d1fa      	bne.n	80010b8 <_ZN18NetMaxPoolingLayer7forwardEPaS0_+0x20>
 80010c2:	699a      	ldr	r2, [r3, #24]
 80010c4:	9200      	str	r2, [sp, #0]
 80010c6:	3310      	adds	r3, #16
 80010c8:	cb0c      	ldmia	r3, {r2, r3}
 80010ca:	f7ff ffbd 	bl	8001048 <_Z29network_max_pooling_kernel_1dPaS_14sLayerGeometry>
 80010ce:	e7f3      	b.n	80010b8 <_ZN18NetMaxPoolingLayer7forwardEPaS0_+0x20>

080010d0 <_ZN18NetMaxPoolingLayerC1E14sLayerGeometryS0_S0_>:
 80010d0:	b530      	push	{r4, r5, lr}
 80010d2:	b085      	sub	sp, #20
 80010d4:	4605      	mov	r5, r0
 80010d6:	ac01      	add	r4, sp, #4
 80010d8:	e884 000e 	stmia.w	r4, {r1, r2, r3}
 80010dc:	f000 f938 	bl	8001350 <_ZN12NetworkLayerC1Ev>
 80010e0:	462b      	mov	r3, r5
 80010e2:	4a0a      	ldr	r2, [pc, #40]	; (800110c <_ZN18NetMaxPoolingLayerC1E14sLayerGeometryS0_S0_+0x3c>)
 80010e4:	f843 2b1c 	str.w	r2, [r3], #28
 80010e8:	e894 0007 	ldmia.w	r4, {r0, r1, r2}
 80010ec:	e883 0007 	stmia.w	r3, {r0, r1, r2}
 80010f0:	aa08      	add	r2, sp, #32
 80010f2:	ca07      	ldmia	r2, {r0, r1, r2}
 80010f4:	1d2b      	adds	r3, r5, #4
 80010f6:	e883 0007 	stmia.w	r3, {r0, r1, r2}
 80010fa:	aa0b      	add	r2, sp, #44	; 0x2c
 80010fc:	ca07      	ldmia	r2, {r0, r1, r2}
 80010fe:	f105 0310 	add.w	r3, r5, #16
 8001102:	e883 0007 	stmia.w	r3, {r0, r1, r2}
 8001106:	4628      	mov	r0, r5
 8001108:	b005      	add	sp, #20
 800110a:	bd30      	pop	{r4, r5, pc}
 800110c:	080044a4 	stmdaeq	r0, {r2, r5, r7, sl, lr}

08001110 <_ZN13NeuralNetwork9set_inputEPa>:
 8001110:	f8d0 308c 	ldr.w	r3, [r0, #140]	; 0x8c
 8001114:	f8d0 2088 	ldr.w	r2, [r0, #136]	; 0x88
 8001118:	b530      	push	{r4, r5, lr}
 800111a:	435a      	muls	r2, r3
 800111c:	f8d0 3090 	ldr.w	r3, [r0, #144]	; 0x90
 8001120:	435a      	muls	r2, r3
 8001122:	2300      	movs	r3, #0
 8001124:	4293      	cmp	r3, r2
 8001126:	d005      	beq.n	8001134 <_ZN13NeuralNetwork9set_inputEPa+0x24>
 8001128:	f8d0 40a8 	ldr.w	r4, [r0, #168]	; 0xa8
 800112c:	56cd      	ldrsb	r5, [r1, r3]
 800112e:	54e5      	strb	r5, [r4, r3]
 8001130:	3301      	adds	r3, #1
 8001132:	e7f7      	b.n	8001124 <_ZN13NeuralNetwork9set_inputEPa+0x14>
 8001134:	bd30      	pop	{r4, r5, pc}
 8001136:	0000      	movs	r0, r0

08001138 <_ZN13NeuralNetworkD1Ev>:
 8001138:	4b07      	ldr	r3, [pc, #28]	; (8001158 <_ZN13NeuralNetworkD1Ev+0x20>)
 800113a:	b510      	push	{r4, lr}
 800113c:	4604      	mov	r4, r0
 800113e:	6003      	str	r3, [r0, #0]
 8001140:	f8d0 00a0 	ldr.w	r0, [r0, #160]	; 0xa0
 8001144:	b108      	cbz	r0, 800114a <_ZN13NeuralNetworkD1Ev+0x12>
 8001146:	f000 f985 	bl	8001454 <_ZdaPv>
 800114a:	f8d4 00a4 	ldr.w	r0, [r4, #164]	; 0xa4
 800114e:	b108      	cbz	r0, 8001154 <_ZN13NeuralNetworkD1Ev+0x1c>
 8001150:	f000 f980 	bl	8001454 <_ZdaPv>
 8001154:	4620      	mov	r0, r4
 8001156:	bd10      	pop	{r4, pc}
 8001158:	080044b8 	stmdaeq	r0, {r3, r4, r5, r7, sl, lr}

0800115c <_ZN13NeuralNetworkD0Ev>:
 800115c:	b510      	push	{r4, lr}
 800115e:	4604      	mov	r4, r0
 8001160:	f7ff ffea 	bl	8001138 <_ZN13NeuralNetworkD1Ev>
 8001164:	4620      	mov	r0, r4
 8001166:	21b0      	movs	r1, #176	; 0xb0
 8001168:	f000 f96a 	bl	8001440 <_ZdlPvj>
 800116c:	4620      	mov	r0, r4
 800116e:	bd10      	pop	{r4, pc}

08001170 <_ZN13NeuralNetworkC1Ev>:
 8001170:	4b0e      	ldr	r3, [pc, #56]	; (80011ac <_ZN13NeuralNetworkC1Ev+0x3c>)
 8001172:	6003      	str	r3, [r0, #0]
 8001174:	2300      	movs	r3, #0
 8001176:	f8c0 3088 	str.w	r3, [r0, #136]	; 0x88
 800117a:	f8c0 308c 	str.w	r3, [r0, #140]	; 0x8c
 800117e:	f8c0 3090 	str.w	r3, [r0, #144]	; 0x90
 8001182:	f8c0 3094 	str.w	r3, [r0, #148]	; 0x94
 8001186:	f8c0 3098 	str.w	r3, [r0, #152]	; 0x98
 800118a:	f8c0 309c 	str.w	r3, [r0, #156]	; 0x9c
 800118e:	f100 0208 	add.w	r2, r0, #8
 8001192:	f100 0188 	add.w	r1, r0, #136	; 0x88
 8001196:	f842 3b04 	str.w	r3, [r2], #4
 800119a:	428a      	cmp	r2, r1
 800119c:	d1fb      	bne.n	8001196 <_ZN13NeuralNetworkC1Ev+0x26>
 800119e:	6043      	str	r3, [r0, #4]
 80011a0:	f8c0 30a0 	str.w	r3, [r0, #160]	; 0xa0
 80011a4:	f8c0 30a4 	str.w	r3, [r0, #164]	; 0xa4
 80011a8:	4770      	bx	lr
 80011aa:	bf00      	nop
 80011ac:	080044b8 	stmdaeq	r0, {r3, r4, r5, r7, sl, lr}

080011b0 <_ZN13NeuralNetwork7forwardEv>:
 80011b0:	b5f8      	push	{r3, r4, r5, r6, r7, lr}
 80011b2:	2500      	movs	r5, #0
 80011b4:	4604      	mov	r4, r0
 80011b6:	f100 0608 	add.w	r6, r0, #8
 80011ba:	462f      	mov	r7, r5
 80011bc:	6863      	ldr	r3, [r4, #4]
 80011be:	429d      	cmp	r5, r3
 80011c0:	d21f      	bcs.n	8001202 <_ZN13NeuralNetwork7forwardEv+0x52>
 80011c2:	2300      	movs	r3, #0
 80011c4:	6830      	ldr	r0, [r6, #0]
 80011c6:	6942      	ldr	r2, [r0, #20]
 80011c8:	6901      	ldr	r1, [r0, #16]
 80011ca:	4351      	muls	r1, r2
 80011cc:	6982      	ldr	r2, [r0, #24]
 80011ce:	434a      	muls	r2, r1
 80011d0:	4293      	cmp	r3, r2
 80011d2:	d204      	bcs.n	80011de <_ZN13NeuralNetwork7forwardEv+0x2e>
 80011d4:	f8d4 20ac 	ldr.w	r2, [r4, #172]	; 0xac
 80011d8:	54d7      	strb	r7, [r2, r3]
 80011da:	3301      	adds	r3, #1
 80011dc:	e7f2      	b.n	80011c4 <_ZN13NeuralNetwork7forwardEv+0x14>
 80011de:	6803      	ldr	r3, [r0, #0]
 80011e0:	f8d4 20a8 	ldr.w	r2, [r4, #168]	; 0xa8
 80011e4:	689b      	ldr	r3, [r3, #8]
 80011e6:	f8d4 10ac 	ldr.w	r1, [r4, #172]	; 0xac
 80011ea:	4798      	blx	r3
 80011ec:	f8d4 30a8 	ldr.w	r3, [r4, #168]	; 0xa8
 80011f0:	f8d4 20ac 	ldr.w	r2, [r4, #172]	; 0xac
 80011f4:	f8c4 20a8 	str.w	r2, [r4, #168]	; 0xa8
 80011f8:	f8c4 30ac 	str.w	r3, [r4, #172]	; 0xac
 80011fc:	3501      	adds	r5, #1
 80011fe:	3604      	adds	r6, #4
 8001200:	e7dc      	b.n	80011bc <_ZN13NeuralNetwork7forwardEv+0xc>
 8001202:	f8d4 30a8 	ldr.w	r3, [r4, #168]	; 0xa8
 8001206:	f8d4 20ac 	ldr.w	r2, [r4, #172]	; 0xac
 800120a:	f8c4 20a8 	str.w	r2, [r4, #168]	; 0xa8
 800120e:	f8c4 30ac 	str.w	r3, [r4, #172]	; 0xac
 8001212:	bdf8      	pop	{r3, r4, r5, r6, r7, pc}

08001214 <_ZN13NeuralNetwork12class_resultEv>:
 8001214:	b530      	push	{r4, r5, lr}
 8001216:	f8d0 2098 	ldr.w	r2, [r0, #152]	; 0x98
 800121a:	f8d0 3094 	ldr.w	r3, [r0, #148]	; 0x94
 800121e:	f8d0 40ac 	ldr.w	r4, [r0, #172]	; 0xac
 8001222:	4353      	muls	r3, r2
 8001224:	f8d0 209c 	ldr.w	r2, [r0, #156]	; 0x9c
 8001228:	f994 1000 	ldrsb.w	r1, [r4]
 800122c:	435a      	muls	r2, r3
 800122e:	2300      	movs	r3, #0
 8001230:	4618      	mov	r0, r3
 8001232:	4293      	cmp	r3, r2
 8001234:	d006      	beq.n	8001244 <_ZN13NeuralNetwork12class_resultEv+0x30>
 8001236:	56e5      	ldrsb	r5, [r4, r3]
 8001238:	42a9      	cmp	r1, r5
 800123a:	bfbc      	itt	lt
 800123c:	4618      	movlt	r0, r3
 800123e:	4629      	movlt	r1, r5
 8001240:	3301      	adds	r3, #1
 8001242:	e7f6      	b.n	8001232 <_ZN13NeuralNetwork12class_resultEv+0x1e>
 8001244:	bd30      	pop	{r4, r5, pc}

08001246 <_ZN13NeuralNetwork24get_required_buffer_sizeEv>:
 8001246:	b570      	push	{r4, r5, r6, lr}
 8001248:	6844      	ldr	r4, [r0, #4]
 800124a:	3402      	adds	r4, #2
 800124c:	f100 0508 	add.w	r5, r0, #8
 8001250:	eb00 0484 	add.w	r4, r0, r4, lsl #2
 8001254:	2000      	movs	r0, #0
 8001256:	42a5      	cmp	r5, r4
 8001258:	d012      	beq.n	8001280 <_ZN13NeuralNetwork24get_required_buffer_sizeEv+0x3a>
 800125a:	f855 3b04 	ldr.w	r3, [r5], #4
 800125e:	689a      	ldr	r2, [r3, #8]
 8001260:	6859      	ldr	r1, [r3, #4]
 8001262:	691e      	ldr	r6, [r3, #16]
 8001264:	4351      	muls	r1, r2
 8001266:	68da      	ldr	r2, [r3, #12]
 8001268:	434a      	muls	r2, r1
 800126a:	6959      	ldr	r1, [r3, #20]
 800126c:	699b      	ldr	r3, [r3, #24]
 800126e:	4371      	muls	r1, r6
 8001270:	434b      	muls	r3, r1
 8001272:	429a      	cmp	r2, r3
 8001274:	bf38      	it	cc
 8001276:	461a      	movcc	r2, r3
 8001278:	4290      	cmp	r0, r2
 800127a:	bf38      	it	cc
 800127c:	4610      	movcc	r0, r2
 800127e:	e7ea      	b.n	8001256 <_ZN13NeuralNetwork24get_required_buffer_sizeEv+0x10>
 8001280:	bd70      	pop	{r4, r5, r6, pc}

08001282 <_ZN13NeuralNetwork15allocate_bufferEv>:
 8001282:	f8d0 30a0 	ldr.w	r3, [r0, #160]	; 0xa0
 8001286:	b570      	push	{r4, r5, r6, lr}
 8001288:	4605      	mov	r5, r0
 800128a:	bb03      	cbnz	r3, 80012ce <_ZN13NeuralNetwork15allocate_bufferEv+0x4c>
 800128c:	f8d0 40a4 	ldr.w	r4, [r0, #164]	; 0xa4
 8001290:	b9ec      	cbnz	r4, 80012ce <_ZN13NeuralNetwork15allocate_bufferEv+0x4c>
 8001292:	f7ff ffd8 	bl	8001246 <_ZN13NeuralNetwork24get_required_buffer_sizeEv>
 8001296:	4606      	mov	r6, r0
 8001298:	f000 f8d4 	bl	8001444 <_Znaj>
 800129c:	f8c5 00a0 	str.w	r0, [r5, #160]	; 0xa0
 80012a0:	4630      	mov	r0, r6
 80012a2:	f000 f8cf 	bl	8001444 <_Znaj>
 80012a6:	f8d5 30a0 	ldr.w	r3, [r5, #160]	; 0xa0
 80012aa:	f8c5 30a8 	str.w	r3, [r5, #168]	; 0xa8
 80012ae:	f8c5 00a4 	str.w	r0, [r5, #164]	; 0xa4
 80012b2:	f8c5 00ac 	str.w	r0, [r5, #172]	; 0xac
 80012b6:	4623      	mov	r3, r4
 80012b8:	4622      	mov	r2, r4
 80012ba:	429e      	cmp	r6, r3
 80012bc:	d007      	beq.n	80012ce <_ZN13NeuralNetwork15allocate_bufferEv+0x4c>
 80012be:	f8d5 10a0 	ldr.w	r1, [r5, #160]	; 0xa0
 80012c2:	54ca      	strb	r2, [r1, r3]
 80012c4:	f8d5 10a4 	ldr.w	r1, [r5, #164]	; 0xa4
 80012c8:	54ca      	strb	r2, [r1, r3]
 80012ca:	3301      	adds	r3, #1
 80012cc:	e7f5      	b.n	80012ba <_ZN13NeuralNetwork15allocate_bufferEv+0x38>
 80012ce:	bd70      	pop	{r4, r5, r6, pc}

080012d0 <_Z18network_dot_kernelPaS_j>:
 80012d0:	b5f0      	push	{r4, r5, r6, r7, lr}
 80012d2:	2300      	movs	r3, #0
 80012d4:	4605      	mov	r5, r0
 80012d6:	460c      	mov	r4, r1
 80012d8:	4616      	mov	r6, r2
 80012da:	2e03      	cmp	r6, #3
 80012dc:	f105 0504 	add.w	r5, r5, #4
 80012e0:	f104 0404 	add.w	r4, r4, #4
 80012e4:	d919      	bls.n	800131a <_Z18network_dot_kernelPaS_j+0x4a>
 80012e6:	f915 7c04 	ldrsb.w	r7, [r5, #-4]
 80012ea:	f914 ec04 	ldrsb.w	lr, [r4, #-4]
 80012ee:	fb17 330e 	smlabb	r3, r7, lr, r3
 80012f2:	f914 ec03 	ldrsb.w	lr, [r4, #-3]
 80012f6:	f915 7c03 	ldrsb.w	r7, [r5, #-3]
 80012fa:	fb17 370e 	smlabb	r7, r7, lr, r3
 80012fe:	f915 3c02 	ldrsb.w	r3, [r5, #-2]
 8001302:	f914 ec02 	ldrsb.w	lr, [r4, #-2]
 8001306:	fb13 770e 	smlabb	r7, r3, lr, r7
 800130a:	f915 ec01 	ldrsb.w	lr, [r5, #-1]
 800130e:	f914 3c01 	ldrsb.w	r3, [r4, #-1]
 8001312:	3e04      	subs	r6, #4
 8001314:	fb1e 7303 	smlabb	r3, lr, r3, r7
 8001318:	e7df      	b.n	80012da <_Z18network_dot_kernelPaS_j+0xa>
 800131a:	f002 0403 	and.w	r4, r2, #3
 800131e:	f022 0203 	bic.w	r2, r2, #3
 8001322:	4410      	add	r0, r2
 8001324:	440a      	add	r2, r1
 8001326:	b13c      	cbz	r4, 8001338 <_Z18network_dot_kernelPaS_j+0x68>
 8001328:	f910 5b01 	ldrsb.w	r5, [r0], #1
 800132c:	f912 1b01 	ldrsb.w	r1, [r2], #1
 8001330:	3c01      	subs	r4, #1
 8001332:	fb15 3301 	smlabb	r3, r5, r1, r3
 8001336:	e7f6      	b.n	8001326 <_Z18network_dot_kernelPaS_j+0x56>
 8001338:	4618      	mov	r0, r3
 800133a:	bdf0      	pop	{r4, r5, r6, r7, pc}

0800133c <_ZN12NetworkLayerD1Ev>:
 800133c:	4770      	bx	lr

0800133e <_ZN12NetworkLayer7forwardEPaS0_>:
 800133e:	4770      	bx	lr

08001340 <_ZN12NetworkLayerD0Ev>:
 8001340:	b510      	push	{r4, lr}
 8001342:	2128      	movs	r1, #40	; 0x28
 8001344:	4604      	mov	r4, r0
 8001346:	f000 f87b 	bl	8001440 <_ZdlPvj>
 800134a:	4620      	mov	r0, r4
 800134c:	bd10      	pop	{r4, pc}
 800134e:	0000      	movs	r0, r0

08001350 <_ZN12NetworkLayerC1Ev>:
 8001350:	4a06      	ldr	r2, [pc, #24]	; (800136c <_ZN12NetworkLayerC1Ev+0x1c>)
 8001352:	6002      	str	r2, [r0, #0]
 8001354:	2200      	movs	r2, #0
 8001356:	6042      	str	r2, [r0, #4]
 8001358:	6082      	str	r2, [r0, #8]
 800135a:	60c2      	str	r2, [r0, #12]
 800135c:	6102      	str	r2, [r0, #16]
 800135e:	6142      	str	r2, [r0, #20]
 8001360:	6182      	str	r2, [r0, #24]
 8001362:	61c2      	str	r2, [r0, #28]
 8001364:	6202      	str	r2, [r0, #32]
 8001366:	6242      	str	r2, [r0, #36]	; 0x24
 8001368:	4770      	bx	lr
 800136a:	bf00      	nop
 800136c:	080044d0 	stmdaeq	r0, {r4, r6, r7, sl, lr}

08001370 <_ZN19NetConvolutionLayerD1Ev>:
 8001370:	b510      	push	{r4, lr}
 8001372:	4b03      	ldr	r3, [pc, #12]	; (8001380 <_ZN19NetConvolutionLayerD1Ev+0x10>)
 8001374:	6003      	str	r3, [r0, #0]
 8001376:	4604      	mov	r4, r0
 8001378:	f7ff ffe0 	bl	800133c <_ZN12NetworkLayerD1Ev>
 800137c:	4620      	mov	r0, r4
 800137e:	bd10      	pop	{r4, pc}
 8001380:	080044e4 	stmdaeq	r0, {r2, r5, r6, r7, sl, lr}

08001384 <_ZN19NetConvolutionLayerD0Ev>:
 8001384:	b510      	push	{r4, lr}
 8001386:	4604      	mov	r4, r0
 8001388:	f7ff fff2 	bl	8001370 <_ZN19NetConvolutionLayerD1Ev>
 800138c:	4620      	mov	r0, r4
 800138e:	2138      	movs	r1, #56	; 0x38
 8001390:	f000 f856 	bl	8001440 <_ZdlPvj>
 8001394:	4620      	mov	r0, r4
 8001396:	bd10      	pop	{r4, pc}

08001398 <_ZN19NetConvolutionLayer7forwardEPaS0_>:
 8001398:	b570      	push	{r4, r5, r6, lr}
 800139a:	4616      	mov	r6, r2
 800139c:	f100 021c 	add.w	r2, r0, #28
 80013a0:	4604      	mov	r4, r0
 80013a2:	460d      	mov	r5, r1
 80013a4:	ca07      	ldmia	r2, {r0, r1, r2}
 80013a6:	b088      	sub	sp, #32
 80013a8:	ab05      	add	r3, sp, #20
 80013aa:	e883 0007 	stmia.w	r3, {r0, r1, r2}
 80013ae:	1d22      	adds	r2, r4, #4
 80013b0:	ca07      	ldmia	r2, {r0, r1, r2}
 80013b2:	ab02      	add	r3, sp, #8
 80013b4:	e883 0007 	stmia.w	r3, {r0, r1, r2}
 80013b8:	6b63      	ldr	r3, [r4, #52]	; 0x34
 80013ba:	9301      	str	r3, [sp, #4]
 80013bc:	6b23      	ldr	r3, [r4, #48]	; 0x30
 80013be:	9300      	str	r3, [sp, #0]
 80013c0:	6aa2      	ldr	r2, [r4, #40]	; 0x28
 80013c2:	6ae3      	ldr	r3, [r4, #44]	; 0x2c
 80013c4:	4631      	mov	r1, r6
 80013c6:	4628      	mov	r0, r5
 80013c8:	f7ff fc91 	bl	8000cee <_Z26network_convolution_kernelPaS_S_S_ii14sLayerGeometryS0_>
 80013cc:	b008      	add	sp, #32
 80013ce:	bd70      	pop	{r4, r5, r6, pc}

080013d0 <_ZN19NetConvolutionLayerC1E14sLayerGeometryS0_S0_PKaS2_ii>:
 80013d0:	b530      	push	{r4, r5, lr}
 80013d2:	b085      	sub	sp, #20
 80013d4:	4604      	mov	r4, r0
 80013d6:	ad01      	add	r5, sp, #4
 80013d8:	e885 000e 	stmia.w	r5, {r1, r2, r3}
 80013dc:	f7ff ffb8 	bl	8001350 <_ZN12NetworkLayerC1Ev>
 80013e0:	4623      	mov	r3, r4
 80013e2:	4a0e      	ldr	r2, [pc, #56]	; (800141c <_ZN19NetConvolutionLayerC1E14sLayerGeometryS0_S0_PKaS2_ii+0x4c>)
 80013e4:	f843 2b1c 	str.w	r2, [r3], #28
 80013e8:	e895 0007 	ldmia.w	r5, {r0, r1, r2}
 80013ec:	e883 0007 	stmia.w	r3, {r0, r1, r2}
 80013f0:	aa08      	add	r2, sp, #32
 80013f2:	ca07      	ldmia	r2, {r0, r1, r2}
 80013f4:	1d23      	adds	r3, r4, #4
 80013f6:	e883 0007 	stmia.w	r3, {r0, r1, r2}
 80013fa:	aa0b      	add	r2, sp, #44	; 0x2c
 80013fc:	ca07      	ldmia	r2, {r0, r1, r2}
 80013fe:	f104 0310 	add.w	r3, r4, #16
 8001402:	e883 0007 	stmia.w	r3, {r0, r1, r2}
 8001406:	9b0e      	ldr	r3, [sp, #56]	; 0x38
 8001408:	62a3      	str	r3, [r4, #40]	; 0x28
 800140a:	9b0f      	ldr	r3, [sp, #60]	; 0x3c
 800140c:	62e3      	str	r3, [r4, #44]	; 0x2c
 800140e:	9b10      	ldr	r3, [sp, #64]	; 0x40
 8001410:	6323      	str	r3, [r4, #48]	; 0x30
 8001412:	9b11      	ldr	r3, [sp, #68]	; 0x44
 8001414:	6363      	str	r3, [r4, #52]	; 0x34
 8001416:	4620      	mov	r0, r4
 8001418:	b005      	add	sp, #20
 800141a:	bd30      	pop	{r4, r5, pc}
 800141c:	080044e4 	stmdaeq	r0, {r2, r5, r6, r7, sl, lr}

08001420 <_Z8mem_initv>:
 8001420:	4b01      	ldr	r3, [pc, #4]	; (8001428 <_Z8mem_initv+0x8>)
 8001422:	4802      	ldr	r0, [pc, #8]	; (800142c <_Z8mem_initv+0xc>)
 8001424:	6018      	str	r0, [r3, #0]
 8001426:	4770      	bx	lr
 8001428:	20000000 	andcs	r0, r0, r0
 800142c:	20000438 	andcs	r0, r0, r8, lsr r4

08001430 <_Znwj>:
 8001430:	4a02      	ldr	r2, [pc, #8]	; (800143c <_Znwj+0xc>)
 8001432:	6813      	ldr	r3, [r2, #0]
 8001434:	4418      	add	r0, r3
 8001436:	6010      	str	r0, [r2, #0]
 8001438:	4618      	mov	r0, r3
 800143a:	4770      	bx	lr
 800143c:	20000000 	andcs	r0, r0, r0

08001440 <_ZdlPvj>:
 8001440:	4770      	bx	lr
 8001442:	0000      	movs	r0, r0

08001444 <_Znaj>:
 8001444:	4a02      	ldr	r2, [pc, #8]	; (8001450 <_Znaj+0xc>)
 8001446:	6813      	ldr	r3, [r2, #0]
 8001448:	4418      	add	r0, r3
 800144a:	6010      	str	r0, [r2, #0]
 800144c:	4618      	mov	r0, r3
 800144e:	4770      	bx	lr
 8001450:	20000000 	andcs	r0, r0, r0

08001454 <_ZdaPv>:
 8001454:	4770      	bx	lr

08001456 <__aeabi_atexit>:
 8001456:	2000      	movs	r0, #0
 8001458:	4770      	bx	lr

0800145a <_ZN6FilterD1Ev>:
 800145a:	4770      	bx	lr

0800145c <_ZN6FilterD0Ev>:
 800145c:	b510      	push	{r4, lr}
 800145e:	2130      	movs	r1, #48	; 0x30
 8001460:	4604      	mov	r4, r0
 8001462:	f7ff ffed 	bl	8001440 <_ZdlPvj>
 8001466:	4620      	mov	r0, r4
 8001468:	bd10      	pop	{r4, pc}

0800146a <_ZN6Filter9set_coefsEfffff>:
 800146a:	60c3      	str	r3, [r0, #12]
 800146c:	9b00      	ldr	r3, [sp, #0]
 800146e:	6103      	str	r3, [r0, #16]
 8001470:	9b01      	ldr	r3, [sp, #4]
 8001472:	6041      	str	r1, [r0, #4]
 8001474:	6082      	str	r2, [r0, #8]
 8001476:	6143      	str	r3, [r0, #20]
 8001478:	4770      	bx	lr

0800147a <_ZN6Filter5resetEv>:
 800147a:	2300      	movs	r3, #0
 800147c:	6183      	str	r3, [r0, #24]
 800147e:	61c3      	str	r3, [r0, #28]
 8001480:	6203      	str	r3, [r0, #32]
 8001482:	6243      	str	r3, [r0, #36]	; 0x24
 8001484:	6283      	str	r3, [r0, #40]	; 0x28
 8001486:	62c3      	str	r3, [r0, #44]	; 0x2c
 8001488:	4770      	bx	lr
 800148a:	0000      	movs	r0, r0

0800148c <_ZN6FilterC1Ev>:
 800148c:	b508      	push	{r3, lr}
 800148e:	4b05      	ldr	r3, [pc, #20]	; (80014a4 <_ZN6FilterC1Ev+0x18>)
 8001490:	6003      	str	r3, [r0, #0]
 8001492:	2300      	movs	r3, #0
 8001494:	6043      	str	r3, [r0, #4]
 8001496:	6083      	str	r3, [r0, #8]
 8001498:	60c3      	str	r3, [r0, #12]
 800149a:	6103      	str	r3, [r0, #16]
 800149c:	6143      	str	r3, [r0, #20]
 800149e:	f7ff ffec 	bl	800147a <_ZN6Filter5resetEv>
 80014a2:	bd08      	pop	{r3, pc}
 80014a4:	080044f8 	stmdaeq	r0, {r3, r4, r5, r6, r7, sl, lr}

080014a8 <_ZN6Filter7processEf>:
 80014a8:	edd0 7a09 	vldr	s15, [r0, #36]	; 0x24
 80014ac:	edd0 4a04 	vldr	s9, [r0, #16]
 80014b0:	ed90 5a03 	vldr	s10, [r0, #12]
 80014b4:	ed90 6a0a 	vldr	s12, [r0, #40]	; 0x28
 80014b8:	edc0 7a0a 	vstr	s15, [r0, #40]	; 0x28
 80014bc:	ee05 1a90 	vmov	s11, r1
 80014c0:	ee67 7aa4 	vmul.f32	s15, s15, s9
 80014c4:	ee45 7a85 	vmla.f32	s15, s11, s10
 80014c8:	6241      	str	r1, [r0, #36]	; 0x24
 80014ca:	edd0 5a05 	vldr	s11, [r0, #20]
 80014ce:	edd0 6a06 	vldr	s13, [r0, #24]
 80014d2:	ed80 6a0b 	vstr	s12, [r0, #44]	; 0x2c
 80014d6:	ee46 7a25 	vmla.f32	s15, s12, s11
 80014da:	ed90 6a01 	vldr	s12, [r0, #4]
 80014de:	ed90 7a07 	vldr	s14, [r0, #28]
 80014e2:	edc0 6a07 	vstr	s13, [r0, #28]
 80014e6:	ee46 7a86 	vmla.f32	s15, s13, s12
 80014ea:	edd0 6a02 	vldr	s13, [r0, #8]
 80014ee:	ed80 7a08 	vstr	s14, [r0, #32]
 80014f2:	ee47 7a26 	vmla.f32	s15, s14, s13
 80014f6:	edc0 7a06 	vstr	s15, [r0, #24]
 80014fa:	ee17 0a90 	vmov	r0, s15
 80014fe:	4770      	bx	lr

08001500 <_ZN6Filter12get_absoluteEv>:
 8001500:	edd0 7a06 	vldr	s15, [r0, #24]
 8001504:	eef5 7ac0 	vcmpe.f32	s15, #0.0
 8001508:	eef1 fa10 	vmrs	APSR_nzcv, fpscr
 800150c:	bf48      	it	mi
 800150e:	eef1 7a67 	vnegmi.f32	s15, s15
 8001512:	ee17 0a90 	vmov	r0, s15
 8001516:	4770      	bx	lr

08001518 <_ZN3PIDD1Ev>:
 8001518:	4770      	bx	lr

0800151a <_ZN3PIDD0Ev>:
 800151a:	b510      	push	{r4, lr}
 800151c:	212c      	movs	r1, #44	; 0x2c
 800151e:	4604      	mov	r4, r0
 8001520:	f7ff ff8e 	bl	8001440 <_ZdlPvj>
 8001524:	4620      	mov	r0, r4
 8001526:	bd10      	pop	{r4, pc}

08001528 <_ZN3PID4initEffff>:
 8001528:	ee07 1a90 	vmov	s15, r1
 800152c:	ee07 2a10 	vmov	s14, r2
 8001530:	ee37 7a87 	vadd.f32	s14, s15, s14
 8001534:	2100      	movs	r1, #0
 8001536:	eef1 7a67 	vneg.f32	s15, s15
 800153a:	6203      	str	r3, [r0, #32]
 800153c:	9b00      	ldr	r3, [sp, #0]
 800153e:	6041      	str	r1, [r0, #4]
 8001540:	6081      	str	r1, [r0, #8]
 8001542:	60c1      	str	r1, [r0, #12]
 8001544:	6101      	str	r1, [r0, #16]
 8001546:	6141      	str	r1, [r0, #20]
 8001548:	6281      	str	r1, [r0, #40]	; 0x28
 800154a:	ed80 7a06 	vstr	s14, [r0, #24]
 800154e:	edc0 7a07 	vstr	s15, [r0, #28]
 8001552:	6243      	str	r3, [r0, #36]	; 0x24
 8001554:	4770      	bx	lr
 8001556:	0000      	movs	r0, r0

08001558 <_ZN3PIDC1Effff>:
 8001558:	b537      	push	{r0, r1, r2, r4, r5, lr}
 800155a:	4d04      	ldr	r5, [pc, #16]	; (800156c <_ZN3PIDC1Effff+0x14>)
 800155c:	6005      	str	r5, [r0, #0]
 800155e:	9d06      	ldr	r5, [sp, #24]
 8001560:	9500      	str	r5, [sp, #0]
 8001562:	f7ff ffe1 	bl	8001528 <_ZN3PID4initEffff>
 8001566:	b003      	add	sp, #12
 8001568:	bd30      	pop	{r4, r5, pc}
 800156a:	bf00      	nop
 800156c:	08004508 	stmdaeq	r0, {r3, r8, sl, lr}

08001570 <_ZN3PID7processEff>:
 8001570:	edd0 6a03 	vldr	s13, [r0, #12]
 8001574:	edd0 7a01 	vldr	s15, [r0, #4]
 8001578:	ed90 6a04 	vldr	s12, [r0, #16]
 800157c:	edd0 4a07 	vldr	s9, [r0, #28]
 8001580:	edc0 6a04 	vstr	s13, [r0, #16]
 8001584:	ee07 2a10 	vmov	s14, r2
 8001588:	ee76 6aa6 	vadd.f32	s13, s13, s13
 800158c:	ed90 5a06 	vldr	s10, [r0, #24]
 8001590:	edc0 7a02 	vstr	s15, [r0, #8]
 8001594:	ee05 1a90 	vmov	s11, r1
 8001598:	ee67 7aa4 	vmul.f32	s15, s15, s9
 800159c:	ee37 7a66 	vsub.f32	s14, s14, s13
 80015a0:	ee45 7a85 	vmla.f32	s15, s11, s10
 80015a4:	6041      	str	r1, [r0, #4]
 80015a6:	60c2      	str	r2, [r0, #12]
 80015a8:	ee37 7a06 	vadd.f32	s14, s14, s12
 80015ac:	edd0 6a08 	vldr	s13, [r0, #32]
 80015b0:	ed80 6a05 	vstr	s12, [r0, #20]
 80015b4:	ee47 7a66 	vmls.f32	s15, s14, s13
 80015b8:	ed90 7a0a 	vldr	s14, [r0, #40]	; 0x28
 80015bc:	ee77 7a87 	vadd.f32	s15, s15, s14
 80015c0:	ed90 7a09 	vldr	s14, [r0, #36]	; 0x24
 80015c4:	edc0 7a0a 	vstr	s15, [r0, #40]	; 0x28
 80015c8:	eef4 7ac7 	vcmpe.f32	s15, s14
 80015cc:	eef1 fa10 	vmrs	APSR_nzcv, fpscr
 80015d0:	bfc8      	it	gt
 80015d2:	ed80 7a0a 	vstrgt	s14, [r0, #40]	; 0x28
 80015d6:	edd0 7a0a 	vldr	s15, [r0, #40]	; 0x28
 80015da:	eeb1 7a47 	vneg.f32	s14, s14
 80015de:	eef4 7ac7 	vcmpe.f32	s15, s14
 80015e2:	eef1 fa10 	vmrs	APSR_nzcv, fpscr
 80015e6:	bf48      	it	mi
 80015e8:	ed80 7a0a 	vstrmi	s14, [r0, #40]	; 0x28
 80015ec:	6a80      	ldr	r0, [r0, #40]	; 0x28
 80015ee:	4770      	bx	lr

080015f0 <_ZN3PID5resetEf>:
 80015f0:	2300      	movs	r3, #0
 80015f2:	6043      	str	r3, [r0, #4]
 80015f4:	6083      	str	r3, [r0, #8]
 80015f6:	60c1      	str	r1, [r0, #12]
 80015f8:	6101      	str	r1, [r0, #16]
 80015fa:	6141      	str	r1, [r0, #20]
 80015fc:	6283      	str	r3, [r0, #40]	; 0x28
 80015fe:	4770      	bx	lr

08001600 <_ZN3PID7processEf>:
 8001600:	f081 4200 	eor.w	r2, r1, #2147483648	; 0x80000000
 8001604:	f7ff bfb4 	b.w	8001570 <_ZN3PID7processEff>

08001608 <main>:
 8001608:	b510      	push	{r4, lr}
 800160a:	f5ad 5ddc 	sub.w	sp, sp, #7040	; 0x1b80
 800160e:	b084      	sub	sp, #16
 8001610:	480e      	ldr	r0, [pc, #56]	; (800164c <main+0x44>)
 8001612:	f001 fe79 	bl	8003308 <_ZN7Drivers4initEv>
 8001616:	480e      	ldr	r0, [pc, #56]	; (8001650 <main+0x48>)
 8001618:	f000 fd08 	bl	800202c <_ZN3Key4readEv>
 800161c:	4604      	mov	r4, r0
 800161e:	4668      	mov	r0, sp
 8001620:	f7fe ff46 	bl	80004b0 <_ZN5RobotC1Ev>
 8001624:	2c01      	cmp	r4, #1
 8001626:	4668      	mov	r0, sp
 8001628:	d10c      	bne.n	8001644 <main+0x3c>
 800162a:	f7ff f957 	bl	80008dc <_ZN5Robot14mapping_enableEv>
 800162e:	4668      	mov	r0, sp
 8001630:	f7ff f8fe 	bl	8000830 <_ZN5Robot4mainEv>
 8001634:	4668      	mov	r0, sp
 8001636:	f7ff f965 	bl	8000904 <_ZN5RobotD1Ev>
 800163a:	2000      	movs	r0, #0
 800163c:	f50d 5ddc 	add.w	sp, sp, #7040	; 0x1b80
 8001640:	b004      	add	sp, #16
 8001642:	bd10      	pop	{r4, pc}
 8001644:	f7ff f950 	bl	80008e8 <_ZN5Robot15fast_run_enableEv>
 8001648:	e7f1      	b.n	800162e <main+0x26>
 800164a:	bf00      	nop
 800164c:	2000022c 	andcs	r0, r0, ip, lsr #4
 8001650:	200002ac 	andcs	r0, r0, ip, lsr #5

08001654 <_ZN14BrickDetectionD1Ev>:
 8001654:	4770      	bx	lr

08001656 <_ZN14BrickDetectionD0Ev>:
 8001656:	b510      	push	{r4, lr}
 8001658:	2138      	movs	r1, #56	; 0x38
 800165a:	4604      	mov	r4, r0
 800165c:	f7ff fef0 	bl	8001440 <_ZdlPvj>
 8001660:	4620      	mov	r0, r4
 8001662:	bd10      	pop	{r4, pc}

08001664 <_ZN14BrickDetectionC1Ev>:
 8001664:	4b09      	ldr	r3, [pc, #36]	; (800168c <_ZN14BrickDetectionC1Ev+0x28>)
 8001666:	6003      	str	r3, [r0, #0]
 8001668:	4b09      	ldr	r3, [pc, #36]	; (8001690 <_ZN14BrickDetectionC1Ev+0x2c>)
 800166a:	6043      	str	r3, [r0, #4]
 800166c:	f100 0228 	add.w	r2, r0, #40	; 0x28
 8001670:	f100 0308 	add.w	r3, r0, #8
 8001674:	2101      	movs	r1, #1
 8001676:	f843 1b04 	str.w	r1, [r3], #4
 800167a:	4293      	cmp	r3, r2
 800167c:	d1fb      	bne.n	8001676 <_ZN14BrickDetectionC1Ev+0x12>
 800167e:	2300      	movs	r3, #0
 8001680:	6283      	str	r3, [r0, #40]	; 0x28
 8001682:	62c3      	str	r3, [r0, #44]	; 0x2c
 8001684:	6303      	str	r3, [r0, #48]	; 0x30
 8001686:	6343      	str	r3, [r0, #52]	; 0x34
 8001688:	4770      	bx	lr
 800168a:	bf00      	nop
 800168c:	08004518 	stmdaeq	r0, {r3, r4, r8, sl, lr}
 8001690:	08004414 	stmdaeq	r0, {r2, r4, sl, lr}

08001694 <_ZN14BrickDetection4initER5ArrayIiLj8EEi>:
 8001694:	b530      	push	{r4, r5, lr}
 8001696:	1d0b      	adds	r3, r1, #4
 8001698:	f100 0408 	add.w	r4, r0, #8
 800169c:	3124      	adds	r1, #36	; 0x24
 800169e:	f853 5b04 	ldr.w	r5, [r3], #4
 80016a2:	f844 5b04 	str.w	r5, [r4], #4
 80016a6:	428b      	cmp	r3, r1
 80016a8:	d1f9      	bne.n	800169e <_ZN14BrickDetection4initER5ArrayIiLj8EEi+0xa>
 80016aa:	2300      	movs	r3, #0
 80016ac:	6282      	str	r2, [r0, #40]	; 0x28
 80016ae:	62c3      	str	r3, [r0, #44]	; 0x2c
 80016b0:	6303      	str	r3, [r0, #48]	; 0x30
 80016b2:	bd30      	pop	{r4, r5, pc}

080016b4 <_ZN14BrickDetection7processER15sDistanceSensor>:
 80016b4:	2300      	movs	r3, #0
 80016b6:	b510      	push	{r4, lr}
 80016b8:	6343      	str	r3, [r0, #52]	; 0x34
 80016ba:	4b0f      	ldr	r3, [pc, #60]	; (80016f8 <_ZN14BrickDetection7processER15sDistanceSensor+0x44>)
 80016bc:	7c5b      	ldrb	r3, [r3, #17]
 80016be:	4604      	mov	r4, r0
 80016c0:	b1c3      	cbz	r3, 80016f4 <_ZN14BrickDetection7processER15sDistanceSensor+0x40>
 80016c2:	480e      	ldr	r0, [pc, #56]	; (80016fc <_ZN14BrickDetection7processER15sDistanceSensor+0x48>)
 80016c4:	f001 f82c 	bl	8002720 <_ZN13EncoderSensor12get_distanceEv>
 80016c8:	6ae3      	ldr	r3, [r4, #44]	; 0x2c
 80016ca:	1ac0      	subs	r0, r0, r3
 80016cc:	2800      	cmp	r0, #0
 80016ce:	6aa3      	ldr	r3, [r4, #40]	; 0x28
 80016d0:	bfb8      	it	lt
 80016d2:	4240      	neglt	r0, r0
 80016d4:	4283      	cmp	r3, r0
 80016d6:	d20d      	bcs.n	80016f4 <_ZN14BrickDetection7processER15sDistanceSensor+0x40>
 80016d8:	4808      	ldr	r0, [pc, #32]	; (80016fc <_ZN14BrickDetection7processER15sDistanceSensor+0x48>)
 80016da:	f001 f821 	bl	8002720 <_ZN13EncoderSensor12get_distanceEv>
 80016de:	6b23      	ldr	r3, [r4, #48]	; 0x30
 80016e0:	62e0      	str	r0, [r4, #44]	; 0x2c
 80016e2:	eb04 0283 	add.w	r2, r4, r3, lsl #2
 80016e6:	6892      	ldr	r2, [r2, #8]
 80016e8:	b102      	cbz	r2, 80016ec <_ZN14BrickDetection7processER15sDistanceSensor+0x38>
 80016ea:	6362      	str	r2, [r4, #52]	; 0x34
 80016ec:	2b06      	cmp	r3, #6
 80016ee:	bf9c      	itt	ls
 80016f0:	3301      	addls	r3, #1
 80016f2:	6323      	strls	r3, [r4, #48]	; 0x30
 80016f4:	6b60      	ldr	r0, [r4, #52]	; 0x34
 80016f6:	bd10      	pop	{r4, pc}
 80016f8:	20000158 	andcs	r0, r0, r8, asr r1
 80016fc:	20000240 	andcs	r0, r0, r0, asr #4

08001700 <_ZN14BrickDetection3getEv>:
 8001700:	6b40      	ldr	r0, [r0, #52]	; 0x34
 8001702:	4770      	bx	lr

08001704 <_ZN11LineMappingD1Ev>:
 8001704:	4770      	bx	lr

08001706 <_ZN5ArrayI12sLineMapItemLj32EED1Ev>:
 8001706:	4770      	bx	lr

08001708 <_ZN5ArrayI12sLineMapItemLj3200EED1Ev>:
 8001708:	4770      	bx	lr

0800170a <_ZN5ArrayI12sLineMapItemLj32EED0Ev>:
 800170a:	b510      	push	{r4, lr}
 800170c:	2144      	movs	r1, #68	; 0x44
 800170e:	4604      	mov	r4, r0
 8001710:	f7ff fe96 	bl	8001440 <_ZdlPvj>
 8001714:	4620      	mov	r0, r4
 8001716:	bd10      	pop	{r4, pc}

08001718 <_ZN5ArrayI12sLineMapItemLj3200EED0Ev>:
 8001718:	b510      	push	{r4, lr}
 800171a:	f641 1104 	movw	r1, #6404	; 0x1904
 800171e:	4604      	mov	r4, r0
 8001720:	f7ff fe8e 	bl	8001440 <_ZdlPvj>
 8001724:	4620      	mov	r0, r4
 8001726:	bd10      	pop	{r4, pc}

08001728 <_ZN11LineMappingD0Ev>:
 8001728:	b510      	push	{r4, lr}
 800172a:	f641 1154 	movw	r1, #6484	; 0x1954
 800172e:	4604      	mov	r4, r0
 8001730:	f7ff fe86 	bl	8001440 <_ZdlPvj>
 8001734:	4620      	mov	r0, r4
 8001736:	bd10      	pop	{r4, pc}

08001738 <_ZN11LineMappingC1Ev>:
 8001738:	4a04      	ldr	r2, [pc, #16]	; (800174c <_ZN11LineMappingC1Ev+0x14>)
 800173a:	6002      	str	r2, [r0, #0]
 800173c:	4a04      	ldr	r2, [pc, #16]	; (8001750 <_ZN11LineMappingC1Ev+0x18>)
 800173e:	60c2      	str	r2, [r0, #12]
 8001740:	4a04      	ldr	r2, [pc, #16]	; (8001754 <_ZN11LineMappingC1Ev+0x1c>)
 8001742:	6502      	str	r2, [r0, #80]	; 0x50
 8001744:	2200      	movs	r2, #0
 8001746:	6042      	str	r2, [r0, #4]
 8001748:	6082      	str	r2, [r0, #8]
 800174a:	4770      	bx	lr
 800174c:	08004548 	stmdaeq	r0, {r3, r6, r8, sl, lr}
 8001750:	08004528 	stmdaeq	r0, {r3, r5, r8, sl, lr}
 8001754:	08004538 	stmdaeq	r0, {r3, r4, r5, r8, sl, lr}

08001758 <_ZN11LineMapping3addE12sLineMapItem>:
 8001758:	b537      	push	{r0, r1, r2, r4, r5, lr}
 800175a:	4605      	mov	r5, r0
 800175c:	6840      	ldr	r0, [r0, #4]
 800175e:	f8ad 1004 	strh.w	r1, [sp, #4]
 8001762:	f000 031f 	and.w	r3, r0, #31
 8001766:	eb05 0343 	add.w	r3, r5, r3, lsl #1
 800176a:	3001      	adds	r0, #1
 800176c:	f5b0 6f48 	cmp.w	r0, #3200	; 0xc80
 8001770:	8219      	strh	r1, [r3, #16]
 8001772:	6068      	str	r0, [r5, #4]
 8001774:	d80d      	bhi.n	8001792 <_ZN11LineMapping3addE12sLineMapItem+0x3a>
 8001776:	f010 041f 	ands.w	r4, r0, #31
 800177a:	d108      	bne.n	800178e <_ZN11LineMapping3addE12sLineMapItem+0x36>
 800177c:	f105 0210 	add.w	r2, r5, #16
 8001780:	68a9      	ldr	r1, [r5, #8]
 8001782:	4806      	ldr	r0, [pc, #24]	; (800179c <_ZN11LineMapping3addE12sLineMapItem+0x44>)
 8001784:	f001 f9c2 	bl	8002b0c <_ZN6EEPROM5writeEjPh>
 8001788:	68ab      	ldr	r3, [r5, #8]
 800178a:	3340      	adds	r3, #64	; 0x40
 800178c:	60ab      	str	r3, [r5, #8]
 800178e:	2000      	movs	r0, #0
 8001790:	e001      	b.n	8001796 <_ZN11LineMapping3addE12sLineMapItem+0x3e>
 8001792:	f04f 30ff 	mov.w	r0, #4294967295	; 0xffffffff
 8001796:	b003      	add	sp, #12
 8001798:	bd30      	pop	{r4, r5, pc}
 800179a:	bf00      	nop
 800179c:	20000234 	andcs	r0, r0, r4, lsr r2

080017a0 <_ZN11LineMapping3addEhh>:
 80017a0:	b507      	push	{r0, r1, r2, lr}
 80017a2:	f88d 1004 	strb.w	r1, [sp, #4]
 80017a6:	f88d 2005 	strb.w	r2, [sp, #5]
 80017aa:	9901      	ldr	r1, [sp, #4]
 80017ac:	f7ff ffd4 	bl	8001758 <_ZN11LineMapping3addE12sLineMapItem>
 80017b0:	b003      	add	sp, #12
 80017b2:	f85d fb04 	ldr.w	pc, [sp], #4

080017b6 <_ZN11LineMapping11get_closestEi>:
 80017b6:	f890 0055 	ldrb.w	r0, [r0, #85]	; 0x55
 80017ba:	4770      	bx	lr

080017bc <_ZN11LineMapping4loadEv>:
 80017bc:	e92d 43f8 	stmdb	sp!, {r3, r4, r5, r6, r7, r8, r9, lr}
 80017c0:	2400      	movs	r4, #0
 80017c2:	f8df 9038 	ldr.w	r9, [pc, #56]	; 80017fc <_ZN11LineMapping4loadEv+0x40>
 80017c6:	4606      	mov	r6, r0
 80017c8:	f100 0810 	add.w	r8, r0, #16
 80017cc:	4627      	mov	r7, r4
 80017ce:	f014 051f 	ands.w	r5, r4, #31
 80017d2:	d105      	bne.n	80017e0 <_ZN11LineMapping4loadEv+0x24>
 80017d4:	4639      	mov	r1, r7
 80017d6:	4642      	mov	r2, r8
 80017d8:	4648      	mov	r0, r9
 80017da:	f001 f9c5 	bl	8002b68 <_ZN6EEPROM4readEjPh>
 80017de:	3740      	adds	r7, #64	; 0x40
 80017e0:	eb06 0545 	add.w	r5, r6, r5, lsl #1
 80017e4:	eb06 0344 	add.w	r3, r6, r4, lsl #1
 80017e8:	3401      	adds	r4, #1
 80017ea:	8a2a      	ldrh	r2, [r5, #16]
 80017ec:	f8a3 2054 	strh.w	r2, [r3, #84]	; 0x54
 80017f0:	f5b4 6f48 	cmp.w	r4, #3200	; 0xc80
 80017f4:	d1eb      	bne.n	80017ce <_ZN11LineMapping4loadEv+0x12>
 80017f6:	e8bd 83f8 	ldmia.w	sp!, {r3, r4, r5, r6, r7, r8, r9, pc}
 80017fa:	bf00      	nop
 80017fc:	20000234 	andcs	r0, r0, r4, lsr r2

08001800 <_ZN11LineMapping4initEv>:
 8001800:	b410      	push	{r4}
 8001802:	4603      	mov	r3, r0
 8001804:	f100 0440 	add.w	r4, r0, #64	; 0x40
 8001808:	4602      	mov	r2, r0
 800180a:	2100      	movs	r1, #0
 800180c:	7411      	strb	r1, [r2, #16]
 800180e:	7451      	strb	r1, [r2, #17]
 8001810:	3202      	adds	r2, #2
 8001812:	42a2      	cmp	r2, r4
 8001814:	d1fa      	bne.n	800180c <_ZN11LineMapping4initEv+0xc>
 8001816:	f500 51c8 	add.w	r1, r0, #6400	; 0x1900
 800181a:	2200      	movs	r2, #0
 800181c:	f883 2054 	strb.w	r2, [r3, #84]	; 0x54
 8001820:	f883 2055 	strb.w	r2, [r3, #85]	; 0x55
 8001824:	3302      	adds	r3, #2
 8001826:	428b      	cmp	r3, r1
 8001828:	d1f8      	bne.n	800181c <_ZN11LineMapping4initEv+0x1c>
 800182a:	6042      	str	r2, [r0, #4]
 800182c:	6082      	str	r2, [r0, #8]
 800182e:	f85d 4b04 	ldr.w	r4, [sp], #4
 8001832:	f7ff bfc3 	b.w	80017bc <_ZN11LineMapping4loadEv>
 8001836:	0000      	movs	r0, r0

08001838 <_ZN8TerminalD1Ev>:
 8001838:	b510      	push	{r4, lr}
 800183a:	4b03      	ldr	r3, [pc, #12]	; (8001848 <_ZN8TerminalD1Ev+0x10>)
 800183c:	6003      	str	r3, [r0, #0]
 800183e:	4604      	mov	r4, r0
 8001840:	f001 f8b4 	bl	80029ac <_ZN5UsartD1Ev>
 8001844:	4620      	mov	r0, r4
 8001846:	bd10      	pop	{r4, pc}
 8001848:	08004558 	stmdaeq	r0, {r3, r4, r6, r8, sl, lr}

0800184c <_ZN8TerminalD0Ev>:
 800184c:	b510      	push	{r4, lr}
 800184e:	4604      	mov	r4, r0
 8001850:	f7ff fff2 	bl	8001838 <_ZN8TerminalD1Ev>
 8001854:	4620      	mov	r0, r4
 8001856:	2104      	movs	r1, #4
 8001858:	f7ff fdf2 	bl	8001440 <_ZdlPvj>
 800185c:	4620      	mov	r0, r4
 800185e:	bd10      	pop	{r4, pc}

08001860 <_ZN8TerminalC1Ev>:
 8001860:	b510      	push	{r4, lr}
 8001862:	4604      	mov	r4, r0
 8001864:	f001 f8aa 	bl	80029bc <_ZN5UsartC1Ev>
 8001868:	4b01      	ldr	r3, [pc, #4]	; (8001870 <_ZN8TerminalC1Ev+0x10>)
 800186a:	6023      	str	r3, [r4, #0]
 800186c:	4620      	mov	r0, r4
 800186e:	bd10      	pop	{r4, pc}
 8001870:	08004558 	stmdaeq	r0, {r3, r4, r6, r8, sl, lr}

08001874 <_ZN8Terminal4putsEPc>:
 8001874:	b538      	push	{r3, r4, r5, lr}
 8001876:	4605      	mov	r5, r0
 8001878:	1e4c      	subs	r4, r1, #1
 800187a:	f814 1f01 	ldrb.w	r1, [r4, #1]!
 800187e:	b119      	cbz	r1, 8001888 <_ZN8Terminal4putsEPc+0x14>
 8001880:	4628      	mov	r0, r5
 8001882:	f001 f8f7 	bl	8002a74 <_ZN5Usart8put_charEc>
 8001886:	e7f8      	b.n	800187a <_ZN8Terminal4putsEPc+0x6>
 8001888:	bd38      	pop	{r3, r4, r5, pc}

0800188a <_ZN8Terminal4putsEPKc>:
 800188a:	f7ff bff3 	b.w	8001874 <_ZN8Terminal4putsEPc>

0800188e <_ZN8Terminal5putuiEm>:
 800188e:	b530      	push	{r4, r5, lr}
 8001890:	b085      	sub	sp, #20
 8001892:	2300      	movs	r3, #0
 8001894:	220a      	movs	r2, #10
 8001896:	f88d 300f 	strb.w	r3, [sp, #15]
 800189a:	4615      	mov	r5, r2
 800189c:	fbb1 f4f5 	udiv	r4, r1, r5
 80018a0:	fb05 1314 	mls	r3, r5, r4, r1
 80018a4:	a904      	add	r1, sp, #16
 80018a6:	4411      	add	r1, r2
 80018a8:	3330      	adds	r3, #48	; 0x30
 80018aa:	f801 3c0c 	strb.w	r3, [r1, #-12]
 80018ae:	1e53      	subs	r3, r2, #1
 80018b0:	b2db      	uxtb	r3, r3
 80018b2:	4621      	mov	r1, r4
 80018b4:	b92c      	cbnz	r4, 80018c2 <_ZN8Terminal5putuiEm+0x34>
 80018b6:	ab01      	add	r3, sp, #4
 80018b8:	1899      	adds	r1, r3, r2
 80018ba:	f7ff ffdb 	bl	8001874 <_ZN8Terminal4putsEPc>
 80018be:	b005      	add	sp, #20
 80018c0:	bd30      	pop	{r4, r5, pc}
 80018c2:	461a      	mov	r2, r3
 80018c4:	e7ea      	b.n	800189c <_ZN8Terminal5putuiEm+0xe>

080018c6 <_ZN13LineSensorNewD1Ev>:
 80018c6:	4770      	bx	lr

080018c8 <_ZN13LineSensorNewD0Ev>:
 80018c8:	b510      	push	{r4, lr}
 80018ca:	21d8      	movs	r1, #216	; 0xd8
 80018cc:	4604      	mov	r4, r0
 80018ce:	f7ff fdb7 	bl	8001440 <_ZdlPvj>
 80018d2:	4620      	mov	r0, r4
 80018d4:	bd10      	pop	{r4, pc}
 80018d6:	0000      	movs	r0, r0

080018d8 <_ZN13LineSensorNewC1Ev>:
 80018d8:	4a4c      	ldr	r2, [pc, #304]	; (8001a0c <_ZN13LineSensorNewC1Ev+0x134>)
 80018da:	4b4d      	ldr	r3, [pc, #308]	; (8001a10 <_ZN13LineSensorNewC1Ev+0x138>)
 80018dc:	6003      	str	r3, [r0, #0]
 80018de:	6953      	ldr	r3, [r2, #20]
 80018e0:	f443 03fc 	orr.w	r3, r3, #8257536	; 0x7e0000
 80018e4:	b510      	push	{r4, lr}
 80018e6:	6153      	str	r3, [r2, #20]
 80018e8:	f04f 4390 	mov.w	r3, #1207959552	; 0x48000000
 80018ec:	6043      	str	r3, [r0, #4]
 80018ee:	689c      	ldr	r4, [r3, #8]
 80018f0:	f424 3440 	bic.w	r4, r4, #196608	; 0x30000
 80018f4:	609c      	str	r4, [r3, #8]
 80018f6:	689c      	ldr	r4, [r3, #8]
 80018f8:	f444 3440 	orr.w	r4, r4, #196608	; 0x30000
 80018fc:	609c      	str	r4, [r3, #8]
 80018fe:	889c      	ldrh	r4, [r3, #4]
 8001900:	f424 7480 	bic.w	r4, r4, #256	; 0x100
 8001904:	0424      	lsls	r4, r4, #16
 8001906:	0c24      	lsrs	r4, r4, #16
 8001908:	809c      	strh	r4, [r3, #4]
 800190a:	889c      	ldrh	r4, [r3, #4]
 800190c:	b2a4      	uxth	r4, r4
 800190e:	809c      	strh	r4, [r3, #4]
 8001910:	681c      	ldr	r4, [r3, #0]
 8001912:	f424 3440 	bic.w	r4, r4, #196608	; 0x30000
 8001916:	601c      	str	r4, [r3, #0]
 8001918:	681c      	ldr	r4, [r3, #0]
 800191a:	f444 3480 	orr.w	r4, r4, #65536	; 0x10000
 800191e:	601c      	str	r4, [r3, #0]
 8001920:	4c3c      	ldr	r4, [pc, #240]	; (8001a14 <_ZN13LineSensorNewC1Ev+0x13c>)
 8001922:	6104      	str	r4, [r0, #16]
 8001924:	6344      	str	r4, [r0, #52]	; 0x34
 8001926:	6584      	str	r4, [r0, #88]	; 0x58
 8001928:	67c4      	str	r4, [r0, #124]	; 0x7c
 800192a:	6954      	ldr	r4, [r2, #20]
 800192c:	f444 04fc 	orr.w	r4, r4, #8257536	; 0x7e0000
 8001930:	6154      	str	r4, [r2, #20]
 8001932:	681c      	ldr	r4, [r3, #0]
 8001934:	f8c0 30a0 	str.w	r3, [r0, #160]	; 0xa0
 8001938:	f024 0403 	bic.w	r4, r4, #3
 800193c:	601c      	str	r4, [r3, #0]
 800193e:	681c      	ldr	r4, [r3, #0]
 8001940:	f044 0403 	orr.w	r4, r4, #3
 8001944:	601c      	str	r4, [r3, #0]
 8001946:	6954      	ldr	r4, [r2, #20]
 8001948:	f444 04fc 	orr.w	r4, r4, #8257536	; 0x7e0000
 800194c:	6154      	str	r4, [r2, #20]
 800194e:	681c      	ldr	r4, [r3, #0]
 8001950:	f8c0 30a4 	str.w	r3, [r0, #164]	; 0xa4
 8001954:	f024 040c 	bic.w	r4, r4, #12
 8001958:	601c      	str	r4, [r3, #0]
 800195a:	681c      	ldr	r4, [r3, #0]
 800195c:	f044 040c 	orr.w	r4, r4, #12
 8001960:	601c      	str	r4, [r3, #0]
 8001962:	6954      	ldr	r4, [r2, #20]
 8001964:	f444 04fc 	orr.w	r4, r4, #8257536	; 0x7e0000
 8001968:	6154      	str	r4, [r2, #20]
 800196a:	681c      	ldr	r4, [r3, #0]
 800196c:	f8c0 30a8 	str.w	r3, [r0, #168]	; 0xa8
 8001970:	f024 0430 	bic.w	r4, r4, #48	; 0x30
 8001974:	601c      	str	r4, [r3, #0]
 8001976:	681c      	ldr	r4, [r3, #0]
 8001978:	f044 0430 	orr.w	r4, r4, #48	; 0x30
 800197c:	601c      	str	r4, [r3, #0]
 800197e:	6954      	ldr	r4, [r2, #20]
 8001980:	f444 04fc 	orr.w	r4, r4, #8257536	; 0x7e0000
 8001984:	6154      	str	r4, [r2, #20]
 8001986:	681c      	ldr	r4, [r3, #0]
 8001988:	f8c0 30ac 	str.w	r3, [r0, #172]	; 0xac
 800198c:	f024 04c0 	bic.w	r4, r4, #192	; 0xc0
 8001990:	601c      	str	r4, [r3, #0]
 8001992:	681c      	ldr	r4, [r3, #0]
 8001994:	f044 04c0 	orr.w	r4, r4, #192	; 0xc0
 8001998:	601c      	str	r4, [r3, #0]
 800199a:	6954      	ldr	r4, [r2, #20]
 800199c:	f444 04fc 	orr.w	r4, r4, #8257536	; 0x7e0000
 80019a0:	6154      	str	r4, [r2, #20]
 80019a2:	681c      	ldr	r4, [r3, #0]
 80019a4:	f8c0 30b0 	str.w	r3, [r0, #176]	; 0xb0
 80019a8:	f424 7440 	bic.w	r4, r4, #768	; 0x300
 80019ac:	601c      	str	r4, [r3, #0]
 80019ae:	681c      	ldr	r4, [r3, #0]
 80019b0:	f444 7440 	orr.w	r4, r4, #768	; 0x300
 80019b4:	601c      	str	r4, [r3, #0]
 80019b6:	6954      	ldr	r4, [r2, #20]
 80019b8:	f444 04fc 	orr.w	r4, r4, #8257536	; 0x7e0000
 80019bc:	6154      	str	r4, [r2, #20]
 80019be:	681c      	ldr	r4, [r3, #0]
 80019c0:	f8c0 30b4 	str.w	r3, [r0, #180]	; 0xb4
 80019c4:	f424 6440 	bic.w	r4, r4, #3072	; 0xc00
 80019c8:	601c      	str	r4, [r3, #0]
 80019ca:	681c      	ldr	r4, [r3, #0]
 80019cc:	f444 6440 	orr.w	r4, r4, #3072	; 0xc00
 80019d0:	601c      	str	r4, [r3, #0]
 80019d2:	6954      	ldr	r4, [r2, #20]
 80019d4:	f444 04fc 	orr.w	r4, r4, #8257536	; 0x7e0000
 80019d8:	6154      	str	r4, [r2, #20]
 80019da:	f8c0 30b8 	str.w	r3, [r0, #184]	; 0xb8
 80019de:	681c      	ldr	r4, [r3, #0]
 80019e0:	f424 5440 	bic.w	r4, r4, #12288	; 0x3000
 80019e4:	601c      	str	r4, [r3, #0]
 80019e6:	681c      	ldr	r4, [r3, #0]
 80019e8:	f444 5440 	orr.w	r4, r4, #12288	; 0x3000
 80019ec:	601c      	str	r4, [r3, #0]
 80019ee:	6954      	ldr	r4, [r2, #20]
 80019f0:	f444 04fc 	orr.w	r4, r4, #8257536	; 0x7e0000
 80019f4:	6154      	str	r4, [r2, #20]
 80019f6:	681a      	ldr	r2, [r3, #0]
 80019f8:	f8c0 30bc 	str.w	r3, [r0, #188]	; 0xbc
 80019fc:	f422 4240 	bic.w	r2, r2, #49152	; 0xc000
 8001a00:	601a      	str	r2, [r3, #0]
 8001a02:	681a      	ldr	r2, [r3, #0]
 8001a04:	f442 4240 	orr.w	r2, r2, #49152	; 0xc000
 8001a08:	601a      	str	r2, [r3, #0]
 8001a0a:	bd10      	pop	{r4, pc}
 8001a0c:	40021000 	andmi	r1, r2, r0
 8001a10:	08004568 	stmdaeq	r0, {r3, r5, r6, r8, sl, lr}
 8001a14:	08004414 	stmdaeq	r0, {r2, r4, sl, lr}

08001a18 <_ZN13LineSensorNew5readyEv>:
 8001a18:	7b03      	ldrb	r3, [r0, #12]
 8001a1a:	b672      	cpsid	i
 8001a1c:	b10b      	cbz	r3, 8001a22 <_ZN13LineSensorNew5readyEv+0xa>
 8001a1e:	2200      	movs	r2, #0
 8001a20:	7302      	strb	r2, [r0, #12]
 8001a22:	b662      	cpsie	i
 8001a24:	4618      	mov	r0, r3
 8001a26:	4770      	bx	lr

08001a28 <_ZN13LineSensorNew2onEv>:
 8001a28:	6842      	ldr	r2, [r0, #4]
 8001a2a:	6993      	ldr	r3, [r2, #24]
 8001a2c:	f443 7380 	orr.w	r3, r3, #256	; 0x100
 8001a30:	6193      	str	r3, [r2, #24]
 8001a32:	4770      	bx	lr

08001a34 <_ZN13LineSensorNew3offEv>:
 8001a34:	6842      	ldr	r2, [r0, #4]
 8001a36:	8d13      	ldrh	r3, [r2, #40]	; 0x28
 8001a38:	b29b      	uxth	r3, r3
 8001a3a:	f443 7380 	orr.w	r3, r3, #256	; 0x100
 8001a3e:	8513      	strh	r3, [r2, #40]	; 0x28
 8001a40:	4770      	bx	lr
 8001a42:	0000      	movs	r0, r0

08001a44 <_ZN13LineSensorNew4initEv>:
 8001a44:	e92d 41f0 	stmdb	sp!, {r4, r5, r6, r7, r8, lr}
 8001a48:	4604      	mov	r4, r0
 8001a4a:	f7ff fff3 	bl	8001a34 <_ZN13LineSensorNew3offEv>
 8001a4e:	2164      	movs	r1, #100	; 0x64
 8001a50:	4830      	ldr	r0, [pc, #192]	; (8001b14 <_ZN13LineSensorNew4initEv+0xd0>)
 8001a52:	f8df 80c4 	ldr.w	r8, [pc, #196]	; 8001b18 <_ZN13LineSensorNew4initEv+0xd4>
 8001a56:	f001 faab 	bl	8002fb0 <_ZN5Timer8delay_msEj>
 8001a5a:	f104 065c 	add.w	r6, r4, #92	; 0x5c
 8001a5e:	4637      	mov	r7, r6
 8001a60:	2500      	movs	r5, #0
 8001a62:	4629      	mov	r1, r5
 8001a64:	4640      	mov	r0, r8
 8001a66:	f000 fb8b 	bl	8002180 <_ZN3ADC4readEj>
 8001a6a:	3501      	adds	r5, #1
 8001a6c:	2d08      	cmp	r5, #8
 8001a6e:	f847 0b04 	str.w	r0, [r7], #4
 8001a72:	d1f6      	bne.n	8001a62 <_ZN13LineSensorNew4initEv+0x1e>
 8001a74:	4620      	mov	r0, r4
 8001a76:	f7ff ffd7 	bl	8001a28 <_ZN13LineSensorNew2onEv>
 8001a7a:	2164      	movs	r1, #100	; 0x64
 8001a7c:	4825      	ldr	r0, [pc, #148]	; (8001b14 <_ZN13LineSensorNew4initEv+0xd0>)
 8001a7e:	4f26      	ldr	r7, [pc, #152]	; (8001b18 <_ZN13LineSensorNew4initEv+0xd4>)
 8001a80:	f001 fa96 	bl	8002fb0 <_ZN5Timer8delay_msEj>
 8001a84:	2500      	movs	r5, #0
 8001a86:	4629      	mov	r1, r5
 8001a88:	4638      	mov	r0, r7
 8001a8a:	f000 fb79 	bl	8002180 <_ZN3ADC4readEj>
 8001a8e:	f856 3b04 	ldr.w	r3, [r6], #4
 8001a92:	3501      	adds	r5, #1
 8001a94:	1ac0      	subs	r0, r0, r3
 8001a96:	2d08      	cmp	r5, #8
 8001a98:	6230      	str	r0, [r6, #32]
 8001a9a:	d1f4      	bne.n	8001a86 <_ZN13LineSensorNew4initEv+0x42>
 8001a9c:	f104 0214 	add.w	r2, r4, #20
 8001aa0:	f104 0134 	add.w	r1, r4, #52	; 0x34
 8001aa4:	2300      	movs	r3, #0
 8001aa6:	f842 3b04 	str.w	r3, [r2], #4
 8001aaa:	4291      	cmp	r1, r2
 8001aac:	d1fb      	bne.n	8001aa6 <_ZN13LineSensorNew4initEv+0x62>
 8001aae:	f06f 02ff 	mvn.w	r2, #255	; 0xff
 8001ab2:	63a2      	str	r2, [r4, #56]	; 0x38
 8001ab4:	f06f 02bf 	mvn.w	r2, #191	; 0xbf
 8001ab8:	63e2      	str	r2, [r4, #60]	; 0x3c
 8001aba:	f06f 027f 	mvn.w	r2, #127	; 0x7f
 8001abe:	6422      	str	r2, [r4, #64]	; 0x40
 8001ac0:	f06f 023f 	mvn.w	r2, #63	; 0x3f
 8001ac4:	6462      	str	r2, [r4, #68]	; 0x44
 8001ac6:	2240      	movs	r2, #64	; 0x40
 8001ac8:	64a2      	str	r2, [r4, #72]	; 0x48
 8001aca:	2280      	movs	r2, #128	; 0x80
 8001acc:	64e2      	str	r2, [r4, #76]	; 0x4c
 8001ace:	22c0      	movs	r2, #192	; 0xc0
 8001ad0:	6522      	str	r2, [r4, #80]	; 0x50
 8001ad2:	f44f 7280 	mov.w	r2, #256	; 0x100
 8001ad6:	6562      	str	r2, [r4, #84]	; 0x54
 8001ad8:	f44f 7296 	mov.w	r2, #300	; 0x12c
 8001adc:	60a2      	str	r2, [r4, #8]
 8001ade:	2201      	movs	r2, #1
 8001ae0:	f884 20c1 	strb.w	r2, [r4, #193]	; 0xc1
 8001ae4:	2200      	movs	r2, #0
 8001ae6:	f884 30c0 	strb.w	r3, [r4, #192]	; 0xc0
 8001aea:	f8c4 30c4 	str.w	r3, [r4, #196]	; 0xc4
 8001aee:	f8c4 20c8 	str.w	r2, [r4, #200]	; 0xc8
 8001af2:	f8c4 20cc 	str.w	r2, [r4, #204]	; 0xcc
 8001af6:	f8c4 20d0 	str.w	r2, [r4, #208]	; 0xd0
 8001afa:	f8c4 20d4 	str.w	r2, [r4, #212]	; 0xd4
 8001afe:	7323      	strb	r3, [r4, #12]
 8001b00:	2204      	movs	r2, #4
 8001b02:	2300      	movs	r3, #0
 8001b04:	4621      	mov	r1, r4
 8001b06:	4803      	ldr	r0, [pc, #12]	; (8001b14 <_ZN13LineSensorNew4initEv+0xd0>)
 8001b08:	f001 fa12 	bl	8002f30 <_ZN5Timer8add_taskEP6Threadjb>
 8001b0c:	2000      	movs	r0, #0
 8001b0e:	e8bd 81f0 	ldmia.w	sp!, {r4, r5, r6, r7, r8, pc}
 8001b12:	bf00      	nop
 8001b14:	20000434 	andcs	r0, r0, r4, lsr r4
 8001b18:	20000154 	andcs	r0, r0, r4, asr r1

08001b1c <_ZN13LineSensorNew9integrateEi>:
 8001b1c:	f381 0103 	usat	r1, #3, r1
 8001b20:	eb00 0081 	add.w	r0, r0, r1, lsl #2
 8001b24:	b530      	push	{r4, r5, lr}
 8001b26:	6b82      	ldr	r2, [r0, #56]	; 0x38
 8001b28:	6945      	ldr	r5, [r0, #20]
 8001b2a:	fb02 f405 	mul.w	r4, r2, r5
 8001b2e:	b171      	cbz	r1, 8001b4e <_ZN13LineSensorNew9integrateEi+0x32>
 8001b30:	6903      	ldr	r3, [r0, #16]
 8001b32:	6b42      	ldr	r2, [r0, #52]	; 0x34
 8001b34:	2907      	cmp	r1, #7
 8001b36:	fb02 4203 	mla	r2, r2, r3, r4
 8001b3a:	442b      	add	r3, r5
 8001b3c:	d00a      	beq.n	8001b54 <_ZN13LineSensorNew9integrateEi+0x38>
 8001b3e:	6981      	ldr	r1, [r0, #24]
 8001b40:	6bc0      	ldr	r0, [r0, #60]	; 0x3c
 8001b42:	440b      	add	r3, r1
 8001b44:	fb00 2201 	mla	r2, r0, r1, r2
 8001b48:	fb92 f0f3 	sdiv	r0, r2, r3
 8001b4c:	bd30      	pop	{r4, r5, pc}
 8001b4e:	0062      	lsls	r2, r4, #1
 8001b50:	006b      	lsls	r3, r5, #1
 8001b52:	e7f4      	b.n	8001b3e <_ZN13LineSensorNew9integrateEi+0x22>
 8001b54:	4422      	add	r2, r4
 8001b56:	442b      	add	r3, r5
 8001b58:	e7f6      	b.n	8001b48 <_ZN13LineSensorNew9integrateEi+0x2c>
 8001b5a:	0000      	movs	r0, r0

08001b5c <_ZN13LineSensorNew11line_filterEv>:
 8001b5c:	b5f8      	push	{r3, r4, r5, r6, r7, lr}
 8001b5e:	f100 0214 	add.w	r2, r0, #20
 8001b62:	2300      	movs	r3, #0
 8001b64:	4604      	mov	r4, r0
 8001b66:	f880 30c0 	strb.w	r3, [r0, #192]	; 0xc0
 8001b6a:	f100 0134 	add.w	r1, r0, #52	; 0x34
 8001b6e:	4610      	mov	r0, r2
 8001b70:	f850 5b04 	ldr.w	r5, [r0], #4
 8001b74:	4281      	cmp	r1, r0
 8001b76:	442b      	add	r3, r5
 8001b78:	d1fa      	bne.n	8001b70 <_ZN13LineSensorNew11line_filterEv+0x14>
 8001b7a:	08db      	lsrs	r3, r3, #3
 8001b7c:	ee07 3a90 	vmov	s15, r3
 8001b80:	eef8 7ae7 	vcvt.f32.s32	s15, s15
 8001b84:	2100      	movs	r1, #0
 8001b86:	edc4 7a35 	vstr	s15, [r4, #212]	; 0xd4
 8001b8a:	4616      	mov	r6, r2
 8001b8c:	460d      	mov	r5, r1
 8001b8e:	eb04 0785 	add.w	r7, r4, r5, lsl #2
 8001b92:	f856 eb04 	ldr.w	lr, [r6], #4
 8001b96:	697f      	ldr	r7, [r7, #20]
 8001b98:	45be      	cmp	lr, r7
 8001b9a:	bfc8      	it	gt
 8001b9c:	460d      	movgt	r5, r1
 8001b9e:	3101      	adds	r1, #1
 8001ba0:	2908      	cmp	r1, #8
 8001ba2:	d1f4      	bne.n	8001b8e <_ZN13LineSensorNew11line_filterEv+0x32>
 8001ba4:	68a1      	ldr	r1, [r4, #8]
 8001ba6:	2600      	movs	r6, #0
 8001ba8:	f852 7b04 	ldr.w	r7, [r2], #4
 8001bac:	428f      	cmp	r7, r1
 8001bae:	bfc8      	it	gt
 8001bb0:	3601      	addgt	r6, #1
 8001bb2:	4282      	cmp	r2, r0
 8001bb4:	d1f8      	bne.n	8001ba8 <_ZN13LineSensorNew11line_filterEv+0x4c>
 8001bb6:	f5b3 7ffa 	cmp.w	r3, #500	; 0x1f4
 8001bba:	d908      	bls.n	8001bce <_ZN13LineSensorNew11line_filterEv+0x72>
 8001bbc:	2303      	movs	r3, #3
 8001bbe:	f884 30c1 	strb.w	r3, [r4, #193]	; 0xc1
 8001bc2:	2301      	movs	r3, #1
 8001bc4:	f884 30c0 	strb.w	r3, [r4, #192]	; 0xc0
 8001bc8:	f8c4 60c4 	str.w	r6, [r4, #196]	; 0xc4
 8001bcc:	bdf8      	pop	{r3, r4, r5, r6, r7, pc}
 8001bce:	eb04 0385 	add.w	r3, r4, r5, lsl #2
 8001bd2:	695b      	ldr	r3, [r3, #20]
 8001bd4:	4299      	cmp	r1, r3
 8001bd6:	da2c      	bge.n	8001c32 <_ZN13LineSensorNew11line_filterEv+0xd6>
 8001bd8:	2701      	movs	r7, #1
 8001bda:	4629      	mov	r1, r5
 8001bdc:	f884 70c1 	strb.w	r7, [r4, #193]	; 0xc1
 8001be0:	4620      	mov	r0, r4
 8001be2:	f7ff ff9b 	bl	8001b1c <_ZN13LineSensorNew9integrateEi>
 8001be6:	ee07 0a90 	vmov	s15, r0
 8001bea:	ed9f 7a12 	vldr	s14, [pc, #72]	; 8001c34 <_ZN13LineSensorNew11line_filterEv+0xd8>
 8001bee:	eef8 7ae7 	vcvt.f32.s32	s15, s15
 8001bf2:	19e9      	adds	r1, r5, r7
 8001bf4:	ee67 7a87 	vmul.f32	s15, s15, s14
 8001bf8:	4620      	mov	r0, r4
 8001bfa:	edc4 7a32 	vstr	s15, [r4, #200]	; 0xc8
 8001bfe:	f7ff ff8d 	bl	8001b1c <_ZN13LineSensorNew9integrateEi>
 8001c02:	ee07 0a90 	vmov	s15, r0
 8001c06:	eef8 7ae7 	vcvt.f32.s32	s15, s15
 8001c0a:	1e69      	subs	r1, r5, #1
 8001c0c:	ee67 7a87 	vmul.f32	s15, s15, s14
 8001c10:	4620      	mov	r0, r4
 8001c12:	edc4 7a33 	vstr	s15, [r4, #204]	; 0xcc
 8001c16:	f7ff ff81 	bl	8001b1c <_ZN13LineSensorNew9integrateEi>
 8001c1a:	ee07 0a90 	vmov	s15, r0
 8001c1e:	eef8 7ae7 	vcvt.f32.s32	s15, s15
 8001c22:	f8c4 60c4 	str.w	r6, [r4, #196]	; 0xc4
 8001c26:	ee67 7a87 	vmul.f32	s15, s15, s14
 8001c2a:	f884 70c0 	strb.w	r7, [r4, #192]	; 0xc0
 8001c2e:	edc4 7a34 	vstr	s15, [r4, #208]	; 0xd0
 8001c32:	bdf8      	pop	{r3, r4, r5, r6, r7, pc}
 8001c34:	3b800000 	blcc	6001c3c <__text_size__+0x5ffd24c>

08001c38 <_ZN13LineSensorNew4mainEv>:
 8001c38:	e92d 43f8 	stmdb	sp!, {r3, r4, r5, r6, r7, r8, r9, lr}
 8001c3c:	2500      	movs	r5, #0
 8001c3e:	f8df 8048 	ldr.w	r8, [pc, #72]	; 8001c88 <_ZN13LineSensorNew4mainEv+0x50>
 8001c42:	4f10      	ldr	r7, [pc, #64]	; (8001c84 <_ZN13LineSensorNew4mainEv+0x4c>)
 8001c44:	4606      	mov	r6, r0
 8001c46:	f100 0414 	add.w	r4, r0, #20
 8001c4a:	46a9      	mov	r9, r5
 8001c4c:	4629      	mov	r1, r5
 8001c4e:	4640      	mov	r0, r8
 8001c50:	f000 fa96 	bl	8002180 <_ZN3ADC4readEj>
 8001c54:	6ca3      	ldr	r3, [r4, #72]	; 0x48
 8001c56:	1ac0      	subs	r0, r0, r3
 8001c58:	4378      	muls	r0, r7
 8001c5a:	6ee3      	ldr	r3, [r4, #108]	; 0x6c
 8001c5c:	fb90 f0f3 	sdiv	r0, r0, r3
 8001c60:	3501      	adds	r5, #1
 8001c62:	f510 707a 	adds.w	r0, r0, #1000	; 0x3e8
 8001c66:	bf54      	ite	pl
 8001c68:	6020      	strpl	r0, [r4, #0]
 8001c6a:	f8c4 9000 	strmi.w	r9, [r4]
 8001c6e:	2d08      	cmp	r5, #8
 8001c70:	f104 0404 	add.w	r4, r4, #4
 8001c74:	d1ea      	bne.n	8001c4c <_ZN13LineSensorNew4mainEv+0x14>
 8001c76:	4630      	mov	r0, r6
 8001c78:	f7ff ff70 	bl	8001b5c <_ZN13LineSensorNew11line_filterEv>
 8001c7c:	2301      	movs	r3, #1
 8001c7e:	7333      	strb	r3, [r6, #12]
 8001c80:	e8bd 83f8 	ldmia.w	sp!, {r3, r4, r5, r6, r7, r8, r9, pc}
 8001c84:	fffffc18 			; <UNDEFINED> instruction: 0xfffffc18
 8001c88:	20000154 	andcs	r0, r0, r4, asr r1

08001c8c <_ZN5MotorD1Ev>:
 8001c8c:	4770      	bx	lr

08001c8e <_ZN5MotorD0Ev>:
 8001c8e:	b510      	push	{r4, lr}
 8001c90:	2118      	movs	r1, #24
 8001c92:	4604      	mov	r4, r0
 8001c94:	f7ff fbd4 	bl	8001440 <_ZdlPvj>
 8001c98:	4620      	mov	r0, r4
 8001c9a:	bd10      	pop	{r4, pc}

08001c9c <_ZN5MotorC1Ev>:
 8001c9c:	494d      	ldr	r1, [pc, #308]	; (8001dd4 <_ZN5MotorC1Ev+0x138>)
 8001c9e:	4b4e      	ldr	r3, [pc, #312]	; (8001dd8 <_ZN5MotorC1Ev+0x13c>)
 8001ca0:	6003      	str	r3, [r0, #0]
 8001ca2:	694b      	ldr	r3, [r1, #20]
 8001ca4:	f443 03fc 	orr.w	r3, r3, #8257536	; 0x7e0000
 8001ca8:	b530      	push	{r4, r5, lr}
 8001caa:	614b      	str	r3, [r1, #20]
 8001cac:	4b4b      	ldr	r3, [pc, #300]	; (8001ddc <_ZN5MotorC1Ev+0x140>)
 8001cae:	6043      	str	r3, [r0, #4]
 8001cb0:	689a      	ldr	r2, [r3, #8]
 8001cb2:	f422 7240 	bic.w	r2, r2, #768	; 0x300
 8001cb6:	609a      	str	r2, [r3, #8]
 8001cb8:	689a      	ldr	r2, [r3, #8]
 8001cba:	f442 7240 	orr.w	r2, r2, #768	; 0x300
 8001cbe:	609a      	str	r2, [r3, #8]
 8001cc0:	889a      	ldrh	r2, [r3, #4]
 8001cc2:	f022 0210 	bic.w	r2, r2, #16
 8001cc6:	0412      	lsls	r2, r2, #16
 8001cc8:	0c12      	lsrs	r2, r2, #16
 8001cca:	809a      	strh	r2, [r3, #4]
 8001ccc:	889a      	ldrh	r2, [r3, #4]
 8001cce:	b292      	uxth	r2, r2
 8001cd0:	809a      	strh	r2, [r3, #4]
 8001cd2:	681a      	ldr	r2, [r3, #0]
 8001cd4:	f422 7240 	bic.w	r2, r2, #768	; 0x300
 8001cd8:	601a      	str	r2, [r3, #0]
 8001cda:	681a      	ldr	r2, [r3, #0]
 8001cdc:	f442 7280 	orr.w	r2, r2, #256	; 0x100
 8001ce0:	601a      	str	r2, [r3, #0]
 8001ce2:	694a      	ldr	r2, [r1, #20]
 8001ce4:	f442 02fc 	orr.w	r2, r2, #8257536	; 0x7e0000
 8001ce8:	614a      	str	r2, [r1, #20]
 8001cea:	689a      	ldr	r2, [r3, #8]
 8001cec:	6083      	str	r3, [r0, #8]
 8001cee:	f422 6240 	bic.w	r2, r2, #3072	; 0xc00
 8001cf2:	609a      	str	r2, [r3, #8]
 8001cf4:	689a      	ldr	r2, [r3, #8]
 8001cf6:	f442 6240 	orr.w	r2, r2, #3072	; 0xc00
 8001cfa:	609a      	str	r2, [r3, #8]
 8001cfc:	889a      	ldrh	r2, [r3, #4]
 8001cfe:	f022 0220 	bic.w	r2, r2, #32
 8001d02:	0412      	lsls	r2, r2, #16
 8001d04:	0c12      	lsrs	r2, r2, #16
 8001d06:	809a      	strh	r2, [r3, #4]
 8001d08:	889a      	ldrh	r2, [r3, #4]
 8001d0a:	b292      	uxth	r2, r2
 8001d0c:	809a      	strh	r2, [r3, #4]
 8001d0e:	681a      	ldr	r2, [r3, #0]
 8001d10:	f422 6240 	bic.w	r2, r2, #3072	; 0xc00
 8001d14:	601a      	str	r2, [r3, #0]
 8001d16:	681a      	ldr	r2, [r3, #0]
 8001d18:	f442 6280 	orr.w	r2, r2, #1024	; 0x400
 8001d1c:	601a      	str	r2, [r3, #0]
 8001d1e:	694a      	ldr	r2, [r1, #20]
 8001d20:	f442 02fc 	orr.w	r2, r2, #8257536	; 0x7e0000
 8001d24:	614a      	str	r2, [r1, #20]
 8001d26:	f04f 4290 	mov.w	r2, #1207959552	; 0x48000000
 8001d2a:	60c2      	str	r2, [r0, #12]
 8001d2c:	6895      	ldr	r5, [r2, #8]
 8001d2e:	f025 4540 	bic.w	r5, r5, #3221225472	; 0xc0000000
 8001d32:	6095      	str	r5, [r2, #8]
 8001d34:	6895      	ldr	r5, [r2, #8]
 8001d36:	f045 4540 	orr.w	r5, r5, #3221225472	; 0xc0000000
 8001d3a:	6095      	str	r5, [r2, #8]
 8001d3c:	8895      	ldrh	r5, [r2, #4]
 8001d3e:	f3c5 050e 	ubfx	r5, r5, #0, #15
 8001d42:	8095      	strh	r5, [r2, #4]
 8001d44:	8895      	ldrh	r5, [r2, #4]
 8001d46:	b2ad      	uxth	r5, r5
 8001d48:	8095      	strh	r5, [r2, #4]
 8001d4a:	6815      	ldr	r5, [r2, #0]
 8001d4c:	f025 4540 	bic.w	r5, r5, #3221225472	; 0xc0000000
 8001d50:	6015      	str	r5, [r2, #0]
 8001d52:	6815      	ldr	r5, [r2, #0]
 8001d54:	f045 4580 	orr.w	r5, r5, #1073741824	; 0x40000000
 8001d58:	6015      	str	r5, [r2, #0]
 8001d5a:	694a      	ldr	r2, [r1, #20]
 8001d5c:	f442 02fc 	orr.w	r2, r2, #8257536	; 0x7e0000
 8001d60:	614a      	str	r2, [r1, #20]
 8001d62:	689a      	ldr	r2, [r3, #8]
 8001d64:	6103      	str	r3, [r0, #16]
 8001d66:	f022 6240 	bic.w	r2, r2, #201326592	; 0xc000000
 8001d6a:	609a      	str	r2, [r3, #8]
 8001d6c:	689a      	ldr	r2, [r3, #8]
 8001d6e:	f042 6240 	orr.w	r2, r2, #201326592	; 0xc000000
 8001d72:	609a      	str	r2, [r3, #8]
 8001d74:	889a      	ldrh	r2, [r3, #4]
 8001d76:	f422 5200 	bic.w	r2, r2, #8192	; 0x2000
 8001d7a:	0412      	lsls	r2, r2, #16
 8001d7c:	0c12      	lsrs	r2, r2, #16
 8001d7e:	809a      	strh	r2, [r3, #4]
 8001d80:	889a      	ldrh	r2, [r3, #4]
 8001d82:	b292      	uxth	r2, r2
 8001d84:	809a      	strh	r2, [r3, #4]
 8001d86:	681a      	ldr	r2, [r3, #0]
 8001d88:	f022 6240 	bic.w	r2, r2, #201326592	; 0xc000000
 8001d8c:	601a      	str	r2, [r3, #0]
 8001d8e:	681a      	ldr	r2, [r3, #0]
 8001d90:	f042 6280 	orr.w	r2, r2, #67108864	; 0x4000000
 8001d94:	601a      	str	r2, [r3, #0]
 8001d96:	694a      	ldr	r2, [r1, #20]
 8001d98:	f442 02fc 	orr.w	r2, r2, #8257536	; 0x7e0000
 8001d9c:	614a      	str	r2, [r1, #20]
 8001d9e:	6143      	str	r3, [r0, #20]
 8001da0:	689a      	ldr	r2, [r3, #8]
 8001da2:	f022 5240 	bic.w	r2, r2, #805306368	; 0x30000000
 8001da6:	609a      	str	r2, [r3, #8]
 8001da8:	689a      	ldr	r2, [r3, #8]
 8001daa:	f042 5240 	orr.w	r2, r2, #805306368	; 0x30000000
 8001dae:	609a      	str	r2, [r3, #8]
 8001db0:	889a      	ldrh	r2, [r3, #4]
 8001db2:	f422 4280 	bic.w	r2, r2, #16384	; 0x4000
 8001db6:	0412      	lsls	r2, r2, #16
 8001db8:	0c12      	lsrs	r2, r2, #16
 8001dba:	809a      	strh	r2, [r3, #4]
 8001dbc:	889a      	ldrh	r2, [r3, #4]
 8001dbe:	b292      	uxth	r2, r2
 8001dc0:	809a      	strh	r2, [r3, #4]
 8001dc2:	681a      	ldr	r2, [r3, #0]
 8001dc4:	f022 5240 	bic.w	r2, r2, #805306368	; 0x30000000
 8001dc8:	601a      	str	r2, [r3, #0]
 8001dca:	681a      	ldr	r2, [r3, #0]
 8001dcc:	f042 5280 	orr.w	r2, r2, #268435456	; 0x10000000
 8001dd0:	601a      	str	r2, [r3, #0]
 8001dd2:	bd30      	pop	{r4, r5, pc}
 8001dd4:	40021000 	andmi	r1, r2, r0
 8001dd8:	0800457c 	stmdaeq	r0, {r2, r3, r4, r5, r6, r8, sl, lr}
 8001ddc:	48000400 	stmdami	r0, {sl}

08001de0 <_ZN5Motor8run_leftEi>:
 8001de0:	2900      	cmp	r1, #0
 8001de2:	68c2      	ldr	r2, [r0, #12]
 8001de4:	da14      	bge.n	8001e10 <_ZN5Motor8run_leftEi+0x30>
 8001de6:	8d13      	ldrh	r3, [r2, #40]	; 0x28
 8001de8:	ea6f 4343 	mvn.w	r3, r3, lsl #17
 8001dec:	ea6f 4353 	mvn.w	r3, r3, lsr #17
 8001df0:	b29b      	uxth	r3, r3
 8001df2:	8513      	strh	r3, [r2, #40]	; 0x28
 8001df4:	4249      	negs	r1, r1
 8001df6:	29ff      	cmp	r1, #255	; 0xff
 8001df8:	460b      	mov	r3, r1
 8001dfa:	bfa8      	it	ge
 8001dfc:	23ff      	movge	r3, #255	; 0xff
 8001dfe:	f241 21be 	movw	r1, #4798	; 0x12be
 8001e02:	4359      	muls	r1, r3
 8001e04:	23ff      	movs	r3, #255	; 0xff
 8001e06:	fbb1 f1f3 	udiv	r1, r1, r3
 8001e0a:	4b04      	ldr	r3, [pc, #16]	; (8001e1c <_ZN5Motor8run_leftEi+0x3c>)
 8001e0c:	6399      	str	r1, [r3, #56]	; 0x38
 8001e0e:	4770      	bx	lr
 8001e10:	6993      	ldr	r3, [r2, #24]
 8001e12:	f443 4300 	orr.w	r3, r3, #32768	; 0x8000
 8001e16:	6193      	str	r3, [r2, #24]
 8001e18:	e7ed      	b.n	8001df6 <_ZN5Motor8run_leftEi+0x16>
 8001e1a:	bf00      	nop
 8001e1c:	40012c00 	andmi	r2, r1, r0, lsl #24

08001e20 <_ZN5Motor9run_rightEi>:
 8001e20:	6882      	ldr	r2, [r0, #8]
 8001e22:	2900      	cmp	r1, #0
 8001e24:	bfab      	itete	ge
 8001e26:	8d13      	ldrhge	r3, [r2, #40]	; 0x28
 8001e28:	6993      	ldrlt	r3, [r2, #24]
 8001e2a:	b29b      	uxthge	r3, r3
 8001e2c:	f043 0320 	orrlt.w	r3, r3, #32
 8001e30:	bfb5      	itete	lt
 8001e32:	4249      	neglt	r1, r1
 8001e34:	f043 0320 	orrge.w	r3, r3, #32
 8001e38:	6193      	strlt	r3, [r2, #24]
 8001e3a:	8513      	strhge	r3, [r2, #40]	; 0x28
 8001e3c:	29ff      	cmp	r1, #255	; 0xff
 8001e3e:	460b      	mov	r3, r1
 8001e40:	bfa8      	it	ge
 8001e42:	23ff      	movge	r3, #255	; 0xff
 8001e44:	f241 21be 	movw	r1, #4798	; 0x12be
 8001e48:	4359      	muls	r1, r3
 8001e4a:	23ff      	movs	r3, #255	; 0xff
 8001e4c:	fbb1 f1f3 	udiv	r1, r1, r3
 8001e50:	4b01      	ldr	r3, [pc, #4]	; (8001e58 <_ZN5Motor9run_rightEi+0x38>)
 8001e52:	6359      	str	r1, [r3, #52]	; 0x34
 8001e54:	4770      	bx	lr
 8001e56:	bf00      	nop
 8001e58:	40012c00 	andmi	r2, r1, r0, lsl #24

08001e5c <_ZN5Motor8pwm_initEv>:
 8001e5c:	6902      	ldr	r2, [r0, #16]
 8001e5e:	6893      	ldr	r3, [r2, #8]
 8001e60:	f023 6340 	bic.w	r3, r3, #201326592	; 0xc000000
 8001e64:	6093      	str	r3, [r2, #8]
 8001e66:	6893      	ldr	r3, [r2, #8]
 8001e68:	f043 6340 	orr.w	r3, r3, #201326592	; 0xc000000
 8001e6c:	6093      	str	r3, [r2, #8]
 8001e6e:	6813      	ldr	r3, [r2, #0]
 8001e70:	f023 6340 	bic.w	r3, r3, #201326592	; 0xc000000
 8001e74:	6013      	str	r3, [r2, #0]
 8001e76:	6813      	ldr	r3, [r2, #0]
 8001e78:	f043 6300 	orr.w	r3, r3, #134217728	; 0x8000000
 8001e7c:	6013      	str	r3, [r2, #0]
 8001e7e:	6943      	ldr	r3, [r0, #20]
 8001e80:	6899      	ldr	r1, [r3, #8]
 8001e82:	f021 5140 	bic.w	r1, r1, #805306368	; 0x30000000
 8001e86:	6099      	str	r1, [r3, #8]
 8001e88:	6899      	ldr	r1, [r3, #8]
 8001e8a:	f041 5140 	orr.w	r1, r1, #805306368	; 0x30000000
 8001e8e:	6099      	str	r1, [r3, #8]
 8001e90:	6819      	ldr	r1, [r3, #0]
 8001e92:	f021 5140 	bic.w	r1, r1, #805306368	; 0x30000000
 8001e96:	6019      	str	r1, [r3, #0]
 8001e98:	6819      	ldr	r1, [r3, #0]
 8001e9a:	f041 5100 	orr.w	r1, r1, #536870912	; 0x20000000
 8001e9e:	6019      	str	r1, [r3, #0]
 8001ea0:	6a51      	ldr	r1, [r2, #36]	; 0x24
 8001ea2:	f421 0170 	bic.w	r1, r1, #15728640	; 0xf00000
 8001ea6:	6251      	str	r1, [r2, #36]	; 0x24
 8001ea8:	6a51      	ldr	r1, [r2, #36]	; 0x24
 8001eaa:	f441 01c0 	orr.w	r1, r1, #6291456	; 0x600000
 8001eae:	6251      	str	r1, [r2, #36]	; 0x24
 8001eb0:	6a5a      	ldr	r2, [r3, #36]	; 0x24
 8001eb2:	f022 6270 	bic.w	r2, r2, #251658240	; 0xf000000
 8001eb6:	625a      	str	r2, [r3, #36]	; 0x24
 8001eb8:	6a5a      	ldr	r2, [r3, #36]	; 0x24
 8001eba:	f042 62c0 	orr.w	r2, r2, #100663296	; 0x6000000
 8001ebe:	625a      	str	r2, [r3, #36]	; 0x24
 8001ec0:	4a10      	ldr	r2, [pc, #64]	; (8001f04 <_ZN5Motor8pwm_initEv+0xa8>)
 8001ec2:	6993      	ldr	r3, [r2, #24]
 8001ec4:	f443 6300 	orr.w	r3, r3, #2048	; 0x800
 8001ec8:	6193      	str	r3, [r2, #24]
 8001eca:	4b0f      	ldr	r3, [pc, #60]	; (8001f08 <_ZN5Motor8pwm_initEv+0xac>)
 8001ecc:	2200      	movs	r2, #0
 8001ece:	f241 21bf 	movw	r1, #4799	; 0x12bf
 8001ed2:	801a      	strh	r2, [r3, #0]
 8001ed4:	62d9      	str	r1, [r3, #44]	; 0x2c
 8001ed6:	2101      	movs	r1, #1
 8001ed8:	851a      	strh	r2, [r3, #40]	; 0x28
 8001eda:	861a      	strh	r2, [r3, #48]	; 0x30
 8001edc:	6159      	str	r1, [r3, #20]
 8001ede:	635a      	str	r2, [r3, #52]	; 0x34
 8001ee0:	639a      	str	r2, [r3, #56]	; 0x38
 8001ee2:	f44f 7280 	mov.w	r2, #256	; 0x100
 8001ee6:	605a      	str	r2, [r3, #4]
 8001ee8:	f247 0270 	movw	r2, #28784	; 0x7070
 8001eec:	619a      	str	r2, [r3, #24]
 8001eee:	2277      	movs	r2, #119	; 0x77
 8001ef0:	621a      	str	r2, [r3, #32]
 8001ef2:	881a      	ldrh	r2, [r3, #0]
 8001ef4:	b292      	uxth	r2, r2
 8001ef6:	430a      	orrs	r2, r1
 8001ef8:	801a      	strh	r2, [r3, #0]
 8001efa:	6c5a      	ldr	r2, [r3, #68]	; 0x44
 8001efc:	f442 4200 	orr.w	r2, r2, #32768	; 0x8000
 8001f00:	645a      	str	r2, [r3, #68]	; 0x44
 8001f02:	4770      	bx	lr
 8001f04:	40021000 	andmi	r1, r2, r0
 8001f08:	40012c00 	andmi	r2, r1, r0, lsl #24

08001f0c <_ZN5Motor4initEv>:
 8001f0c:	6841      	ldr	r1, [r0, #4]
 8001f0e:	6942      	ldr	r2, [r0, #20]
 8001f10:	8d0b      	ldrh	r3, [r1, #40]	; 0x28
 8001f12:	b29b      	uxth	r3, r3
 8001f14:	f043 0310 	orr.w	r3, r3, #16
 8001f18:	850b      	strh	r3, [r1, #40]	; 0x28
 8001f1a:	6881      	ldr	r1, [r0, #8]
 8001f1c:	8d0b      	ldrh	r3, [r1, #40]	; 0x28
 8001f1e:	b29b      	uxth	r3, r3
 8001f20:	f043 0320 	orr.w	r3, r3, #32
 8001f24:	850b      	strh	r3, [r1, #40]	; 0x28
 8001f26:	68c1      	ldr	r1, [r0, #12]
 8001f28:	8d0b      	ldrh	r3, [r1, #40]	; 0x28
 8001f2a:	ea6f 4343 	mvn.w	r3, r3, lsl #17
 8001f2e:	ea6f 4353 	mvn.w	r3, r3, lsr #17
 8001f32:	b29b      	uxth	r3, r3
 8001f34:	850b      	strh	r3, [r1, #40]	; 0x28
 8001f36:	6901      	ldr	r1, [r0, #16]
 8001f38:	8d0b      	ldrh	r3, [r1, #40]	; 0x28
 8001f3a:	b29b      	uxth	r3, r3
 8001f3c:	f443 5300 	orr.w	r3, r3, #8192	; 0x2000
 8001f40:	850b      	strh	r3, [r1, #40]	; 0x28
 8001f42:	8d13      	ldrh	r3, [r2, #40]	; 0x28
 8001f44:	b29b      	uxth	r3, r3
 8001f46:	f443 4380 	orr.w	r3, r3, #16384	; 0x4000
 8001f4a:	8513      	strh	r3, [r2, #40]	; 0x28
 8001f4c:	f7ff bf86 	b.w	8001e5c <_ZN5Motor8pwm_initEv>

08001f50 <_ZN3KeyD1Ev>:
 8001f50:	4770      	bx	lr

08001f52 <_ZN3KeyD0Ev>:
 8001f52:	b510      	push	{r4, lr}
 8001f54:	2118      	movs	r1, #24
 8001f56:	4604      	mov	r4, r0
 8001f58:	f7ff fa72 	bl	8001440 <_ZdlPvj>
 8001f5c:	4620      	mov	r0, r4
 8001f5e:	bd10      	pop	{r4, pc}

08001f60 <_ZN3Key4mainEv>:
 8001f60:	7b03      	ldrb	r3, [r0, #12]
 8001f62:	6882      	ldr	r2, [r0, #8]
 8001f64:	b133      	cbz	r3, 8001f74 <_ZN3Key4mainEv+0x14>
 8001f66:	2300      	movs	r3, #0
 8001f68:	7303      	strb	r3, [r0, #12]
 8001f6a:	6993      	ldr	r3, [r2, #24]
 8001f6c:	f443 4300 	orr.w	r3, r3, #32768	; 0x8000
 8001f70:	6193      	str	r3, [r2, #24]
 8001f72:	4770      	bx	lr
 8001f74:	2301      	movs	r3, #1
 8001f76:	7303      	strb	r3, [r0, #12]
 8001f78:	8d13      	ldrh	r3, [r2, #40]	; 0x28
 8001f7a:	ea6f 4343 	mvn.w	r3, r3, lsl #17
 8001f7e:	ea6f 4353 	mvn.w	r3, r3, lsr #17
 8001f82:	b29b      	uxth	r3, r3
 8001f84:	8513      	strh	r3, [r2, #40]	; 0x28
 8001f86:	4770      	bx	lr

08001f88 <_ZN3KeyC1Ev>:
 8001f88:	4a1c      	ldr	r2, [pc, #112]	; (8001ffc <_ZN3KeyC1Ev+0x74>)
 8001f8a:	4b1d      	ldr	r3, [pc, #116]	; (8002000 <_ZN3KeyC1Ev+0x78>)
 8001f8c:	6003      	str	r3, [r0, #0]
 8001f8e:	6953      	ldr	r3, [r2, #20]
 8001f90:	f443 03fc 	orr.w	r3, r3, #8257536	; 0x7e0000
 8001f94:	b510      	push	{r4, lr}
 8001f96:	6153      	str	r3, [r2, #20]
 8001f98:	4b1a      	ldr	r3, [pc, #104]	; (8002004 <_ZN3KeyC1Ev+0x7c>)
 8001f9a:	6043      	str	r3, [r0, #4]
 8001f9c:	689c      	ldr	r4, [r3, #8]
 8001f9e:	f024 7440 	bic.w	r4, r4, #50331648	; 0x3000000
 8001fa2:	609c      	str	r4, [r3, #8]
 8001fa4:	689c      	ldr	r4, [r3, #8]
 8001fa6:	f044 7440 	orr.w	r4, r4, #50331648	; 0x3000000
 8001faa:	609c      	str	r4, [r3, #8]
 8001fac:	681c      	ldr	r4, [r3, #0]
 8001fae:	f024 7440 	bic.w	r4, r4, #50331648	; 0x3000000
 8001fb2:	601c      	str	r4, [r3, #0]
 8001fb4:	681c      	ldr	r4, [r3, #0]
 8001fb6:	601c      	str	r4, [r3, #0]
 8001fb8:	68dc      	ldr	r4, [r3, #12]
 8001fba:	f044 7480 	orr.w	r4, r4, #16777216	; 0x1000000
 8001fbe:	60dc      	str	r4, [r3, #12]
 8001fc0:	6954      	ldr	r4, [r2, #20]
 8001fc2:	f444 04fc 	orr.w	r4, r4, #8257536	; 0x7e0000
 8001fc6:	6154      	str	r4, [r2, #20]
 8001fc8:	689a      	ldr	r2, [r3, #8]
 8001fca:	6083      	str	r3, [r0, #8]
 8001fcc:	f022 4240 	bic.w	r2, r2, #3221225472	; 0xc0000000
 8001fd0:	609a      	str	r2, [r3, #8]
 8001fd2:	689a      	ldr	r2, [r3, #8]
 8001fd4:	f042 4240 	orr.w	r2, r2, #3221225472	; 0xc0000000
 8001fd8:	609a      	str	r2, [r3, #8]
 8001fda:	889a      	ldrh	r2, [r3, #4]
 8001fdc:	f3c2 020e 	ubfx	r2, r2, #0, #15
 8001fe0:	809a      	strh	r2, [r3, #4]
 8001fe2:	889a      	ldrh	r2, [r3, #4]
 8001fe4:	b292      	uxth	r2, r2
 8001fe6:	809a      	strh	r2, [r3, #4]
 8001fe8:	681a      	ldr	r2, [r3, #0]
 8001fea:	f022 4240 	bic.w	r2, r2, #3221225472	; 0xc0000000
 8001fee:	601a      	str	r2, [r3, #0]
 8001ff0:	681a      	ldr	r2, [r3, #0]
 8001ff2:	f042 4280 	orr.w	r2, r2, #1073741824	; 0x40000000
 8001ff6:	601a      	str	r2, [r3, #0]
 8001ff8:	bd10      	pop	{r4, pc}
 8001ffa:	bf00      	nop
 8001ffc:	40021000 	andmi	r1, r2, r0
 8002000:	0800458c 	stmdaeq	r0, {r2, r3, r7, r8, sl, lr}
 8002004:	48000400 	stmdami	r0, {sl}

08002008 <_ZN3Key4initEv>:
 8002008:	f04f 33ff 	mov.w	r3, #4294967295	; 0xffffffff
 800200c:	b510      	push	{r4, lr}
 800200e:	6143      	str	r3, [r0, #20]
 8002010:	2300      	movs	r3, #0
 8002012:	4604      	mov	r4, r0
 8002014:	7303      	strb	r3, [r0, #12]
 8002016:	4601      	mov	r1, r0
 8002018:	f44f 72fa 	mov.w	r2, #500	; 0x1f4
 800201c:	4802      	ldr	r0, [pc, #8]	; (8002028 <_ZN3Key4initEv+0x20>)
 800201e:	f000 ff87 	bl	8002f30 <_ZN5Timer8add_taskEP6Threadjb>
 8002022:	6120      	str	r0, [r4, #16]
 8002024:	bd10      	pop	{r4, pc}
 8002026:	bf00      	nop
 8002028:	20000434 	andcs	r0, r0, r4, lsr r4

0800202c <_ZN3Key4readEv>:
 800202c:	6843      	ldr	r3, [r0, #4]
 800202e:	b570      	push	{r4, r5, r6, lr}
 8002030:	4604      	mov	r4, r0
 8002032:	8a1a      	ldrh	r2, [r3, #16]
 8002034:	04d2      	lsls	r2, r2, #19
 8002036:	d501      	bpl.n	800203c <_ZN3Key4readEv+0x10>
 8002038:	bf00      	nop
 800203a:	e7fa      	b.n	8002032 <_ZN3Key4readEv+0x6>
 800203c:	2301      	movs	r3, #1
 800203e:	6163      	str	r3, [r4, #20]
 8002040:	2264      	movs	r2, #100	; 0x64
 8002042:	7c21      	ldrb	r1, [r4, #16]
 8002044:	480f      	ldr	r0, [pc, #60]	; (8002084 <_ZN3Key4readEv+0x58>)
 8002046:	4d0f      	ldr	r5, [pc, #60]	; (8002084 <_ZN3Key4readEv+0x58>)
 8002048:	f000 ff9a 	bl	8002f80 <_ZN5Timer10set_periodEhj>
 800204c:	480d      	ldr	r0, [pc, #52]	; (8002084 <_ZN3Key4readEv+0x58>)
 800204e:	f000 ffa3 	bl	8002f98 <_ZN5Timer8get_timeEv>
 8002052:	f500 66fa 	add.w	r6, r0, #2000	; 0x7d0
 8002056:	6863      	ldr	r3, [r4, #4]
 8002058:	8a1b      	ldrh	r3, [r3, #16]
 800205a:	04db      	lsls	r3, r3, #19
 800205c:	d40f      	bmi.n	800207e <_ZN3Key4readEv+0x52>
 800205e:	4809      	ldr	r0, [pc, #36]	; (8002084 <_ZN3Key4readEv+0x58>)
 8002060:	f000 ff9a 	bl	8002f98 <_ZN5Timer8get_timeEv>
 8002064:	42b0      	cmp	r0, r6
 8002066:	d9f6      	bls.n	8002056 <_ZN3Key4readEv+0x2a>
 8002068:	6963      	ldr	r3, [r4, #20]
 800206a:	2b01      	cmp	r3, #1
 800206c:	d1f3      	bne.n	8002056 <_ZN3Key4readEv+0x2a>
 800206e:	2232      	movs	r2, #50	; 0x32
 8002070:	7c21      	ldrb	r1, [r4, #16]
 8002072:	4628      	mov	r0, r5
 8002074:	f000 ff84 	bl	8002f80 <_ZN5Timer10set_periodEhj>
 8002078:	2302      	movs	r3, #2
 800207a:	6163      	str	r3, [r4, #20]
 800207c:	e7eb      	b.n	8002056 <_ZN3Key4readEv+0x2a>
 800207e:	6960      	ldr	r0, [r4, #20]
 8002080:	bd70      	pop	{r4, r5, r6, pc}
 8002082:	bf00      	nop
 8002084:	20000434 	andcs	r0, r0, r4, lsr r4

08002088 <_ZN3ADCD1Ev>:
 8002088:	4770      	bx	lr

0800208a <_ZN3ADCD0Ev>:
 800208a:	b510      	push	{r4, lr}
 800208c:	2104      	movs	r1, #4
 800208e:	4604      	mov	r4, r0
 8002090:	f7ff f9d6 	bl	8001440 <_ZdlPvj>
 8002094:	4620      	mov	r0, r4
 8002096:	bd10      	pop	{r4, pc}

08002098 <_ZN3ADCC1Ev>:
 8002098:	4b01      	ldr	r3, [pc, #4]	; (80020a0 <_ZN3ADCC1Ev+0x8>)
 800209a:	6003      	str	r3, [r0, #0]
 800209c:	4770      	bx	lr
 800209e:	bf00      	nop
 80020a0:	080045d4 	stmdaeq	r0, {r2, r4, r6, r7, r8, sl, lr}

080020a4 <_ZN3ADC16RCC_ADCCLKConfigEm>:
 80020a4:	0f0b      	lsrs	r3, r1, #28
 80020a6:	4b06      	ldr	r3, [pc, #24]	; (80020c0 <_ZN3ADC16RCC_ADCCLKConfigEm+0x1c>)
 80020a8:	6ada      	ldr	r2, [r3, #44]	; 0x2c
 80020aa:	bf14      	ite	ne
 80020ac:	f422 5278 	bicne.w	r2, r2, #15872	; 0x3e00
 80020b0:	f422 72f8 	biceq.w	r2, r2, #496	; 0x1f0
 80020b4:	62da      	str	r2, [r3, #44]	; 0x2c
 80020b6:	6ada      	ldr	r2, [r3, #44]	; 0x2c
 80020b8:	4311      	orrs	r1, r2
 80020ba:	62d9      	str	r1, [r3, #44]	; 0x2c
 80020bc:	4770      	bx	lr
 80020be:	bf00      	nop
 80020c0:	40021000 	andmi	r1, r2, r0

080020c4 <_ZN3ADC24ADC_RegularChannelConfigEP11ADC_TypeDefhhh>:
 80020c4:	b530      	push	{r4, r5, lr}
 80020c6:	2b04      	cmp	r3, #4
 80020c8:	f89d 400c 	ldrb.w	r4, [sp, #12]
 80020cc:	dc1c      	bgt.n	8002108 <_ZN3ADC24ADC_RegularChannelConfigEP11ADC_TypeDefhhh+0x44>
 80020ce:	eb03 0343 	add.w	r3, r3, r3, lsl #1
 80020d2:	6b08      	ldr	r0, [r1, #48]	; 0x30
 80020d4:	005b      	lsls	r3, r3, #1
 80020d6:	251f      	movs	r5, #31
 80020d8:	409d      	lsls	r5, r3
 80020da:	ea20 0005 	bic.w	r0, r0, r5
 80020de:	fa02 f303 	lsl.w	r3, r2, r3
 80020e2:	4303      	orrs	r3, r0
 80020e4:	630b      	str	r3, [r1, #48]	; 0x30
 80020e6:	2a09      	cmp	r2, #9
 80020e8:	dd39      	ble.n	800215e <_ZN3ADC24ADC_RegularChannelConfigEP11ADC_TypeDefhhh+0x9a>
 80020ea:	3a0a      	subs	r2, #10
 80020ec:	698b      	ldr	r3, [r1, #24]
 80020ee:	698b      	ldr	r3, [r1, #24]
 80020f0:	eb02 0242 	add.w	r2, r2, r2, lsl #1
 80020f4:	2007      	movs	r0, #7
 80020f6:	4090      	lsls	r0, r2
 80020f8:	ea23 0300 	bic.w	r3, r3, r0
 80020fc:	618b      	str	r3, [r1, #24]
 80020fe:	698b      	ldr	r3, [r1, #24]
 8002100:	4094      	lsls	r4, r2
 8002102:	431c      	orrs	r4, r3
 8002104:	618c      	str	r4, [r1, #24]
 8002106:	bd30      	pop	{r4, r5, pc}
 8002108:	2b09      	cmp	r3, #9
 800210a:	dc0c      	bgt.n	8002126 <_ZN3ADC24ADC_RegularChannelConfigEP11ADC_TypeDefhhh+0x62>
 800210c:	2006      	movs	r0, #6
 800210e:	3b05      	subs	r3, #5
 8002110:	4343      	muls	r3, r0
 8002112:	6b4d      	ldr	r5, [r1, #52]	; 0x34
 8002114:	201f      	movs	r0, #31
 8002116:	4098      	lsls	r0, r3
 8002118:	ea25 0000 	bic.w	r0, r5, r0
 800211c:	fa02 f303 	lsl.w	r3, r2, r3
 8002120:	4303      	orrs	r3, r0
 8002122:	634b      	str	r3, [r1, #52]	; 0x34
 8002124:	e7df      	b.n	80020e6 <_ZN3ADC24ADC_RegularChannelConfigEP11ADC_TypeDefhhh+0x22>
 8002126:	2b0e      	cmp	r3, #14
 8002128:	f04f 0006 	mov.w	r0, #6
 800212c:	dc0b      	bgt.n	8002146 <_ZN3ADC24ADC_RegularChannelConfigEP11ADC_TypeDefhhh+0x82>
 800212e:	3b0a      	subs	r3, #10
 8002130:	4343      	muls	r3, r0
 8002132:	6b8d      	ldr	r5, [r1, #56]	; 0x38
 8002134:	201f      	movs	r0, #31
 8002136:	4098      	lsls	r0, r3
 8002138:	ea25 0000 	bic.w	r0, r5, r0
 800213c:	fa02 f303 	lsl.w	r3, r2, r3
 8002140:	4303      	orrs	r3, r0
 8002142:	638b      	str	r3, [r1, #56]	; 0x38
 8002144:	e7cf      	b.n	80020e6 <_ZN3ADC24ADC_RegularChannelConfigEP11ADC_TypeDefhhh+0x22>
 8002146:	3b0f      	subs	r3, #15
 8002148:	4343      	muls	r3, r0
 800214a:	6bcd      	ldr	r5, [r1, #60]	; 0x3c
 800214c:	201f      	movs	r0, #31
 800214e:	4098      	lsls	r0, r3
 8002150:	ea25 0000 	bic.w	r0, r5, r0
 8002154:	fa02 f303 	lsl.w	r3, r2, r3
 8002158:	4303      	orrs	r3, r0
 800215a:	63cb      	str	r3, [r1, #60]	; 0x3c
 800215c:	e7c3      	b.n	80020e6 <_ZN3ADC24ADC_RegularChannelConfigEP11ADC_TypeDefhhh+0x22>
 800215e:	3a01      	subs	r2, #1
 8002160:	694b      	ldr	r3, [r1, #20]
 8002162:	694b      	ldr	r3, [r1, #20]
 8002164:	eb02 0242 	add.w	r2, r2, r2, lsl #1
 8002168:	2038      	movs	r0, #56	; 0x38
 800216a:	4090      	lsls	r0, r2
 800216c:	ea23 0300 	bic.w	r3, r3, r0
 8002170:	614b      	str	r3, [r1, #20]
 8002172:	694b      	ldr	r3, [r1, #20]
 8002174:	3203      	adds	r2, #3
 8002176:	fa04 f202 	lsl.w	r2, r4, r2
 800217a:	431a      	orrs	r2, r3
 800217c:	614a      	str	r2, [r1, #20]
 800217e:	bd30      	pop	{r4, r5, pc}

08002180 <_ZN3ADC4readEj>:
 8002180:	b513      	push	{r0, r1, r4, lr}
 8002182:	3901      	subs	r1, #1
 8002184:	2909      	cmp	r1, #9
 8002186:	bf9d      	ittte	ls
 8002188:	4b0d      	ldrls	r3, [pc, #52]	; (80021c0 <_ZN3ADC4readEj+0x40>)
 800218a:	f853 4021 	ldrls.w	r4, [r3, r1, lsl #2]
 800218e:	4b0d      	ldrls	r3, [pc, #52]	; (80021c4 <_ZN3ADC4readEj+0x44>)
 8002190:	f04f 44a0 	movhi.w	r4, #1342177280	; 0x50000000
 8002194:	bf98      	it	ls
 8002196:	5c5a      	ldrbls	r2, [r3, r1]
 8002198:	f04f 0301 	mov.w	r3, #1
 800219c:	9300      	str	r3, [sp, #0]
 800219e:	bf88      	it	hi
 80021a0:	2201      	movhi	r2, #1
 80021a2:	4621      	mov	r1, r4
 80021a4:	f7ff ff8e 	bl	80020c4 <_ZN3ADC24ADC_RegularChannelConfigEP11ADC_TypeDefhhh>
 80021a8:	68a3      	ldr	r3, [r4, #8]
 80021aa:	f043 0304 	orr.w	r3, r3, #4
 80021ae:	60a3      	str	r3, [r4, #8]
 80021b0:	6823      	ldr	r3, [r4, #0]
 80021b2:	075b      	lsls	r3, r3, #29
 80021b4:	d401      	bmi.n	80021ba <_ZN3ADC4readEj+0x3a>
 80021b6:	bf00      	nop
 80021b8:	e7fa      	b.n	80021b0 <_ZN3ADC4readEj+0x30>
 80021ba:	6c20      	ldr	r0, [r4, #64]	; 0x40
 80021bc:	b002      	add	sp, #8
 80021be:	bd10      	pop	{r4, pc}
 80021c0:	080045a4 	stmdaeq	r0, {r2, r5, r7, r8, sl, lr}
 80021c4:	08004598 	stmdaeq	r0, {r3, r4, r7, r8, sl, lr}

080021c8 <_ZN3ADC4initEv>:
 80021c8:	e92d 43f7 	stmdb	sp!, {r0, r1, r2, r4, r5, r6, r7, r8, r9, lr}
 80021cc:	4c25      	ldr	r4, [pc, #148]	; (8002264 <_ZN3ADC4initEv+0x9c>)
 80021ce:	4f26      	ldr	r7, [pc, #152]	; (8002268 <_ZN3ADC4initEv+0xa0>)
 80021d0:	4e26      	ldr	r6, [pc, #152]	; (800226c <_ZN3ADC4initEv+0xa4>)
 80021d2:	f44f 7188 	mov.w	r1, #272	; 0x110
 80021d6:	4605      	mov	r5, r0
 80021d8:	f7ff ff64 	bl	80020a4 <_ZN3ADC16RCC_ADCCLKConfigEm>
 80021dc:	6963      	ldr	r3, [r4, #20]
 80021de:	4924      	ldr	r1, [pc, #144]	; (8002270 <_ZN3ADC4initEv+0xa8>)
 80021e0:	f043 5380 	orr.w	r3, r3, #268435456	; 0x10000000
 80021e4:	6163      	str	r3, [r4, #20]
 80021e6:	f7ff ff5d 	bl	80020a4 <_ZN3ADC16RCC_ADCCLKConfigEm>
 80021ea:	6963      	ldr	r3, [r4, #20]
 80021ec:	f04f 48a0 	mov.w	r8, #1342177280	; 0x50000000
 80021f0:	f043 5300 	orr.w	r3, r3, #536870912	; 0x20000000
 80021f4:	6163      	str	r3, [r4, #20]
 80021f6:	f04f 0902 	mov.w	r9, #2
 80021fa:	2400      	movs	r4, #0
 80021fc:	2301      	movs	r3, #1
 80021fe:	f8c8 400c 	str.w	r4, [r8, #12]
 8002202:	461a      	mov	r2, r3
 8002204:	60fc      	str	r4, [r7, #12]
 8002206:	4641      	mov	r1, r8
 8002208:	60f4      	str	r4, [r6, #12]
 800220a:	f8cd 9000 	str.w	r9, [sp]
 800220e:	f7ff ff59 	bl	80020c4 <_ZN3ADC24ADC_RegularChannelConfigEP11ADC_TypeDefhhh>
 8002212:	2301      	movs	r3, #1
 8002214:	461a      	mov	r2, r3
 8002216:	4639      	mov	r1, r7
 8002218:	4628      	mov	r0, r5
 800221a:	f8cd 9000 	str.w	r9, [sp]
 800221e:	f7ff ff51 	bl	80020c4 <_ZN3ADC24ADC_RegularChannelConfigEP11ADC_TypeDefhhh>
 8002222:	2301      	movs	r3, #1
 8002224:	f8cd 9000 	str.w	r9, [sp]
 8002228:	220c      	movs	r2, #12
 800222a:	4631      	mov	r1, r6
 800222c:	4628      	mov	r0, r5
 800222e:	f7ff ff49 	bl	80020c4 <_ZN3ADC24ADC_RegularChannelConfigEP11ADC_TypeDefhhh>
 8002232:	f8d8 3008 	ldr.w	r3, [r8, #8]
 8002236:	f043 0301 	orr.w	r3, r3, #1
 800223a:	f8c8 3008 	str.w	r3, [r8, #8]
 800223e:	68bb      	ldr	r3, [r7, #8]
 8002240:	f043 0301 	orr.w	r3, r3, #1
 8002244:	60bb      	str	r3, [r7, #8]
 8002246:	68b3      	ldr	r3, [r6, #8]
 8002248:	f043 0301 	orr.w	r3, r3, #1
 800224c:	60b3      	str	r3, [r6, #8]
 800224e:	4621      	mov	r1, r4
 8002250:	4628      	mov	r0, r5
 8002252:	3401      	adds	r4, #1
 8002254:	f7ff ff94 	bl	8002180 <_ZN3ADC4readEj>
 8002258:	2c0b      	cmp	r4, #11
 800225a:	d1f8      	bne.n	800224e <_ZN3ADC4initEv+0x86>
 800225c:	b003      	add	sp, #12
 800225e:	e8bd 83f0 	ldmia.w	sp!, {r4, r5, r6, r7, r8, r9, pc}
 8002262:	bf00      	nop
 8002264:	40021000 	andmi	r1, r2, r0
 8002268:	50000100 	andpl	r0, r0, r0, lsl #2
 800226c:	50000400 	andpl	r0, r0, r0, lsl #8
 8002270:	10002200 	andne	r2, r0, r0, lsl #4

08002274 <_ZN3IMUD1Ev>:
 8002274:	4770      	bx	lr

08002276 <_ZN3IMUD0Ev>:
 8002276:	b510      	push	{r4, lr}
 8002278:	2148      	movs	r1, #72	; 0x48
 800227a:	4604      	mov	r4, r0
 800227c:	f7ff f8e0 	bl	8001440 <_ZdlPvj>
 8002280:	4620      	mov	r0, r4
 8002282:	bd10      	pop	{r4, pc}

08002284 <_ZN3IMUC1Ev>:
 8002284:	4b01      	ldr	r3, [pc, #4]	; (800228c <_ZN3IMUC1Ev+0x8>)
 8002286:	6003      	str	r3, [r0, #0]
 8002288:	4770      	bx	lr
 800228a:	bf00      	nop
 800228c:	080045e4 	stmdaeq	r0, {r2, r5, r6, r7, r8, sl, lr}

08002290 <_ZN3IMU4readEb>:
 8002290:	e92d 41f0 	stmdb	sp!, {r4, r5, r6, r7, r8, lr}
 8002294:	4604      	mov	r4, r0
 8002296:	6c40      	ldr	r0, [r0, #68]	; 0x44
 8002298:	6803      	ldr	r3, [r0, #0]
 800229a:	689b      	ldr	r3, [r3, #8]
 800229c:	460f      	mov	r7, r1
 800229e:	4798      	blx	r3
 80022a0:	6c60      	ldr	r0, [r4, #68]	; 0x44
 80022a2:	6803      	ldr	r3, [r0, #0]
 80022a4:	21d4      	movs	r1, #212	; 0xd4
 80022a6:	695b      	ldr	r3, [r3, #20]
 80022a8:	4798      	blx	r3
 80022aa:	6c60      	ldr	r0, [r4, #68]	; 0x44
 80022ac:	6803      	ldr	r3, [r0, #0]
 80022ae:	2119      	movs	r1, #25
 80022b0:	695b      	ldr	r3, [r3, #20]
 80022b2:	4798      	blx	r3
 80022b4:	6c60      	ldr	r0, [r4, #68]	; 0x44
 80022b6:	6803      	ldr	r3, [r0, #0]
 80022b8:	689b      	ldr	r3, [r3, #8]
 80022ba:	4798      	blx	r3
 80022bc:	6c60      	ldr	r0, [r4, #68]	; 0x44
 80022be:	6803      	ldr	r3, [r0, #0]
 80022c0:	21d5      	movs	r1, #213	; 0xd5
 80022c2:	695b      	ldr	r3, [r3, #20]
 80022c4:	4798      	blx	r3
 80022c6:	6c60      	ldr	r0, [r4, #68]	; 0x44
 80022c8:	6803      	ldr	r3, [r0, #0]
 80022ca:	2101      	movs	r1, #1
 80022cc:	699b      	ldr	r3, [r3, #24]
 80022ce:	4798      	blx	r3
 80022d0:	0200      	lsls	r0, r0, #8
 80022d2:	fa0f f880 	sxth.w	r8, r0
 80022d6:	6c60      	ldr	r0, [r4, #68]	; 0x44
 80022d8:	6803      	ldr	r3, [r0, #0]
 80022da:	2101      	movs	r1, #1
 80022dc:	699b      	ldr	r3, [r3, #24]
 80022de:	4798      	blx	r3
 80022e0:	ea48 0800 	orr.w	r8, r8, r0
 80022e4:	6c60      	ldr	r0, [r4, #68]	; 0x44
 80022e6:	6803      	ldr	r3, [r0, #0]
 80022e8:	2101      	movs	r1, #1
 80022ea:	699b      	ldr	r3, [r3, #24]
 80022ec:	4798      	blx	r3
 80022ee:	0200      	lsls	r0, r0, #8
 80022f0:	b205      	sxth	r5, r0
 80022f2:	6c60      	ldr	r0, [r4, #68]	; 0x44
 80022f4:	6803      	ldr	r3, [r0, #0]
 80022f6:	2101      	movs	r1, #1
 80022f8:	699b      	ldr	r3, [r3, #24]
 80022fa:	4798      	blx	r3
 80022fc:	4305      	orrs	r5, r0
 80022fe:	6c60      	ldr	r0, [r4, #68]	; 0x44
 8002300:	6803      	ldr	r3, [r0, #0]
 8002302:	2101      	movs	r1, #1
 8002304:	699b      	ldr	r3, [r3, #24]
 8002306:	4798      	blx	r3
 8002308:	0206      	lsls	r6, r0, #8
 800230a:	6c60      	ldr	r0, [r4, #68]	; 0x44
 800230c:	6803      	ldr	r3, [r0, #0]
 800230e:	2100      	movs	r1, #0
 8002310:	699b      	ldr	r3, [r3, #24]
 8002312:	4798      	blx	r3
 8002314:	b236      	sxth	r6, r6
 8002316:	4306      	orrs	r6, r0
 8002318:	6c60      	ldr	r0, [r4, #68]	; 0x44
 800231a:	2308      	movs	r3, #8
 800231c:	fa0f f888 	sxth.w	r8, r8
 8002320:	b22d      	sxth	r5, r5
 8002322:	fb98 f8f3 	sdiv	r8, r8, r3
 8002326:	fb95 f5f3 	sdiv	r5, r5, r3
 800232a:	b236      	sxth	r6, r6
 800232c:	fb96 f6f3 	sdiv	r6, r6, r3
 8002330:	6803      	ldr	r3, [r0, #0]
 8002332:	ea4f 08c8 	mov.w	r8, r8, lsl #3
 8002336:	00ed      	lsls	r5, r5, #3
 8002338:	00f6      	lsls	r6, r6, #3
 800233a:	68db      	ldr	r3, [r3, #12]
 800233c:	fa0f f888 	sxth.w	r8, r8
 8002340:	b22d      	sxth	r5, r5
 8002342:	b236      	sxth	r6, r6
 8002344:	4798      	blx	r3
 8002346:	b147      	cbz	r7, 800235a <_ZN3IMU4readEb+0xca>
 8002348:	6aa3      	ldr	r3, [r4, #40]	; 0x28
 800234a:	4443      	add	r3, r8
 800234c:	62a3      	str	r3, [r4, #40]	; 0x28
 800234e:	6ae3      	ldr	r3, [r4, #44]	; 0x2c
 8002350:	442b      	add	r3, r5
 8002352:	62e3      	str	r3, [r4, #44]	; 0x2c
 8002354:	6b23      	ldr	r3, [r4, #48]	; 0x30
 8002356:	4433      	add	r3, r6
 8002358:	6323      	str	r3, [r4, #48]	; 0x30
 800235a:	6ae2      	ldr	r2, [r4, #44]	; 0x2c
 800235c:	6aa3      	ldr	r3, [r4, #40]	; 0x28
 800235e:	6c60      	ldr	r0, [r4, #68]	; 0x44
 8002360:	1aad      	subs	r5, r5, r2
 8002362:	6b22      	ldr	r2, [r4, #48]	; 0x30
 8002364:	6165      	str	r5, [r4, #20]
 8002366:	eba8 0303 	sub.w	r3, r8, r3
 800236a:	1ab6      	subs	r6, r6, r2
 800236c:	6123      	str	r3, [r4, #16]
 800236e:	2219      	movs	r2, #25
 8002370:	fb93 f8f2 	sdiv	r8, r3, r2
 8002374:	69e3      	ldr	r3, [r4, #28]
 8002376:	fb95 f5f2 	sdiv	r5, r5, r2
 800237a:	eb03 0348 	add.w	r3, r3, r8, lsl #1
 800237e:	61e3      	str	r3, [r4, #28]
 8002380:	6a23      	ldr	r3, [r4, #32]
 8002382:	61a6      	str	r6, [r4, #24]
 8002384:	eb03 0545 	add.w	r5, r3, r5, lsl #1
 8002388:	6a63      	ldr	r3, [r4, #36]	; 0x24
 800238a:	fb96 f6f2 	sdiv	r6, r6, r2
 800238e:	eb03 0646 	add.w	r6, r3, r6, lsl #1
 8002392:	6803      	ldr	r3, [r0, #0]
 8002394:	6225      	str	r5, [r4, #32]
 8002396:	6266      	str	r6, [r4, #36]	; 0x24
 8002398:	689b      	ldr	r3, [r3, #8]
 800239a:	4798      	blx	r3
 800239c:	6c60      	ldr	r0, [r4, #68]	; 0x44
 800239e:	6803      	ldr	r3, [r0, #0]
 80023a0:	21d4      	movs	r1, #212	; 0xd4
 80023a2:	695b      	ldr	r3, [r3, #20]
 80023a4:	4798      	blx	r3
 80023a6:	6c60      	ldr	r0, [r4, #68]	; 0x44
 80023a8:	6803      	ldr	r3, [r0, #0]
 80023aa:	2129      	movs	r1, #41	; 0x29
 80023ac:	695b      	ldr	r3, [r3, #20]
 80023ae:	4798      	blx	r3
 80023b0:	6c60      	ldr	r0, [r4, #68]	; 0x44
 80023b2:	6803      	ldr	r3, [r0, #0]
 80023b4:	689b      	ldr	r3, [r3, #8]
 80023b6:	4798      	blx	r3
 80023b8:	6c60      	ldr	r0, [r4, #68]	; 0x44
 80023ba:	6803      	ldr	r3, [r0, #0]
 80023bc:	21d5      	movs	r1, #213	; 0xd5
 80023be:	695b      	ldr	r3, [r3, #20]
 80023c0:	4798      	blx	r3
 80023c2:	6c60      	ldr	r0, [r4, #68]	; 0x44
 80023c4:	6803      	ldr	r3, [r0, #0]
 80023c6:	2101      	movs	r1, #1
 80023c8:	699b      	ldr	r3, [r3, #24]
 80023ca:	4798      	blx	r3
 80023cc:	0200      	lsls	r0, r0, #8
 80023ce:	b205      	sxth	r5, r0
 80023d0:	6c60      	ldr	r0, [r4, #68]	; 0x44
 80023d2:	6803      	ldr	r3, [r0, #0]
 80023d4:	2101      	movs	r1, #1
 80023d6:	699b      	ldr	r3, [r3, #24]
 80023d8:	4798      	blx	r3
 80023da:	4328      	orrs	r0, r5
 80023dc:	b207      	sxth	r7, r0
 80023de:	6c60      	ldr	r0, [r4, #68]	; 0x44
 80023e0:	6803      	ldr	r3, [r0, #0]
 80023e2:	2101      	movs	r1, #1
 80023e4:	699b      	ldr	r3, [r3, #24]
 80023e6:	4798      	blx	r3
 80023e8:	0200      	lsls	r0, r0, #8
 80023ea:	b206      	sxth	r6, r0
 80023ec:	6c60      	ldr	r0, [r4, #68]	; 0x44
 80023ee:	6803      	ldr	r3, [r0, #0]
 80023f0:	2101      	movs	r1, #1
 80023f2:	699b      	ldr	r3, [r3, #24]
 80023f4:	4798      	blx	r3
 80023f6:	4306      	orrs	r6, r0
 80023f8:	6c60      	ldr	r0, [r4, #68]	; 0x44
 80023fa:	6803      	ldr	r3, [r0, #0]
 80023fc:	2101      	movs	r1, #1
 80023fe:	699b      	ldr	r3, [r3, #24]
 8002400:	4798      	blx	r3
 8002402:	0200      	lsls	r0, r0, #8
 8002404:	b205      	sxth	r5, r0
 8002406:	6c60      	ldr	r0, [r4, #68]	; 0x44
 8002408:	6803      	ldr	r3, [r0, #0]
 800240a:	2100      	movs	r1, #0
 800240c:	699b      	ldr	r3, [r3, #24]
 800240e:	4798      	blx	r3
 8002410:	4305      	orrs	r5, r0
 8002412:	6c60      	ldr	r0, [r4, #68]	; 0x44
 8002414:	6803      	ldr	r3, [r0, #0]
 8002416:	68db      	ldr	r3, [r3, #12]
 8002418:	4798      	blx	r3
 800241a:	4b17      	ldr	r3, [pc, #92]	; (8002478 <_ZN3IMU4readEb+0x1e8>)
 800241c:	6067      	str	r7, [r4, #4]
 800241e:	edd4 7a10 	vldr	s15, [r4, #64]	; 0x40
 8002422:	eddf 6a16 	vldr	s13, [pc, #88]	; 800247c <_ZN3IMU4readEb+0x1ec>
 8002426:	ed93 7a01 	vldr	s14, [r3, #4]
 800242a:	ee67 7aa6 	vmul.f32	s15, s15, s13
 800242e:	eeb8 7ac7 	vcvt.f32.s32	s14, s14
 8002432:	eddf 6a13 	vldr	s13, [pc, #76]	; 8002480 <_ZN3IMU4readEb+0x1f0>
 8002436:	ee47 7a26 	vmla.f32	s15, s14, s13
 800243a:	b236      	sxth	r6, r6
 800243c:	b22d      	sxth	r5, r5
 800243e:	ed9f 7a11 	vldr	s14, [pc, #68]	; 8002484 <_ZN3IMU4readEb+0x1f4>
 8002442:	60a6      	str	r6, [r4, #8]
 8002444:	eef4 7ac7 	vcmpe.f32	s15, s14
 8002448:	eef1 fa10 	vmrs	APSR_nzcv, fpscr
 800244c:	60e5      	str	r5, [r4, #12]
 800244e:	edc4 7a10 	vstr	s15, [r4, #64]	; 0x40
 8002452:	dc06      	bgt.n	8002462 <_ZN3IMU4readEb+0x1d2>
 8002454:	ed9f 7a0c 	vldr	s14, [pc, #48]	; 8002488 <_ZN3IMU4readEb+0x1f8>
 8002458:	eef4 7ac7 	vcmpe.f32	s15, s14
 800245c:	eef1 fa10 	vmrs	APSR_nzcv, fpscr
 8002460:	d507      	bpl.n	8002472 <_ZN3IMU4readEb+0x1e2>
 8002462:	2301      	movs	r3, #1
 8002464:	f884 303d 	strb.w	r3, [r4, #61]	; 0x3d
 8002468:	2301      	movs	r3, #1
 800246a:	f884 303c 	strb.w	r3, [r4, #60]	; 0x3c
 800246e:	e8bd 81f0 	ldmia.w	sp!, {r4, r5, r6, r7, r8, pc}
 8002472:	2300      	movs	r3, #0
 8002474:	e7f6      	b.n	8002464 <_ZN3IMU4readEb+0x1d4>
 8002476:	bf00      	nop
 8002478:	20000264 	andcs	r0, r0, r4, ror #4
 800247c:	3f4ccccd 	svccc	0x004ccccd
 8002480:	3e4ccccc 	cdpcc	12, 4, cr12, cr12, cr12, {6}
 8002484:	453b8000 	ldrmi	r8, [fp, #-0]!
 8002488:	c53b8000 	ldrgt	r8, [fp, #-0]!

0800248c <_ZN3IMU4mainEv>:
 800248c:	2100      	movs	r1, #0
 800248e:	f7ff beff 	b.w	8002290 <_ZN3IMU4readEb>

08002492 <_ZN3IMU7presentEv>:
 8002492:	6b40      	ldr	r0, [r0, #52]	; 0x34
 8002494:	3000      	adds	r0, #0
 8002496:	bf18      	it	ne
 8002498:	2001      	movne	r0, #1
 800249a:	4770      	bx	lr

0800249c <_ZN3IMU11delay_loopsEm>:
 800249c:	f111 31ff 	adds.w	r1, r1, #4294967295	; 0xffffffff
 80024a0:	d301      	bcc.n	80024a6 <_ZN3IMU11delay_loopsEm+0xa>
 80024a2:	bf00      	nop
 80024a4:	e7fa      	b.n	800249c <_ZN3IMU11delay_loopsEm>
 80024a6:	4770      	bx	lr

080024a8 <_ZN3IMU4initER13I2C_Interface>:
 80024a8:	b538      	push	{r3, r4, r5, lr}
 80024aa:	4604      	mov	r4, r0
 80024ac:	2210      	movs	r2, #16
 80024ae:	4608      	mov	r0, r1
 80024b0:	6461      	str	r1, [r4, #68]	; 0x44
 80024b2:	23a8      	movs	r3, #168	; 0xa8
 80024b4:	21d4      	movs	r1, #212	; 0xd4
 80024b6:	f7fe fa6b 	bl	8000990 <_ZN13I2C_Interface9write_regEhhh>
 80024ba:	2300      	movs	r3, #0
 80024bc:	6123      	str	r3, [r4, #16]
 80024be:	6163      	str	r3, [r4, #20]
 80024c0:	61a3      	str	r3, [r4, #24]
 80024c2:	62a3      	str	r3, [r4, #40]	; 0x28
 80024c4:	62e3      	str	r3, [r4, #44]	; 0x2c
 80024c6:	6323      	str	r3, [r4, #48]	; 0x30
 80024c8:	61e3      	str	r3, [r4, #28]
 80024ca:	6223      	str	r3, [r4, #32]
 80024cc:	6263      	str	r3, [r4, #36]	; 0x24
 80024ce:	f242 7110 	movw	r1, #10000	; 0x2710
 80024d2:	4620      	mov	r0, r4
 80024d4:	f7ff ffe2 	bl	800249c <_ZN3IMU11delay_loopsEm>
 80024d8:	220f      	movs	r2, #15
 80024da:	6363      	str	r3, [r4, #52]	; 0x34
 80024dc:	21d4      	movs	r1, #212	; 0xd4
 80024de:	6c60      	ldr	r0, [r4, #68]	; 0x44
 80024e0:	f7fe fa74 	bl	80009cc <_ZN13I2C_Interface8read_regEhh>
 80024e4:	2868      	cmp	r0, #104	; 0x68
 80024e6:	bf04      	itt	eq
 80024e8:	2301      	moveq	r3, #1
 80024ea:	6363      	streq	r3, [r4, #52]	; 0x34
 80024ec:	2210      	movs	r2, #16
 80024ee:	23a8      	movs	r3, #168	; 0xa8
 80024f0:	21d4      	movs	r1, #212	; 0xd4
 80024f2:	6c60      	ldr	r0, [r4, #68]	; 0x44
 80024f4:	f7fe fa4c 	bl	8000990 <_ZN13I2C_Interface9write_regEhhh>
 80024f8:	2338      	movs	r3, #56	; 0x38
 80024fa:	221e      	movs	r2, #30
 80024fc:	21d4      	movs	r1, #212	; 0xd4
 80024fe:	6c60      	ldr	r0, [r4, #68]	; 0x44
 8002500:	f7fe fa46 	bl	8000990 <_ZN13I2C_Interface9write_regEhhh>
 8002504:	2300      	movs	r3, #0
 8002506:	222e      	movs	r2, #46	; 0x2e
 8002508:	21d4      	movs	r1, #212	; 0xd4
 800250a:	6c60      	ldr	r0, [r4, #68]	; 0x44
 800250c:	f7fe fa40 	bl	8000990 <_ZN13I2C_Interface9write_regEhhh>
 8002510:	2300      	movs	r3, #0
 8002512:	2212      	movs	r2, #18
 8002514:	21d4      	movs	r1, #212	; 0xd4
 8002516:	6c60      	ldr	r0, [r4, #68]	; 0x44
 8002518:	f7fe fa3a 	bl	8000990 <_ZN13I2C_Interface9write_regEhhh>
 800251c:	2360      	movs	r3, #96	; 0x60
 800251e:	2220      	movs	r2, #32
 8002520:	21d4      	movs	r1, #212	; 0xd4
 8002522:	6c60      	ldr	r0, [r4, #68]	; 0x44
 8002524:	f7fe fa34 	bl	8000990 <_ZN13I2C_Interface9write_regEhhh>
 8002528:	2338      	movs	r3, #56	; 0x38
 800252a:	221f      	movs	r2, #31
 800252c:	21d4      	movs	r1, #212	; 0xd4
 800252e:	6c60      	ldr	r0, [r4, #68]	; 0x44
 8002530:	f7fe fa2e 	bl	8000990 <_ZN13I2C_Interface9write_regEhhh>
 8002534:	f242 7110 	movw	r1, #10000	; 0x2710
 8002538:	4620      	mov	r0, r4
 800253a:	f7ff ffaf 	bl	800249c <_ZN3IMU11delay_loopsEm>
 800253e:	2100      	movs	r1, #0
 8002540:	4620      	mov	r0, r4
 8002542:	f7ff fea5 	bl	8002290 <_ZN3IMU4readEb>
 8002546:	2300      	movs	r3, #0
 8002548:	2200      	movs	r2, #0
 800254a:	f884 303d 	strb.w	r3, [r4, #61]	; 0x3d
 800254e:	6422      	str	r2, [r4, #64]	; 0x40
 8002550:	63a3      	str	r3, [r4, #56]	; 0x38
 8002552:	f44f 757a 	mov.w	r5, #1000	; 0x3e8
 8002556:	2101      	movs	r1, #1
 8002558:	4620      	mov	r0, r4
 800255a:	f7ff fe99 	bl	8002290 <_ZN3IMU4readEb>
 800255e:	2164      	movs	r1, #100	; 0x64
 8002560:	4620      	mov	r0, r4
 8002562:	f7ff ff9b 	bl	800249c <_ZN3IMU11delay_loopsEm>
 8002566:	3d01      	subs	r5, #1
 8002568:	d1f5      	bne.n	8002556 <_ZN3IMU4initER13I2C_Interface+0xae>
 800256a:	f44f 727a 	mov.w	r2, #1000	; 0x3e8
 800256e:	6aa3      	ldr	r3, [r4, #40]	; 0x28
 8002570:	61e5      	str	r5, [r4, #28]
 8002572:	fb93 f3f2 	sdiv	r3, r3, r2
 8002576:	6225      	str	r5, [r4, #32]
 8002578:	62a3      	str	r3, [r4, #40]	; 0x28
 800257a:	6265      	str	r5, [r4, #36]	; 0x24
 800257c:	6ae3      	ldr	r3, [r4, #44]	; 0x2c
 800257e:	6065      	str	r5, [r4, #4]
 8002580:	fb93 f3f2 	sdiv	r3, r3, r2
 8002584:	60a5      	str	r5, [r4, #8]
 8002586:	62e3      	str	r3, [r4, #44]	; 0x2c
 8002588:	60e5      	str	r5, [r4, #12]
 800258a:	6b23      	ldr	r3, [r4, #48]	; 0x30
 800258c:	4805      	ldr	r0, [pc, #20]	; (80025a4 <_ZN3IMU4initER13I2C_Interface+0xfc>)
 800258e:	fb93 f3f2 	sdiv	r3, r3, r2
 8002592:	4621      	mov	r1, r4
 8002594:	6323      	str	r3, [r4, #48]	; 0x30
 8002596:	220a      	movs	r2, #10
 8002598:	462b      	mov	r3, r5
 800259a:	f000 fcc9 	bl	8002f30 <_ZN5Timer8add_taskEP6Threadjb>
 800259e:	f884 503c 	strb.w	r5, [r4, #60]	; 0x3c
 80025a2:	bd38      	pop	{r3, r4, r5, pc}
 80025a4:	20000434 	andcs	r0, r0, r4, lsr r4

080025a8 <_ZN13EncoderSensorD1Ev>:
 80025a8:	4770      	bx	lr

080025aa <_ZN13EncoderSensorD0Ev>:
 80025aa:	b510      	push	{r4, lr}
 80025ac:	2114      	movs	r1, #20
 80025ae:	4604      	mov	r4, r0
 80025b0:	f7fe ff46 	bl	8001440 <_ZdlPvj>
 80025b4:	4620      	mov	r0, r4
 80025b6:	bd10      	pop	{r4, pc}

080025b8 <_ZN13EncoderSensorC1Ev>:
 80025b8:	4a30      	ldr	r2, [pc, #192]	; (800267c <_ZN13EncoderSensorC1Ev+0xc4>)
 80025ba:	4b31      	ldr	r3, [pc, #196]	; (8002680 <_ZN13EncoderSensorC1Ev+0xc8>)
 80025bc:	6003      	str	r3, [r0, #0]
 80025be:	6953      	ldr	r3, [r2, #20]
 80025c0:	f443 03fc 	orr.w	r3, r3, #8257536	; 0x7e0000
 80025c4:	b510      	push	{r4, lr}
 80025c6:	6153      	str	r3, [r2, #20]
 80025c8:	4b2e      	ldr	r3, [pc, #184]	; (8002684 <_ZN13EncoderSensorC1Ev+0xcc>)
 80025ca:	6043      	str	r3, [r0, #4]
 80025cc:	689c      	ldr	r4, [r3, #8]
 80025ce:	f424 5440 	bic.w	r4, r4, #12288	; 0x3000
 80025d2:	609c      	str	r4, [r3, #8]
 80025d4:	689c      	ldr	r4, [r3, #8]
 80025d6:	f444 5440 	orr.w	r4, r4, #12288	; 0x3000
 80025da:	609c      	str	r4, [r3, #8]
 80025dc:	681c      	ldr	r4, [r3, #0]
 80025de:	f424 5440 	bic.w	r4, r4, #12288	; 0x3000
 80025e2:	601c      	str	r4, [r3, #0]
 80025e4:	681c      	ldr	r4, [r3, #0]
 80025e6:	601c      	str	r4, [r3, #0]
 80025e8:	68dc      	ldr	r4, [r3, #12]
 80025ea:	f444 5480 	orr.w	r4, r4, #4096	; 0x1000
 80025ee:	60dc      	str	r4, [r3, #12]
 80025f0:	6954      	ldr	r4, [r2, #20]
 80025f2:	f444 04fc 	orr.w	r4, r4, #8257536	; 0x7e0000
 80025f6:	6154      	str	r4, [r2, #20]
 80025f8:	689c      	ldr	r4, [r3, #8]
 80025fa:	6083      	str	r3, [r0, #8]
 80025fc:	f424 4440 	bic.w	r4, r4, #49152	; 0xc000
 8002600:	609c      	str	r4, [r3, #8]
 8002602:	689c      	ldr	r4, [r3, #8]
 8002604:	f444 4440 	orr.w	r4, r4, #49152	; 0xc000
 8002608:	609c      	str	r4, [r3, #8]
 800260a:	681c      	ldr	r4, [r3, #0]
 800260c:	f424 4440 	bic.w	r4, r4, #49152	; 0xc000
 8002610:	601c      	str	r4, [r3, #0]
 8002612:	681c      	ldr	r4, [r3, #0]
 8002614:	601c      	str	r4, [r3, #0]
 8002616:	68dc      	ldr	r4, [r3, #12]
 8002618:	f444 4480 	orr.w	r4, r4, #16384	; 0x4000
 800261c:	60dc      	str	r4, [r3, #12]
 800261e:	6954      	ldr	r4, [r2, #20]
 8002620:	f444 04fc 	orr.w	r4, r4, #8257536	; 0x7e0000
 8002624:	6154      	str	r4, [r2, #20]
 8002626:	689c      	ldr	r4, [r3, #8]
 8002628:	60c3      	str	r3, [r0, #12]
 800262a:	f024 7440 	bic.w	r4, r4, #50331648	; 0x3000000
 800262e:	609c      	str	r4, [r3, #8]
 8002630:	689c      	ldr	r4, [r3, #8]
 8002632:	f044 7440 	orr.w	r4, r4, #50331648	; 0x3000000
 8002636:	609c      	str	r4, [r3, #8]
 8002638:	681c      	ldr	r4, [r3, #0]
 800263a:	f024 7440 	bic.w	r4, r4, #50331648	; 0x3000000
 800263e:	601c      	str	r4, [r3, #0]
 8002640:	681c      	ldr	r4, [r3, #0]
 8002642:	601c      	str	r4, [r3, #0]
 8002644:	68dc      	ldr	r4, [r3, #12]
 8002646:	f044 7480 	orr.w	r4, r4, #16777216	; 0x1000000
 800264a:	60dc      	str	r4, [r3, #12]
 800264c:	6954      	ldr	r4, [r2, #20]
 800264e:	f444 04fc 	orr.w	r4, r4, #8257536	; 0x7e0000
 8002652:	6154      	str	r4, [r2, #20]
 8002654:	689a      	ldr	r2, [r3, #8]
 8002656:	6103      	str	r3, [r0, #16]
 8002658:	f422 0240 	bic.w	r2, r2, #12582912	; 0xc00000
 800265c:	609a      	str	r2, [r3, #8]
 800265e:	689a      	ldr	r2, [r3, #8]
 8002660:	f442 0240 	orr.w	r2, r2, #12582912	; 0xc00000
 8002664:	609a      	str	r2, [r3, #8]
 8002666:	681a      	ldr	r2, [r3, #0]
 8002668:	f422 0240 	bic.w	r2, r2, #12582912	; 0xc00000
 800266c:	601a      	str	r2, [r3, #0]
 800266e:	681a      	ldr	r2, [r3, #0]
 8002670:	601a      	str	r2, [r3, #0]
 8002672:	68da      	ldr	r2, [r3, #12]
 8002674:	f442 0280 	orr.w	r2, r2, #4194304	; 0x400000
 8002678:	60da      	str	r2, [r3, #12]
 800267a:	bd10      	pop	{r4, pc}
 800267c:	40021000 	andmi	r1, r2, r0
 8002680:	080045f8 	stmdaeq	r0, {r3, r4, r5, r6, r7, r8, sl, lr}
 8002684:	48000800 	stmdami	r0, {fp}

08002688 <_ZN13EncoderSensor4initEv>:
 8002688:	4b16      	ldr	r3, [pc, #88]	; (80026e4 <_ZN13EncoderSensor4initEv+0x5c>)
 800268a:	4a17      	ldr	r2, [pc, #92]	; (80026e8 <_ZN13EncoderSensor4initEv+0x60>)
 800268c:	b510      	push	{r4, lr}
 800268e:	2400      	movs	r4, #0
 8002690:	601c      	str	r4, [r3, #0]
 8002692:	4b16      	ldr	r3, [pc, #88]	; (80026ec <_ZN13EncoderSensor4initEv+0x64>)
 8002694:	601c      	str	r4, [r3, #0]
 8002696:	6993      	ldr	r3, [r2, #24]
 8002698:	f043 0301 	orr.w	r3, r3, #1
 800269c:	6193      	str	r3, [r2, #24]
 800269e:	2106      	movs	r1, #6
 80026a0:	2002      	movs	r0, #2
 80026a2:	f7fd feaf 	bl	8000404 <_Z16exti_line_confighh>
 80026a6:	210c      	movs	r1, #12
 80026a8:	2002      	movs	r0, #2
 80026aa:	f7fd feab 	bl	8000404 <_Z16exti_line_confighh>
 80026ae:	2110      	movs	r1, #16
 80026b0:	2006      	movs	r0, #6
 80026b2:	f7fd febc 	bl	800042e <_Z14configure_extimm>
 80026b6:	2110      	movs	r1, #16
 80026b8:	200c      	movs	r0, #12
 80026ba:	f7fd feb8 	bl	800042e <_Z14configure_extimm>
 80026be:	4622      	mov	r2, r4
 80026c0:	4621      	mov	r1, r4
 80026c2:	2017      	movs	r0, #23
 80026c4:	f7fd fe20 	bl	8000308 <_Z9nvic_initmmm>
 80026c8:	4622      	mov	r2, r4
 80026ca:	4621      	mov	r1, r4
 80026cc:	2028      	movs	r0, #40	; 0x28
 80026ce:	f7fd fe1b 	bl	8000308 <_Z9nvic_initmmm>
 80026d2:	2006      	movs	r0, #6
 80026d4:	f7fd fe8a 	bl	80003ec <_Z22exti_clear_pending_bitm>
 80026d8:	200c      	movs	r0, #12
 80026da:	e8bd 4010 	ldmia.w	sp!, {r4, lr}
 80026de:	f7fd be85 	b.w	80003ec <_Z22exti_clear_pending_bitm>
 80026e2:	bf00      	nop
 80026e4:	20000008 	andcs	r0, r0, r8
 80026e8:	40021000 	andmi	r1, r2, r0
 80026ec:	2000000c 	andcs	r0, r0, ip

080026f0 <_ZN13EncoderSensor8get_leftEv>:
 80026f0:	b672      	cpsid	i
 80026f2:	4b04      	ldr	r3, [pc, #16]	; (8002704 <_ZN13EncoderSensor8get_leftEv+0x14>)
 80026f4:	6818      	ldr	r0, [r3, #0]
 80026f6:	b662      	cpsie	i
 80026f8:	2358      	movs	r3, #88	; 0x58
 80026fa:	4343      	muls	r3, r0
 80026fc:	20b4      	movs	r0, #180	; 0xb4
 80026fe:	fb93 f0f0 	sdiv	r0, r3, r0
 8002702:	4770      	bx	lr
 8002704:	20000008 	andcs	r0, r0, r8

08002708 <_ZN13EncoderSensor9get_rightEv>:
 8002708:	b672      	cpsid	i
 800270a:	4b04      	ldr	r3, [pc, #16]	; (800271c <_ZN13EncoderSensor9get_rightEv+0x14>)
 800270c:	6818      	ldr	r0, [r3, #0]
 800270e:	b662      	cpsie	i
 8002710:	2358      	movs	r3, #88	; 0x58
 8002712:	4343      	muls	r3, r0
 8002714:	20b4      	movs	r0, #180	; 0xb4
 8002716:	fb93 f0f0 	sdiv	r0, r3, r0
 800271a:	4770      	bx	lr
 800271c:	2000000c 	andcs	r0, r0, ip

08002720 <_ZN13EncoderSensor12get_distanceEv>:
 8002720:	b508      	push	{r3, lr}
 8002722:	4601      	mov	r1, r0
 8002724:	f7ff ffe4 	bl	80026f0 <_ZN13EncoderSensor8get_leftEv>
 8002728:	4602      	mov	r2, r0
 800272a:	4608      	mov	r0, r1
 800272c:	f7ff ffec 	bl	8002708 <_ZN13EncoderSensor9get_rightEv>
 8002730:	2302      	movs	r3, #2
 8002732:	4410      	add	r0, r2
 8002734:	fb90 f0f3 	sdiv	r0, r0, r3
 8002738:	bd08      	pop	{r3, pc}
 800273a:	0000      	movs	r0, r0

0800273c <_ZN13EncoderSensor18get_left_no_atomicEv>:
 800273c:	4b03      	ldr	r3, [pc, #12]	; (800274c <_ZN13EncoderSensor18get_left_no_atomicEv+0x10>)
 800273e:	6818      	ldr	r0, [r3, #0]
 8002740:	2358      	movs	r3, #88	; 0x58
 8002742:	4343      	muls	r3, r0
 8002744:	20b4      	movs	r0, #180	; 0xb4
 8002746:	fb93 f0f0 	sdiv	r0, r3, r0
 800274a:	4770      	bx	lr
 800274c:	20000008 	andcs	r0, r0, r8

08002750 <_ZN13EncoderSensor19get_right_no_atomicEv>:
 8002750:	4b03      	ldr	r3, [pc, #12]	; (8002760 <_ZN13EncoderSensor19get_right_no_atomicEv+0x10>)
 8002752:	6818      	ldr	r0, [r3, #0]
 8002754:	2358      	movs	r3, #88	; 0x58
 8002756:	4343      	muls	r3, r0
 8002758:	20b4      	movs	r0, #180	; 0xb4
 800275a:	fb93 f0f0 	sdiv	r0, r3, r0
 800275e:	4770      	bx	lr
 8002760:	2000000c 	andcs	r0, r0, ip

08002764 <EXTI9_5_IRQHandler>:
 8002764:	4b09      	ldr	r3, [pc, #36]	; (800278c <EXTI9_5_IRQHandler+0x28>)
 8002766:	8a1b      	ldrh	r3, [r3, #16]
 8002768:	f013 03c0 	ands.w	r3, r3, #192	; 0xc0
 800276c:	d00b      	beq.n	8002786 <EXTI9_5_IRQHandler+0x22>
 800276e:	2bc0      	cmp	r3, #192	; 0xc0
 8002770:	bf0c      	ite	eq
 8002772:	2301      	moveq	r3, #1
 8002774:	f04f 33ff 	movne.w	r3, #4294967295	; 0xffffffff
 8002778:	4a05      	ldr	r2, [pc, #20]	; (8002790 <EXTI9_5_IRQHandler+0x2c>)
 800277a:	6811      	ldr	r1, [r2, #0]
 800277c:	2006      	movs	r0, #6
 800277e:	440b      	add	r3, r1
 8002780:	6013      	str	r3, [r2, #0]
 8002782:	f7fd be33 	b.w	80003ec <_Z22exti_clear_pending_bitm>
 8002786:	2301      	movs	r3, #1
 8002788:	e7f6      	b.n	8002778 <EXTI9_5_IRQHandler+0x14>
 800278a:	bf00      	nop
 800278c:	48000800 	stmdami	r0, {fp}
 8002790:	20000008 	andcs	r0, r0, r8

08002794 <EXTI15_10_IRQHandler>:
 8002794:	4b0a      	ldr	r3, [pc, #40]	; (80027c0 <EXTI15_10_IRQHandler+0x2c>)
 8002796:	8a1b      	ldrh	r3, [r3, #16]
 8002798:	f413 53c0 	ands.w	r3, r3, #6144	; 0x1800
 800279c:	d00c      	beq.n	80027b8 <EXTI15_10_IRQHandler+0x24>
 800279e:	f5b3 5fc0 	cmp.w	r3, #6144	; 0x1800
 80027a2:	bf0c      	ite	eq
 80027a4:	f04f 33ff 	moveq.w	r3, #4294967295	; 0xffffffff
 80027a8:	2301      	movne	r3, #1
 80027aa:	4a06      	ldr	r2, [pc, #24]	; (80027c4 <EXTI15_10_IRQHandler+0x30>)
 80027ac:	6811      	ldr	r1, [r2, #0]
 80027ae:	200c      	movs	r0, #12
 80027b0:	440b      	add	r3, r1
 80027b2:	6013      	str	r3, [r2, #0]
 80027b4:	f7fd be1a 	b.w	80003ec <_Z22exti_clear_pending_bitm>
 80027b8:	f04f 33ff 	mov.w	r3, #4294967295	; 0xffffffff
 80027bc:	e7f5      	b.n	80027aa <EXTI15_10_IRQHandler+0x16>
 80027be:	bf00      	nop
 80027c0:	48000800 	stmdami	r0, {fp}
 80027c4:	2000000c 	andcs	r0, r0, ip

080027c8 <_ZN13MotorControll4mainEv>:
 80027c8:	b538      	push	{r3, r4, r5, lr}
 80027ca:	68c3      	ldr	r3, [r0, #12]
 80027cc:	4d36      	ldr	r5, [pc, #216]	; (80028a8 <_ZN13MotorControll4mainEv+0xe0>)
 80027ce:	ed2d 8b04 	vpush	{d8-d9}
 80027d2:	6043      	str	r3, [r0, #4]
 80027d4:	6903      	ldr	r3, [r0, #16]
 80027d6:	6083      	str	r3, [r0, #8]
 80027d8:	4604      	mov	r4, r0
 80027da:	4628      	mov	r0, r5
 80027dc:	f7ff ffae 	bl	800273c <_ZN13EncoderSensor18get_left_no_atomicEv>
 80027e0:	60e0      	str	r0, [r4, #12]
 80027e2:	4628      	mov	r0, r5
 80027e4:	f7ff ffb4 	bl	8002750 <_ZN13EncoderSensor19get_right_no_atomicEv>
 80027e8:	6862      	ldr	r2, [r4, #4]
 80027ea:	68e3      	ldr	r3, [r4, #12]
 80027ec:	ed9f 5a2f 	vldr	s10, [pc, #188]	; 80028ac <_ZN13MotorControll4mainEv+0xe4>
 80027f0:	edd4 6a05 	vldr	s13, [r4, #20]
 80027f4:	eddf 5a2e 	vldr	s11, [pc, #184]	; 80028b0 <_ZN13MotorControll4mainEv+0xe8>
 80027f8:	ed9f 6a2e 	vldr	s12, [pc, #184]	; 80028b4 <_ZN13MotorControll4mainEv+0xec>
 80027fc:	6120      	str	r0, [r4, #16]
 80027fe:	1a9b      	subs	r3, r3, r2
 8002800:	ee07 3a10 	vmov	s14, r3
 8002804:	eeb8 7ac7 	vcvt.f32.s32	s14, s14
 8002808:	68a3      	ldr	r3, [r4, #8]
 800280a:	ed9f 9a2b 	vldr	s18, [pc, #172]	; 80028b8 <_ZN13MotorControll4mainEv+0xf0>
 800280e:	ee27 7a05 	vmul.f32	s14, s14, s10
 8002812:	ee66 6aa5 	vmul.f32	s13, s13, s11
 8002816:	ee47 6a06 	vmla.f32	s13, s14, s12
 800281a:	1ac3      	subs	r3, r0, r3
 800281c:	f104 003c 	add.w	r0, r4, #60	; 0x3c
 8002820:	ee07 3a90 	vmov	s15, r3
 8002824:	eef8 7ae7 	vcvt.f32.s32	s15, s15
 8002828:	edc4 6a05 	vstr	s13, [r4, #20]
 800282c:	eeb0 7a66 	vmov.f32	s14, s13
 8002830:	edd4 6a06 	vldr	s13, [r4, #24]
 8002834:	ee67 7a85 	vmul.f32	s15, s15, s10
 8002838:	ee66 6aa5 	vmul.f32	s13, s13, s11
 800283c:	ee47 6a86 	vmla.f32	s13, s15, s12
 8002840:	edd4 7a07 	vldr	s15, [r4, #28]
 8002844:	edc4 6a06 	vstr	s13, [r4, #24]
 8002848:	ee77 7ac7 	vsub.f32	s15, s15, s14
 800284c:	ee17 2a10 	vmov	r2, s14
 8002850:	ee17 1a90 	vmov	r1, s15
 8002854:	f7fe fe8c 	bl	8001570 <_ZN3PID7processEff>
 8002858:	69a2      	ldr	r2, [r4, #24]
 800285a:	edd4 7a08 	vldr	s15, [r4, #32]
 800285e:	ee07 2a10 	vmov	s14, r2
 8002862:	ee77 7ac7 	vsub.f32	s15, s15, s14
 8002866:	ee08 0a90 	vmov	s17, r0
 800286a:	ee17 1a90 	vmov	r1, s15
 800286e:	f104 0068 	add.w	r0, r4, #104	; 0x68
 8002872:	f7fe fe7d 	bl	8001570 <_ZN3PID7processEff>
 8002876:	ee68 8a89 	vmul.f32	s17, s17, s18
 800287a:	3424      	adds	r4, #36	; 0x24
 800287c:	eefd 7ae8 	vcvt.s32.f32	s15, s17
 8002880:	ee08 0a10 	vmov	s16, r0
 8002884:	ee17 1a90 	vmov	r1, s15
 8002888:	4620      	mov	r0, r4
 800288a:	f7ff faa9 	bl	8001de0 <_ZN5Motor8run_leftEi>
 800288e:	ee28 8a09 	vmul.f32	s16, s16, s18
 8002892:	4620      	mov	r0, r4
 8002894:	eefd 7ac8 	vcvt.s32.f32	s15, s16
 8002898:	ecbd 8b04 	vpop	{d8-d9}
 800289c:	ee17 1a90 	vmov	r1, s15
 80028a0:	e8bd 4038 	ldmia.w	sp!, {r3, r4, r5, lr}
 80028a4:	f7ff babc 	b.w	8001e20 <_ZN5Motor9run_rightEi>
 80028a8:	20000240 	andcs	r0, r0, r0, asr #4
 80028ac:	3dcccccd 	stclcc	12, cr12, [ip, #820]	; 0x334
 80028b0:	3f666666 	svccc	0x00666666
 80028b4:	3e000000 	cdpcc	0, 0, cr0, cr0, cr0, {0}
 80028b8:	437f0000 	cmnmi	pc, #0

080028bc <_ZN13MotorControllC1Ev>:
 80028bc:	b573      	push	{r0, r1, r4, r5, r6, lr}
 80028be:	4b0e      	ldr	r3, [pc, #56]	; (80028f8 <_ZN13MotorControllC1Ev+0x3c>)
 80028c0:	2500      	movs	r5, #0
 80028c2:	4604      	mov	r4, r0
 80028c4:	f04f 567e 	mov.w	r6, #1065353216	; 0x3f800000
 80028c8:	f840 3b24 	str.w	r3, [r0], #36
 80028cc:	f7ff f9e6 	bl	8001c9c <_ZN5MotorC1Ev>
 80028d0:	462b      	mov	r3, r5
 80028d2:	462a      	mov	r2, r5
 80028d4:	4629      	mov	r1, r5
 80028d6:	9600      	str	r6, [sp, #0]
 80028d8:	f104 003c 	add.w	r0, r4, #60	; 0x3c
 80028dc:	f7fe fe3c 	bl	8001558 <_ZN3PIDC1Effff>
 80028e0:	9600      	str	r6, [sp, #0]
 80028e2:	462b      	mov	r3, r5
 80028e4:	462a      	mov	r2, r5
 80028e6:	4629      	mov	r1, r5
 80028e8:	f104 0068 	add.w	r0, r4, #104	; 0x68
 80028ec:	f7fe fe34 	bl	8001558 <_ZN3PIDC1Effff>
 80028f0:	4620      	mov	r0, r4
 80028f2:	b002      	add	sp, #8
 80028f4:	bd70      	pop	{r4, r5, r6, pc}
 80028f6:	bf00      	nop
 80028f8:	08004608 	stmdaeq	r0, {r3, r9, sl, lr}

080028fc <_ZN13MotorControll4initEv>:
 80028fc:	b5f7      	push	{r0, r1, r2, r4, r5, r6, r7, lr}
 80028fe:	4f15      	ldr	r7, [pc, #84]	; (8002954 <_ZN13MotorControll4initEv+0x58>)
 8002900:	4e15      	ldr	r6, [pc, #84]	; (8002958 <_ZN13MotorControll4initEv+0x5c>)
 8002902:	4604      	mov	r4, r0
 8002904:	f04f 557e 	mov.w	r5, #1065353216	; 0x3f800000
 8002908:	3024      	adds	r0, #36	; 0x24
 800290a:	f7ff faff 	bl	8001f0c <_ZN5Motor4initEv>
 800290e:	9500      	str	r5, [sp, #0]
 8002910:	462b      	mov	r3, r5
 8002912:	463a      	mov	r2, r7
 8002914:	4631      	mov	r1, r6
 8002916:	f104 003c 	add.w	r0, r4, #60	; 0x3c
 800291a:	f7fe fe05 	bl	8001528 <_ZN3PID4initEffff>
 800291e:	9500      	str	r5, [sp, #0]
 8002920:	462b      	mov	r3, r5
 8002922:	463a      	mov	r2, r7
 8002924:	4631      	mov	r1, r6
 8002926:	f104 0068 	add.w	r0, r4, #104	; 0x68
 800292a:	f7fe fdfd 	bl	8001528 <_ZN3PID4initEffff>
 800292e:	2500      	movs	r5, #0
 8002930:	2300      	movs	r3, #0
 8002932:	6163      	str	r3, [r4, #20]
 8002934:	61a3      	str	r3, [r4, #24]
 8002936:	61e3      	str	r3, [r4, #28]
 8002938:	6223      	str	r3, [r4, #32]
 800293a:	6065      	str	r5, [r4, #4]
 800293c:	60a5      	str	r5, [r4, #8]
 800293e:	60e5      	str	r5, [r4, #12]
 8002940:	6125      	str	r5, [r4, #16]
 8002942:	462b      	mov	r3, r5
 8002944:	2204      	movs	r2, #4
 8002946:	4621      	mov	r1, r4
 8002948:	4804      	ldr	r0, [pc, #16]	; (800295c <_ZN13MotorControll4initEv+0x60>)
 800294a:	f000 faf1 	bl	8002f30 <_ZN5Timer8add_taskEP6Threadjb>
 800294e:	4628      	mov	r0, r5
 8002950:	b003      	add	sp, #12
 8002952:	bdf0      	pop	{r4, r5, r6, r7, pc}
 8002954:	3db851ec 	ldfccs	f5, [r8, #944]!	; 0x3b0
 8002958:	3f8ccccd 	svccc	0x008ccccd
 800295c:	20000434 	andcs	r0, r0, r4, lsr r4

08002960 <_ZN13MotorControll14set_left_speedEf>:
 8002960:	61c1      	str	r1, [r0, #28]
 8002962:	4770      	bx	lr

08002964 <_ZN13MotorControll15set_right_speedEf>:
 8002964:	6201      	str	r1, [r0, #32]
 8002966:	4770      	bx	lr

08002968 <_ZN13MotorControll14get_speed_leftEv>:
 8002968:	6940      	ldr	r0, [r0, #20]
 800296a:	4770      	bx	lr

0800296c <_ZN13MotorControll15get_speed_rightEv>:
 800296c:	6980      	ldr	r0, [r0, #24]
 800296e:	4770      	bx	lr

08002970 <_ZN13MotorControllD1Ev>:
 8002970:	b510      	push	{r4, lr}
 8002972:	4b08      	ldr	r3, [pc, #32]	; (8002994 <_ZN13MotorControllD1Ev+0x24>)
 8002974:	4604      	mov	r4, r0
 8002976:	f840 3b68 	str.w	r3, [r0], #104
 800297a:	f7fe fdcd 	bl	8001518 <_ZN3PIDD1Ev>
 800297e:	f104 003c 	add.w	r0, r4, #60	; 0x3c
 8002982:	f7fe fdc9 	bl	8001518 <_ZN3PIDD1Ev>
 8002986:	f104 0024 	add.w	r0, r4, #36	; 0x24
 800298a:	f7ff f97f 	bl	8001c8c <_ZN5MotorD1Ev>
 800298e:	4620      	mov	r0, r4
 8002990:	bd10      	pop	{r4, pc}
 8002992:	bf00      	nop
 8002994:	08004608 	stmdaeq	r0, {r3, r9, sl, lr}

08002998 <_ZN13MotorControllD0Ev>:
 8002998:	b510      	push	{r4, lr}
 800299a:	4604      	mov	r4, r0
 800299c:	f7ff ffe8 	bl	8002970 <_ZN13MotorControllD1Ev>
 80029a0:	4620      	mov	r0, r4
 80029a2:	2194      	movs	r1, #148	; 0x94
 80029a4:	f7fe fd4c 	bl	8001440 <_ZdlPvj>
 80029a8:	4620      	mov	r0, r4
 80029aa:	bd10      	pop	{r4, pc}

080029ac <_ZN5UsartD1Ev>:
 80029ac:	4770      	bx	lr

080029ae <_ZN5UsartD0Ev>:
 80029ae:	b510      	push	{r4, lr}
 80029b0:	2104      	movs	r1, #4
 80029b2:	4604      	mov	r4, r0
 80029b4:	f7fe fd44 	bl	8001440 <_ZdlPvj>
 80029b8:	4620      	mov	r0, r4
 80029ba:	bd10      	pop	{r4, pc}

080029bc <_ZN5UsartC1Ev>:
 80029bc:	4b01      	ldr	r3, [pc, #4]	; (80029c4 <_ZN5UsartC1Ev+0x8>)
 80029be:	6003      	str	r3, [r0, #0]
 80029c0:	4770      	bx	lr
 80029c2:	bf00      	nop
 80029c4:	0800461c 	stmdaeq	r0, {r2, r3, r4, r9, sl, lr}

080029c8 <_ZN5Usart4initEj>:
 80029c8:	4a27      	ldr	r2, [pc, #156]	; (8002a68 <_ZN5Usart4initEj+0xa0>)
 80029ca:	6953      	ldr	r3, [r2, #20]
 80029cc:	f443 03fc 	orr.w	r3, r3, #8257536	; 0x7e0000
 80029d0:	6153      	str	r3, [r2, #20]
 80029d2:	f04f 4390 	mov.w	r3, #1207959552	; 0x48000000
 80029d6:	6898      	ldr	r0, [r3, #8]
 80029d8:	f420 2040 	bic.w	r0, r0, #786432	; 0xc0000
 80029dc:	6098      	str	r0, [r3, #8]
 80029de:	6898      	ldr	r0, [r3, #8]
 80029e0:	f440 2040 	orr.w	r0, r0, #786432	; 0xc0000
 80029e4:	6098      	str	r0, [r3, #8]
 80029e6:	6818      	ldr	r0, [r3, #0]
 80029e8:	f420 2040 	bic.w	r0, r0, #786432	; 0xc0000
 80029ec:	6018      	str	r0, [r3, #0]
 80029ee:	6818      	ldr	r0, [r3, #0]
 80029f0:	f440 2000 	orr.w	r0, r0, #524288	; 0x80000
 80029f4:	6018      	str	r0, [r3, #0]
 80029f6:	6950      	ldr	r0, [r2, #20]
 80029f8:	f440 00fc 	orr.w	r0, r0, #8257536	; 0x7e0000
 80029fc:	6150      	str	r0, [r2, #20]
 80029fe:	6898      	ldr	r0, [r3, #8]
 8002a00:	f420 1040 	bic.w	r0, r0, #3145728	; 0x300000
 8002a04:	6098      	str	r0, [r3, #8]
 8002a06:	6898      	ldr	r0, [r3, #8]
 8002a08:	f440 1040 	orr.w	r0, r0, #3145728	; 0x300000
 8002a0c:	6098      	str	r0, [r3, #8]
 8002a0e:	6818      	ldr	r0, [r3, #0]
 8002a10:	f420 1040 	bic.w	r0, r0, #3145728	; 0x300000
 8002a14:	6018      	str	r0, [r3, #0]
 8002a16:	6818      	ldr	r0, [r3, #0]
 8002a18:	f440 1000 	orr.w	r0, r0, #2097152	; 0x200000
 8002a1c:	6018      	str	r0, [r3, #0]
 8002a1e:	6a58      	ldr	r0, [r3, #36]	; 0x24
 8002a20:	f020 00f0 	bic.w	r0, r0, #240	; 0xf0
 8002a24:	6258      	str	r0, [r3, #36]	; 0x24
 8002a26:	6a58      	ldr	r0, [r3, #36]	; 0x24
 8002a28:	f040 0070 	orr.w	r0, r0, #112	; 0x70
 8002a2c:	6258      	str	r0, [r3, #36]	; 0x24
 8002a2e:	6a58      	ldr	r0, [r3, #36]	; 0x24
 8002a30:	f420 6070 	bic.w	r0, r0, #3840	; 0xf00
 8002a34:	6258      	str	r0, [r3, #36]	; 0x24
 8002a36:	6a58      	ldr	r0, [r3, #36]	; 0x24
 8002a38:	f440 60e0 	orr.w	r0, r0, #1792	; 0x700
 8002a3c:	6258      	str	r0, [r3, #36]	; 0x24
 8002a3e:	6993      	ldr	r3, [r2, #24]
 8002a40:	f443 4380 	orr.w	r3, r3, #16384	; 0x4000
 8002a44:	6193      	str	r3, [r2, #24]
 8002a46:	4b09      	ldr	r3, [pc, #36]	; (8002a6c <_ZN5Usart4initEj+0xa4>)
 8002a48:	2200      	movs	r2, #0
 8002a4a:	200c      	movs	r0, #12
 8002a4c:	605a      	str	r2, [r3, #4]
 8002a4e:	6018      	str	r0, [r3, #0]
 8002a50:	609a      	str	r2, [r3, #8]
 8002a52:	4a07      	ldr	r2, [pc, #28]	; (8002a70 <_ZN5Usart4initEj+0xa8>)
 8002a54:	fbb2 f1f1 	udiv	r1, r2, r1
 8002a58:	b289      	uxth	r1, r1
 8002a5a:	8199      	strh	r1, [r3, #12]
 8002a5c:	681a      	ldr	r2, [r3, #0]
 8002a5e:	f042 0201 	orr.w	r2, r2, #1
 8002a62:	601a      	str	r2, [r3, #0]
 8002a64:	4770      	bx	lr
 8002a66:	bf00      	nop
 8002a68:	40021000 	andmi	r1, r2, r0
 8002a6c:	40013800 	andmi	r3, r1, r0, lsl #16
 8002a70:	044aa200 	strbeq	sl, [sl], #-512	; 0xfffffe00

08002a74 <_ZN5Usart8put_charEc>:
 8002a74:	4b04      	ldr	r3, [pc, #16]	; (8002a88 <_ZN5Usart8put_charEc+0x14>)
 8002a76:	69da      	ldr	r2, [r3, #28]
 8002a78:	0612      	lsls	r2, r2, #24
 8002a7a:	d401      	bmi.n	8002a80 <_ZN5Usart8put_charEc+0xc>
 8002a7c:	bf00      	nop
 8002a7e:	e7fa      	b.n	8002a76 <_ZN5Usart8put_charEc+0x2>
 8002a80:	b289      	uxth	r1, r1
 8002a82:	8519      	strh	r1, [r3, #40]	; 0x28
 8002a84:	4770      	bx	lr
 8002a86:	bf00      	nop
 8002a88:	40013800 	andmi	r3, r1, r0, lsl #16

08002a8c <_ZN6EEPROMD1Ev>:
 8002a8c:	4770      	bx	lr

08002a8e <_ZN6EEPROMD0Ev>:
 8002a8e:	b510      	push	{r4, lr}
 8002a90:	210c      	movs	r1, #12
 8002a92:	4604      	mov	r4, r0
 8002a94:	f7fe fcd4 	bl	8001440 <_ZdlPvj>
 8002a98:	4620      	mov	r0, r4
 8002a9a:	bd10      	pop	{r4, pc}

08002a9c <_ZN6EEPROMC1Ev>:
 8002a9c:	4a02      	ldr	r2, [pc, #8]	; (8002aa8 <_ZN6EEPROMC1Ev+0xc>)
 8002a9e:	6002      	str	r2, [r0, #0]
 8002aa0:	2200      	movs	r2, #0
 8002aa2:	7202      	strb	r2, [r0, #8]
 8002aa4:	4770      	bx	lr
 8002aa6:	bf00      	nop
 8002aa8:	0800462c 	stmdaeq	r0, {r2, r3, r5, r9, sl, lr}

08002aac <_ZN6EEPROM4initER13I2C_Interface>:
 8002aac:	b5f8      	push	{r3, r4, r5, r6, r7, lr}
 8002aae:	2301      	movs	r3, #1
 8002ab0:	4604      	mov	r4, r0
 8002ab2:	6041      	str	r1, [r0, #4]
 8002ab4:	7203      	strb	r3, [r0, #8]
 8002ab6:	b672      	cpsid	i
 8002ab8:	680b      	ldr	r3, [r1, #0]
 8002aba:	4608      	mov	r0, r1
 8002abc:	689b      	ldr	r3, [r3, #8]
 8002abe:	4798      	blx	r3
 8002ac0:	6860      	ldr	r0, [r4, #4]
 8002ac2:	6803      	ldr	r3, [r0, #0]
 8002ac4:	21a0      	movs	r1, #160	; 0xa0
 8002ac6:	695b      	ldr	r3, [r3, #20]
 8002ac8:	4798      	blx	r3
 8002aca:	4607      	mov	r7, r0
 8002acc:	6860      	ldr	r0, [r4, #4]
 8002ace:	6803      	ldr	r3, [r0, #0]
 8002ad0:	2100      	movs	r1, #0
 8002ad2:	695b      	ldr	r3, [r3, #20]
 8002ad4:	4798      	blx	r3
 8002ad6:	4606      	mov	r6, r0
 8002ad8:	6860      	ldr	r0, [r4, #4]
 8002ada:	6803      	ldr	r3, [r0, #0]
 8002adc:	2100      	movs	r1, #0
 8002ade:	695b      	ldr	r3, [r3, #20]
 8002ae0:	4798      	blx	r3
 8002ae2:	4605      	mov	r5, r0
 8002ae4:	6860      	ldr	r0, [r4, #4]
 8002ae6:	6803      	ldr	r3, [r0, #0]
 8002ae8:	68db      	ldr	r3, [r3, #12]
 8002aea:	4798      	blx	r3
 8002aec:	b662      	cpsie	i
 8002aee:	2f01      	cmp	r7, #1
 8002af0:	bf1c      	itt	ne
 8002af2:	2300      	movne	r3, #0
 8002af4:	7223      	strbne	r3, [r4, #8]
 8002af6:	2e01      	cmp	r6, #1
 8002af8:	bf1c      	itt	ne
 8002afa:	2300      	movne	r3, #0
 8002afc:	7223      	strbne	r3, [r4, #8]
 8002afe:	2d01      	cmp	r5, #1
 8002b00:	bf1c      	itt	ne
 8002b02:	2300      	movne	r3, #0
 8002b04:	7223      	strbne	r3, [r4, #8]
 8002b06:	bdf8      	pop	{r3, r4, r5, r6, r7, pc}

08002b08 <_ZN6EEPROM7presentEv>:
 8002b08:	7a00      	ldrb	r0, [r0, #8]
 8002b0a:	4770      	bx	lr

08002b0c <_ZN6EEPROM5writeEjPh>:
 8002b0c:	f101 0340 	add.w	r3, r1, #64	; 0x40
 8002b10:	f5b3 4f00 	cmp.w	r3, #32768	; 0x8000
 8002b14:	b570      	push	{r4, r5, r6, lr}
 8002b16:	4604      	mov	r4, r0
 8002b18:	460e      	mov	r6, r1
 8002b1a:	4615      	mov	r5, r2
 8002b1c:	d823      	bhi.n	8002b66 <_ZN6EEPROM5writeEjPh+0x5a>
 8002b1e:	b672      	cpsid	i
 8002b20:	6840      	ldr	r0, [r0, #4]
 8002b22:	6803      	ldr	r3, [r0, #0]
 8002b24:	689b      	ldr	r3, [r3, #8]
 8002b26:	4798      	blx	r3
 8002b28:	6860      	ldr	r0, [r4, #4]
 8002b2a:	6803      	ldr	r3, [r0, #0]
 8002b2c:	21a0      	movs	r1, #160	; 0xa0
 8002b2e:	695b      	ldr	r3, [r3, #20]
 8002b30:	4798      	blx	r3
 8002b32:	6860      	ldr	r0, [r4, #4]
 8002b34:	6803      	ldr	r3, [r0, #0]
 8002b36:	f3c6 2107 	ubfx	r1, r6, #8, #8
 8002b3a:	695b      	ldr	r3, [r3, #20]
 8002b3c:	4798      	blx	r3
 8002b3e:	6860      	ldr	r0, [r4, #4]
 8002b40:	6803      	ldr	r3, [r0, #0]
 8002b42:	b2f1      	uxtb	r1, r6
 8002b44:	695b      	ldr	r3, [r3, #20]
 8002b46:	4798      	blx	r3
 8002b48:	1e6e      	subs	r6, r5, #1
 8002b4a:	353f      	adds	r5, #63	; 0x3f
 8002b4c:	6860      	ldr	r0, [r4, #4]
 8002b4e:	f816 1f01 	ldrb.w	r1, [r6, #1]!
 8002b52:	6803      	ldr	r3, [r0, #0]
 8002b54:	695b      	ldr	r3, [r3, #20]
 8002b56:	4798      	blx	r3
 8002b58:	42ae      	cmp	r6, r5
 8002b5a:	d1f7      	bne.n	8002b4c <_ZN6EEPROM5writeEjPh+0x40>
 8002b5c:	6860      	ldr	r0, [r4, #4]
 8002b5e:	6803      	ldr	r3, [r0, #0]
 8002b60:	68db      	ldr	r3, [r3, #12]
 8002b62:	4798      	blx	r3
 8002b64:	b662      	cpsie	i
 8002b66:	bd70      	pop	{r4, r5, r6, pc}

08002b68 <_ZN6EEPROM4readEjPh>:
 8002b68:	b5f8      	push	{r3, r4, r5, r6, r7, lr}
 8002b6a:	f101 0340 	add.w	r3, r1, #64	; 0x40
 8002b6e:	f5b3 4f00 	cmp.w	r3, #32768	; 0x8000
 8002b72:	4604      	mov	r4, r0
 8002b74:	460e      	mov	r6, r1
 8002b76:	4615      	mov	r5, r2
 8002b78:	d835      	bhi.n	8002be6 <_ZN6EEPROM4readEjPh+0x7e>
 8002b7a:	b672      	cpsid	i
 8002b7c:	6840      	ldr	r0, [r0, #4]
 8002b7e:	6803      	ldr	r3, [r0, #0]
 8002b80:	689b      	ldr	r3, [r3, #8]
 8002b82:	4798      	blx	r3
 8002b84:	6860      	ldr	r0, [r4, #4]
 8002b86:	6803      	ldr	r3, [r0, #0]
 8002b88:	21a0      	movs	r1, #160	; 0xa0
 8002b8a:	695b      	ldr	r3, [r3, #20]
 8002b8c:	4798      	blx	r3
 8002b8e:	6860      	ldr	r0, [r4, #4]
 8002b90:	6803      	ldr	r3, [r0, #0]
 8002b92:	f3c6 2107 	ubfx	r1, r6, #8, #8
 8002b96:	695b      	ldr	r3, [r3, #20]
 8002b98:	4798      	blx	r3
 8002b9a:	6860      	ldr	r0, [r4, #4]
 8002b9c:	6803      	ldr	r3, [r0, #0]
 8002b9e:	b2f1      	uxtb	r1, r6
 8002ba0:	695b      	ldr	r3, [r3, #20]
 8002ba2:	4798      	blx	r3
 8002ba4:	6860      	ldr	r0, [r4, #4]
 8002ba6:	6803      	ldr	r3, [r0, #0]
 8002ba8:	689b      	ldr	r3, [r3, #8]
 8002baa:	4798      	blx	r3
 8002bac:	6860      	ldr	r0, [r4, #4]
 8002bae:	6803      	ldr	r3, [r0, #0]
 8002bb0:	21a1      	movs	r1, #161	; 0xa1
 8002bb2:	695b      	ldr	r3, [r3, #20]
 8002bb4:	4798      	blx	r3
 8002bb6:	1e6e      	subs	r6, r5, #1
 8002bb8:	f105 073e 	add.w	r7, r5, #62	; 0x3e
 8002bbc:	6860      	ldr	r0, [r4, #4]
 8002bbe:	6803      	ldr	r3, [r0, #0]
 8002bc0:	2101      	movs	r1, #1
 8002bc2:	699b      	ldr	r3, [r3, #24]
 8002bc4:	4798      	blx	r3
 8002bc6:	f806 0f01 	strb.w	r0, [r6, #1]!
 8002bca:	42be      	cmp	r6, r7
 8002bcc:	d1f6      	bne.n	8002bbc <_ZN6EEPROM4readEjPh+0x54>
 8002bce:	6860      	ldr	r0, [r4, #4]
 8002bd0:	6803      	ldr	r3, [r0, #0]
 8002bd2:	2100      	movs	r1, #0
 8002bd4:	699b      	ldr	r3, [r3, #24]
 8002bd6:	4798      	blx	r3
 8002bd8:	f885 003f 	strb.w	r0, [r5, #63]	; 0x3f
 8002bdc:	6860      	ldr	r0, [r4, #4]
 8002bde:	6803      	ldr	r3, [r0, #0]
 8002be0:	68db      	ldr	r3, [r3, #12]
 8002be2:	4798      	blx	r3
 8002be4:	b662      	cpsie	i
 8002be6:	bdf8      	pop	{r3, r4, r5, r6, r7, pc}

08002be8 <_ZN14DistanceSensor4mainEv>:
 8002be8:	b5f8      	push	{r3, r4, r5, r6, r7, lr}
 8002bea:	2108      	movs	r1, #8
 8002bec:	4604      	mov	r4, r0
 8002bee:	ed2d 8b04 	vpush	{d8-d9}
 8002bf2:	4841      	ldr	r0, [pc, #260]	; (8002cf8 <_ZN14DistanceSensor4mainEv+0x110>)
 8002bf4:	f7ff fac4 	bl	8002180 <_ZN3ADC4readEj>
 8002bf8:	2109      	movs	r1, #9
 8002bfa:	ee08 0a10 	vmov	s16, r0
 8002bfe:	483e      	ldr	r0, [pc, #248]	; (8002cf8 <_ZN14DistanceSensor4mainEv+0x110>)
 8002c00:	f7ff fabe 	bl	8002180 <_ZN3ADC4readEj>
 8002c04:	210a      	movs	r1, #10
 8002c06:	ee09 0a10 	vmov	s18, r0
 8002c0a:	483b      	ldr	r0, [pc, #236]	; (8002cf8 <_ZN14DistanceSensor4mainEv+0x110>)
 8002c0c:	f7ff fab8 	bl	8002180 <_ZN3ADC4readEj>
 8002c10:	eef8 7ac8 	vcvt.f32.s32	s15, s16
 8002c14:	ed9f 8a39 	vldr	s16, [pc, #228]	; 8002cfc <_ZN14DistanceSensor4mainEv+0x114>
 8002c18:	ee67 7a88 	vmul.f32	s15, s15, s16
 8002c1c:	f104 0744 	add.w	r7, r4, #68	; 0x44
 8002c20:	ee17 1a90 	vmov	r1, s15
 8002c24:	ee08 0a90 	vmov	s17, r0
 8002c28:	4638      	mov	r0, r7
 8002c2a:	f7fe fc3d 	bl	80014a8 <_ZN6Filter7processEf>
 8002c2e:	eeb8 9ac9 	vcvt.f32.s32	s18, s18
 8002c32:	f104 0674 	add.w	r6, r4, #116	; 0x74
 8002c36:	ee69 7a08 	vmul.f32	s15, s18, s16
 8002c3a:	4630      	mov	r0, r6
 8002c3c:	ee17 1a90 	vmov	r1, s15
 8002c40:	f7fe fc32 	bl	80014a8 <_ZN6Filter7processEf>
 8002c44:	eef8 8ae8 	vcvt.f32.s32	s17, s17
 8002c48:	f104 05a4 	add.w	r5, r4, #164	; 0xa4
 8002c4c:	ee68 7a88 	vmul.f32	s15, s17, s16
 8002c50:	4628      	mov	r0, r5
 8002c52:	ee17 1a90 	vmov	r1, s15
 8002c56:	f7fe fc27 	bl	80014a8 <_ZN6Filter7processEf>
 8002c5a:	4638      	mov	r0, r7
 8002c5c:	f7fe fc50 	bl	8001500 <_ZN6Filter12get_absoluteEv>
 8002c60:	ed9f 8a27 	vldr	s16, [pc, #156]	; 8002d00 <_ZN14DistanceSensor4mainEv+0x118>
 8002c64:	ee07 0a90 	vmov	s15, r0
 8002c68:	ee78 7a67 	vsub.f32	s15, s16, s15
 8002c6c:	4630      	mov	r0, r6
 8002c6e:	edc4 7a02 	vstr	s15, [r4, #8]
 8002c72:	f7fe fc45 	bl	8001500 <_ZN6Filter12get_absoluteEv>
 8002c76:	ee07 0a90 	vmov	s15, r0
 8002c7a:	ee78 7a67 	vsub.f32	s15, s16, s15
 8002c7e:	4628      	mov	r0, r5
 8002c80:	edc4 7a01 	vstr	s15, [r4, #4]
 8002c84:	f7fe fc3c 	bl	8001500 <_ZN6Filter12get_absoluteEv>
 8002c88:	ee07 0a90 	vmov	s15, r0
 8002c8c:	ed9f 7a1d 	vldr	s14, [pc, #116]	; 8002d04 <_ZN14DistanceSensor4mainEv+0x11c>
 8002c90:	ee38 8a67 	vsub.f32	s16, s16, s15
 8002c94:	edd4 7a02 	vldr	s15, [r4, #8]
 8002c98:	ed84 8a03 	vstr	s16, [r4, #12]
 8002c9c:	eef4 7ac7 	vcmpe.f32	s15, s14
 8002ca0:	ed9f 7a19 	vldr	s14, [pc, #100]	; 8002d08 <_ZN14DistanceSensor4mainEv+0x120>
 8002ca4:	eef1 fa10 	vmrs	APSR_nzcv, fpscr
 8002ca8:	bf4c      	ite	mi
 8002caa:	2301      	movmi	r3, #1
 8002cac:	2300      	movpl	r3, #0
 8002cae:	eef4 7ac7 	vcmpe.f32	s15, s14
 8002cb2:	eef1 fa10 	vmrs	APSR_nzcv, fpscr
 8002cb6:	7423      	strb	r3, [r4, #16]
 8002cb8:	f04f 0301 	mov.w	r3, #1
 8002cbc:	bf48      	it	mi
 8002cbe:	7463      	strbmi	r3, [r4, #17]
 8002cc0:	7523      	strb	r3, [r4, #20]
 8002cc2:	6aa3      	ldr	r3, [r4, #40]	; 0x28
 8002cc4:	bf5c      	itt	pl
 8002cc6:	2200      	movpl	r2, #0
 8002cc8:	7462      	strbpl	r2, [r4, #17]
 8002cca:	f013 0203 	ands.w	r2, r3, #3
 8002cce:	d10a      	bne.n	8002ce6 <_ZN14DistanceSensor4mainEv+0xfe>
 8002cd0:	69a1      	ldr	r1, [r4, #24]
 8002cd2:	8d0a      	ldrh	r2, [r1, #40]	; 0x28
 8002cd4:	b292      	uxth	r2, r2
 8002cd6:	f442 5200 	orr.w	r2, r2, #8192	; 0x2000
 8002cda:	850a      	strh	r2, [r1, #40]	; 0x28
 8002cdc:	ecbd 8b04 	vpop	{d8-d9}
 8002ce0:	3301      	adds	r3, #1
 8002ce2:	62a3      	str	r3, [r4, #40]	; 0x28
 8002ce4:	bdf8      	pop	{r3, r4, r5, r6, r7, pc}
 8002ce6:	2a02      	cmp	r2, #2
 8002ce8:	bf01      	itttt	eq
 8002cea:	69a1      	ldreq	r1, [r4, #24]
 8002cec:	698a      	ldreq	r2, [r1, #24]
 8002cee:	f442 5200 	orreq.w	r2, r2, #8192	; 0x2000
 8002cf2:	618a      	streq	r2, [r1, #24]
 8002cf4:	e7f2      	b.n	8002cdc <_ZN14DistanceSensor4mainEv+0xf4>
 8002cf6:	bf00      	nop
 8002cf8:	20000154 	andcs	r0, r0, r4, asr r1
 8002cfc:	39800000 	stmibcc	r0, {}	; <UNPREDICTABLE>
 8002d00:	3f800000 	svccc	0x00800000
 8002d04:	3f333333 	svccc	0x00333333
 8002d08:	3f266666 	svccc	0x00266666

08002d0c <_ZN14DistanceSensorC1Ev>:
 8002d0c:	492f      	ldr	r1, [pc, #188]	; (8002dcc <_ZN14DistanceSensorC1Ev+0xc0>)
 8002d0e:	4b30      	ldr	r3, [pc, #192]	; (8002dd0 <_ZN14DistanceSensorC1Ev+0xc4>)
 8002d10:	b510      	push	{r4, lr}
 8002d12:	6003      	str	r3, [r0, #0]
 8002d14:	694b      	ldr	r3, [r1, #20]
 8002d16:	f443 03fc 	orr.w	r3, r3, #8257536	; 0x7e0000
 8002d1a:	614b      	str	r3, [r1, #20]
 8002d1c:	4b2d      	ldr	r3, [pc, #180]	; (8002dd4 <_ZN14DistanceSensorC1Ev+0xc8>)
 8002d1e:	6183      	str	r3, [r0, #24]
 8002d20:	689a      	ldr	r2, [r3, #8]
 8002d22:	f022 6240 	bic.w	r2, r2, #201326592	; 0xc000000
 8002d26:	609a      	str	r2, [r3, #8]
 8002d28:	689a      	ldr	r2, [r3, #8]
 8002d2a:	f042 6240 	orr.w	r2, r2, #201326592	; 0xc000000
 8002d2e:	609a      	str	r2, [r3, #8]
 8002d30:	889a      	ldrh	r2, [r3, #4]
 8002d32:	f422 5200 	bic.w	r2, r2, #8192	; 0x2000
 8002d36:	0412      	lsls	r2, r2, #16
 8002d38:	0c12      	lsrs	r2, r2, #16
 8002d3a:	809a      	strh	r2, [r3, #4]
 8002d3c:	889a      	ldrh	r2, [r3, #4]
 8002d3e:	b292      	uxth	r2, r2
 8002d40:	809a      	strh	r2, [r3, #4]
 8002d42:	681a      	ldr	r2, [r3, #0]
 8002d44:	f022 6240 	bic.w	r2, r2, #201326592	; 0xc000000
 8002d48:	601a      	str	r2, [r3, #0]
 8002d4a:	681a      	ldr	r2, [r3, #0]
 8002d4c:	f042 6280 	orr.w	r2, r2, #67108864	; 0x4000000
 8002d50:	601a      	str	r2, [r3, #0]
 8002d52:	694a      	ldr	r2, [r1, #20]
 8002d54:	f442 02fc 	orr.w	r2, r2, #8257536	; 0x7e0000
 8002d58:	614a      	str	r2, [r1, #20]
 8002d5a:	4a1f      	ldr	r2, [pc, #124]	; (8002dd8 <_ZN14DistanceSensorC1Ev+0xcc>)
 8002d5c:	61c2      	str	r2, [r0, #28]
 8002d5e:	4604      	mov	r4, r0
 8002d60:	6810      	ldr	r0, [r2, #0]
 8002d62:	f020 0003 	bic.w	r0, r0, #3
 8002d66:	6010      	str	r0, [r2, #0]
 8002d68:	6810      	ldr	r0, [r2, #0]
 8002d6a:	f040 0003 	orr.w	r0, r0, #3
 8002d6e:	6010      	str	r0, [r2, #0]
 8002d70:	6948      	ldr	r0, [r1, #20]
 8002d72:	f440 00fc 	orr.w	r0, r0, #8257536	; 0x7e0000
 8002d76:	6148      	str	r0, [r1, #20]
 8002d78:	6810      	ldr	r0, [r2, #0]
 8002d7a:	6222      	str	r2, [r4, #32]
 8002d7c:	f020 000c 	bic.w	r0, r0, #12
 8002d80:	6010      	str	r0, [r2, #0]
 8002d82:	6810      	ldr	r0, [r2, #0]
 8002d84:	f040 000c 	orr.w	r0, r0, #12
 8002d88:	6010      	str	r0, [r2, #0]
 8002d8a:	694a      	ldr	r2, [r1, #20]
 8002d8c:	f442 02fc 	orr.w	r2, r2, #8257536	; 0x7e0000
 8002d90:	614a      	str	r2, [r1, #20]
 8002d92:	681a      	ldr	r2, [r3, #0]
 8002d94:	6263      	str	r3, [r4, #36]	; 0x24
 8002d96:	f022 0203 	bic.w	r2, r2, #3
 8002d9a:	601a      	str	r2, [r3, #0]
 8002d9c:	681a      	ldr	r2, [r3, #0]
 8002d9e:	f042 0203 	orr.w	r2, r2, #3
 8002da2:	601a      	str	r2, [r3, #0]
 8002da4:	f104 0044 	add.w	r0, r4, #68	; 0x44
 8002da8:	f7fe fb70 	bl	800148c <_ZN6FilterC1Ev>
 8002dac:	f104 0074 	add.w	r0, r4, #116	; 0x74
 8002db0:	f7fe fb6c 	bl	800148c <_ZN6FilterC1Ev>
 8002db4:	f104 00a4 	add.w	r0, r4, #164	; 0xa4
 8002db8:	f7fe fb68 	bl	800148c <_ZN6FilterC1Ev>
 8002dbc:	69a2      	ldr	r2, [r4, #24]
 8002dbe:	8d13      	ldrh	r3, [r2, #40]	; 0x28
 8002dc0:	b29b      	uxth	r3, r3
 8002dc2:	f443 5300 	orr.w	r3, r3, #8192	; 0x2000
 8002dc6:	8513      	strh	r3, [r2, #40]	; 0x28
 8002dc8:	4620      	mov	r0, r4
 8002dca:	bd10      	pop	{r4, pc}
 8002dcc:	40021000 	andmi	r1, r2, r0
 8002dd0:	0800463c 	stmdaeq	r0, {r2, r3, r4, r5, r9, sl, lr}
 8002dd4:	48000800 	stmdami	r0, {fp}
 8002dd8:	48000400 	stmdami	r0, {sl}

08002ddc <_ZN14DistanceSensor4initEv>:
 8002ddc:	e92d 43f7 	stmdb	sp!, {r0, r1, r2, r4, r5, r6, r7, r8, r9, lr}
 8002de0:	6982      	ldr	r2, [r0, #24]
 8002de2:	4f21      	ldr	r7, [pc, #132]	; (8002e68 <_ZN14DistanceSensor4initEv+0x8c>)
 8002de4:	8d13      	ldrh	r3, [r2, #40]	; 0x28
 8002de6:	f8df 9088 	ldr.w	r9, [pc, #136]	; 8002e70 <_ZN14DistanceSensor4initEv+0x94>
 8002dea:	b29b      	uxth	r3, r3
 8002dec:	2500      	movs	r5, #0
 8002dee:	f443 5300 	orr.w	r3, r3, #8192	; 0x2000
 8002df2:	6285      	str	r5, [r0, #40]	; 0x28
 8002df4:	2600      	movs	r6, #0
 8002df6:	8513      	strh	r3, [r2, #40]	; 0x28
 8002df8:	f04f 587b 	mov.w	r8, #1052770304	; 0x3ec00000
 8002dfc:	f04f 537e 	mov.w	r3, #1065353216	; 0x3f800000
 8002e00:	4604      	mov	r4, r0
 8002e02:	62c5      	str	r5, [r0, #44]	; 0x2c
 8002e04:	6305      	str	r5, [r0, #48]	; 0x30
 8002e06:	6345      	str	r5, [r0, #52]	; 0x34
 8002e08:	6385      	str	r5, [r0, #56]	; 0x38
 8002e0a:	63c5      	str	r5, [r0, #60]	; 0x3c
 8002e0c:	6405      	str	r5, [r0, #64]	; 0x40
 8002e0e:	6043      	str	r3, [r0, #4]
 8002e10:	6083      	str	r3, [r0, #8]
 8002e12:	60c3      	str	r3, [r0, #12]
 8002e14:	7405      	strb	r5, [r0, #16]
 8002e16:	7445      	strb	r5, [r0, #17]
 8002e18:	4643      	mov	r3, r8
 8002e1a:	463a      	mov	r2, r7
 8002e1c:	4631      	mov	r1, r6
 8002e1e:	f8cd 9004 	str.w	r9, [sp, #4]
 8002e22:	9600      	str	r6, [sp, #0]
 8002e24:	3044      	adds	r0, #68	; 0x44
 8002e26:	f7fe fb20 	bl	800146a <_ZN6Filter9set_coefsEfffff>
 8002e2a:	4643      	mov	r3, r8
 8002e2c:	463a      	mov	r2, r7
 8002e2e:	4631      	mov	r1, r6
 8002e30:	f104 0074 	add.w	r0, r4, #116	; 0x74
 8002e34:	f8cd 9004 	str.w	r9, [sp, #4]
 8002e38:	9600      	str	r6, [sp, #0]
 8002e3a:	f7fe fb16 	bl	800146a <_ZN6Filter9set_coefsEfffff>
 8002e3e:	4643      	mov	r3, r8
 8002e40:	463a      	mov	r2, r7
 8002e42:	4631      	mov	r1, r6
 8002e44:	f104 00a4 	add.w	r0, r4, #164	; 0xa4
 8002e48:	f8cd 9004 	str.w	r9, [sp, #4]
 8002e4c:	9600      	str	r6, [sp, #0]
 8002e4e:	f7fe fb0c 	bl	800146a <_ZN6Filter9set_coefsEfffff>
 8002e52:	462b      	mov	r3, r5
 8002e54:	2205      	movs	r2, #5
 8002e56:	4621      	mov	r1, r4
 8002e58:	4804      	ldr	r0, [pc, #16]	; (8002e6c <_ZN14DistanceSensor4initEv+0x90>)
 8002e5a:	f000 f869 	bl	8002f30 <_ZN5Timer8add_taskEP6Threadjb>
 8002e5e:	4628      	mov	r0, r5
 8002e60:	7525      	strb	r5, [r4, #20]
 8002e62:	b003      	add	sp, #12
 8002e64:	e8bd 83f0 	ldmia.w	sp!, {r4, r5, r6, r7, r8, r9, pc}
 8002e68:	be800000 	cdplt	0, 8, cr0, cr0, cr0, {0}
 8002e6c:	20000434 	andcs	r0, r0, r4, lsr r4
 8002e70:	bec00000 	cdplt	0, 12, cr0, cr0, cr0, {0}

08002e74 <_ZN14DistanceSensor5readyEv>:
 8002e74:	7d03      	ldrb	r3, [r0, #20]
 8002e76:	b672      	cpsid	i
 8002e78:	b10b      	cbz	r3, 8002e7e <_ZN14DistanceSensor5readyEv+0xa>
 8002e7a:	2200      	movs	r2, #0
 8002e7c:	7502      	strb	r2, [r0, #20]
 8002e7e:	b662      	cpsie	i
 8002e80:	4618      	mov	r0, r3
 8002e82:	4770      	bx	lr

08002e84 <_ZN14DistanceSensorD1Ev>:
 8002e84:	b510      	push	{r4, lr}
 8002e86:	4b08      	ldr	r3, [pc, #32]	; (8002ea8 <_ZN14DistanceSensorD1Ev+0x24>)
 8002e88:	4604      	mov	r4, r0
 8002e8a:	f840 3ba4 	str.w	r3, [r0], #164
 8002e8e:	f7fe fae4 	bl	800145a <_ZN6FilterD1Ev>
 8002e92:	f104 0074 	add.w	r0, r4, #116	; 0x74
 8002e96:	f7fe fae0 	bl	800145a <_ZN6FilterD1Ev>
 8002e9a:	f104 0044 	add.w	r0, r4, #68	; 0x44
 8002e9e:	f7fe fadc 	bl	800145a <_ZN6FilterD1Ev>
 8002ea2:	4620      	mov	r0, r4
 8002ea4:	bd10      	pop	{r4, pc}
 8002ea6:	bf00      	nop
 8002ea8:	0800463c 	stmdaeq	r0, {r2, r3, r4, r5, r9, sl, lr}

08002eac <_ZN14DistanceSensorD0Ev>:
 8002eac:	b510      	push	{r4, lr}
 8002eae:	4604      	mov	r4, r0
 8002eb0:	f7ff ffe8 	bl	8002e84 <_ZN14DistanceSensorD1Ev>
 8002eb4:	4620      	mov	r0, r4
 8002eb6:	21d4      	movs	r1, #212	; 0xd4
 8002eb8:	f7fe fac2 	bl	8001440 <_ZdlPvj>
 8002ebc:	4620      	mov	r0, r4
 8002ebe:	bd10      	pop	{r4, pc}

08002ec0 <_ZN5TimerC1Ev>:
 8002ec0:	4770      	bx	lr
 8002ec2:	0000      	movs	r0, r0

08002ec4 <_ZN5Timer4initEv>:
 8002ec4:	b5f7      	push	{r0, r1, r2, r4, r5, r6, r7, lr}
 8002ec6:	2200      	movs	r2, #0
 8002ec8:	4d15      	ldr	r5, [pc, #84]	; (8002f20 <_ZN5Timer4initEv+0x5c>)
 8002eca:	2714      	movs	r7, #20
 8002ecc:	4613      	mov	r3, r2
 8002ece:	f44f 767a 	mov.w	r6, #1000	; 0x3e8
 8002ed2:	fb07 f402 	mul.w	r4, r7, r2
 8002ed6:	1929      	adds	r1, r5, r4
 8002ed8:	3201      	adds	r2, #1
 8002eda:	2a10      	cmp	r2, #16
 8002edc:	512b      	str	r3, [r5, r4]
 8002ede:	604b      	str	r3, [r1, #4]
 8002ee0:	608e      	str	r6, [r1, #8]
 8002ee2:	60cb      	str	r3, [r1, #12]
 8002ee4:	740b      	strb	r3, [r1, #16]
 8002ee6:	744b      	strb	r3, [r1, #17]
 8002ee8:	d1f3      	bne.n	8002ed2 <_ZN5Timer4initEv+0xe>
 8002eea:	4a0e      	ldr	r2, [pc, #56]	; (8002f24 <_ZN5Timer4initEv+0x60>)
 8002eec:	6013      	str	r3, [r2, #0]
 8002eee:	4a0e      	ldr	r2, [pc, #56]	; (8002f28 <_ZN5Timer4initEv+0x64>)
 8002ef0:	6003      	str	r3, [r0, #0]
 8002ef2:	69d3      	ldr	r3, [r2, #28]
 8002ef4:	f043 0301 	orr.w	r3, r3, #1
 8002ef8:	61d3      	str	r3, [r2, #28]
 8002efa:	2200      	movs	r2, #0
 8002efc:	2364      	movs	r3, #100	; 0x64
 8002efe:	9300      	str	r3, [sp, #0]
 8002f00:	4611      	mov	r1, r2
 8002f02:	f240 23cf 	movw	r3, #719	; 0x2cf
 8002f06:	f04f 4080 	mov.w	r0, #1073741824	; 0x40000000
 8002f0a:	f7fd fa1f 	bl	800034c <_Z10timer_initP11TIM_TypeDefmmmm>
 8002f0e:	2201      	movs	r2, #1
 8002f10:	2100      	movs	r1, #0
 8002f12:	201c      	movs	r0, #28
 8002f14:	f7fd f9f8 	bl	8000308 <_Z9nvic_initmmm>
 8002f18:	b662      	cpsie	i
 8002f1a:	b003      	add	sp, #12
 8002f1c:	bdf0      	pop	{r4, r5, r6, r7, pc}
 8002f1e:	bf00      	nop
 8002f20:	20000014 	andcs	r0, r0, r4, lsl r0
 8002f24:	20000010 	andcs	r0, r0, r0, lsl r0
 8002f28:	40021000 	andmi	r1, r2, r0

08002f2c <_ZN5TimerD1Ev>:
 8002f2c:	4770      	bx	lr
 8002f2e:	0000      	movs	r0, r0

08002f30 <_ZN5Timer8add_taskEP6Threadjb>:
 8002f30:	b5f0      	push	{r4, r5, r6, r7, lr}
 8002f32:	b672      	cpsid	i
 8002f34:	4d11      	ldr	r5, [pc, #68]	; (8002f7c <_ZN5Timer8add_taskEP6Threadjb+0x4c>)
 8002f36:	2400      	movs	r4, #0
 8002f38:	f04f 30ff 	mov.w	r0, #4294967295	; 0xffffffff
 8002f3c:	f04f 0e14 	mov.w	lr, #20
 8002f40:	462f      	mov	r7, r5
 8002f42:	fb0e f604 	mul.w	r6, lr, r4
 8002f46:	eb05 0c06 	add.w	ip, r5, r6
 8002f4a:	59ae      	ldr	r6, [r5, r6]
 8002f4c:	b926      	cbnz	r6, 8002f58 <_ZN5Timer8add_taskEP6Threadjb+0x28>
 8002f4e:	f8dc 6004 	ldr.w	r6, [ip, #4]
 8002f52:	2e00      	cmp	r6, #0
 8002f54:	bf08      	it	eq
 8002f56:	4620      	moveq	r0, r4
 8002f58:	3401      	adds	r4, #1
 8002f5a:	2c10      	cmp	r4, #16
 8002f5c:	d1f1      	bne.n	8002f42 <_ZN5Timer8add_taskEP6Threadjb+0x12>
 8002f5e:	1c44      	adds	r4, r0, #1
 8002f60:	d00a      	beq.n	8002f78 <_ZN5Timer8add_taskEP6Threadjb+0x48>
 8002f62:	b2c4      	uxtb	r4, r0
 8002f64:	2514      	movs	r5, #20
 8002f66:	4365      	muls	r5, r4
 8002f68:	197c      	adds	r4, r7, r5
 8002f6a:	2600      	movs	r6, #0
 8002f6c:	517e      	str	r6, [r7, r5]
 8002f6e:	6061      	str	r1, [r4, #4]
 8002f70:	60a2      	str	r2, [r4, #8]
 8002f72:	60e2      	str	r2, [r4, #12]
 8002f74:	7426      	strb	r6, [r4, #16]
 8002f76:	7463      	strb	r3, [r4, #17]
 8002f78:	b662      	cpsie	i
 8002f7a:	bdf0      	pop	{r4, r5, r6, r7, pc}
 8002f7c:	20000014 	andcs	r0, r0, r4, lsl r0

08002f80 <_ZN5Timer10set_periodEhj>:
 8002f80:	4804      	ldr	r0, [pc, #16]	; (8002f94 <_ZN5Timer10set_periodEhj+0x14>)
 8002f82:	2314      	movs	r3, #20
 8002f84:	fb03 0101 	mla	r1, r3, r1, r0
 8002f88:	2300      	movs	r3, #0
 8002f8a:	60ca      	str	r2, [r1, #12]
 8002f8c:	608a      	str	r2, [r1, #8]
 8002f8e:	740b      	strb	r3, [r1, #16]
 8002f90:	4770      	bx	lr
 8002f92:	bf00      	nop
 8002f94:	20000014 	andcs	r0, r0, r4, lsl r0

08002f98 <_ZN5Timer8get_timeEv>:
 8002f98:	b082      	sub	sp, #8
 8002f9a:	b672      	cpsid	i
 8002f9c:	4b03      	ldr	r3, [pc, #12]	; (8002fac <_ZN5Timer8get_timeEv+0x14>)
 8002f9e:	681b      	ldr	r3, [r3, #0]
 8002fa0:	9301      	str	r3, [sp, #4]
 8002fa2:	b662      	cpsie	i
 8002fa4:	9801      	ldr	r0, [sp, #4]
 8002fa6:	b002      	add	sp, #8
 8002fa8:	4770      	bx	lr
 8002faa:	bf00      	nop
 8002fac:	20000010 	andcs	r0, r0, r0, lsl r0

08002fb0 <_ZN5Timer8delay_msEj>:
 8002fb0:	b507      	push	{r0, r1, r2, lr}
 8002fb2:	4602      	mov	r2, r0
 8002fb4:	f7ff fff0 	bl	8002f98 <_ZN5Timer8get_timeEv>
 8002fb8:	4401      	add	r1, r0
 8002fba:	9101      	str	r1, [sp, #4]
 8002fbc:	4610      	mov	r0, r2
 8002fbe:	f7ff ffeb 	bl	8002f98 <_ZN5Timer8get_timeEv>
 8002fc2:	9b01      	ldr	r3, [sp, #4]
 8002fc4:	4298      	cmp	r0, r3
 8002fc6:	d201      	bcs.n	8002fcc <_ZN5Timer8delay_msEj+0x1c>
 8002fc8:	bf00      	nop
 8002fca:	e7f7      	b.n	8002fbc <_ZN5Timer8delay_msEj+0xc>
 8002fcc:	b003      	add	sp, #12
 8002fce:	f85d fb04 	ldr.w	pc, [sp], #4
 8002fd2:	0000      	movs	r0, r0

08002fd4 <TIM2_IRQHandler>:
 8002fd4:	b5f8      	push	{r3, r4, r5, r6, r7, lr}
 8002fd6:	f04f 4380 	mov.w	r3, #1073741824	; 0x40000000
 8002fda:	691a      	ldr	r2, [r3, #16]
 8002fdc:	07d2      	lsls	r2, r2, #31
 8002fde:	d514      	bpl.n	800300a <TIM2_IRQHandler+0x36>
 8002fe0:	4f19      	ldr	r7, [pc, #100]	; (8003048 <TIM2_IRQHandler+0x74>)
 8002fe2:	f64f 72fe 	movw	r2, #65534	; 0xfffe
 8002fe6:	611a      	str	r2, [r3, #16]
 8002fe8:	2400      	movs	r4, #0
 8002fea:	2614      	movs	r6, #20
 8002fec:	463d      	mov	r5, r7
 8002fee:	fb06 7304 	mla	r3, r6, r4, r7
 8002ff2:	68da      	ldr	r2, [r3, #12]
 8002ff4:	b152      	cbz	r2, 800300c <TIM2_IRQHandler+0x38>
 8002ff6:	68da      	ldr	r2, [r3, #12]
 8002ff8:	3a01      	subs	r2, #1
 8002ffa:	60da      	str	r2, [r3, #12]
 8002ffc:	3401      	adds	r4, #1
 8002ffe:	2c10      	cmp	r4, #16
 8003000:	d1f5      	bne.n	8002fee <TIM2_IRQHandler+0x1a>
 8003002:	4a12      	ldr	r2, [pc, #72]	; (800304c <TIM2_IRQHandler+0x78>)
 8003004:	6813      	ldr	r3, [r2, #0]
 8003006:	3301      	adds	r3, #1
 8003008:	6013      	str	r3, [r2, #0]
 800300a:	bdf8      	pop	{r3, r4, r5, r6, r7, pc}
 800300c:	689a      	ldr	r2, [r3, #8]
 800300e:	60da      	str	r2, [r3, #12]
 8003010:	7c1a      	ldrb	r2, [r3, #16]
 8003012:	2aff      	cmp	r2, #255	; 0xff
 8003014:	bf1f      	itttt	ne
 8003016:	7c1a      	ldrbne	r2, [r3, #16]
 8003018:	3201      	addne	r2, #1
 800301a:	b2d2      	uxtbne	r2, r2
 800301c:	741a      	strbne	r2, [r3, #16]
 800301e:	fb06 f304 	mul.w	r3, r6, r4
 8003022:	18ea      	adds	r2, r5, r3
 8003024:	7c52      	ldrb	r2, [r2, #17]
 8003026:	2a00      	cmp	r2, #0
 8003028:	d1e8      	bne.n	8002ffc <TIM2_IRQHandler+0x28>
 800302a:	58ea      	ldr	r2, [r5, r3]
 800302c:	b10a      	cbz	r2, 8003032 <TIM2_IRQHandler+0x5e>
 800302e:	58eb      	ldr	r3, [r5, r3]
 8003030:	4798      	blx	r3
 8003032:	fb06 5304 	mla	r3, r6, r4, r5
 8003036:	685a      	ldr	r2, [r3, #4]
 8003038:	2a00      	cmp	r2, #0
 800303a:	d0df      	beq.n	8002ffc <TIM2_IRQHandler+0x28>
 800303c:	6858      	ldr	r0, [r3, #4]
 800303e:	6803      	ldr	r3, [r0, #0]
 8003040:	689b      	ldr	r3, [r3, #8]
 8003042:	4798      	blx	r3
 8003044:	e7da      	b.n	8002ffc <TIM2_IRQHandler+0x28>
 8003046:	bf00      	nop
 8003048:	20000014 	andcs	r0, r0, r4, lsl r0
 800304c:	20000010 	andcs	r0, r0, r0, lsl r0

08003050 <_ZN7DriversD1Ev>:
 8003050:	4770      	bx	lr

08003052 <_ZN7DriversD0Ev>:
 8003052:	b510      	push	{r4, lr}
 8003054:	2108      	movs	r1, #8
 8003056:	4604      	mov	r4, r0
 8003058:	f7fe f9f2 	bl	8001440 <_ZdlPvj>
 800305c:	4620      	mov	r0, r4
 800305e:	bd10      	pop	{r4, pc}

08003060 <_ZN4TI2CILh1ELh7ELh6ELh10ELh1EED1Ev>:
 8003060:	b510      	push	{r4, lr}
 8003062:	4b03      	ldr	r3, [pc, #12]	; (8003070 <_ZN4TI2CILh1ELh7ELh6ELh10ELh1EED1Ev+0x10>)
 8003064:	6003      	str	r3, [r0, #0]
 8003066:	4604      	mov	r4, r0
 8003068:	f7fd fc84 	bl	8000974 <_ZN13I2C_InterfaceD1Ev>
 800306c:	4620      	mov	r0, r4
 800306e:	bd10      	pop	{r4, pc}
 8003070:	08004650 	stmdaeq	r0, {r4, r6, r9, sl, lr}

08003074 <_ZN4TI2CILh1ELh7ELh6ELh10ELh1EED0Ev>:
 8003074:	b510      	push	{r4, lr}
 8003076:	4604      	mov	r4, r0
 8003078:	f7ff fff2 	bl	8003060 <_ZN4TI2CILh1ELh7ELh6ELh10ELh1EED1Ev>
 800307c:	4620      	mov	r0, r4
 800307e:	2110      	movs	r1, #16
 8003080:	f7fe f9de 	bl	8001440 <_ZdlPvj>
 8003084:	4620      	mov	r0, r4
 8003086:	bd10      	pop	{r4, pc}

08003088 <_ZN8TerminallsEb>:
 8003088:	b510      	push	{r4, lr}
 800308a:	4604      	mov	r4, r0
 800308c:	b121      	cbz	r1, 8003098 <_ZN8TerminallsEb+0x10>
 800308e:	4903      	ldr	r1, [pc, #12]	; (800309c <_ZN8TerminallsEb+0x14>)
 8003090:	f7fe fbfb 	bl	800188a <_ZN8Terminal4putsEPKc>
 8003094:	4620      	mov	r0, r4
 8003096:	bd10      	pop	{r4, pc}
 8003098:	4901      	ldr	r1, [pc, #4]	; (80030a0 <_ZN8TerminallsEb+0x18>)
 800309a:	e7f9      	b.n	8003090 <_ZN8TerminallsEb+0x8>
 800309c:	080047ae 	stmdaeq	r0, {r1, r2, r3, r5, r7, r8, r9, sl, lr}
 80030a0:	080047b3 	stmdaeq	r0, {r0, r1, r4, r5, r7, r8, r9, sl, lr}

080030a4 <_ZN7DriversC1Ev>:
 80030a4:	4910      	ldr	r1, [pc, #64]	; (80030e8 <_ZN7DriversC1Ev+0x44>)
 80030a6:	4b11      	ldr	r3, [pc, #68]	; (80030ec <_ZN7DriversC1Ev+0x48>)
 80030a8:	6003      	str	r3, [r0, #0]
 80030aa:	694b      	ldr	r3, [r1, #20]
 80030ac:	f443 03fc 	orr.w	r3, r3, #8257536	; 0x7e0000
 80030b0:	614b      	str	r3, [r1, #20]
 80030b2:	4b0f      	ldr	r3, [pc, #60]	; (80030f0 <_ZN7DriversC1Ev+0x4c>)
 80030b4:	6043      	str	r3, [r0, #4]
 80030b6:	689a      	ldr	r2, [r3, #8]
 80030b8:	f022 4240 	bic.w	r2, r2, #3221225472	; 0xc0000000
 80030bc:	609a      	str	r2, [r3, #8]
 80030be:	689a      	ldr	r2, [r3, #8]
 80030c0:	f042 4240 	orr.w	r2, r2, #3221225472	; 0xc0000000
 80030c4:	609a      	str	r2, [r3, #8]
 80030c6:	889a      	ldrh	r2, [r3, #4]
 80030c8:	f3c2 020e 	ubfx	r2, r2, #0, #15
 80030cc:	809a      	strh	r2, [r3, #4]
 80030ce:	889a      	ldrh	r2, [r3, #4]
 80030d0:	b292      	uxth	r2, r2
 80030d2:	809a      	strh	r2, [r3, #4]
 80030d4:	681a      	ldr	r2, [r3, #0]
 80030d6:	f022 4240 	bic.w	r2, r2, #3221225472	; 0xc0000000
 80030da:	601a      	str	r2, [r3, #0]
 80030dc:	681a      	ldr	r2, [r3, #0]
 80030de:	f042 4280 	orr.w	r2, r2, #1073741824	; 0x40000000
 80030e2:	601a      	str	r2, [r3, #0]
 80030e4:	4770      	bx	lr
 80030e6:	bf00      	nop
 80030e8:	40021000 	andmi	r1, r2, r0
 80030ec:	080047c4 	stmdaeq	r0, {r2, r6, r7, r8, r9, sl, lr}
 80030f0:	48000400 	stmdami	r0, {sl}

080030f4 <_ZN4GpioILh1ELh15ELh0EE5writeEi>:
 80030f4:	6802      	ldr	r2, [r0, #0]
 80030f6:	b121      	cbz	r1, 8003102 <_ZN4GpioILh1ELh15ELh0EE5writeEi+0xe>
 80030f8:	6993      	ldr	r3, [r2, #24]
 80030fa:	f443 4300 	orr.w	r3, r3, #32768	; 0x8000
 80030fe:	6193      	str	r3, [r2, #24]
 8003100:	4770      	bx	lr
 8003102:	8d13      	ldrh	r3, [r2, #40]	; 0x28
 8003104:	ea6f 4343 	mvn.w	r3, r3, lsl #17
 8003108:	ea6f 4353 	mvn.w	r3, r3, lsr #17
 800310c:	b29b      	uxth	r3, r3
 800310e:	8513      	strh	r3, [r2, #40]	; 0x28
 8003110:	4770      	bx	lr

08003112 <_ZN4GpioILh1ELh7ELh1EE8set_modeEh>:
 8003112:	b9d1      	cbnz	r1, 800314a <_ZN4GpioILh1ELh7ELh1EE8set_modeEh+0x38>
 8003114:	6803      	ldr	r3, [r0, #0]
 8003116:	689a      	ldr	r2, [r3, #8]
 8003118:	f422 4240 	bic.w	r2, r2, #49152	; 0xc000
 800311c:	609a      	str	r2, [r3, #8]
 800311e:	689a      	ldr	r2, [r3, #8]
 8003120:	f442 4240 	orr.w	r2, r2, #49152	; 0xc000
 8003124:	609a      	str	r2, [r3, #8]
 8003126:	889a      	ldrh	r2, [r3, #4]
 8003128:	f022 0280 	bic.w	r2, r2, #128	; 0x80
 800312c:	0412      	lsls	r2, r2, #16
 800312e:	0c12      	lsrs	r2, r2, #16
 8003130:	809a      	strh	r2, [r3, #4]
 8003132:	889a      	ldrh	r2, [r3, #4]
 8003134:	b292      	uxth	r2, r2
 8003136:	809a      	strh	r2, [r3, #4]
 8003138:	681a      	ldr	r2, [r3, #0]
 800313a:	f422 4240 	bic.w	r2, r2, #49152	; 0xc000
 800313e:	601a      	str	r2, [r3, #0]
 8003140:	681a      	ldr	r2, [r3, #0]
 8003142:	f442 4280 	orr.w	r2, r2, #16384	; 0x4000
 8003146:	601a      	str	r2, [r3, #0]
 8003148:	4770      	bx	lr
 800314a:	2901      	cmp	r1, #1
 800314c:	d10e      	bne.n	800316c <_ZN4GpioILh1ELh7ELh1EE8set_modeEh+0x5a>
 800314e:	6803      	ldr	r3, [r0, #0]
 8003150:	689a      	ldr	r2, [r3, #8]
 8003152:	f422 4240 	bic.w	r2, r2, #49152	; 0xc000
 8003156:	609a      	str	r2, [r3, #8]
 8003158:	689a      	ldr	r2, [r3, #8]
 800315a:	f442 4240 	orr.w	r2, r2, #49152	; 0xc000
 800315e:	609a      	str	r2, [r3, #8]
 8003160:	681a      	ldr	r2, [r3, #0]
 8003162:	f422 4240 	bic.w	r2, r2, #49152	; 0xc000
 8003166:	601a      	str	r2, [r3, #0]
 8003168:	681a      	ldr	r2, [r3, #0]
 800316a:	e7ec      	b.n	8003146 <_ZN4GpioILh1ELh7ELh1EE8set_modeEh+0x34>
 800316c:	2902      	cmp	r1, #2
 800316e:	d113      	bne.n	8003198 <_ZN4GpioILh1ELh7ELh1EE8set_modeEh+0x86>
 8003170:	6803      	ldr	r3, [r0, #0]
 8003172:	689a      	ldr	r2, [r3, #8]
 8003174:	f422 4240 	bic.w	r2, r2, #49152	; 0xc000
 8003178:	609a      	str	r2, [r3, #8]
 800317a:	689a      	ldr	r2, [r3, #8]
 800317c:	f442 4240 	orr.w	r2, r2, #49152	; 0xc000
 8003180:	609a      	str	r2, [r3, #8]
 8003182:	681a      	ldr	r2, [r3, #0]
 8003184:	f422 4240 	bic.w	r2, r2, #49152	; 0xc000
 8003188:	601a      	str	r2, [r3, #0]
 800318a:	681a      	ldr	r2, [r3, #0]
 800318c:	601a      	str	r2, [r3, #0]
 800318e:	68da      	ldr	r2, [r3, #12]
 8003190:	f442 4280 	orr.w	r2, r2, #16384	; 0x4000
 8003194:	60da      	str	r2, [r3, #12]
 8003196:	4770      	bx	lr
 8003198:	2905      	cmp	r1, #5
 800319a:	d110      	bne.n	80031be <_ZN4GpioILh1ELh7ELh1EE8set_modeEh+0xac>
 800319c:	6803      	ldr	r3, [r0, #0]
 800319e:	689a      	ldr	r2, [r3, #8]
 80031a0:	f422 4240 	bic.w	r2, r2, #49152	; 0xc000
 80031a4:	609a      	str	r2, [r3, #8]
 80031a6:	689a      	ldr	r2, [r3, #8]
 80031a8:	f442 4240 	orr.w	r2, r2, #49152	; 0xc000
 80031ac:	609a      	str	r2, [r3, #8]
 80031ae:	681a      	ldr	r2, [r3, #0]
 80031b0:	f422 4240 	bic.w	r2, r2, #49152	; 0xc000
 80031b4:	601a      	str	r2, [r3, #0]
 80031b6:	681a      	ldr	r2, [r3, #0]
 80031b8:	f442 4200 	orr.w	r2, r2, #32768	; 0x8000
 80031bc:	e7c3      	b.n	8003146 <_ZN4GpioILh1ELh7ELh1EE8set_modeEh+0x34>
 80031be:	2904      	cmp	r1, #4
 80031c0:	d1c2      	bne.n	8003148 <_ZN4GpioILh1ELh7ELh1EE8set_modeEh+0x36>
 80031c2:	6803      	ldr	r3, [r0, #0]
 80031c4:	681a      	ldr	r2, [r3, #0]
 80031c6:	f422 4240 	bic.w	r2, r2, #49152	; 0xc000
 80031ca:	601a      	str	r2, [r3, #0]
 80031cc:	681a      	ldr	r2, [r3, #0]
 80031ce:	f442 4240 	orr.w	r2, r2, #49152	; 0xc000
 80031d2:	e7b8      	b.n	8003146 <_ZN4GpioILh1ELh7ELh1EE8set_modeEh+0x34>

080031d4 <_ZN4GpioILh1ELh7ELh1EE4initEv>:
 80031d4:	4a05      	ldr	r2, [pc, #20]	; (80031ec <_ZN4GpioILh1ELh7ELh1EE4initEv+0x18>)
 80031d6:	b508      	push	{r3, lr}
 80031d8:	6953      	ldr	r3, [r2, #20]
 80031da:	f443 03fc 	orr.w	r3, r3, #8257536	; 0x7e0000
 80031de:	6153      	str	r3, [r2, #20]
 80031e0:	4b03      	ldr	r3, [pc, #12]	; (80031f0 <_ZN4GpioILh1ELh7ELh1EE4initEv+0x1c>)
 80031e2:	6003      	str	r3, [r0, #0]
 80031e4:	2101      	movs	r1, #1
 80031e6:	f7ff ff94 	bl	8003112 <_ZN4GpioILh1ELh7ELh1EE8set_modeEh>
 80031ea:	bd08      	pop	{r3, pc}
 80031ec:	40021000 	andmi	r1, r2, r0
 80031f0:	48000400 	stmdami	r0, {sl}

080031f4 <_ZN4GpioILh1ELh6ELh1EE8set_modeEh>:
 80031f4:	b9d1      	cbnz	r1, 800322c <_ZN4GpioILh1ELh6ELh1EE8set_modeEh+0x38>
 80031f6:	6803      	ldr	r3, [r0, #0]
 80031f8:	689a      	ldr	r2, [r3, #8]
 80031fa:	f422 5240 	bic.w	r2, r2, #12288	; 0x3000
 80031fe:	609a      	str	r2, [r3, #8]
 8003200:	689a      	ldr	r2, [r3, #8]
 8003202:	f442 5240 	orr.w	r2, r2, #12288	; 0x3000
 8003206:	609a      	str	r2, [r3, #8]
 8003208:	889a      	ldrh	r2, [r3, #4]
 800320a:	f022 0240 	bic.w	r2, r2, #64	; 0x40
 800320e:	0412      	lsls	r2, r2, #16
 8003210:	0c12      	lsrs	r2, r2, #16
 8003212:	809a      	strh	r2, [r3, #4]
 8003214:	889a      	ldrh	r2, [r3, #4]
 8003216:	b292      	uxth	r2, r2
 8003218:	809a      	strh	r2, [r3, #4]
 800321a:	681a      	ldr	r2, [r3, #0]
 800321c:	f422 5240 	bic.w	r2, r2, #12288	; 0x3000
 8003220:	601a      	str	r2, [r3, #0]
 8003222:	681a      	ldr	r2, [r3, #0]
 8003224:	f442 5280 	orr.w	r2, r2, #4096	; 0x1000
 8003228:	601a      	str	r2, [r3, #0]
 800322a:	4770      	bx	lr
 800322c:	2901      	cmp	r1, #1
 800322e:	d10e      	bne.n	800324e <_ZN4GpioILh1ELh6ELh1EE8set_modeEh+0x5a>
 8003230:	6803      	ldr	r3, [r0, #0]
 8003232:	689a      	ldr	r2, [r3, #8]
 8003234:	f422 5240 	bic.w	r2, r2, #12288	; 0x3000
 8003238:	609a      	str	r2, [r3, #8]
 800323a:	689a      	ldr	r2, [r3, #8]
 800323c:	f442 5240 	orr.w	r2, r2, #12288	; 0x3000
 8003240:	609a      	str	r2, [r3, #8]
 8003242:	681a      	ldr	r2, [r3, #0]
 8003244:	f422 5240 	bic.w	r2, r2, #12288	; 0x3000
 8003248:	601a      	str	r2, [r3, #0]
 800324a:	681a      	ldr	r2, [r3, #0]
 800324c:	e7ec      	b.n	8003228 <_ZN4GpioILh1ELh6ELh1EE8set_modeEh+0x34>
 800324e:	2902      	cmp	r1, #2
 8003250:	d113      	bne.n	800327a <_ZN4GpioILh1ELh6ELh1EE8set_modeEh+0x86>
 8003252:	6803      	ldr	r3, [r0, #0]
 8003254:	689a      	ldr	r2, [r3, #8]
 8003256:	f422 5240 	bic.w	r2, r2, #12288	; 0x3000
 800325a:	609a      	str	r2, [r3, #8]
 800325c:	689a      	ldr	r2, [r3, #8]
 800325e:	f442 5240 	orr.w	r2, r2, #12288	; 0x3000
 8003262:	609a      	str	r2, [r3, #8]
 8003264:	681a      	ldr	r2, [r3, #0]
 8003266:	f422 5240 	bic.w	r2, r2, #12288	; 0x3000
 800326a:	601a      	str	r2, [r3, #0]
 800326c:	681a      	ldr	r2, [r3, #0]
 800326e:	601a      	str	r2, [r3, #0]
 8003270:	68da      	ldr	r2, [r3, #12]
 8003272:	f442 5280 	orr.w	r2, r2, #4096	; 0x1000
 8003276:	60da      	str	r2, [r3, #12]
 8003278:	4770      	bx	lr
 800327a:	2905      	cmp	r1, #5
 800327c:	d110      	bne.n	80032a0 <_ZN4GpioILh1ELh6ELh1EE8set_modeEh+0xac>
 800327e:	6803      	ldr	r3, [r0, #0]
 8003280:	689a      	ldr	r2, [r3, #8]
 8003282:	f422 5240 	bic.w	r2, r2, #12288	; 0x3000
 8003286:	609a      	str	r2, [r3, #8]
 8003288:	689a      	ldr	r2, [r3, #8]
 800328a:	f442 5240 	orr.w	r2, r2, #12288	; 0x3000
 800328e:	609a      	str	r2, [r3, #8]
 8003290:	681a      	ldr	r2, [r3, #0]
 8003292:	f422 5240 	bic.w	r2, r2, #12288	; 0x3000
 8003296:	601a      	str	r2, [r3, #0]
 8003298:	681a      	ldr	r2, [r3, #0]
 800329a:	f442 5200 	orr.w	r2, r2, #8192	; 0x2000
 800329e:	e7c3      	b.n	8003228 <_ZN4GpioILh1ELh6ELh1EE8set_modeEh+0x34>
 80032a0:	2904      	cmp	r1, #4
 80032a2:	d1c2      	bne.n	800322a <_ZN4GpioILh1ELh6ELh1EE8set_modeEh+0x36>
 80032a4:	6803      	ldr	r3, [r0, #0]
 80032a6:	681a      	ldr	r2, [r3, #0]
 80032a8:	f422 5240 	bic.w	r2, r2, #12288	; 0x3000
 80032ac:	601a      	str	r2, [r3, #0]
 80032ae:	681a      	ldr	r2, [r3, #0]
 80032b0:	f442 5240 	orr.w	r2, r2, #12288	; 0x3000
 80032b4:	e7b8      	b.n	8003228 <_ZN4GpioILh1ELh6ELh1EE8set_modeEh+0x34>
 80032b6:	0000      	movs	r0, r0

080032b8 <_ZN4GpioILh1ELh6ELh1EE4initEv>:
 80032b8:	4a05      	ldr	r2, [pc, #20]	; (80032d0 <_ZN4GpioILh1ELh6ELh1EE4initEv+0x18>)
 80032ba:	b508      	push	{r3, lr}
 80032bc:	6953      	ldr	r3, [r2, #20]
 80032be:	f443 03fc 	orr.w	r3, r3, #8257536	; 0x7e0000
 80032c2:	6153      	str	r3, [r2, #20]
 80032c4:	4b03      	ldr	r3, [pc, #12]	; (80032d4 <_ZN4GpioILh1ELh6ELh1EE4initEv+0x1c>)
 80032c6:	6003      	str	r3, [r0, #0]
 80032c8:	2101      	movs	r1, #1
 80032ca:	f7ff ff93 	bl	80031f4 <_ZN4GpioILh1ELh6ELh1EE8set_modeEh>
 80032ce:	bd08      	pop	{r3, pc}
 80032d0:	40021000 	andmi	r1, r2, r0
 80032d4:	48000400 	stmdami	r0, {sl}

080032d8 <_ZN4TI2CILh1ELh7ELh6ELh10ELh1EE4initEv>:
 80032d8:	230a      	movs	r3, #10
 80032da:	b510      	push	{r4, lr}
 80032dc:	6043      	str	r3, [r0, #4]
 80032de:	4604      	mov	r4, r0
 80032e0:	3008      	adds	r0, #8
 80032e2:	f7ff ff77 	bl	80031d4 <_ZN4GpioILh1ELh7ELh1EE4initEv>
 80032e6:	f104 000c 	add.w	r0, r4, #12
 80032ea:	f7ff ffe5 	bl	80032b8 <_ZN4GpioILh1ELh6ELh1EE4initEv>
 80032ee:	68a2      	ldr	r2, [r4, #8]
 80032f0:	8d13      	ldrh	r3, [r2, #40]	; 0x28
 80032f2:	b29b      	uxth	r3, r3
 80032f4:	f043 0380 	orr.w	r3, r3, #128	; 0x80
 80032f8:	8513      	strh	r3, [r2, #40]	; 0x28
 80032fa:	68e2      	ldr	r2, [r4, #12]
 80032fc:	8d13      	ldrh	r3, [r2, #40]	; 0x28
 80032fe:	b29b      	uxth	r3, r3
 8003300:	f043 0340 	orr.w	r3, r3, #64	; 0x40
 8003304:	8513      	strh	r3, [r2, #40]	; 0x28
 8003306:	bd10      	pop	{r4, pc}

08003308 <_ZN7Drivers4initEv>:
 8003308:	e92d 41f0 	stmdb	sp!, {r4, r5, r6, r7, r8, lr}
 800330c:	4c4f      	ldr	r4, [pc, #316]	; (800344c <_ZN7Drivers4initEv+0x144>)
 800330e:	4e50      	ldr	r6, [pc, #320]	; (8003450 <_ZN7Drivers4initEv+0x148>)
 8003310:	f8df 81a4 	ldr.w	r8, [pc, #420]	; 80034b8 <_ZN7Drivers4initEv+0x1b0>
 8003314:	1d07      	adds	r7, r0, #4
 8003316:	4638      	mov	r0, r7
 8003318:	2101      	movs	r1, #1
 800331a:	f7ff feeb 	bl	80030f4 <_ZN4GpioILh1ELh15ELh0EE5writeEi>
 800331e:	4620      	mov	r0, r4
 8003320:	f44f 31e1 	mov.w	r1, #115200	; 0x1c200
 8003324:	f7ff fb50 	bl	80029c8 <_ZN5Usart4initEj>
 8003328:	4620      	mov	r0, r4
 800332a:	494a      	ldr	r1, [pc, #296]	; (8003454 <_ZN7Drivers4initEv+0x14c>)
 800332c:	f7fe faad 	bl	800188a <_ZN8Terminal4putsEPKc>
 8003330:	4949      	ldr	r1, [pc, #292]	; (8003458 <_ZN7Drivers4initEv+0x150>)
 8003332:	4620      	mov	r0, r4
 8003334:	f7fe faa9 	bl	800188a <_ZN8Terminal4putsEPKc>
 8003338:	f7fe f872 	bl	8001420 <_Z8mem_initv>
 800333c:	4947      	ldr	r1, [pc, #284]	; (800345c <_ZN7Drivers4initEv+0x154>)
 800333e:	4605      	mov	r5, r0
 8003340:	4620      	mov	r0, r4
 8003342:	f7fe faa2 	bl	800188a <_ZN8Terminal4putsEPKc>
 8003346:	4629      	mov	r1, r5
 8003348:	4d45      	ldr	r5, [pc, #276]	; (8003460 <_ZN7Drivers4initEv+0x158>)
 800334a:	4620      	mov	r0, r4
 800334c:	f7fe fa9f 	bl	800188e <_ZN8Terminal5putuiEm>
 8003350:	4629      	mov	r1, r5
 8003352:	4620      	mov	r0, r4
 8003354:	f7fe fa99 	bl	800188a <_ZN8Terminal4putsEPKc>
 8003358:	4630      	mov	r0, r6
 800335a:	f7ff fdb3 	bl	8002ec4 <_ZN5Timer4initEv>
 800335e:	4620      	mov	r0, r4
 8003360:	4940      	ldr	r1, [pc, #256]	; (8003464 <_ZN7Drivers4initEv+0x15c>)
 8003362:	f7fe fa92 	bl	800188a <_ZN8Terminal4putsEPKc>
 8003366:	4620      	mov	r0, r4
 8003368:	493f      	ldr	r1, [pc, #252]	; (8003468 <_ZN7Drivers4initEv+0x160>)
 800336a:	f7fe fa8e 	bl	800188a <_ZN8Terminal4putsEPKc>
 800336e:	4630      	mov	r0, r6
 8003370:	21c8      	movs	r1, #200	; 0xc8
 8003372:	4e3e      	ldr	r6, [pc, #248]	; (800346c <_ZN7Drivers4initEv+0x164>)
 8003374:	f7ff fe1c 	bl	8002fb0 <_ZN5Timer8delay_msEj>
 8003378:	493d      	ldr	r1, [pc, #244]	; (8003470 <_ZN7Drivers4initEv+0x168>)
 800337a:	4620      	mov	r0, r4
 800337c:	f7fe fa85 	bl	800188a <_ZN8Terminal4putsEPKc>
 8003380:	4630      	mov	r0, r6
 8003382:	f7ff ffa9 	bl	80032d8 <_ZN4TI2CILh1ELh7ELh6ELh10ELh1EE4initEv>
 8003386:	4620      	mov	r0, r4
 8003388:	493a      	ldr	r1, [pc, #232]	; (8003474 <_ZN7Drivers4initEv+0x16c>)
 800338a:	f7fe fa7e 	bl	800188a <_ZN8Terminal4putsEPKc>
 800338e:	4631      	mov	r1, r6
 8003390:	4640      	mov	r0, r8
 8003392:	f7ff f889 	bl	80024a8 <_ZN3IMU4initER13I2C_Interface>
 8003396:	4938      	ldr	r1, [pc, #224]	; (8003478 <_ZN7Drivers4initEv+0x170>)
 8003398:	4620      	mov	r0, r4
 800339a:	f7fe fa76 	bl	800188a <_ZN8Terminal4putsEPKc>
 800339e:	4640      	mov	r0, r8
 80033a0:	f7ff f877 	bl	8002492 <_ZN3IMU7presentEv>
 80033a4:	f8df 8114 	ldr.w	r8, [pc, #276]	; 80034bc <_ZN7Drivers4initEv+0x1b4>
 80033a8:	4601      	mov	r1, r0
 80033aa:	4620      	mov	r0, r4
 80033ac:	f7ff fe6c 	bl	8003088 <_ZN8TerminallsEb>
 80033b0:	4629      	mov	r1, r5
 80033b2:	f7fe fa6a 	bl	800188a <_ZN8Terminal4putsEPKc>
 80033b6:	4631      	mov	r1, r6
 80033b8:	4640      	mov	r0, r8
 80033ba:	f7ff fb77 	bl	8002aac <_ZN6EEPROM4initER13I2C_Interface>
 80033be:	492f      	ldr	r1, [pc, #188]	; (800347c <_ZN7Drivers4initEv+0x174>)
 80033c0:	4620      	mov	r0, r4
 80033c2:	f7fe fa62 	bl	800188a <_ZN8Terminal4putsEPKc>
 80033c6:	4640      	mov	r0, r8
 80033c8:	f7ff fb9e 	bl	8002b08 <_ZN6EEPROM7presentEv>
 80033cc:	4601      	mov	r1, r0
 80033ce:	4620      	mov	r0, r4
 80033d0:	f7ff fe5a 	bl	8003088 <_ZN8TerminallsEb>
 80033d4:	4629      	mov	r1, r5
 80033d6:	f7fe fa58 	bl	800188a <_ZN8Terminal4putsEPKc>
 80033da:	4829      	ldr	r0, [pc, #164]	; (8003480 <_ZN7Drivers4initEv+0x178>)
 80033dc:	f7fe fef4 	bl	80021c8 <_ZN3ADC4initEv>
 80033e0:	4928      	ldr	r1, [pc, #160]	; (8003484 <_ZN7Drivers4initEv+0x17c>)
 80033e2:	4620      	mov	r0, r4
 80033e4:	f7fe fa51 	bl	800188a <_ZN8Terminal4putsEPKc>
 80033e8:	4827      	ldr	r0, [pc, #156]	; (8003488 <_ZN7Drivers4initEv+0x180>)
 80033ea:	f7fe fb2b 	bl	8001a44 <_ZN13LineSensorNew4initEv>
 80033ee:	4927      	ldr	r1, [pc, #156]	; (800348c <_ZN7Drivers4initEv+0x184>)
 80033f0:	4620      	mov	r0, r4
 80033f2:	f7fe fa4a 	bl	800188a <_ZN8Terminal4putsEPKc>
 80033f6:	4826      	ldr	r0, [pc, #152]	; (8003490 <_ZN7Drivers4initEv+0x188>)
 80033f8:	f7ff fcf0 	bl	8002ddc <_ZN14DistanceSensor4initEv>
 80033fc:	4925      	ldr	r1, [pc, #148]	; (8003494 <_ZN7Drivers4initEv+0x18c>)
 80033fe:	4620      	mov	r0, r4
 8003400:	f7fe fa43 	bl	800188a <_ZN8Terminal4putsEPKc>
 8003404:	4824      	ldr	r0, [pc, #144]	; (8003498 <_ZN7Drivers4initEv+0x190>)
 8003406:	f7ff f93f 	bl	8002688 <_ZN13EncoderSensor4initEv>
 800340a:	4924      	ldr	r1, [pc, #144]	; (800349c <_ZN7Drivers4initEv+0x194>)
 800340c:	4620      	mov	r0, r4
 800340e:	f7fe fa3c 	bl	800188a <_ZN8Terminal4putsEPKc>
 8003412:	4823      	ldr	r0, [pc, #140]	; (80034a0 <_ZN7Drivers4initEv+0x198>)
 8003414:	f7ff fa72 	bl	80028fc <_ZN13MotorControll4initEv>
 8003418:	4620      	mov	r0, r4
 800341a:	4922      	ldr	r1, [pc, #136]	; (80034a4 <_ZN7Drivers4initEv+0x19c>)
 800341c:	f7fe fa35 	bl	800188a <_ZN8Terminal4putsEPKc>
 8003420:	2100      	movs	r1, #0
 8003422:	4638      	mov	r0, r7
 8003424:	f7ff fe66 	bl	80030f4 <_ZN4GpioILh1ELh15ELh0EE5writeEi>
 8003428:	481f      	ldr	r0, [pc, #124]	; (80034a8 <_ZN7Drivers4initEv+0x1a0>)
 800342a:	f7fe fded 	bl	8002008 <_ZN3Key4initEv>
 800342e:	4620      	mov	r0, r4
 8003430:	491e      	ldr	r1, [pc, #120]	; (80034ac <_ZN7Drivers4initEv+0x1a4>)
 8003432:	f7fe fa2a 	bl	800188a <_ZN8Terminal4putsEPKc>
 8003436:	4620      	mov	r0, r4
 8003438:	491d      	ldr	r1, [pc, #116]	; (80034b0 <_ZN7Drivers4initEv+0x1a8>)
 800343a:	f7fe fa26 	bl	800188a <_ZN8Terminal4putsEPKc>
 800343e:	4620      	mov	r0, r4
 8003440:	491c      	ldr	r1, [pc, #112]	; (80034b4 <_ZN7Drivers4initEv+0x1ac>)
 8003442:	f7fe fa22 	bl	800188a <_ZN8Terminal4putsEPKc>
 8003446:	2000      	movs	r0, #0
 8003448:	e8bd 81f0 	ldmia.w	sp!, {r4, r5, r6, r7, r8, pc}
 800344c:	20000430 	andcs	r0, r0, r0, lsr r4
 8003450:	20000434 	andcs	r0, r0, r4, lsr r4
 8003454:	08004681 	stmdaeq	r0, {r0, r7, r9, sl, lr}
 8003458:	0800468d 	stmdaeq	r0, {r0, r2, r3, r7, r9, sl, lr}
 800345c:	080046a1 	stmdaeq	r0, {r0, r5, r7, r9, sl, lr}
 8003460:	0800468b 	stmdaeq	r0, {r0, r1, r3, r7, r9, sl, lr}
 8003464:	080046bf 	stmdaeq	r0, {r0, r1, r2, r3, r4, r5, r7, r9, sl, lr}
 8003468:	080046d0 	stmdaeq	r0, {r4, r6, r7, r9, sl, lr}
 800346c:	20000254 	andcs	r0, r0, r4, asr r2
 8003470:	080046e7 	stmdaeq	r0, {r0, r1, r2, r5, r6, r7, r9, sl, lr}
 8003474:	080046de 	stmdaeq	r0, {r1, r2, r3, r4, r6, r7, r9, sl, lr}
 8003478:	080046ed 	stmdaeq	r0, {r0, r2, r3, r5, r6, r7, r9, sl, lr}
 800347c:	08004701 	stmdaeq	r0, {r0, r8, r9, sl, lr}
 8003480:	20000154 	andcs	r0, r0, r4, asr r1
 8003484:	08004718 	stmdaeq	r0, {r3, r4, r8, r9, sl, lr}
 8003488:	200002c4 	andcs	r0, r0, r4, asr #5
 800348c:	08004727 	stmdaeq	r0, {r0, r1, r2, r5, r8, r9, sl, lr}
 8003490:	20000158 	andcs	r0, r0, r8, asr r1
 8003494:	0800473e 	stmdaeq	r0, {r1, r2, r3, r4, r5, r8, r9, sl, lr}
 8003498:	20000240 	andcs	r0, r0, r0, asr #4
 800349c:	08004759 	stmdaeq	r0, {r0, r3, r4, r6, r8, r9, sl, lr}
 80034a0:	2000039c 	mulcs	r0, ip, r3
 80034a4:	08004773 	stmdaeq	r0, {r0, r1, r4, r5, r6, r8, r9, sl, lr}
 80034a8:	200002ac 	andcs	r0, r0, ip, lsr #5
 80034ac:	0800478d 	stmdaeq	r0, {r0, r2, r3, r7, r8, r9, sl, lr}
 80034b0:	0800468a 	stmdaeq	r0, {r1, r3, r7, r9, sl, lr}
 80034b4:	0800479c 	stmdaeq	r0, {r2, r3, r4, r7, r8, r9, sl, lr}
 80034b8:	20000264 	andcs	r0, r0, r4, ror #4
 80034bc:	20000234 	andcs	r0, r0, r4, lsr r2

080034c0 <_ZN4TI2CILh1ELh7ELh6ELh10ELh1EE4stopEv>:
 80034c0:	b570      	push	{r4, r5, r6, lr}
 80034c2:	4604      	mov	r4, r0
 80034c4:	f100 060c 	add.w	r6, r0, #12
 80034c8:	f104 0508 	add.w	r5, r4, #8
 80034cc:	4630      	mov	r0, r6
 80034ce:	2100      	movs	r1, #0
 80034d0:	f7ff fe90 	bl	80031f4 <_ZN4GpioILh1ELh6ELh1EE8set_modeEh>
 80034d4:	4628      	mov	r0, r5
 80034d6:	2100      	movs	r1, #0
 80034d8:	f7ff fe1b 	bl	8003112 <_ZN4GpioILh1ELh7ELh1EE8set_modeEh>
 80034dc:	4630      	mov	r0, r6
 80034de:	2101      	movs	r1, #1
 80034e0:	f7ff fe88 	bl	80031f4 <_ZN4GpioILh1ELh6ELh1EE8set_modeEh>
 80034e4:	4628      	mov	r0, r5
 80034e6:	2100      	movs	r1, #0
 80034e8:	f7ff fe13 	bl	8003112 <_ZN4GpioILh1ELh7ELh1EE8set_modeEh>
 80034ec:	4630      	mov	r0, r6
 80034ee:	2101      	movs	r1, #1
 80034f0:	f7ff fe80 	bl	80031f4 <_ZN4GpioILh1ELh6ELh1EE8set_modeEh>
 80034f4:	4628      	mov	r0, r5
 80034f6:	2101      	movs	r1, #1
 80034f8:	f7ff fe0b 	bl	8003112 <_ZN4GpioILh1ELh7ELh1EE8set_modeEh>
 80034fc:	4620      	mov	r0, r4
 80034fe:	e8bd 4070 	ldmia.w	sp!, {r4, r5, r6, lr}
 8003502:	f7fd ba8a 	b.w	8000a1a <_ZN13I2C_Interface5delayEv>

08003506 <_ZN4TI2CILh1ELh7ELh6ELh10ELh1EE5startEv>:
 8003506:	b570      	push	{r4, r5, r6, lr}
 8003508:	4604      	mov	r4, r0
 800350a:	f100 060c 	add.w	r6, r0, #12
 800350e:	f104 0508 	add.w	r5, r4, #8
 8003512:	4630      	mov	r0, r6
 8003514:	2101      	movs	r1, #1
 8003516:	f7ff fe6d 	bl	80031f4 <_ZN4GpioILh1ELh6ELh1EE8set_modeEh>
 800351a:	4628      	mov	r0, r5
 800351c:	2101      	movs	r1, #1
 800351e:	f7ff fdf8 	bl	8003112 <_ZN4GpioILh1ELh7ELh1EE8set_modeEh>
 8003522:	4630      	mov	r0, r6
 8003524:	2101      	movs	r1, #1
 8003526:	f7ff fe65 	bl	80031f4 <_ZN4GpioILh1ELh6ELh1EE8set_modeEh>
 800352a:	4628      	mov	r0, r5
 800352c:	2100      	movs	r1, #0
 800352e:	f7ff fdf0 	bl	8003112 <_ZN4GpioILh1ELh7ELh1EE8set_modeEh>
 8003532:	4630      	mov	r0, r6
 8003534:	2100      	movs	r1, #0
 8003536:	f7ff fe5d 	bl	80031f4 <_ZN4GpioILh1ELh6ELh1EE8set_modeEh>
 800353a:	4628      	mov	r0, r5
 800353c:	2101      	movs	r1, #1
 800353e:	f7ff fde8 	bl	8003112 <_ZN4GpioILh1ELh7ELh1EE8set_modeEh>
 8003542:	4620      	mov	r0, r4
 8003544:	e8bd 4070 	ldmia.w	sp!, {r4, r5, r6, lr}
 8003548:	f7fd ba67 	b.w	8000a1a <_ZN13I2C_Interface5delayEv>

0800354c <_ZN4TI2CILh1ELh7ELh6ELh10ELh1EE4readEh>:
 800354c:	e92d 43f8 	stmdb	sp!, {r3, r4, r5, r6, r7, r8, r9, lr}
 8003550:	4604      	mov	r4, r0
 8003552:	f100 0708 	add.w	r7, r0, #8
 8003556:	4638      	mov	r0, r7
 8003558:	4689      	mov	r9, r1
 800355a:	f104 060c 	add.w	r6, r4, #12
 800355e:	2101      	movs	r1, #1
 8003560:	f7ff fdd7 	bl	8003112 <_ZN4GpioILh1ELh7ELh1EE8set_modeEh>
 8003564:	2100      	movs	r1, #0
 8003566:	4630      	mov	r0, r6
 8003568:	f7ff fe44 	bl	80031f4 <_ZN4GpioILh1ELh6ELh1EE8set_modeEh>
 800356c:	4620      	mov	r0, r4
 800356e:	f7fd fa54 	bl	8000a1a <_ZN13I2C_Interface5delayEv>
 8003572:	f04f 0809 	mov.w	r8, #9
 8003576:	2500      	movs	r5, #0
 8003578:	f1b8 0801 	subs.w	r8, r8, #1
 800357c:	d017      	beq.n	80035ae <_ZN4TI2CILh1ELh7ELh6ELh10ELh1EE4readEh+0x62>
 800357e:	2101      	movs	r1, #1
 8003580:	4630      	mov	r0, r6
 8003582:	f7ff fe37 	bl	80031f4 <_ZN4GpioILh1ELh6ELh1EE8set_modeEh>
 8003586:	4620      	mov	r0, r4
 8003588:	f7fd fa47 	bl	8000a1a <_ZN13I2C_Interface5delayEv>
 800358c:	68a3      	ldr	r3, [r4, #8]
 800358e:	8a1b      	ldrh	r3, [r3, #16]
 8003590:	006d      	lsls	r5, r5, #1
 8003592:	061b      	lsls	r3, r3, #24
 8003594:	4630      	mov	r0, r6
 8003596:	b2ed      	uxtb	r5, r5
 8003598:	f04f 0100 	mov.w	r1, #0
 800359c:	bf48      	it	mi
 800359e:	f045 0501 	orrmi.w	r5, r5, #1
 80035a2:	f7ff fe27 	bl	80031f4 <_ZN4GpioILh1ELh6ELh1EE8set_modeEh>
 80035a6:	4620      	mov	r0, r4
 80035a8:	f7fd fa37 	bl	8000a1a <_ZN13I2C_Interface5delayEv>
 80035ac:	e7e4      	b.n	8003578 <_ZN4TI2CILh1ELh7ELh6ELh10ELh1EE4readEh+0x2c>
 80035ae:	f1b9 0f00 	cmp.w	r9, #0
 80035b2:	d01e      	beq.n	80035f2 <_ZN4TI2CILh1ELh7ELh6ELh10ELh1EE4readEh+0xa6>
 80035b4:	4641      	mov	r1, r8
 80035b6:	4638      	mov	r0, r7
 80035b8:	f7ff fdab 	bl	8003112 <_ZN4GpioILh1ELh7ELh1EE8set_modeEh>
 80035bc:	4620      	mov	r0, r4
 80035be:	f7fd fa2c 	bl	8000a1a <_ZN13I2C_Interface5delayEv>
 80035c2:	2101      	movs	r1, #1
 80035c4:	4630      	mov	r0, r6
 80035c6:	f7ff fe15 	bl	80031f4 <_ZN4GpioILh1ELh6ELh1EE8set_modeEh>
 80035ca:	4620      	mov	r0, r4
 80035cc:	f7fd fa25 	bl	8000a1a <_ZN13I2C_Interface5delayEv>
 80035d0:	2100      	movs	r1, #0
 80035d2:	4630      	mov	r0, r6
 80035d4:	f7ff fe0e 	bl	80031f4 <_ZN4GpioILh1ELh6ELh1EE8set_modeEh>
 80035d8:	4620      	mov	r0, r4
 80035da:	f7fd fa1e 	bl	8000a1a <_ZN13I2C_Interface5delayEv>
 80035de:	2101      	movs	r1, #1
 80035e0:	4638      	mov	r0, r7
 80035e2:	f7ff fd96 	bl	8003112 <_ZN4GpioILh1ELh7ELh1EE8set_modeEh>
 80035e6:	4620      	mov	r0, r4
 80035e8:	f7fd fa17 	bl	8000a1a <_ZN13I2C_Interface5delayEv>
 80035ec:	4628      	mov	r0, r5
 80035ee:	e8bd 83f8 	ldmia.w	sp!, {r3, r4, r5, r6, r7, r8, r9, pc}
 80035f2:	2101      	movs	r1, #1
 80035f4:	e7df      	b.n	80035b6 <_ZN4TI2CILh1ELh7ELh6ELh10ELh1EE4readEh+0x6a>

080035f6 <_ZN4TI2CILh1ELh7ELh6ELh10ELh1EE5writeEh>:
 80035f6:	e92d 41f0 	stmdb	sp!, {r4, r5, r6, r7, r8, lr}
 80035fa:	4604      	mov	r4, r0
 80035fc:	460d      	mov	r5, r1
 80035fe:	2709      	movs	r7, #9
 8003600:	f100 060c 	add.w	r6, r0, #12
 8003604:	f100 0808 	add.w	r8, r0, #8
 8003608:	3f01      	subs	r7, #1
 800360a:	d01a      	beq.n	8003642 <_ZN4TI2CILh1ELh7ELh6ELh10ELh1EE5writeEh+0x4c>
 800360c:	2100      	movs	r1, #0
 800360e:	4630      	mov	r0, r6
 8003610:	f7ff fdf0 	bl	80031f4 <_ZN4GpioILh1ELh6ELh1EE8set_modeEh>
 8003614:	4620      	mov	r0, r4
 8003616:	f7fd fa00 	bl	8000a1a <_ZN13I2C_Interface5delayEv>
 800361a:	062b      	lsls	r3, r5, #24
 800361c:	bf4c      	ite	mi
 800361e:	2101      	movmi	r1, #1
 8003620:	2100      	movpl	r1, #0
 8003622:	4640      	mov	r0, r8
 8003624:	f7ff fd75 	bl	8003112 <_ZN4GpioILh1ELh7ELh1EE8set_modeEh>
 8003628:	4620      	mov	r0, r4
 800362a:	f7fd f9f6 	bl	8000a1a <_ZN13I2C_Interface5delayEv>
 800362e:	2101      	movs	r1, #1
 8003630:	4630      	mov	r0, r6
 8003632:	f7ff fddf 	bl	80031f4 <_ZN4GpioILh1ELh6ELh1EE8set_modeEh>
 8003636:	006d      	lsls	r5, r5, #1
 8003638:	4620      	mov	r0, r4
 800363a:	f7fd f9ee 	bl	8000a1a <_ZN13I2C_Interface5delayEv>
 800363e:	b2ed      	uxtb	r5, r5
 8003640:	e7e2      	b.n	8003608 <_ZN4TI2CILh1ELh7ELh6ELh10ELh1EE5writeEh+0x12>
 8003642:	4639      	mov	r1, r7
 8003644:	4630      	mov	r0, r6
 8003646:	f7ff fdd5 	bl	80031f4 <_ZN4GpioILh1ELh6ELh1EE8set_modeEh>
 800364a:	4620      	mov	r0, r4
 800364c:	f7fd f9e5 	bl	8000a1a <_ZN13I2C_Interface5delayEv>
 8003650:	2101      	movs	r1, #1
 8003652:	4640      	mov	r0, r8
 8003654:	f7ff fd5d 	bl	8003112 <_ZN4GpioILh1ELh7ELh1EE8set_modeEh>
 8003658:	4620      	mov	r0, r4
 800365a:	f7fd f9de 	bl	8000a1a <_ZN13I2C_Interface5delayEv>
 800365e:	2101      	movs	r1, #1
 8003660:	4630      	mov	r0, r6
 8003662:	f7ff fdc7 	bl	80031f4 <_ZN4GpioILh1ELh6ELh1EE8set_modeEh>
 8003666:	4620      	mov	r0, r4
 8003668:	f7fd f9d7 	bl	8000a1a <_ZN13I2C_Interface5delayEv>
 800366c:	68a3      	ldr	r3, [r4, #8]
 800366e:	8a1d      	ldrh	r5, [r3, #16]
 8003670:	4639      	mov	r1, r7
 8003672:	4630      	mov	r0, r6
 8003674:	f7ff fdbe 	bl	80031f4 <_ZN4GpioILh1ELh6ELh1EE8set_modeEh>
 8003678:	b2ad      	uxth	r5, r5
 800367a:	4620      	mov	r0, r4
 800367c:	f7fd f9cd 	bl	8000a1a <_ZN13I2C_Interface5delayEv>
 8003680:	f085 0080 	eor.w	r0, r5, #128	; 0x80
 8003684:	f3c0 10c0 	ubfx	r0, r0, #7, #1
 8003688:	e8bd 81f0 	ldmia.w	sp!, {r4, r5, r6, r7, r8, pc}

0800368c <_GLOBAL__sub_I_drivers>:
 800368c:	b538      	push	{r3, r4, r5, lr}
 800368e:	4d3c      	ldr	r5, [pc, #240]	; (8003780 <_GLOBAL__sub_I_drivers+0xf4>)
 8003690:	4c3c      	ldr	r4, [pc, #240]	; (8003784 <_GLOBAL__sub_I_drivers+0xf8>)
 8003692:	4628      	mov	r0, r5
 8003694:	f7ff fd06 	bl	80030a4 <_ZN7DriversC1Ev>
 8003698:	4628      	mov	r0, r5
 800369a:	4d3b      	ldr	r5, [pc, #236]	; (8003788 <_GLOBAL__sub_I_drivers+0xfc>)
 800369c:	493b      	ldr	r1, [pc, #236]	; (800378c <_GLOBAL__sub_I_drivers+0x100>)
 800369e:	4622      	mov	r2, r4
 80036a0:	f7fd fed9 	bl	8001456 <__aeabi_atexit>
 80036a4:	4628      	mov	r0, r5
 80036a6:	f7fe f8db 	bl	8001860 <_ZN8TerminalC1Ev>
 80036aa:	4628      	mov	r0, r5
 80036ac:	4d38      	ldr	r5, [pc, #224]	; (8003790 <_GLOBAL__sub_I_drivers+0x104>)
 80036ae:	4939      	ldr	r1, [pc, #228]	; (8003794 <_GLOBAL__sub_I_drivers+0x108>)
 80036b0:	4622      	mov	r2, r4
 80036b2:	f7fd fed0 	bl	8001456 <__aeabi_atexit>
 80036b6:	4628      	mov	r0, r5
 80036b8:	f7ff fc02 	bl	8002ec0 <_ZN5TimerC1Ev>
 80036bc:	4628      	mov	r0, r5
 80036be:	4d36      	ldr	r5, [pc, #216]	; (8003798 <_GLOBAL__sub_I_drivers+0x10c>)
 80036c0:	4936      	ldr	r1, [pc, #216]	; (800379c <_GLOBAL__sub_I_drivers+0x110>)
 80036c2:	4622      	mov	r2, r4
 80036c4:	f7fd fec7 	bl	8001456 <__aeabi_atexit>
 80036c8:	4628      	mov	r0, r5
 80036ca:	f7fd f95b 	bl	8000984 <_ZN13I2C_InterfaceC1Ev>
 80036ce:	4628      	mov	r0, r5
 80036d0:	4b33      	ldr	r3, [pc, #204]	; (80037a0 <_GLOBAL__sub_I_drivers+0x114>)
 80036d2:	f840 3b08 	str.w	r3, [r0], #8
 80036d6:	f7ff fd7d 	bl	80031d4 <_ZN4GpioILh1ELh7ELh1EE4initEv>
 80036da:	f105 000c 	add.w	r0, r5, #12
 80036de:	f7ff fdeb 	bl	80032b8 <_ZN4GpioILh1ELh6ELh1EE4initEv>
 80036e2:	4628      	mov	r0, r5
 80036e4:	4d2f      	ldr	r5, [pc, #188]	; (80037a4 <_GLOBAL__sub_I_drivers+0x118>)
 80036e6:	4930      	ldr	r1, [pc, #192]	; (80037a8 <_GLOBAL__sub_I_drivers+0x11c>)
 80036e8:	4622      	mov	r2, r4
 80036ea:	f7fd feb4 	bl	8001456 <__aeabi_atexit>
 80036ee:	4628      	mov	r0, r5
 80036f0:	f7fe fdc8 	bl	8002284 <_ZN3IMUC1Ev>
 80036f4:	4628      	mov	r0, r5
 80036f6:	4d2d      	ldr	r5, [pc, #180]	; (80037ac <_GLOBAL__sub_I_drivers+0x120>)
 80036f8:	492d      	ldr	r1, [pc, #180]	; (80037b0 <_GLOBAL__sub_I_drivers+0x124>)
 80036fa:	4622      	mov	r2, r4
 80036fc:	f7fd feab 	bl	8001456 <__aeabi_atexit>
 8003700:	4628      	mov	r0, r5
 8003702:	f7ff f9cb 	bl	8002a9c <_ZN6EEPROMC1Ev>
 8003706:	4628      	mov	r0, r5
 8003708:	4d2a      	ldr	r5, [pc, #168]	; (80037b4 <_GLOBAL__sub_I_drivers+0x128>)
 800370a:	492b      	ldr	r1, [pc, #172]	; (80037b8 <_GLOBAL__sub_I_drivers+0x12c>)
 800370c:	4622      	mov	r2, r4
 800370e:	f7fd fea2 	bl	8001456 <__aeabi_atexit>
 8003712:	4628      	mov	r0, r5
 8003714:	f7fe fcc0 	bl	8002098 <_ZN3ADCC1Ev>
 8003718:	4628      	mov	r0, r5
 800371a:	4d28      	ldr	r5, [pc, #160]	; (80037bc <_GLOBAL__sub_I_drivers+0x130>)
 800371c:	4928      	ldr	r1, [pc, #160]	; (80037c0 <_GLOBAL__sub_I_drivers+0x134>)
 800371e:	4622      	mov	r2, r4
 8003720:	f7fd fe99 	bl	8001456 <__aeabi_atexit>
 8003724:	4628      	mov	r0, r5
 8003726:	f7fe f8d7 	bl	80018d8 <_ZN13LineSensorNewC1Ev>
 800372a:	4628      	mov	r0, r5
 800372c:	4d25      	ldr	r5, [pc, #148]	; (80037c4 <_GLOBAL__sub_I_drivers+0x138>)
 800372e:	4926      	ldr	r1, [pc, #152]	; (80037c8 <_GLOBAL__sub_I_drivers+0x13c>)
 8003730:	4622      	mov	r2, r4
 8003732:	f7fd fe90 	bl	8001456 <__aeabi_atexit>
 8003736:	4628      	mov	r0, r5
 8003738:	f7ff fae8 	bl	8002d0c <_ZN14DistanceSensorC1Ev>
 800373c:	4628      	mov	r0, r5
 800373e:	4d23      	ldr	r5, [pc, #140]	; (80037cc <_GLOBAL__sub_I_drivers+0x140>)
 8003740:	4923      	ldr	r1, [pc, #140]	; (80037d0 <_GLOBAL__sub_I_drivers+0x144>)
 8003742:	4622      	mov	r2, r4
 8003744:	f7fd fe87 	bl	8001456 <__aeabi_atexit>
 8003748:	4628      	mov	r0, r5
 800374a:	f7fe ff35 	bl	80025b8 <_ZN13EncoderSensorC1Ev>
 800374e:	4628      	mov	r0, r5
 8003750:	4d20      	ldr	r5, [pc, #128]	; (80037d4 <_GLOBAL__sub_I_drivers+0x148>)
 8003752:	4921      	ldr	r1, [pc, #132]	; (80037d8 <_GLOBAL__sub_I_drivers+0x14c>)
 8003754:	4622      	mov	r2, r4
 8003756:	f7fd fe7e 	bl	8001456 <__aeabi_atexit>
 800375a:	4628      	mov	r0, r5
 800375c:	f7ff f8ae 	bl	80028bc <_ZN13MotorControllC1Ev>
 8003760:	4628      	mov	r0, r5
 8003762:	4d1e      	ldr	r5, [pc, #120]	; (80037dc <_GLOBAL__sub_I_drivers+0x150>)
 8003764:	491e      	ldr	r1, [pc, #120]	; (80037e0 <_GLOBAL__sub_I_drivers+0x154>)
 8003766:	4622      	mov	r2, r4
 8003768:	f7fd fe75 	bl	8001456 <__aeabi_atexit>
 800376c:	4628      	mov	r0, r5
 800376e:	f7fe fc0b 	bl	8001f88 <_ZN3KeyC1Ev>
 8003772:	4622      	mov	r2, r4
 8003774:	4628      	mov	r0, r5
 8003776:	491b      	ldr	r1, [pc, #108]	; (80037e4 <_GLOBAL__sub_I_drivers+0x158>)
 8003778:	e8bd 4038 	ldmia.w	sp!, {r3, r4, r5, lr}
 800377c:	f7fd be6b 	b.w	8001456 <__aeabi_atexit>
 8003780:	2000022c 	andcs	r0, r0, ip, lsr #4
 8003784:	20000004 	andcs	r0, r0, r4
 8003788:	20000430 	andcs	r0, r0, r0, lsr r4
 800378c:	08003051 	stmdaeq	r0, {r0, r4, r6, ip, sp}
 8003790:	20000434 	andcs	r0, r0, r4, lsr r4
 8003794:	08001839 	stmdaeq	r0, {r0, r3, r4, r5, fp, ip}
 8003798:	20000254 	andcs	r0, r0, r4, asr r2
 800379c:	08002f2d 	stmdaeq	r0, {r0, r2, r3, r5, r8, r9, sl, fp, sp}
 80037a0:	08004650 	stmdaeq	r0, {r4, r6, r9, sl, lr}
 80037a4:	20000264 	andcs	r0, r0, r4, ror #4
 80037a8:	08003061 	stmdaeq	r0, {r0, r5, r6, ip, sp}
 80037ac:	20000234 	andcs	r0, r0, r4, lsr r2
 80037b0:	08002275 	stmdaeq	r0, {r0, r2, r4, r5, r6, r9, sp}
 80037b4:	20000154 	andcs	r0, r0, r4, asr r1
 80037b8:	08002a8d 	stmdaeq	r0, {r0, r2, r3, r7, r9, fp, sp}
 80037bc:	200002c4 	andcs	r0, r0, r4, asr #5
 80037c0:	08002089 	stmdaeq	r0, {r0, r3, r7, sp}
 80037c4:	20000158 	andcs	r0, r0, r8, asr r1
 80037c8:	080018c7 	stmdaeq	r0, {r0, r1, r2, r6, r7, fp, ip}
 80037cc:	20000240 	andcs	r0, r0, r0, asr #4
 80037d0:	08002e85 	stmdaeq	r0, {r0, r2, r7, r9, sl, fp, sp}
 80037d4:	2000039c 	mulcs	r0, ip, r3
 80037d8:	080025a9 	stmdaeq	r0, {r0, r3, r5, r7, r8, sl, sp}
 80037dc:	200002ac 	andcs	r0, r0, ip, lsr #5
 80037e0:	08002971 	stmdaeq	r0, {r0, r4, r5, r6, r8, fp, sp}
 80037e4:	08001f51 	stmdaeq	r0, {r0, r4, r6, r8, r9, sl, fp, ip}

080037e8 <_ZN10LineSearchC1Ev>:
 80037e8:	b538      	push	{r3, r4, r5, lr}
 80037ea:	4604      	mov	r4, r0
 80037ec:	4b07      	ldr	r3, [pc, #28]	; (800380c <_ZN10LineSearchC1Ev+0x24>)
 80037ee:	f844 3b08 	str.w	r3, [r4], #8
 80037f2:	4605      	mov	r5, r0
 80037f4:	4620      	mov	r0, r4
 80037f6:	f000 fbcf 	bl	8003f98 <_ZN16PositionControllC1Ev>
 80037fa:	4620      	mov	r0, r4
 80037fc:	4904      	ldr	r1, [pc, #16]	; (8003810 <_ZN10LineSearchC1Ev+0x28>)
 80037fe:	f000 fbf3 	bl	8003fe8 <_ZN16PositionControll4initEf>
 8003802:	2300      	movs	r3, #0
 8003804:	f885 305c 	strb.w	r3, [r5, #92]	; 0x5c
 8003808:	4628      	mov	r0, r5
 800380a:	bd38      	pop	{r3, r4, r5, pc}
 800380c:	080047d4 	stmdaeq	r0, {r2, r4, r6, r7, r8, r9, sl, lr}
 8003810:	3f333333 	svccc	0x00333333

08003814 <_ZN10LineSearch22set_last_line_positionEf>:
 8003814:	6041      	str	r1, [r0, #4]
 8003816:	4770      	bx	lr

08003818 <_ZN10LineSearch17keep_speed_enableEv>:
 8003818:	2301      	movs	r3, #1
 800381a:	f880 305c 	strb.w	r3, [r0, #92]	; 0x5c
 800381e:	4770      	bx	lr

08003820 <_ZN10LineSearch12process_moveEj>:
 8003820:	e92d 43f8 	stmdb	sp!, {r3, r4, r5, r6, r7, r8, r9, lr}
 8003824:	4681      	mov	r9, r0
 8003826:	4816      	ldr	r0, [pc, #88]	; (8003880 <_ZN10LineSearch12process_moveEj+0x60>)
 8003828:	f8df 8058 	ldr.w	r8, [pc, #88]	; 8003884 <_ZN10LineSearch12process_moveEj+0x64>
 800382c:	4e14      	ldr	r6, [pc, #80]	; (8003880 <_ZN10LineSearch12process_moveEj+0x60>)
 800382e:	460d      	mov	r5, r1
 8003830:	f7ff fbb2 	bl	8002f98 <_ZN5Timer8get_timeEv>
 8003834:	4405      	add	r5, r0
 8003836:	f109 0708 	add.w	r7, r9, #8
 800383a:	2105      	movs	r1, #5
 800383c:	4638      	mov	r0, r7
 800383e:	f000 fc03 	bl	8004048 <_ZN16PositionControll7is_doneEi>
 8003842:	4604      	mov	r4, r0
 8003844:	b9a0      	cbnz	r0, 8003870 <_ZN10LineSearch12process_moveEj+0x50>
 8003846:	4640      	mov	r0, r8
 8003848:	f7fe f8e6 	bl	8001a18 <_ZN13LineSensorNew5readyEv>
 800384c:	2800      	cmp	r0, #0
 800384e:	d0f4      	beq.n	800383a <_ZN10LineSearch12process_moveEj+0x1a>
 8003850:	4630      	mov	r0, r6
 8003852:	f7ff fba1 	bl	8002f98 <_ZN5Timer8get_timeEv>
 8003856:	4285      	cmp	r5, r0
 8003858:	d202      	bcs.n	8003860 <_ZN10LineSearch12process_moveEj+0x40>
 800385a:	f898 30c0 	ldrb.w	r3, [r8, #192]	; 0xc0
 800385e:	b95b      	cbnz	r3, 8003878 <_ZN10LineSearch12process_moveEj+0x58>
 8003860:	4638      	mov	r0, r7
 8003862:	f000 fc15 	bl	8004090 <_ZN16PositionControll7processEv>
 8003866:	2104      	movs	r1, #4
 8003868:	4630      	mov	r0, r6
 800386a:	f7ff fba1 	bl	8002fb0 <_ZN5Timer8delay_msEj>
 800386e:	e7e2      	b.n	8003836 <_ZN10LineSearch12process_moveEj+0x16>
 8003870:	f04f 30ff 	mov.w	r0, #4294967295	; 0xffffffff
 8003874:	e8bd 83f8 	ldmia.w	sp!, {r3, r4, r5, r6, r7, r8, r9, pc}
 8003878:	4620      	mov	r0, r4
 800387a:	e8bd 83f8 	ldmia.w	sp!, {r3, r4, r5, r6, r7, r8, r9, pc}
 800387e:	bf00      	nop
 8003880:	20000434 	andcs	r0, r0, r4, lsr r4
 8003884:	200002c4 	andcs	r0, r0, r4, asr #5

08003888 <_ZN10LineSearch4mainEv>:
 8003888:	b573      	push	{r0, r1, r4, r5, r6, lr}
 800388a:	edd0 7a01 	vldr	s15, [r0, #4]
 800388e:	f890 305c 	ldrb.w	r3, [r0, #92]	; 0x5c
 8003892:	9300      	str	r3, [sp, #0]
 8003894:	eef5 7ac0 	vcmpe.f32	s15, #0.0
 8003898:	eef1 fa10 	vmrs	APSR_nzcv, fpscr
 800389c:	4605      	mov	r5, r0
 800389e:	f100 0408 	add.w	r4, r0, #8
 80038a2:	bf4b      	itete	mi
 80038a4:	21e6      	movmi	r1, #230	; 0xe6
 80038a6:	2100      	movpl	r1, #0
 80038a8:	2200      	movmi	r2, #0
 80038aa:	f44f 7282 	movpl.w	r2, #260	; 0x104
 80038ae:	4620      	mov	r0, r4
 80038b0:	2600      	movs	r6, #0
 80038b2:	2305      	movs	r3, #5
 80038b4:	f000 fb14 	bl	8003ee0 <_ZN16PositionControll12set_positionEllib>
 80038b8:	f885 605c 	strb.w	r6, [r5, #92]	; 0x5c
 80038bc:	4631      	mov	r1, r6
 80038be:	4628      	mov	r0, r5
 80038c0:	f7ff ffae 	bl	8003820 <_ZN10LineSearch12process_moveEj>
 80038c4:	2800      	cmp	r0, #0
 80038c6:	d05c      	beq.n	8003982 <_ZN10LineSearch4mainEv+0xfa>
 80038c8:	edd5 7a01 	vldr	s15, [r5, #4]
 80038cc:	9600      	str	r6, [sp, #0]
 80038ce:	eef5 7ac0 	vcmpe.f32	s15, #0.0
 80038d2:	eef1 fa10 	vmrs	APSR_nzcv, fpscr
 80038d6:	bf4b      	itete	mi
 80038d8:	4632      	movmi	r2, r6
 80038da:	4a2b      	ldrpl	r2, [pc, #172]	; (8003988 <_ZN10LineSearch4mainEv+0x100>)
 80038dc:	f06f 01e5 	mvnmi.w	r1, #229	; 0xe5
 80038e0:	4631      	movpl	r1, r6
 80038e2:	2305      	movs	r3, #5
 80038e4:	4620      	mov	r0, r4
 80038e6:	f000 fafb 	bl	8003ee0 <_ZN16PositionControll12set_positionEllib>
 80038ea:	4928      	ldr	r1, [pc, #160]	; (800398c <_ZN10LineSearch4mainEv+0x104>)
 80038ec:	4628      	mov	r0, r5
 80038ee:	f7ff ff97 	bl	8003820 <_ZN10LineSearch12process_moveEj>
 80038f2:	4620      	mov	r0, r4
 80038f4:	f000 fc28 	bl	8004148 <_ZN16PositionControll4stopEv>
 80038f8:	edd5 7a01 	vldr	s15, [r5, #4]
 80038fc:	eef5 7ac0 	vcmpe.f32	s15, #0.0
 8003900:	eef1 fa10 	vmrs	APSR_nzcv, fpscr
 8003904:	f04f 0100 	mov.w	r1, #0
 8003908:	bf58      	it	pl
 800390a:	460a      	movpl	r2, r1
 800390c:	9100      	str	r1, [sp, #0]
 800390e:	bf4c      	ite	mi
 8003910:	f44f 7282 	movmi.w	r2, #260	; 0x104
 8003914:	21e6      	movpl	r1, #230	; 0xe6
 8003916:	4620      	mov	r0, r4
