
bin/main.elf:     file format elf32-littlearm


Disassembly of section .isr_vector:

08000000 <InterruptVector>:
 8000000:	20008000 	andcs	r8, r0, r0
 8000004:	080001b9 	stmdaeq	r0, {r0, r3, r4, r5, r7, r8}
 8000008:	08000189 	stmdaeq	r0, {r0, r3, r7, r8}
 800000c:	080001a9 	stmdaeq	r0, {r0, r3, r5, r7, r8}
 8000010:	08000189 	stmdaeq	r0, {r0, r3, r7, r8}
 8000014:	08000189 	stmdaeq	r0, {r0, r3, r7, r8}
 8000018:	08000189 	stmdaeq	r0, {r0, r3, r7, r8}
 800001c:	00000000 	andeq	r0, r0, r0
 8000020:	00000000 	andeq	r0, r0, r0
 8000024:	00000000 	andeq	r0, r0, r0
 8000028:	00000000 	andeq	r0, r0, r0
 800002c:	08000189 	stmdaeq	r0, {r0, r3, r7, r8}
 8000030:	08000189 	stmdaeq	r0, {r0, r3, r7, r8}
 8000034:	00000000 	andeq	r0, r0, r0
 8000038:	08000189 	stmdaeq	r0, {r0, r3, r7, r8}
 800003c:	08000189 	stmdaeq	r0, {r0, r3, r7, r8}
 8000040:	08000189 	stmdaeq	r0, {r0, r3, r7, r8}
 8000044:	08000189 	stmdaeq	r0, {r0, r3, r7, r8}
 8000048:	08000189 	stmdaeq	r0, {r0, r3, r7, r8}
 800004c:	08000189 	stmdaeq	r0, {r0, r3, r7, r8}
 8000050:	08000189 	stmdaeq	r0, {r0, r3, r7, r8}
 8000054:	08000189 	stmdaeq	r0, {r0, r3, r7, r8}
 8000058:	08000189 	stmdaeq	r0, {r0, r3, r7, r8}
 800005c:	08000189 	stmdaeq	r0, {r0, r3, r7, r8}
 8000060:	08000189 	stmdaeq	r0, {r0, r3, r7, r8}
 8000064:	08000189 	stmdaeq	r0, {r0, r3, r7, r8}
 8000068:	08000189 	stmdaeq	r0, {r0, r3, r7, r8}
 800006c:	08000189 	stmdaeq	r0, {r0, r3, r7, r8}
 8000070:	08000189 	stmdaeq	r0, {r0, r3, r7, r8}
 8000074:	08000189 	stmdaeq	r0, {r0, r3, r7, r8}
 8000078:	08000189 	stmdaeq	r0, {r0, r3, r7, r8}
 800007c:	08000189 	stmdaeq	r0, {r0, r3, r7, r8}
 8000080:	08000189 	stmdaeq	r0, {r0, r3, r7, r8}
 8000084:	08000189 	stmdaeq	r0, {r0, r3, r7, r8}
 8000088:	08000189 	stmdaeq	r0, {r0, r3, r7, r8}
 800008c:	08000189 	stmdaeq	r0, {r0, r3, r7, r8}
 8000090:	08000189 	stmdaeq	r0, {r0, r3, r7, r8}
 8000094:	08000189 	stmdaeq	r0, {r0, r3, r7, r8}
 8000098:	08000189 	stmdaeq	r0, {r0, r3, r7, r8}
 800009c:	08002845 	stmdaeq	r0, {r0, r2, r6, fp, sp}
 80000a0:	08000189 	stmdaeq	r0, {r0, r3, r7, r8}
 80000a4:	08000189 	stmdaeq	r0, {r0, r3, r7, r8}
 80000a8:	08000189 	stmdaeq	r0, {r0, r3, r7, r8}
 80000ac:	08000189 	stmdaeq	r0, {r0, r3, r7, r8}
 80000b0:	08001c7d 	stmdaeq	r0, {r0, r2, r3, r4, r5, r6, sl, fp, ip}
 80000b4:	08000189 	stmdaeq	r0, {r0, r3, r7, r8}
 80000b8:	08000189 	stmdaeq	r0, {r0, r3, r7, r8}
 80000bc:	08000189 	stmdaeq	r0, {r0, r3, r7, r8}
 80000c0:	08000189 	stmdaeq	r0, {r0, r3, r7, r8}
 80000c4:	08000189 	stmdaeq	r0, {r0, r3, r7, r8}
 80000c8:	08000189 	stmdaeq	r0, {r0, r3, r7, r8}
 80000cc:	08000189 	stmdaeq	r0, {r0, r3, r7, r8}
 80000d0:	08000189 	stmdaeq	r0, {r0, r3, r7, r8}
 80000d4:	08000189 	stmdaeq	r0, {r0, r3, r7, r8}
 80000d8:	08000189 	stmdaeq	r0, {r0, r3, r7, r8}
 80000dc:	08000189 	stmdaeq	r0, {r0, r3, r7, r8}
 80000e0:	08002875 	stmdaeq	r0, {r0, r2, r4, r5, r6, fp, sp}
 80000e4:	08000189 	stmdaeq	r0, {r0, r3, r7, r8}
 80000e8:	08000189 	stmdaeq	r0, {r0, r3, r7, r8}
 80000ec:	08000189 	stmdaeq	r0, {r0, r3, r7, r8}
 80000f0:	08000189 	stmdaeq	r0, {r0, r3, r7, r8}
 80000f4:	08000189 	stmdaeq	r0, {r0, r3, r7, r8}
 80000f8:	08000189 	stmdaeq	r0, {r0, r3, r7, r8}
 80000fc:	08000189 	stmdaeq	r0, {r0, r3, r7, r8}
 8000100:	00000000 	andeq	r0, r0, r0
 8000104:	00000000 	andeq	r0, r0, r0
 8000108:	00000000 	andeq	r0, r0, r0
 800010c:	08000189 	stmdaeq	r0, {r0, r3, r7, r8}
 8000110:	08000189 	stmdaeq	r0, {r0, r3, r7, r8}
 8000114:	08000189 	stmdaeq	r0, {r0, r3, r7, r8}
 8000118:	08000189 	stmdaeq	r0, {r0, r3, r7, r8}
 800011c:	08000189 	stmdaeq	r0, {r0, r3, r7, r8}
 8000120:	08000189 	stmdaeq	r0, {r0, r3, r7, r8}
 8000124:	08000189 	stmdaeq	r0, {r0, r3, r7, r8}
 8000128:	08000189 	stmdaeq	r0, {r0, r3, r7, r8}
 800012c:	08000189 	stmdaeq	r0, {r0, r3, r7, r8}
 8000130:	08000189 	stmdaeq	r0, {r0, r3, r7, r8}
 8000134:	08000189 	stmdaeq	r0, {r0, r3, r7, r8}
 8000138:	00000000 	andeq	r0, r0, r0
 800013c:	00000000 	andeq	r0, r0, r0
 8000140:	08000189 	stmdaeq	r0, {r0, r3, r7, r8}
 8000144:	08000189 	stmdaeq	r0, {r0, r3, r7, r8}
 8000148:	08000189 	stmdaeq	r0, {r0, r3, r7, r8}
 800014c:	00000000 	andeq	r0, r0, r0
 8000150:	00000000 	andeq	r0, r0, r0
 8000154:	00000000 	andeq	r0, r0, r0
 8000158:	00000000 	andeq	r0, r0, r0
 800015c:	00000000 	andeq	r0, r0, r0
 8000160:	00000000 	andeq	r0, r0, r0
 8000164:	00000000 	andeq	r0, r0, r0
 8000168:	08000189 	stmdaeq	r0, {r0, r3, r7, r8}
 800016c:	08000189 	stmdaeq	r0, {r0, r3, r7, r8}
 8000170:	08000189 	stmdaeq	r0, {r0, r3, r7, r8}
 8000174:	00000000 	andeq	r0, r0, r0
 8000178:	00000000 	andeq	r0, r0, r0
 800017c:	00000000 	andeq	r0, r0, r0
 8000180:	00000000 	andeq	r0, r0, r0
 8000184:	08000189 	stmdaeq	r0, {r0, r3, r7, r8}

Disassembly of section .text:

08000188 <Default_Handler>:
 8000188:	4668      	mov	r0, sp
 800018a:	f020 0107 	bic.w	r1, r0, #7
 800018e:	468d      	mov	sp, r1
 8000190:	4a03      	ldr	r2, [pc, #12]	; (80001a0 <Default_Handler+0x18>)
 8000192:	4904      	ldr	r1, [pc, #16]	; (80001a4 <Default_Handler+0x1c>)
 8000194:	bf00      	nop
 8000196:	8d13      	ldrh	r3, [r2, #40]	; 0x28
 8000198:	430b      	orrs	r3, r1
 800019a:	b29b      	uxth	r3, r3
 800019c:	8513      	strh	r3, [r2, #40]	; 0x28
 800019e:	e7f9      	b.n	8000194 <Default_Handler+0xc>
 80001a0:	48000400 	stmdami	r0, {sl}
 80001a4:	ffff8000 			; <UNDEFINED> instruction: 0xffff8000

080001a8 <HardFault_Handler>:
 80001a8:	4668      	mov	r0, sp
 80001aa:	f020 0107 	bic.w	r1, r0, #7
 80001ae:	468d      	mov	sp, r1
 80001b0:	b508      	push	{r3, lr}
 80001b2:	f7ff ffe9 	bl	8000188 <Default_Handler>
 80001b6:	0000      	movs	r0, r0

080001b8 <Reset_Handler>:
 80001b8:	4914      	ldr	r1, [pc, #80]	; (800020c <Reset_Handler+0x54>)
 80001ba:	4a15      	ldr	r2, [pc, #84]	; (8000210 <Reset_Handler+0x58>)
 80001bc:	4815      	ldr	r0, [pc, #84]	; (8000214 <Reset_Handler+0x5c>)
 80001be:	1a52      	subs	r2, r2, r1
 80001c0:	1092      	asrs	r2, r2, #2
 80001c2:	2300      	movs	r3, #0
 80001c4:	429a      	cmp	r2, r3
 80001c6:	d115      	bne.n	80001f4 <Reset_Handler+0x3c>
 80001c8:	4a13      	ldr	r2, [pc, #76]	; (8000218 <Reset_Handler+0x60>)
 80001ca:	4e14      	ldr	r6, [pc, #80]	; (800021c <Reset_Handler+0x64>)
 80001cc:	f8d2 3088 	ldr.w	r3, [r2, #136]	; 0x88
 80001d0:	4c13      	ldr	r4, [pc, #76]	; (8000220 <Reset_Handler+0x68>)
 80001d2:	f443 0370 	orr.w	r3, r3, #15728640	; 0xf00000
 80001d6:	f8c2 3088 	str.w	r3, [r2, #136]	; 0x88
 80001da:	f8d2 3234 	ldr.w	r3, [r2, #564]	; 0x234
 80001de:	1ba4      	subs	r4, r4, r6
 80001e0:	f043 4340 	orr.w	r3, r3, #3221225472	; 0xc0000000
 80001e4:	f8c2 3234 	str.w	r3, [r2, #564]	; 0x234
 80001e8:	10a4      	asrs	r4, r4, #2
 80001ea:	2500      	movs	r5, #0
 80001ec:	42ac      	cmp	r4, r5
 80001ee:	d107      	bne.n	8000200 <Reset_Handler+0x48>
 80001f0:	f000 bf46 	b.w	8001080 <main>
 80001f4:	f850 4023 	ldr.w	r4, [r0, r3, lsl #2]
 80001f8:	f841 4023 	str.w	r4, [r1, r3, lsl #2]
 80001fc:	3301      	adds	r3, #1
 80001fe:	e7e1      	b.n	80001c4 <Reset_Handler+0xc>
 8000200:	f856 3025 	ldr.w	r3, [r6, r5, lsl #2]
 8000204:	4798      	blx	r3
 8000206:	3501      	adds	r5, #1
 8000208:	e7f0      	b.n	80001ec <Reset_Handler+0x34>
 800020a:	bf00      	nop
 800020c:	20000000 	andcs	r0, r0, r0
 8000210:	20000000 	andcs	r0, r0, r0
 8000214:	0800446c 	stmdaeq	r0, {r2, r3, r5, r6, sl, lr}
 8000218:	e000ed00 	and	lr, r0, r0, lsl #26
 800021c:	0800446c 	stmdaeq	r0, {r2, r3, r5, r6, sl, lr}
 8000220:	08004474 	stmdaeq	r0, {r2, r4, r5, r6, sl, lr}

08000224 <SystemInit>:
 8000224:	4a38      	ldr	r2, [pc, #224]	; (8000308 <SystemInit+0xe4>)
 8000226:	f8d2 3088 	ldr.w	r3, [r2, #136]	; 0x88
 800022a:	f443 0370 	orr.w	r3, r3, #15728640	; 0xf00000
 800022e:	f8c2 3088 	str.w	r3, [r2, #136]	; 0x88
 8000232:	4b36      	ldr	r3, [pc, #216]	; (800030c <SystemInit+0xe8>)
 8000234:	681a      	ldr	r2, [r3, #0]
 8000236:	f042 0201 	orr.w	r2, r2, #1
 800023a:	601a      	str	r2, [r3, #0]
 800023c:	6859      	ldr	r1, [r3, #4]
 800023e:	4a34      	ldr	r2, [pc, #208]	; (8000310 <SystemInit+0xec>)
 8000240:	400a      	ands	r2, r1
 8000242:	605a      	str	r2, [r3, #4]
 8000244:	681a      	ldr	r2, [r3, #0]
 8000246:	f022 7284 	bic.w	r2, r2, #17301504	; 0x1080000
 800024a:	f422 3280 	bic.w	r2, r2, #65536	; 0x10000
 800024e:	601a      	str	r2, [r3, #0]
 8000250:	681a      	ldr	r2, [r3, #0]
 8000252:	f422 2280 	bic.w	r2, r2, #262144	; 0x40000
 8000256:	601a      	str	r2, [r3, #0]
 8000258:	685a      	ldr	r2, [r3, #4]
 800025a:	f422 02fe 	bic.w	r2, r2, #8323072	; 0x7f0000
 800025e:	605a      	str	r2, [r3, #4]
 8000260:	6ada      	ldr	r2, [r3, #44]	; 0x2c
 8000262:	f022 020f 	bic.w	r2, r2, #15
 8000266:	62da      	str	r2, [r3, #44]	; 0x2c
 8000268:	6b19      	ldr	r1, [r3, #48]	; 0x30
 800026a:	4a2a      	ldr	r2, [pc, #168]	; (8000314 <SystemInit+0xf0>)
 800026c:	b082      	sub	sp, #8
 800026e:	400a      	ands	r2, r1
 8000270:	631a      	str	r2, [r3, #48]	; 0x30
 8000272:	2200      	movs	r2, #0
 8000274:	609a      	str	r2, [r3, #8]
 8000276:	9200      	str	r2, [sp, #0]
 8000278:	9201      	str	r2, [sp, #4]
 800027a:	681a      	ldr	r2, [r3, #0]
 800027c:	f442 3280 	orr.w	r2, r2, #65536	; 0x10000
 8000280:	601a      	str	r2, [r3, #0]
 8000282:	681a      	ldr	r2, [r3, #0]
 8000284:	f402 3200 	and.w	r2, r2, #131072	; 0x20000
 8000288:	9201      	str	r2, [sp, #4]
 800028a:	9a00      	ldr	r2, [sp, #0]
 800028c:	3201      	adds	r2, #1
 800028e:	9200      	str	r2, [sp, #0]
 8000290:	9a01      	ldr	r2, [sp, #4]
 8000292:	b91a      	cbnz	r2, 800029c <SystemInit+0x78>
 8000294:	9a00      	ldr	r2, [sp, #0]
 8000296:	f5b2 4fa0 	cmp.w	r2, #20480	; 0x5000
 800029a:	d1f2      	bne.n	8000282 <SystemInit+0x5e>
 800029c:	681a      	ldr	r2, [r3, #0]
 800029e:	f412 3200 	ands.w	r2, r2, #131072	; 0x20000
 80002a2:	bf18      	it	ne
 80002a4:	2201      	movne	r2, #1
 80002a6:	9201      	str	r2, [sp, #4]
 80002a8:	9a01      	ldr	r2, [sp, #4]
 80002aa:	2a01      	cmp	r2, #1
 80002ac:	d126      	bne.n	80002fc <SystemInit+0xd8>
 80002ae:	4a1a      	ldr	r2, [pc, #104]	; (8000318 <SystemInit+0xf4>)
 80002b0:	2112      	movs	r1, #18
 80002b2:	6011      	str	r1, [r2, #0]
 80002b4:	685a      	ldr	r2, [r3, #4]
 80002b6:	605a      	str	r2, [r3, #4]
 80002b8:	685a      	ldr	r2, [r3, #4]
 80002ba:	605a      	str	r2, [r3, #4]
 80002bc:	685a      	ldr	r2, [r3, #4]
 80002be:	f442 6280 	orr.w	r2, r2, #1024	; 0x400
 80002c2:	605a      	str	r2, [r3, #4]
 80002c4:	685a      	ldr	r2, [r3, #4]
 80002c6:	f422 127c 	bic.w	r2, r2, #4128768	; 0x3f0000
 80002ca:	605a      	str	r2, [r3, #4]
 80002cc:	685a      	ldr	r2, [r3, #4]
 80002ce:	f442 12e8 	orr.w	r2, r2, #1900544	; 0x1d0000
 80002d2:	605a      	str	r2, [r3, #4]
 80002d4:	681a      	ldr	r2, [r3, #0]
 80002d6:	f042 7280 	orr.w	r2, r2, #16777216	; 0x1000000
 80002da:	601a      	str	r2, [r3, #0]
 80002dc:	681a      	ldr	r2, [r3, #0]
 80002de:	0192      	lsls	r2, r2, #6
 80002e0:	d5fc      	bpl.n	80002dc <SystemInit+0xb8>
 80002e2:	685a      	ldr	r2, [r3, #4]
 80002e4:	f022 0203 	bic.w	r2, r2, #3
 80002e8:	605a      	str	r2, [r3, #4]
 80002ea:	685a      	ldr	r2, [r3, #4]
 80002ec:	f042 0202 	orr.w	r2, r2, #2
 80002f0:	605a      	str	r2, [r3, #4]
 80002f2:	685a      	ldr	r2, [r3, #4]
 80002f4:	f002 020c 	and.w	r2, r2, #12
 80002f8:	2a08      	cmp	r2, #8
 80002fa:	d1fa      	bne.n	80002f2 <SystemInit+0xce>
 80002fc:	4b02      	ldr	r3, [pc, #8]	; (8000308 <SystemInit+0xe4>)
 80002fe:	f04f 6200 	mov.w	r2, #134217728	; 0x8000000
 8000302:	609a      	str	r2, [r3, #8]
 8000304:	b002      	add	sp, #8
 8000306:	4770      	bx	lr
 8000308:	e000ed00 	and	lr, r0, r0, lsl #26
 800030c:	40021000 	andmi	r1, r2, r0
 8000310:	f87fc00c 			; <UNDEFINED> instruction: 0xf87fc00c
 8000314:	ff00fccc 			; <UNDEFINED> instruction: 0xff00fccc
 8000318:	40022000 	andmi	r2, r2, r0

0800031c <_ZN12NetReluLayer7forwardEPaS0_>:
 800031c:	2300      	movs	r3, #0
 800031e:	b530      	push	{r4, r5, lr}
 8000320:	461d      	mov	r5, r3
 8000322:	6a84      	ldr	r4, [r0, #40]	; 0x28
 8000324:	429c      	cmp	r4, r3
 8000326:	d906      	bls.n	8000336 <_ZN12NetReluLayer7forwardEPaS0_+0x1a>
 8000328:	56d4      	ldrsb	r4, [r2, r3]
 800032a:	2c00      	cmp	r4, #0
 800032c:	bfb4      	ite	lt
 800032e:	54cd      	strblt	r5, [r1, r3]
 8000330:	54cc      	strbge	r4, [r1, r3]
 8000332:	3301      	adds	r3, #1
 8000334:	e7f5      	b.n	8000322 <_ZN12NetReluLayer7forwardEPaS0_+0x6>
 8000336:	bd30      	pop	{r4, r5, pc}

08000338 <_ZN12NetReluLayerD1Ev>:
 8000338:	b510      	push	{r4, lr}
 800033a:	4b03      	ldr	r3, [pc, #12]	; (8000348 <_ZN12NetReluLayerD1Ev+0x10>)
 800033c:	6003      	str	r3, [r0, #0]
 800033e:	4604      	mov	r4, r0
 8000340:	f000 fc84 	bl	8000c4c <_ZN12NetworkLayerD1Ev>
 8000344:	4620      	mov	r0, r4
 8000346:	bd10      	pop	{r4, pc}
 8000348:	08002ea0 	stmdaeq	r0, {r5, r7, r9, sl, fp, sp}

0800034c <_ZN12NetReluLayerD0Ev>:
 800034c:	b510      	push	{r4, lr}
 800034e:	4604      	mov	r4, r0
 8000350:	f7ff fff2 	bl	8000338 <_ZN12NetReluLayerD1Ev>
 8000354:	4620      	mov	r0, r4
 8000356:	212c      	movs	r1, #44	; 0x2c
 8000358:	f001 fab0 	bl	80018bc <_ZdlPvj>
 800035c:	4620      	mov	r0, r4
 800035e:	bd10      	pop	{r4, pc}

08000360 <_ZN12NetReluLayerC1E14sLayerGeometryS0_S0_>:
 8000360:	b530      	push	{r4, r5, lr}
 8000362:	b085      	sub	sp, #20
 8000364:	4604      	mov	r4, r0
 8000366:	ad01      	add	r5, sp, #4
 8000368:	e885 000e 	stmia.w	r5, {r1, r2, r3}
 800036c:	f000 fc78 	bl	8000c60 <_ZN12NetworkLayerC1Ev>
 8000370:	4623      	mov	r3, r4
 8000372:	4a0d      	ldr	r2, [pc, #52]	; (80003a8 <_ZN12NetReluLayerC1E14sLayerGeometryS0_S0_+0x48>)
 8000374:	f843 2b1c 	str.w	r2, [r3], #28
 8000378:	e895 0007 	ldmia.w	r5, {r0, r1, r2}
 800037c:	e883 0007 	stmia.w	r3, {r0, r1, r2}
 8000380:	aa08      	add	r2, sp, #32
 8000382:	ca07      	ldmia	r2, {r0, r1, r2}
 8000384:	1d23      	adds	r3, r4, #4
 8000386:	e883 0007 	stmia.w	r3, {r0, r1, r2}
 800038a:	aa0b      	add	r2, sp, #44	; 0x2c
 800038c:	ca07      	ldmia	r2, {r0, r1, r2}
 800038e:	f104 0310 	add.w	r3, r4, #16
 8000392:	e883 0007 	stmia.w	r3, {r0, r1, r2}
 8000396:	e9d4 2301 	ldrd	r2, r3, [r4, #4]
 800039a:	435a      	muls	r2, r3
 800039c:	68e3      	ldr	r3, [r4, #12]
 800039e:	4620      	mov	r0, r4
 80003a0:	4353      	muls	r3, r2
 80003a2:	62a3      	str	r3, [r4, #40]	; 0x28
 80003a4:	b005      	add	sp, #20
 80003a6:	bd30      	pop	{r4, r5, pc}
 80003a8:	08002ea0 	stmdaeq	r0, {r5, r7, r9, sl, fp, sp}

080003ac <_ZN24NetDenseConvolutionLayerD1Ev>:
 80003ac:	b510      	push	{r4, lr}
 80003ae:	4b03      	ldr	r3, [pc, #12]	; (80003bc <_ZN24NetDenseConvolutionLayerD1Ev+0x10>)
 80003b0:	6003      	str	r3, [r0, #0]
 80003b2:	4604      	mov	r4, r0
 80003b4:	f000 fc4a 	bl	8000c4c <_ZN12NetworkLayerD1Ev>
 80003b8:	4620      	mov	r0, r4
 80003ba:	bd10      	pop	{r4, pc}
 80003bc:	08002eb4 	stmdaeq	r0, {r2, r4, r5, r7, r9, sl, fp, sp}

080003c0 <_ZN24NetDenseConvolutionLayerD0Ev>:
 80003c0:	b510      	push	{r4, lr}
 80003c2:	4604      	mov	r4, r0
 80003c4:	f7ff fff2 	bl	80003ac <_ZN24NetDenseConvolutionLayerD1Ev>
 80003c8:	4620      	mov	r0, r4
 80003ca:	2138      	movs	r1, #56	; 0x38
 80003cc:	f001 fa76 	bl	80018bc <_ZdlPvj>
 80003d0:	4620      	mov	r0, r4
 80003d2:	bd10      	pop	{r4, pc}

080003d4 <_ZN24NetDenseConvolutionLayer7forwardEPaS0_>:
 80003d4:	b570      	push	{r4, r5, r6, lr}
 80003d6:	4616      	mov	r6, r2
 80003d8:	f100 021c 	add.w	r2, r0, #28
 80003dc:	4604      	mov	r4, r0
 80003de:	460d      	mov	r5, r1
 80003e0:	ca07      	ldmia	r2, {r0, r1, r2}
 80003e2:	b088      	sub	sp, #32
 80003e4:	ab05      	add	r3, sp, #20
 80003e6:	e883 0007 	stmia.w	r3, {r0, r1, r2}
 80003ea:	1d22      	adds	r2, r4, #4
 80003ec:	ca07      	ldmia	r2, {r0, r1, r2}
 80003ee:	ab02      	add	r3, sp, #8
 80003f0:	e883 0007 	stmia.w	r3, {r0, r1, r2}
 80003f4:	6b63      	ldr	r3, [r4, #52]	; 0x34
 80003f6:	9301      	str	r3, [sp, #4]
 80003f8:	6b23      	ldr	r3, [r4, #48]	; 0x30
 80003fa:	9300      	str	r3, [sp, #0]
 80003fc:	4631      	mov	r1, r6
 80003fe:	e9d4 230a 	ldrd	r2, r3, [r4, #40]	; 0x28
 8000402:	4628      	mov	r0, r5
 8000404:	f000 fba2 	bl	8000b4c <_Z26network_convolution_kernelPaS_S_S_ii14sLayerGeometryS0_>
 8000408:	e9d4 3101 	ldrd	r3, r1, [r4, #4]
 800040c:	4359      	muls	r1, r3
 800040e:	6a63      	ldr	r3, [r4, #36]	; 0x24
 8000410:	fb03 5101 	mla	r1, r3, r1, r5
 8000414:	3e01      	subs	r6, #1
 8000416:	460b      	mov	r3, r1
 8000418:	e9d4 5001 	ldrd	r5, r0, [r4, #4]
 800041c:	4345      	muls	r5, r0
 800041e:	68e0      	ldr	r0, [r4, #12]
 8000420:	1a5a      	subs	r2, r3, r1
 8000422:	4368      	muls	r0, r5
 8000424:	4290      	cmp	r0, r2
 8000426:	d904      	bls.n	8000432 <_ZN24NetDenseConvolutionLayer7forwardEPaS0_+0x5e>
 8000428:	f916 2f01 	ldrsb.w	r2, [r6, #1]!
 800042c:	f803 2b01 	strb.w	r2, [r3], #1
 8000430:	e7f2      	b.n	8000418 <_ZN24NetDenseConvolutionLayer7forwardEPaS0_+0x44>
 8000432:	b008      	add	sp, #32
 8000434:	bd70      	pop	{r4, r5, r6, pc}
 8000436:	0000      	movs	r0, r0

08000438 <_ZN24NetDenseConvolutionLayerC1E14sLayerGeometryS0_S0_PKaS2_ii>:
 8000438:	b530      	push	{r4, r5, lr}
 800043a:	b085      	sub	sp, #20
 800043c:	4604      	mov	r4, r0
 800043e:	ad01      	add	r5, sp, #4
 8000440:	e885 000e 	stmia.w	r5, {r1, r2, r3}
 8000444:	f000 fc0c 	bl	8000c60 <_ZN12NetworkLayerC1Ev>
 8000448:	4623      	mov	r3, r4
 800044a:	4a0e      	ldr	r2, [pc, #56]	; (8000484 <_ZN24NetDenseConvolutionLayerC1E14sLayerGeometryS0_S0_PKaS2_ii+0x4c>)
 800044c:	f843 2b1c 	str.w	r2, [r3], #28
 8000450:	e895 0007 	ldmia.w	r5, {r0, r1, r2}
 8000454:	e883 0007 	stmia.w	r3, {r0, r1, r2}
 8000458:	aa08      	add	r2, sp, #32
 800045a:	ca07      	ldmia	r2, {r0, r1, r2}
 800045c:	1d23      	adds	r3, r4, #4
 800045e:	e883 0007 	stmia.w	r3, {r0, r1, r2}
 8000462:	aa0b      	add	r2, sp, #44	; 0x2c
 8000464:	ca07      	ldmia	r2, {r0, r1, r2}
 8000466:	f104 0310 	add.w	r3, r4, #16
 800046a:	e883 0007 	stmia.w	r3, {r0, r1, r2}
 800046e:	9b0e      	ldr	r3, [sp, #56]	; 0x38
 8000470:	62a3      	str	r3, [r4, #40]	; 0x28
 8000472:	9b0f      	ldr	r3, [sp, #60]	; 0x3c
 8000474:	62e3      	str	r3, [r4, #44]	; 0x2c
 8000476:	9b10      	ldr	r3, [sp, #64]	; 0x40
 8000478:	6323      	str	r3, [r4, #48]	; 0x30
 800047a:	9b11      	ldr	r3, [sp, #68]	; 0x44
 800047c:	6363      	str	r3, [r4, #52]	; 0x34
 800047e:	4620      	mov	r0, r4
 8000480:	b005      	add	sp, #20
 8000482:	bd30      	pop	{r4, r5, pc}
 8000484:	08002eb4 	stmdaeq	r0, {r2, r4, r5, r7, r9, sl, fp, sp}

08000488 <_ZN19NetConvolutionLayerD1Ev>:
 8000488:	b510      	push	{r4, lr}
 800048a:	4b03      	ldr	r3, [pc, #12]	; (8000498 <_ZN19NetConvolutionLayerD1Ev+0x10>)
 800048c:	6003      	str	r3, [r0, #0]
 800048e:	4604      	mov	r4, r0
 8000490:	f000 fbdc 	bl	8000c4c <_ZN12NetworkLayerD1Ev>
 8000494:	4620      	mov	r0, r4
 8000496:	bd10      	pop	{r4, pc}
 8000498:	08002ec8 	stmdaeq	r0, {r3, r6, r7, r9, sl, fp, sp}

0800049c <_ZN19NetConvolutionLayerD0Ev>:
 800049c:	b510      	push	{r4, lr}
 800049e:	4604      	mov	r4, r0
 80004a0:	f7ff fff2 	bl	8000488 <_ZN19NetConvolutionLayerD1Ev>
 80004a4:	4620      	mov	r0, r4
 80004a6:	2138      	movs	r1, #56	; 0x38
 80004a8:	f001 fa08 	bl	80018bc <_ZdlPvj>
 80004ac:	4620      	mov	r0, r4
 80004ae:	bd10      	pop	{r4, pc}

080004b0 <_ZN19NetConvolutionLayer7forwardEPaS0_>:
 80004b0:	b570      	push	{r4, r5, r6, lr}
 80004b2:	4616      	mov	r6, r2
 80004b4:	f100 021c 	add.w	r2, r0, #28
 80004b8:	4604      	mov	r4, r0
 80004ba:	460d      	mov	r5, r1
 80004bc:	ca07      	ldmia	r2, {r0, r1, r2}
 80004be:	b088      	sub	sp, #32
 80004c0:	ab05      	add	r3, sp, #20
 80004c2:	e883 0007 	stmia.w	r3, {r0, r1, r2}
 80004c6:	1d22      	adds	r2, r4, #4
 80004c8:	ca07      	ldmia	r2, {r0, r1, r2}
 80004ca:	ab02      	add	r3, sp, #8
 80004cc:	e883 0007 	stmia.w	r3, {r0, r1, r2}
 80004d0:	6b63      	ldr	r3, [r4, #52]	; 0x34
 80004d2:	9301      	str	r3, [sp, #4]
 80004d4:	6b23      	ldr	r3, [r4, #48]	; 0x30
 80004d6:	9300      	str	r3, [sp, #0]
 80004d8:	4631      	mov	r1, r6
 80004da:	e9d4 230a 	ldrd	r2, r3, [r4, #40]	; 0x28
 80004de:	4628      	mov	r0, r5
 80004e0:	f000 fb34 	bl	8000b4c <_Z26network_convolution_kernelPaS_S_S_ii14sLayerGeometryS0_>
 80004e4:	b008      	add	sp, #32
 80004e6:	bd70      	pop	{r4, r5, r6, pc}

080004e8 <_ZN19NetConvolutionLayerC1E14sLayerGeometryS0_S0_PKaS2_ii>:
 80004e8:	b530      	push	{r4, r5, lr}
 80004ea:	b085      	sub	sp, #20
 80004ec:	4604      	mov	r4, r0
 80004ee:	ad01      	add	r5, sp, #4
 80004f0:	e885 000e 	stmia.w	r5, {r1, r2, r3}
 80004f4:	f000 fbb4 	bl	8000c60 <_ZN12NetworkLayerC1Ev>
 80004f8:	4623      	mov	r3, r4
 80004fa:	4a0e      	ldr	r2, [pc, #56]	; (8000534 <_ZN19NetConvolutionLayerC1E14sLayerGeometryS0_S0_PKaS2_ii+0x4c>)
 80004fc:	f843 2b1c 	str.w	r2, [r3], #28
 8000500:	e895 0007 	ldmia.w	r5, {r0, r1, r2}
 8000504:	e883 0007 	stmia.w	r3, {r0, r1, r2}
 8000508:	aa08      	add	r2, sp, #32
 800050a:	ca07      	ldmia	r2, {r0, r1, r2}
 800050c:	1d23      	adds	r3, r4, #4
 800050e:	e883 0007 	stmia.w	r3, {r0, r1, r2}
 8000512:	aa0b      	add	r2, sp, #44	; 0x2c
 8000514:	ca07      	ldmia	r2, {r0, r1, r2}
 8000516:	f104 0310 	add.w	r3, r4, #16
 800051a:	e883 0007 	stmia.w	r3, {r0, r1, r2}
 800051e:	9b0e      	ldr	r3, [sp, #56]	; 0x38
 8000520:	62a3      	str	r3, [r4, #40]	; 0x28
 8000522:	9b0f      	ldr	r3, [sp, #60]	; 0x3c
 8000524:	62e3      	str	r3, [r4, #44]	; 0x2c
 8000526:	9b10      	ldr	r3, [sp, #64]	; 0x40
 8000528:	6323      	str	r3, [r4, #48]	; 0x30
 800052a:	9b11      	ldr	r3, [sp, #68]	; 0x44
 800052c:	6363      	str	r3, [r4, #52]	; 0x34
 800052e:	4620      	mov	r0, r4
 8000530:	b005      	add	sp, #20
 8000532:	bd30      	pop	{r4, r5, pc}
 8000534:	08002ec8 	stmdaeq	r0, {r3, r6, r7, r9, sl, fp, sp}

08000538 <_ZN10NetFcLayerD1Ev>:
 8000538:	b510      	push	{r4, lr}
 800053a:	4b03      	ldr	r3, [pc, #12]	; (8000548 <_ZN10NetFcLayerD1Ev+0x10>)
 800053c:	6003      	str	r3, [r0, #0]
 800053e:	4604      	mov	r4, r0
 8000540:	f000 fb84 	bl	8000c4c <_ZN12NetworkLayerD1Ev>
 8000544:	4620      	mov	r0, r4
 8000546:	bd10      	pop	{r4, pc}
 8000548:	08002edc 	stmdaeq	r0, {r2, r3, r4, r6, r7, r9, sl, fp, sp}

0800054c <_ZN10NetFcLayerD0Ev>:
 800054c:	b510      	push	{r4, lr}
 800054e:	4604      	mov	r4, r0
 8000550:	f7ff fff2 	bl	8000538 <_ZN10NetFcLayerD1Ev>
 8000554:	4620      	mov	r0, r4
 8000556:	2140      	movs	r1, #64	; 0x40
 8000558:	f001 f9b0 	bl	80018bc <_ZdlPvj>
 800055c:	4620      	mov	r0, r4
 800055e:	bd10      	pop	{r4, pc}

08000560 <_ZN10NetFcLayer7forwardEPaS0_>:
 8000560:	e92d 4ff8 	stmdb	sp!, {r3, r4, r5, r6, r7, r8, r9, sl, fp, lr}
 8000564:	4604      	mov	r4, r0
 8000566:	460e      	mov	r6, r1
 8000568:	4692      	mov	sl, r2
 800056a:	460d      	mov	r5, r1
 800056c:	f04f 0980 	mov.w	r9, #128	; 0x80
 8000570:	f44f 6880 	mov.w	r8, #1024	; 0x400
 8000574:	f06f 077e 	mvn.w	r7, #126	; 0x7e
 8000578:	6ba3      	ldr	r3, [r4, #56]	; 0x38
 800057a:	eba5 0b06 	sub.w	fp, r5, r6
 800057e:	455b      	cmp	r3, fp
 8000580:	d91b      	bls.n	80005ba <_ZN10NetFcLayer7forwardEPaS0_+0x5a>
 8000582:	6be2      	ldr	r2, [r4, #60]	; 0x3c
 8000584:	6aa0      	ldr	r0, [r4, #40]	; 0x28
 8000586:	4651      	mov	r1, sl
 8000588:	fb0b 0002 	mla	r0, fp, r2, r0
 800058c:	f000 f84c 	bl	8000628 <_Z18network_dot_kernelPaS_j>
 8000590:	6b23      	ldr	r3, [r4, #48]	; 0x30
 8000592:	6b62      	ldr	r2, [r4, #52]	; 0x34
 8000594:	4358      	muls	r0, r3
 8000596:	6ae3      	ldr	r3, [r4, #44]	; 0x2c
 8000598:	fb90 f0f9 	sdiv	r0, r0, r9
 800059c:	f913 300b 	ldrsb.w	r3, [r3, fp]
 80005a0:	fb02 0003 	mla	r0, r2, r3, r0
 80005a4:	fb90 f0f8 	sdiv	r0, r0, r8
 80005a8:	42b8      	cmp	r0, r7
 80005aa:	bfb8      	it	lt
 80005ac:	4638      	movlt	r0, r7
 80005ae:	287f      	cmp	r0, #127	; 0x7f
 80005b0:	bfa8      	it	ge
 80005b2:	207f      	movge	r0, #127	; 0x7f
 80005b4:	f805 0b01 	strb.w	r0, [r5], #1
 80005b8:	e7de      	b.n	8000578 <_ZN10NetFcLayer7forwardEPaS0_+0x18>
 80005ba:	e8bd 8ff8 	ldmia.w	sp!, {r3, r4, r5, r6, r7, r8, r9, sl, fp, pc}
 80005be:	0000      	movs	r0, r0

080005c0 <_ZN10NetFcLayerC1E14sLayerGeometryS0_S0_PKaS2_ii>:
 80005c0:	b530      	push	{r4, r5, lr}
 80005c2:	b085      	sub	sp, #20
 80005c4:	4604      	mov	r4, r0
 80005c6:	ad01      	add	r5, sp, #4
 80005c8:	e885 000e 	stmia.w	r5, {r1, r2, r3}
 80005cc:	f000 fb48 	bl	8000c60 <_ZN12NetworkLayerC1Ev>
 80005d0:	4623      	mov	r3, r4
 80005d2:	4a14      	ldr	r2, [pc, #80]	; (8000624 <_ZN10NetFcLayerC1E14sLayerGeometryS0_S0_PKaS2_ii+0x64>)
 80005d4:	f843 2b1c 	str.w	r2, [r3], #28
 80005d8:	e895 0007 	ldmia.w	r5, {r0, r1, r2}
 80005dc:	e883 0007 	stmia.w	r3, {r0, r1, r2}
 80005e0:	aa08      	add	r2, sp, #32
 80005e2:	ca07      	ldmia	r2, {r0, r1, r2}
 80005e4:	1d23      	adds	r3, r4, #4
 80005e6:	e883 0007 	stmia.w	r3, {r0, r1, r2}
 80005ea:	aa0b      	add	r2, sp, #44	; 0x2c
 80005ec:	ca07      	ldmia	r2, {r0, r1, r2}
 80005ee:	f104 0310 	add.w	r3, r4, #16
 80005f2:	e883 0007 	stmia.w	r3, {r0, r1, r2}
 80005f6:	9b0e      	ldr	r3, [sp, #56]	; 0x38
 80005f8:	62a3      	str	r3, [r4, #40]	; 0x28
 80005fa:	9b0f      	ldr	r3, [sp, #60]	; 0x3c
 80005fc:	62e3      	str	r3, [r4, #44]	; 0x2c
 80005fe:	9b10      	ldr	r3, [sp, #64]	; 0x40
 8000600:	6323      	str	r3, [r4, #48]	; 0x30
 8000602:	9b11      	ldr	r3, [sp, #68]	; 0x44
 8000604:	6363      	str	r3, [r4, #52]	; 0x34
 8000606:	e9d4 2301 	ldrd	r2, r3, [r4, #4]
 800060a:	435a      	muls	r2, r3
 800060c:	68e3      	ldr	r3, [r4, #12]
 800060e:	4353      	muls	r3, r2
 8000610:	63e3      	str	r3, [r4, #60]	; 0x3c
 8000612:	6963      	ldr	r3, [r4, #20]
 8000614:	4602      	mov	r2, r0
 8000616:	435a      	muls	r2, r3
 8000618:	69a3      	ldr	r3, [r4, #24]
 800061a:	4620      	mov	r0, r4
 800061c:	4353      	muls	r3, r2
 800061e:	63a3      	str	r3, [r4, #56]	; 0x38
 8000620:	b005      	add	sp, #20
 8000622:	bd30      	pop	{r4, r5, pc}
 8000624:	08002edc 	stmdaeq	r0, {r2, r3, r4, r6, r7, r9, sl, fp, sp}

08000628 <_Z18network_dot_kernelPaS_j>:
 8000628:	2300      	movs	r3, #0
 800062a:	b570      	push	{r4, r5, r6, lr}
 800062c:	4606      	mov	r6, r0
 800062e:	4618      	mov	r0, r3
 8000630:	4293      	cmp	r3, r2
 8000632:	d005      	beq.n	8000640 <_Z18network_dot_kernelPaS_j+0x18>
 8000634:	56f5      	ldrsb	r5, [r6, r3]
 8000636:	56cc      	ldrsb	r4, [r1, r3]
 8000638:	3301      	adds	r3, #1
 800063a:	fb15 0004 	smlabb	r0, r5, r4, r0
 800063e:	e7f7      	b.n	8000630 <_Z18network_dot_kernelPaS_j+0x8>
 8000640:	bd70      	pop	{r4, r5, r6, pc}

08000642 <_ZN13NeuralNetwork9set_inputEPa>:
 8000642:	e9d0 2322 	ldrd	r2, r3, [r0, #136]	; 0x88
 8000646:	b530      	push	{r4, r5, lr}
 8000648:	435a      	muls	r2, r3
 800064a:	f8d0 3090 	ldr.w	r3, [r0, #144]	; 0x90
 800064e:	435a      	muls	r2, r3
 8000650:	2300      	movs	r3, #0
 8000652:	4293      	cmp	r3, r2
 8000654:	d005      	beq.n	8000662 <_ZN13NeuralNetwork9set_inputEPa+0x20>
 8000656:	f8d0 40a8 	ldr.w	r4, [r0, #168]	; 0xa8
 800065a:	56cd      	ldrsb	r5, [r1, r3]
 800065c:	54e5      	strb	r5, [r4, r3]
 800065e:	3301      	adds	r3, #1
 8000660:	e7f7      	b.n	8000652 <_ZN13NeuralNetwork9set_inputEPa+0x10>
 8000662:	bd30      	pop	{r4, r5, pc}

08000664 <_ZN13NeuralNetworkD1Ev>:
 8000664:	4b07      	ldr	r3, [pc, #28]	; (8000684 <_ZN13NeuralNetworkD1Ev+0x20>)
 8000666:	b510      	push	{r4, lr}
 8000668:	4604      	mov	r4, r0
 800066a:	6003      	str	r3, [r0, #0]
 800066c:	f8d0 00a0 	ldr.w	r0, [r0, #160]	; 0xa0
 8000670:	b108      	cbz	r0, 8000676 <_ZN13NeuralNetworkD1Ev+0x12>
 8000672:	f001 f92d 	bl	80018d0 <_ZdaPv>
 8000676:	f8d4 00a4 	ldr.w	r0, [r4, #164]	; 0xa4
 800067a:	b108      	cbz	r0, 8000680 <_ZN13NeuralNetworkD1Ev+0x1c>
 800067c:	f001 f928 	bl	80018d0 <_ZdaPv>
 8000680:	4620      	mov	r0, r4
 8000682:	bd10      	pop	{r4, pc}
 8000684:	08002ef0 	stmdaeq	r0, {r4, r5, r6, r7, r9, sl, fp, sp}

08000688 <_ZN13NeuralNetworkD0Ev>:
 8000688:	b510      	push	{r4, lr}
 800068a:	4604      	mov	r4, r0
 800068c:	f7ff ffea 	bl	8000664 <_ZN13NeuralNetworkD1Ev>
 8000690:	4620      	mov	r0, r4
 8000692:	21b0      	movs	r1, #176	; 0xb0
 8000694:	f001 f912 	bl	80018bc <_ZdlPvj>
 8000698:	4620      	mov	r0, r4
 800069a:	bd10      	pop	{r4, pc}

0800069c <_ZN13NeuralNetworkC1Ev>:
 800069c:	4b0a      	ldr	r3, [pc, #40]	; (80006c8 <_ZN13NeuralNetworkC1Ev+0x2c>)
 800069e:	6003      	str	r3, [r0, #0]
 80006a0:	2300      	movs	r3, #0
 80006a2:	e9c0 3322 	strd	r3, r3, [r0, #136]	; 0x88
 80006a6:	e9c0 3324 	strd	r3, r3, [r0, #144]	; 0x90
 80006aa:	e9c0 3326 	strd	r3, r3, [r0, #152]	; 0x98
 80006ae:	f100 0208 	add.w	r2, r0, #8
 80006b2:	f100 0188 	add.w	r1, r0, #136	; 0x88
 80006b6:	f842 3b04 	str.w	r3, [r2], #4
 80006ba:	428a      	cmp	r2, r1
 80006bc:	d1fb      	bne.n	80006b6 <_ZN13NeuralNetworkC1Ev+0x1a>
 80006be:	6043      	str	r3, [r0, #4]
 80006c0:	e9c0 3328 	strd	r3, r3, [r0, #160]	; 0xa0
 80006c4:	4770      	bx	lr
 80006c6:	bf00      	nop
 80006c8:	08002ef0 	stmdaeq	r0, {r4, r5, r6, r7, r9, sl, fp, sp}

080006cc <_ZN13NeuralNetwork7forwardEv>:
 80006cc:	e92d 41f0 	stmdb	sp!, {r4, r5, r6, r7, r8, lr}
 80006d0:	2500      	movs	r5, #0
 80006d2:	4604      	mov	r4, r0
 80006d4:	f100 0608 	add.w	r6, r0, #8
 80006d8:	46a8      	mov	r8, r5
 80006da:	6863      	ldr	r3, [r4, #4]
 80006dc:	42ab      	cmp	r3, r5
 80006de:	d91d      	bls.n	800071c <_ZN13NeuralNetwork7forwardEv+0x50>
 80006e0:	2300      	movs	r3, #0
 80006e2:	6830      	ldr	r0, [r6, #0]
 80006e4:	f8d4 10ac 	ldr.w	r1, [r4, #172]	; 0xac
 80006e8:	6942      	ldr	r2, [r0, #20]
 80006ea:	4617      	mov	r7, r2
 80006ec:	6902      	ldr	r2, [r0, #16]
 80006ee:	fb07 fc02 	mul.w	ip, r7, r2
 80006f2:	6982      	ldr	r2, [r0, #24]
 80006f4:	fb02 f20c 	mul.w	r2, r2, ip
 80006f8:	4293      	cmp	r3, r2
 80006fa:	d203      	bcs.n	8000704 <_ZN13NeuralNetwork7forwardEv+0x38>
 80006fc:	f801 8003 	strb.w	r8, [r1, r3]
 8000700:	3301      	adds	r3, #1
 8000702:	e7ee      	b.n	80006e2 <_ZN13NeuralNetwork7forwardEv+0x16>
 8000704:	6803      	ldr	r3, [r0, #0]
 8000706:	f8d4 20a8 	ldr.w	r2, [r4, #168]	; 0xa8
 800070a:	689b      	ldr	r3, [r3, #8]
 800070c:	4798      	blx	r3
 800070e:	e9d4 322a 	ldrd	r3, r2, [r4, #168]	; 0xa8
 8000712:	3501      	adds	r5, #1
 8000714:	e9c4 232a 	strd	r2, r3, [r4, #168]	; 0xa8
 8000718:	3604      	adds	r6, #4
 800071a:	e7de      	b.n	80006da <_ZN13NeuralNetwork7forwardEv+0xe>
 800071c:	e9d4 322a 	ldrd	r3, r2, [r4, #168]	; 0xa8
 8000720:	e9c4 232a 	strd	r2, r3, [r4, #168]	; 0xa8
 8000724:	e8bd 81f0 	ldmia.w	sp!, {r4, r5, r6, r7, r8, pc}

08000728 <_ZN13NeuralNetwork12class_resultEv>:
 8000728:	e9d0 3225 	ldrd	r3, r2, [r0, #148]	; 0x94
 800072c:	b530      	push	{r4, r5, lr}
 800072e:	4353      	muls	r3, r2
 8000730:	f8d0 10ac 	ldr.w	r1, [r0, #172]	; 0xac
 8000734:	f8d0 209c 	ldr.w	r2, [r0, #156]	; 0x9c
 8000738:	f991 4000 	ldrsb.w	r4, [r1]
 800073c:	435a      	muls	r2, r3
 800073e:	2300      	movs	r3, #0
 8000740:	4618      	mov	r0, r3
 8000742:	4293      	cmp	r3, r2
 8000744:	d006      	beq.n	8000754 <_ZN13NeuralNetwork12class_resultEv+0x2c>
 8000746:	56cd      	ldrsb	r5, [r1, r3]
 8000748:	42a5      	cmp	r5, r4
 800074a:	bfc4      	itt	gt
 800074c:	4618      	movgt	r0, r3
 800074e:	462c      	movgt	r4, r5
 8000750:	3301      	adds	r3, #1
 8000752:	e7f6      	b.n	8000742 <_ZN13NeuralNetwork12class_resultEv+0x1a>
 8000754:	bd30      	pop	{r4, r5, pc}

08000756 <_ZN13NeuralNetwork24get_required_buffer_sizeEv>:
 8000756:	b570      	push	{r4, r5, r6, lr}
 8000758:	6845      	ldr	r5, [r0, #4]
 800075a:	f100 0108 	add.w	r1, r0, #8
 800075e:	eb01 0585 	add.w	r5, r1, r5, lsl #2
 8000762:	2000      	movs	r0, #0
 8000764:	42a9      	cmp	r1, r5
 8000766:	d012      	beq.n	800078e <_ZN13NeuralNetwork24get_required_buffer_sizeEv+0x38>
 8000768:	f851 3b04 	ldr.w	r3, [r1], #4
 800076c:	e9d3 4201 	ldrd	r4, r2, [r3, #4]
 8000770:	4354      	muls	r4, r2
 8000772:	68da      	ldr	r2, [r3, #12]
 8000774:	4362      	muls	r2, r4
 8000776:	e9d3 6404 	ldrd	r6, r4, [r3, #16]
 800077a:	699b      	ldr	r3, [r3, #24]
 800077c:	4374      	muls	r4, r6
 800077e:	4363      	muls	r3, r4
 8000780:	429a      	cmp	r2, r3
 8000782:	bf38      	it	cc
 8000784:	461a      	movcc	r2, r3
 8000786:	4290      	cmp	r0, r2
 8000788:	bf38      	it	cc
 800078a:	4610      	movcc	r0, r2
 800078c:	e7ea      	b.n	8000764 <_ZN13NeuralNetwork24get_required_buffer_sizeEv+0xe>
 800078e:	bd70      	pop	{r4, r5, r6, pc}

08000790 <_ZN13NeuralNetwork15allocate_bufferEv>:
 8000790:	f8d0 30a0 	ldr.w	r3, [r0, #160]	; 0xa0
 8000794:	b570      	push	{r4, r5, r6, lr}
 8000796:	4605      	mov	r5, r0
 8000798:	b9f3      	cbnz	r3, 80007d8 <_ZN13NeuralNetwork15allocate_bufferEv+0x48>
 800079a:	f8d0 40a4 	ldr.w	r4, [r0, #164]	; 0xa4
 800079e:	b9dc      	cbnz	r4, 80007d8 <_ZN13NeuralNetwork15allocate_bufferEv+0x48>
 80007a0:	f7ff ffd9 	bl	8000756 <_ZN13NeuralNetwork24get_required_buffer_sizeEv>
 80007a4:	4606      	mov	r6, r0
 80007a6:	f001 f88b 	bl	80018c0 <_Znaj>
 80007aa:	f8c5 00a0 	str.w	r0, [r5, #160]	; 0xa0
 80007ae:	4630      	mov	r0, r6
 80007b0:	f001 f886 	bl	80018c0 <_Znaj>
 80007b4:	f8d5 30a0 	ldr.w	r3, [r5, #160]	; 0xa0
 80007b8:	f8c5 00a4 	str.w	r0, [r5, #164]	; 0xa4
 80007bc:	e9c5 302a 	strd	r3, r0, [r5, #168]	; 0xa8
 80007c0:	4622      	mov	r2, r4
 80007c2:	4623      	mov	r3, r4
 80007c4:	429e      	cmp	r6, r3
 80007c6:	d007      	beq.n	80007d8 <_ZN13NeuralNetwork15allocate_bufferEv+0x48>
 80007c8:	f8d5 10a0 	ldr.w	r1, [r5, #160]	; 0xa0
 80007cc:	54ca      	strb	r2, [r1, r3]
 80007ce:	f8d5 10a4 	ldr.w	r1, [r5, #164]	; 0xa4
 80007d2:	54ca      	strb	r2, [r1, r3]
 80007d4:	3301      	adds	r3, #1
 80007d6:	e7f5      	b.n	80007c4 <_ZN13NeuralNetwork15allocate_bufferEv+0x34>
 80007d8:	bd70      	pop	{r4, r5, r6, pc}

080007da <_Z28t_network_convolution_kernelILj3EEvPaS0_S0_S0_iijjjj>:
 80007da:	e92d 4ff0 	stmdb	sp!, {r4, r5, r6, r7, r8, r9, sl, fp, lr}
 80007de:	b08b      	sub	sp, #44	; 0x2c
 80007e0:	9109      	str	r1, [sp, #36]	; 0x24
 80007e2:	e9dd 4116 	ldrd	r4, r1, [sp, #88]	; 0x58
 80007e6:	1e8e      	subs	r6, r1, #2
 80007e8:	4361      	muls	r1, r4
 80007ea:	9104      	str	r1, [sp, #16]
 80007ec:	1901      	adds	r1, r0, r4
 80007ee:	9d18      	ldr	r5, [sp, #96]	; 0x60
 80007f0:	9102      	str	r1, [sp, #8]
 80007f2:	9919      	ldr	r1, [sp, #100]	; 0x64
 80007f4:	9605      	str	r6, [sp, #20]
 80007f6:	1ea6      	subs	r6, r4, #2
 80007f8:	1859      	adds	r1, r3, r1
 80007fa:	9606      	str	r6, [sp, #24]
 80007fc:	eb05 05c5 	add.w	r5, r5, r5, lsl #3
 8000800:	f102 0609 	add.w	r6, r2, #9
 8000804:	442e      	add	r6, r5
 8000806:	9108      	str	r1, [sp, #32]
 8000808:	0061      	lsls	r1, r4, #1
 800080a:	9200      	str	r2, [sp, #0]
 800080c:	9601      	str	r6, [sp, #4]
 800080e:	9107      	str	r1, [sp, #28]
 8000810:	9908      	ldr	r1, [sp, #32]
 8000812:	428b      	cmp	r3, r1
 8000814:	d07e      	beq.n	8000914 <_Z28t_network_convolution_kernelILj3EEvPaS0_S0_S0_iijjjj+0x13a>
 8000816:	f8dd e024 	ldr.w	lr, [sp, #36]	; 0x24
 800081a:	f8dd 8008 	ldr.w	r8, [sp, #8]
 800081e:	f04f 0c00 	mov.w	ip, #0
 8000822:	f8cd 800c 	str.w	r8, [sp, #12]
 8000826:	2700      	movs	r7, #0
 8000828:	9900      	ldr	r1, [sp, #0]
 800082a:	eb07 000e 	add.w	r0, r7, lr
 800082e:	2600      	movs	r6, #0
 8000830:	9a01      	ldr	r2, [sp, #4]
 8000832:	3109      	adds	r1, #9
 8000834:	4291      	cmp	r1, r2
 8000836:	d03c      	beq.n	80008b2 <_Z28t_network_convolution_kernelILj3EEvPaS0_S0_S0_iijjjj+0xd8>
 8000838:	f990 b000 	ldrsb.w	fp, [r0]
 800083c:	f911 ac09 	ldrsb.w	sl, [r1, #-9]
 8000840:	f911 9c07 	ldrsb.w	r9, [r1, #-7]
 8000844:	9a07      	ldr	r2, [sp, #28]
 8000846:	fb1a 660b 	smlabb	r6, sl, fp, r6
 800084a:	f990 b001 	ldrsb.w	fp, [r0, #1]
 800084e:	f911 ac08 	ldrsb.w	sl, [r1, #-8]
 8000852:	fb1a 660b 	smlabb	r6, sl, fp, r6
 8000856:	f990 b002 	ldrsb.w	fp, [r0, #2]
 800085a:	fb19 6b0b 	smlabb	fp, r9, fp, r6
 800085e:	f911 9c06 	ldrsb.w	r9, [r1, #-6]
 8000862:	5706      	ldrsb	r6, [r0, r4]
 8000864:	fb19 b606 	smlabb	r6, r9, r6, fp
 8000868:	eb00 0904 	add.w	r9, r0, r4
 800086c:	f911 bc05 	ldrsb.w	fp, [r1, #-5]
 8000870:	f999 a001 	ldrsb.w	sl, [r9, #1]
 8000874:	fb1b 660a 	smlabb	r6, fp, sl, r6
 8000878:	f999 b002 	ldrsb.w	fp, [r9, #2]
 800087c:	f911 ac04 	ldrsb.w	sl, [r1, #-4]
 8000880:	f911 9c03 	ldrsb.w	r9, [r1, #-3]
 8000884:	fb1a 6a0b 	smlabb	sl, sl, fp, r6
 8000888:	f910 6014 	ldrsb.w	r6, [r0, r4, lsl #1]
 800088c:	f911 bc02 	ldrsb.w	fp, [r1, #-2]
 8000890:	fb19 a606 	smlabb	r6, r9, r6, sl
 8000894:	eb00 0902 	add.w	r9, r0, r2
 8000898:	9a04      	ldr	r2, [sp, #16]
 800089a:	f999 a001 	ldrsb.w	sl, [r9, #1]
 800089e:	fb1b 660a 	smlabb	r6, fp, sl, r6
 80008a2:	f911 ac01 	ldrsb.w	sl, [r1, #-1]
 80008a6:	f999 b002 	ldrsb.w	fp, [r9, #2]
 80008aa:	4410      	add	r0, r2
 80008ac:	fb1a 660b 	smlabb	r6, sl, fp, r6
 80008b0:	e7be      	b.n	8000830 <_Z28t_network_convolution_kernelILj3EEvPaS0_S0_S0_iijjjj+0x56>
 80008b2:	9a14      	ldr	r2, [sp, #80]	; 0x50
 80008b4:	f993 1000 	ldrsb.w	r1, [r3]
 80008b8:	4356      	muls	r6, r2
 80008ba:	2280      	movs	r2, #128	; 0x80
 80008bc:	fb96 f6f2 	sdiv	r6, r6, r2
 80008c0:	9a15      	ldr	r2, [sp, #84]	; 0x54
 80008c2:	fb02 6101 	mla	r1, r2, r1, r6
 80008c6:	f44f 6280 	mov.w	r2, #1024	; 0x400
 80008ca:	fb91 f1f2 	sdiv	r1, r1, r2
 80008ce:	f06f 027e 	mvn.w	r2, #126	; 0x7e
 80008d2:	4291      	cmp	r1, r2
 80008d4:	bfb8      	it	lt
 80008d6:	4611      	movlt	r1, r2
 80008d8:	297f      	cmp	r1, #127	; 0x7f
 80008da:	9a03      	ldr	r2, [sp, #12]
 80008dc:	bfa8      	it	ge
 80008de:	217f      	movge	r1, #127	; 0x7f
 80008e0:	f802 1f01 	strb.w	r1, [r2, #1]!
 80008e4:	9203      	str	r2, [sp, #12]
 80008e6:	9a06      	ldr	r2, [sp, #24]
 80008e8:	3701      	adds	r7, #1
 80008ea:	42ba      	cmp	r2, r7
 80008ec:	d29c      	bcs.n	8000828 <_Z28t_network_convolution_kernelILj3EEvPaS0_S0_S0_iijjjj+0x4e>
 80008ee:	9a05      	ldr	r2, [sp, #20]
 80008f0:	f10c 0c01 	add.w	ip, ip, #1
 80008f4:	4562      	cmp	r2, ip
 80008f6:	44a0      	add	r8, r4
 80008f8:	44a6      	add	lr, r4
 80008fa:	d292      	bcs.n	8000822 <_Z28t_network_convolution_kernelILj3EEvPaS0_S0_S0_iijjjj+0x48>
 80008fc:	9a00      	ldr	r2, [sp, #0]
 80008fe:	9904      	ldr	r1, [sp, #16]
 8000900:	442a      	add	r2, r5
 8000902:	9200      	str	r2, [sp, #0]
 8000904:	9a01      	ldr	r2, [sp, #4]
 8000906:	442a      	add	r2, r5
 8000908:	9201      	str	r2, [sp, #4]
 800090a:	9a02      	ldr	r2, [sp, #8]
 800090c:	440a      	add	r2, r1
 800090e:	3301      	adds	r3, #1
 8000910:	9202      	str	r2, [sp, #8]
 8000912:	e77d      	b.n	8000810 <_Z28t_network_convolution_kernelILj3EEvPaS0_S0_S0_iijjjj+0x36>
 8000914:	b00b      	add	sp, #44	; 0x2c
 8000916:	e8bd 8ff0 	ldmia.w	sp!, {r4, r5, r6, r7, r8, r9, sl, fp, pc}

0800091a <_Z28t_network_convolution_kernelILj5EEvPaS0_S0_S0_iijjjj>:
 800091a:	e92d 4ff0 	stmdb	sp!, {r4, r5, r6, r7, r8, r9, sl, fp, lr}
 800091e:	b08f      	sub	sp, #60	; 0x3c
 8000920:	e9dd 451a 	ldrd	r4, r5, [sp, #104]	; 0x68
 8000924:	1f2e      	subs	r6, r5, #4
 8000926:	960a      	str	r6, [sp, #40]	; 0x28
 8000928:	1f26      	subs	r6, r4, #4
 800092a:	960b      	str	r6, [sp, #44]	; 0x2c
 800092c:	9e1c      	ldr	r6, [sp, #112]	; 0x70
 800092e:	9201      	str	r2, [sp, #4]
 8000930:	2719      	movs	r7, #25
 8000932:	437e      	muls	r6, r7
 8000934:	443a      	add	r2, r7
 8000936:	4432      	add	r2, r6
 8000938:	9206      	str	r2, [sp, #24]
 800093a:	eb00 0244 	add.w	r2, r0, r4, lsl #1
 800093e:	9207      	str	r2, [sp, #28]
 8000940:	9a1d      	ldr	r2, [sp, #116]	; 0x74
 8000942:	9604      	str	r6, [sp, #16]
 8000944:	189a      	adds	r2, r3, r2
 8000946:	920c      	str	r2, [sp, #48]	; 0x30
 8000948:	190a      	adds	r2, r1, r4
 800094a:	4365      	muls	r5, r4
 800094c:	9209      	str	r2, [sp, #36]	; 0x24
 800094e:	9a0c      	ldr	r2, [sp, #48]	; 0x30
 8000950:	4293      	cmp	r3, r2
 8000952:	f000 80f8 	beq.w	8000b46 <_Z28t_network_convolution_kernelILj5EEvPaS0_S0_S0_iijjjj+0x22c>
 8000956:	9a09      	ldr	r2, [sp, #36]	; 0x24
 8000958:	4252      	negs	r2, r2
 800095a:	9205      	str	r2, [sp, #20]
 800095c:	9a07      	ldr	r2, [sp, #28]
 800095e:	f04f 0900 	mov.w	r9, #0
 8000962:	3201      	adds	r2, #1
 8000964:	f8cd 900c 	str.w	r9, [sp, #12]
 8000968:	920d      	str	r2, [sp, #52]	; 0x34
 800096a:	9a0d      	ldr	r2, [sp, #52]	; 0x34
 800096c:	444a      	add	r2, r9
 800096e:	9208      	str	r2, [sp, #32]
 8000970:	9a09      	ldr	r2, [sp, #36]	; 0x24
 8000972:	eb02 0809 	add.w	r8, r2, r9
 8000976:	eb04 0608 	add.w	r6, r4, r8
 800097a:	19a0      	adds	r0, r4, r6
 800097c:	2200      	movs	r2, #0
 800097e:	9901      	ldr	r1, [sp, #4]
 8000980:	9202      	str	r2, [sp, #8]
 8000982:	eba8 0e04 	sub.w	lr, r8, r4
 8000986:	1827      	adds	r7, r4, r0
 8000988:	46c4      	mov	ip, r8
 800098a:	9a06      	ldr	r2, [sp, #24]
 800098c:	3119      	adds	r1, #25
 800098e:	4291      	cmp	r1, r2
 8000990:	f000 809e 	beq.w	8000ad0 <_Z28t_network_convolution_kernelILj5EEvPaS0_S0_S0_iijjjj+0x1b6>
 8000994:	f99e a000 	ldrsb.w	sl, [lr]
 8000998:	f911 bc19 	ldrsb.w	fp, [r1, #-25]
 800099c:	9a02      	ldr	r2, [sp, #8]
 800099e:	fb1b 220a 	smlabb	r2, fp, sl, r2
 80009a2:	f99e a001 	ldrsb.w	sl, [lr, #1]
 80009a6:	f911 bc18 	ldrsb.w	fp, [r1, #-24]
 80009aa:	fb1b 220a 	smlabb	r2, fp, sl, r2
 80009ae:	f99e a002 	ldrsb.w	sl, [lr, #2]
 80009b2:	f911 bc17 	ldrsb.w	fp, [r1, #-23]
 80009b6:	fb1b 220a 	smlabb	r2, fp, sl, r2
 80009ba:	f99e a003 	ldrsb.w	sl, [lr, #3]
 80009be:	f911 bc16 	ldrsb.w	fp, [r1, #-22]
 80009c2:	fb1b 220a 	smlabb	r2, fp, sl, r2
 80009c6:	f99e a004 	ldrsb.w	sl, [lr, #4]
 80009ca:	f911 bc15 	ldrsb.w	fp, [r1, #-21]
 80009ce:	fb1b 220a 	smlabb	r2, fp, sl, r2
 80009d2:	f99c a000 	ldrsb.w	sl, [ip]
 80009d6:	f911 bc14 	ldrsb.w	fp, [r1, #-20]
 80009da:	fb1b 220a 	smlabb	r2, fp, sl, r2
 80009de:	f99c a001 	ldrsb.w	sl, [ip, #1]
 80009e2:	f911 bc13 	ldrsb.w	fp, [r1, #-19]
 80009e6:	fb1b 220a 	smlabb	r2, fp, sl, r2
 80009ea:	f99c a002 	ldrsb.w	sl, [ip, #2]
 80009ee:	f911 bc12 	ldrsb.w	fp, [r1, #-18]
 80009f2:	fb1b 220a 	smlabb	r2, fp, sl, r2
 80009f6:	f99c a003 	ldrsb.w	sl, [ip, #3]
 80009fa:	f911 bc11 	ldrsb.w	fp, [r1, #-17]
 80009fe:	fb1b 220a 	smlabb	r2, fp, sl, r2
 8000a02:	f99c a004 	ldrsb.w	sl, [ip, #4]
 8000a06:	f911 bc10 	ldrsb.w	fp, [r1, #-16]
 8000a0a:	fb1b 220a 	smlabb	r2, fp, sl, r2
 8000a0e:	f996 a000 	ldrsb.w	sl, [r6]
 8000a12:	f911 bc0f 	ldrsb.w	fp, [r1, #-15]
 8000a16:	fb1b 220a 	smlabb	r2, fp, sl, r2
 8000a1a:	f996 a001 	ldrsb.w	sl, [r6, #1]
 8000a1e:	f911 bc0e 	ldrsb.w	fp, [r1, #-14]
 8000a22:	fb1b 220a 	smlabb	r2, fp, sl, r2
 8000a26:	f996 a002 	ldrsb.w	sl, [r6, #2]
 8000a2a:	f911 bc0d 	ldrsb.w	fp, [r1, #-13]
 8000a2e:	fb1b 220a 	smlabb	r2, fp, sl, r2
 8000a32:	f996 a003 	ldrsb.w	sl, [r6, #3]
 8000a36:	f911 bc0c 	ldrsb.w	fp, [r1, #-12]
 8000a3a:	fb1b 220a 	smlabb	r2, fp, sl, r2
 8000a3e:	f911 bc0b 	ldrsb.w	fp, [r1, #-11]
 8000a42:	f996 a004 	ldrsb.w	sl, [r6, #4]
 8000a46:	fb1b 220a 	smlabb	r2, fp, sl, r2
 8000a4a:	f911 bc0a 	ldrsb.w	fp, [r1, #-10]
 8000a4e:	f990 a000 	ldrsb.w	sl, [r0]
 8000a52:	fb1b 220a 	smlabb	r2, fp, sl, r2
 8000a56:	f990 a001 	ldrsb.w	sl, [r0, #1]
 8000a5a:	f911 bc09 	ldrsb.w	fp, [r1, #-9]
 8000a5e:	fb1b 220a 	smlabb	r2, fp, sl, r2
 8000a62:	f990 a002 	ldrsb.w	sl, [r0, #2]
 8000a66:	f911 bc08 	ldrsb.w	fp, [r1, #-8]
 8000a6a:	fb1b 220a 	smlabb	r2, fp, sl, r2
 8000a6e:	f990 a003 	ldrsb.w	sl, [r0, #3]
 8000a72:	f911 bc07 	ldrsb.w	fp, [r1, #-7]
 8000a76:	fb1b 220a 	smlabb	r2, fp, sl, r2
 8000a7a:	f990 a004 	ldrsb.w	sl, [r0, #4]
 8000a7e:	f911 bc06 	ldrsb.w	fp, [r1, #-6]
 8000a82:	fb1b 220a 	smlabb	r2, fp, sl, r2
 8000a86:	f997 a000 	ldrsb.w	sl, [r7]
 8000a8a:	f911 bc05 	ldrsb.w	fp, [r1, #-5]
 8000a8e:	fb1b 220a 	smlabb	r2, fp, sl, r2
 8000a92:	f997 a001 	ldrsb.w	sl, [r7, #1]
 8000a96:	f911 bc04 	ldrsb.w	fp, [r1, #-4]
 8000a9a:	fb1b 220a 	smlabb	r2, fp, sl, r2
 8000a9e:	f997 a002 	ldrsb.w	sl, [r7, #2]
 8000aa2:	f911 bc03 	ldrsb.w	fp, [r1, #-3]
 8000aa6:	fb1b 220a 	smlabb	r2, fp, sl, r2
 8000aaa:	f997 a003 	ldrsb.w	sl, [r7, #3]
 8000aae:	f911 bc02 	ldrsb.w	fp, [r1, #-2]
 8000ab2:	fb1b 220a 	smlabb	r2, fp, sl, r2
 8000ab6:	f997 a004 	ldrsb.w	sl, [r7, #4]
 8000aba:	f911 bc01 	ldrsb.w	fp, [r1, #-1]
 8000abe:	fb1b 220a 	smlabb	r2, fp, sl, r2
 8000ac2:	9202      	str	r2, [sp, #8]
 8000ac4:	44ae      	add	lr, r5
 8000ac6:	44ac      	add	ip, r5
 8000ac8:	442e      	add	r6, r5
 8000aca:	4428      	add	r0, r5
 8000acc:	442f      	add	r7, r5
 8000ace:	e75c      	b.n	800098a <_Z28t_network_convolution_kernelILj5EEvPaS0_S0_S0_iijjjj+0x70>
 8000ad0:	9902      	ldr	r1, [sp, #8]
 8000ad2:	9a18      	ldr	r2, [sp, #96]	; 0x60
 8000ad4:	2080      	movs	r0, #128	; 0x80
 8000ad6:	434a      	muls	r2, r1
 8000ad8:	f993 1000 	ldrsb.w	r1, [r3]
 8000adc:	fb92 f2f0 	sdiv	r2, r2, r0
 8000ae0:	9819      	ldr	r0, [sp, #100]	; 0x64
 8000ae2:	fb00 2101 	mla	r1, r0, r1, r2
 8000ae6:	f44f 6280 	mov.w	r2, #1024	; 0x400
 8000aea:	fb91 f1f2 	sdiv	r1, r1, r2
 8000aee:	f06f 027e 	mvn.w	r2, #126	; 0x7e
 8000af2:	4291      	cmp	r1, r2
 8000af4:	bfb8      	it	lt
 8000af6:	4611      	movlt	r1, r2
 8000af8:	297f      	cmp	r1, #127	; 0x7f
 8000afa:	9a08      	ldr	r2, [sp, #32]
 8000afc:	bfa8      	it	ge
 8000afe:	217f      	movge	r1, #127	; 0x7f
 8000b00:	f802 1f01 	strb.w	r1, [r2, #1]!
 8000b04:	9208      	str	r2, [sp, #32]
 8000b06:	9a05      	ldr	r2, [sp, #20]
 8000b08:	990b      	ldr	r1, [sp, #44]	; 0x2c
 8000b0a:	f108 0801 	add.w	r8, r8, #1
 8000b0e:	4442      	add	r2, r8
 8000b10:	4291      	cmp	r1, r2
 8000b12:	f4bf af30 	bcs.w	8000976 <_Z28t_network_convolution_kernelILj5EEvPaS0_S0_S0_iijjjj+0x5c>
 8000b16:	9a03      	ldr	r2, [sp, #12]
 8000b18:	3201      	adds	r2, #1
 8000b1a:	9203      	str	r2, [sp, #12]
 8000b1c:	9a05      	ldr	r2, [sp, #20]
 8000b1e:	9903      	ldr	r1, [sp, #12]
 8000b20:	1b12      	subs	r2, r2, r4
 8000b22:	9205      	str	r2, [sp, #20]
 8000b24:	9a0a      	ldr	r2, [sp, #40]	; 0x28
 8000b26:	428a      	cmp	r2, r1
 8000b28:	44a1      	add	r9, r4
 8000b2a:	f4bf af1e 	bcs.w	800096a <_Z28t_network_convolution_kernelILj5EEvPaS0_S0_S0_iijjjj+0x50>
 8000b2e:	9a01      	ldr	r2, [sp, #4]
 8000b30:	9904      	ldr	r1, [sp, #16]
 8000b32:	440a      	add	r2, r1
 8000b34:	9201      	str	r2, [sp, #4]
 8000b36:	9a06      	ldr	r2, [sp, #24]
 8000b38:	440a      	add	r2, r1
 8000b3a:	9206      	str	r2, [sp, #24]
 8000b3c:	9a07      	ldr	r2, [sp, #28]
 8000b3e:	442a      	add	r2, r5
 8000b40:	3301      	adds	r3, #1
 8000b42:	9207      	str	r2, [sp, #28]
 8000b44:	e703      	b.n	800094e <_Z28t_network_convolution_kernelILj5EEvPaS0_S0_S0_iijjjj+0x34>
 8000b46:	b00f      	add	sp, #60	; 0x3c
 8000b48:	e8bd 8ff0 	ldmia.w	sp!, {r4, r5, r6, r7, r8, r9, sl, fp, pc}

08000b4c <_Z26network_convolution_kernelPaS_S_S_ii14sLayerGeometryS0_>:
 8000b4c:	e92d 4ff0 	stmdb	sp!, {r4, r5, r6, r7, r8, r9, sl, fp, lr}
 8000b50:	b08f      	sub	sp, #60	; 0x3c
 8000b52:	4683      	mov	fp, r0
 8000b54:	f8dd e074 	ldr.w	lr, [sp, #116]	; 0x74
 8000b58:	910d      	str	r1, [sp, #52]	; 0x34
 8000b5a:	f1be 0f03 	cmp.w	lr, #3
 8000b5e:	e9dd 461a 	ldrd	r4, r6, [sp, #104]	; 0x68
 8000b62:	9d1c      	ldr	r5, [sp, #112]	; 0x70
 8000b64:	9f1f      	ldr	r7, [sp, #124]	; 0x7c
 8000b66:	d059      	beq.n	8000c1c <_Z26network_convolution_kernelPaS_S_S_ii14sLayerGeometryS0_+0xd0>
 8000b68:	f1be 0f05 	cmp.w	lr, #5
 8000b6c:	d063      	beq.n	8000c36 <_Z26network_convolution_kernelPaS_S_S_ii14sLayerGeometryS0_+0xea>
 8000b6e:	f1be 0f01 	cmp.w	lr, #1
 8000b72:	d15d      	bne.n	8000c30 <_Z26network_convolution_kernelPaS_S_S_ii14sLayerGeometryS0_+0xe4>
 8000b74:	4251      	negs	r1, r2
 8000b76:	9108      	str	r1, [sp, #32]
 8000b78:	fb06 f104 	mul.w	r1, r6, r4
 8000b7c:	9109      	str	r1, [sp, #36]	; 0x24
 8000b7e:	19d9      	adds	r1, r3, r7
 8000b80:	910c      	str	r1, [sp, #48]	; 0x30
 8000b82:	9909      	ldr	r1, [sp, #36]	; 0x24
 8000b84:	4249      	negs	r1, r1
 8000b86:	910b      	str	r1, [sp, #44]	; 0x2c
 8000b88:	990c      	ldr	r1, [sp, #48]	; 0x30
 8000b8a:	428b      	cmp	r3, r1
 8000b8c:	d050      	beq.n	8000c30 <_Z26network_convolution_kernelPaS_S_S_ii14sLayerGeometryS0_+0xe4>
 8000b8e:	2100      	movs	r1, #0
 8000b90:	f8dd c034 	ldr.w	ip, [sp, #52]	; 0x34
 8000b94:	9107      	str	r1, [sp, #28]
 8000b96:	46de      	mov	lr, fp
 8000b98:	2000      	movs	r0, #0
 8000b9a:	eb0c 0800 	add.w	r8, ip, r0
 8000b9e:	4691      	mov	r9, r2
 8000ba0:	2100      	movs	r1, #0
 8000ba2:	9f09      	ldr	r7, [sp, #36]	; 0x24
 8000ba4:	44b8      	add	r8, r7
 8000ba6:	9f08      	ldr	r7, [sp, #32]
 8000ba8:	eb09 0a07 	add.w	sl, r9, r7
 8000bac:	4555      	cmp	r5, sl
 8000bae:	d909      	bls.n	8000bc4 <_Z26network_convolution_kernelPaS_S_S_ii14sLayerGeometryS0_+0x78>
 8000bb0:	f919 7b01 	ldrsb.w	r7, [r9], #1
 8000bb4:	970a      	str	r7, [sp, #40]	; 0x28
 8000bb6:	9f0b      	ldr	r7, [sp, #44]	; 0x2c
 8000bb8:	f918 a007 	ldrsb.w	sl, [r8, r7]
 8000bbc:	9f0a      	ldr	r7, [sp, #40]	; 0x28
 8000bbe:	fb17 110a 	smlabb	r1, r7, sl, r1
 8000bc2:	e7ee      	b.n	8000ba2 <_Z26network_convolution_kernelPaS_S_S_ii14sLayerGeometryS0_+0x56>
 8000bc4:	9f18      	ldr	r7, [sp, #96]	; 0x60
 8000bc6:	f993 8000 	ldrsb.w	r8, [r3]
 8000bca:	4379      	muls	r1, r7
 8000bcc:	2780      	movs	r7, #128	; 0x80
 8000bce:	fb91 f1f7 	sdiv	r1, r1, r7
 8000bd2:	9f19      	ldr	r7, [sp, #100]	; 0x64
 8000bd4:	fb07 1808 	mla	r8, r7, r8, r1
 8000bd8:	f44f 6180 	mov.w	r1, #1024	; 0x400
 8000bdc:	fb98 f8f1 	sdiv	r8, r8, r1
 8000be0:	f06f 017e 	mvn.w	r1, #126	; 0x7e
 8000be4:	4588      	cmp	r8, r1
 8000be6:	bfb8      	it	lt
 8000be8:	4688      	movlt	r8, r1
 8000bea:	f1b8 0f7f 	cmp.w	r8, #127	; 0x7f
 8000bee:	bfa8      	it	ge
 8000bf0:	f04f 087f 	movge.w	r8, #127	; 0x7f
 8000bf4:	f80e 8000 	strb.w	r8, [lr, r0]
 8000bf8:	3001      	adds	r0, #1
 8000bfa:	4284      	cmp	r4, r0
 8000bfc:	d2cd      	bcs.n	8000b9a <_Z26network_convolution_kernelPaS_S_S_ii14sLayerGeometryS0_+0x4e>
 8000bfe:	9907      	ldr	r1, [sp, #28]
 8000c00:	3101      	adds	r1, #1
 8000c02:	428e      	cmp	r6, r1
 8000c04:	9107      	str	r1, [sp, #28]
 8000c06:	44a6      	add	lr, r4
 8000c08:	44a4      	add	ip, r4
 8000c0a:	d2c5      	bcs.n	8000b98 <_Z26network_convolution_kernelPaS_S_S_ii14sLayerGeometryS0_+0x4c>
 8000c0c:	9908      	ldr	r1, [sp, #32]
 8000c0e:	1b49      	subs	r1, r1, r5
 8000c10:	9108      	str	r1, [sp, #32]
 8000c12:	9909      	ldr	r1, [sp, #36]	; 0x24
 8000c14:	3301      	adds	r3, #1
 8000c16:	442a      	add	r2, r5
 8000c18:	448b      	add	fp, r1
 8000c1a:	e7b5      	b.n	8000b88 <_Z26network_convolution_kernelPaS_S_S_ii14sLayerGeometryS0_+0x3c>
 8000c1c:	e9cd 4602 	strd	r4, r6, [sp, #8]
 8000c20:	9c19      	ldr	r4, [sp, #100]	; 0x64
 8000c22:	9401      	str	r4, [sp, #4]
 8000c24:	9c18      	ldr	r4, [sp, #96]	; 0x60
 8000c26:	9400      	str	r4, [sp, #0]
 8000c28:	e9cd 5704 	strd	r5, r7, [sp, #16]
 8000c2c:	f7ff fdd5 	bl	80007da <_Z28t_network_convolution_kernelILj3EEvPaS0_S0_S0_iijjjj>
 8000c30:	b00f      	add	sp, #60	; 0x3c
 8000c32:	e8bd 8ff0 	ldmia.w	sp!, {r4, r5, r6, r7, r8, r9, sl, fp, pc}
 8000c36:	e9cd 4602 	strd	r4, r6, [sp, #8]
 8000c3a:	9c19      	ldr	r4, [sp, #100]	; 0x64
 8000c3c:	9401      	str	r4, [sp, #4]
 8000c3e:	9c18      	ldr	r4, [sp, #96]	; 0x60
 8000c40:	9400      	str	r4, [sp, #0]
 8000c42:	e9cd 5704 	strd	r5, r7, [sp, #16]
 8000c46:	f7ff fe68 	bl	800091a <_Z28t_network_convolution_kernelILj5EEvPaS0_S0_S0_iijjjj>
 8000c4a:	e7f1      	b.n	8000c30 <_Z26network_convolution_kernelPaS_S_S_ii14sLayerGeometryS0_+0xe4>

08000c4c <_ZN12NetworkLayerD1Ev>:
 8000c4c:	4770      	bx	lr

08000c4e <_ZN12NetworkLayer7forwardEPaS0_>:
 8000c4e:	4770      	bx	lr

08000c50 <_ZN12NetworkLayerD0Ev>:
 8000c50:	b510      	push	{r4, lr}
 8000c52:	2128      	movs	r1, #40	; 0x28
 8000c54:	4604      	mov	r4, r0
 8000c56:	f000 fe31 	bl	80018bc <_ZdlPvj>
 8000c5a:	4620      	mov	r0, r4
 8000c5c:	bd10      	pop	{r4, pc}
 8000c5e:	0000      	movs	r0, r0

08000c60 <_ZN12NetworkLayerC1Ev>:
 8000c60:	4a06      	ldr	r2, [pc, #24]	; (8000c7c <_ZN12NetworkLayerC1Ev+0x1c>)
 8000c62:	6002      	str	r2, [r0, #0]
 8000c64:	2200      	movs	r2, #0
 8000c66:	e9c0 2201 	strd	r2, r2, [r0, #4]
 8000c6a:	e9c0 2203 	strd	r2, r2, [r0, #12]
 8000c6e:	e9c0 2205 	strd	r2, r2, [r0, #20]
 8000c72:	e9c0 2207 	strd	r2, r2, [r0, #28]
 8000c76:	6242      	str	r2, [r0, #36]	; 0x24
 8000c78:	4770      	bx	lr
 8000c7a:	bf00      	nop
 8000c7c:	08002f08 	stmdaeq	r0, {r3, r8, r9, sl, fp, sp}

08000c80 <_ZN13LinePredictorD1Ev>:
 8000c80:	4770      	bx	lr

08000c82 <_ZN13LinePredictorD0Ev>:
 8000c82:	b510      	push	{r4, lr}
 8000c84:	2150      	movs	r1, #80	; 0x50
 8000c86:	4604      	mov	r4, r0
 8000c88:	f000 fe18 	bl	80018bc <_ZdlPvj>
 8000c8c:	4620      	mov	r0, r4
 8000c8e:	bd10      	pop	{r4, pc}

08000c90 <_ZN13LinePredictorC1ER13NeuralNetwork>:
 8000c90:	4603      	mov	r3, r0
 8000c92:	4a07      	ldr	r2, [pc, #28]	; (8000cb0 <_ZN13LinePredictorC1ER13NeuralNetwork+0x20>)
 8000c94:	b510      	push	{r4, lr}
 8000c96:	f843 2b04 	str.w	r2, [r3], #4
 8000c9a:	f100 0444 	add.w	r4, r0, #68	; 0x44
 8000c9e:	2200      	movs	r2, #0
 8000ca0:	f803 2b01 	strb.w	r2, [r3], #1
 8000ca4:	42a3      	cmp	r3, r4
 8000ca6:	d1fb      	bne.n	8000ca0 <_ZN13LinePredictorC1ER13NeuralNetwork+0x10>
 8000ca8:	e9c0 2212 	strd	r2, r2, [r0, #72]	; 0x48
 8000cac:	6441      	str	r1, [r0, #68]	; 0x44
 8000cae:	bd10      	pop	{r4, pc}
 8000cb0:	08002f1c 	stmdaeq	r0, {r2, r3, r4, r8, r9, sl, fp, sp}

08000cb4 <_ZN13LinePredictor7processEPi>:
 8000cb4:	b570      	push	{r4, r5, r6, lr}
 8000cb6:	4604      	mov	r4, r0
 8000cb8:	4830      	ldr	r0, [pc, #192]	; (8000d7c <_ZN13LinePredictor7processEPi+0xc8>)
 8000cba:	460e      	mov	r6, r1
 8000cbc:	f000 ffd1 	bl	8001c62 <_ZN5Timer5resetEv>
 8000cc0:	f104 0130 	add.w	r1, r4, #48	; 0x30
 8000cc4:	f104 0238 	add.w	r2, r4, #56	; 0x38
 8000cc8:	2300      	movs	r3, #0
 8000cca:	18c8      	adds	r0, r1, r3
 8000ccc:	f990 5004 	ldrsb.w	r5, [r0, #4]
 8000cd0:	18d0      	adds	r0, r2, r3
 8000cd2:	3301      	adds	r3, #1
 8000cd4:	2b08      	cmp	r3, #8
 8000cd6:	7105      	strb	r5, [r0, #4]
 8000cd8:	d1f7      	bne.n	8000cca <_ZN13LinePredictor7processEPi+0x16>
 8000cda:	3a08      	subs	r2, #8
 8000cdc:	42a2      	cmp	r2, r4
 8000cde:	f1a1 0108 	sub.w	r1, r1, #8
 8000ce2:	d1f1      	bne.n	8000cc8 <_ZN13LinePredictor7processEPi+0x14>
 8000ce4:	1f35      	subs	r5, r6, #4
 8000ce6:	4b26      	ldr	r3, [pc, #152]	; (8000d80 <_ZN13LinePredictor7processEPi+0xcc>)
 8000ce8:	4a26      	ldr	r2, [pc, #152]	; (8000d84 <_ZN13LinePredictor7processEPi+0xd0>)
 8000cea:	361c      	adds	r6, #28
 8000cec:	4628      	mov	r0, r5
 8000cee:	f850 1f04 	ldr.w	r1, [r0, #4]!
 8000cf2:	428a      	cmp	r2, r1
 8000cf4:	bfb8      	it	lt
 8000cf6:	460a      	movlt	r2, r1
 8000cf8:	428b      	cmp	r3, r1
 8000cfa:	bfa8      	it	ge
 8000cfc:	460b      	movge	r3, r1
 8000cfe:	4286      	cmp	r6, r0
 8000d00:	d1f5      	bne.n	8000cee <_ZN13LinePredictor7processEPi+0x3a>
 8000d02:	4293      	cmp	r3, r2
 8000d04:	da35      	bge.n	8000d72 <_ZN13LinePredictor7processEPi+0xbe>
 8000d06:	1ad3      	subs	r3, r2, r3
 8000d08:	ee07 3a90 	vmov	s15, r3
 8000d0c:	ed9f 7a1e 	vldr	s14, [pc, #120]	; 8000d88 <_ZN13LinePredictor7processEPi+0xd4>
 8000d10:	eef8 7ae7 	vcvt.f32.s32	s15, s15
 8000d14:	eec7 6a27 	vdiv.f32	s13, s14, s15
 8000d18:	ee07 2a90 	vmov	s15, r2
 8000d1c:	eef8 7ae7 	vcvt.f32.s32	s15, s15
 8000d20:	ee07 7ae6 	vmls.f32	s14, s15, s13
 8000d24:	eef0 7a47 	vmov.f32	s15, s14
 8000d28:	1d23      	adds	r3, r4, #4
 8000d2a:	4619      	mov	r1, r3
 8000d2c:	f855 2f04 	ldr.w	r2, [r5, #4]!
 8000d30:	ee07 2a10 	vmov	s14, r2
 8000d34:	eeb8 7ac7 	vcvt.f32.s32	s14, s14
 8000d38:	eeb0 6a67 	vmov.f32	s12, s15
 8000d3c:	ee07 6a26 	vmla.f32	s12, s14, s13
 8000d40:	4285      	cmp	r5, r0
 8000d42:	eebd 7ac6 	vcvt.s32.f32	s14, s12
 8000d46:	ee17 2a10 	vmov	r2, s14
 8000d4a:	f803 2b01 	strb.w	r2, [r3], #1
 8000d4e:	d1ed      	bne.n	8000d2c <_ZN13LinePredictor7processEPi+0x78>
 8000d50:	6c60      	ldr	r0, [r4, #68]	; 0x44
 8000d52:	6803      	ldr	r3, [r0, #0]
 8000d54:	689b      	ldr	r3, [r3, #8]
 8000d56:	4798      	blx	r3
 8000d58:	6c60      	ldr	r0, [r4, #68]	; 0x44
 8000d5a:	f7ff fcb7 	bl	80006cc <_ZN13NeuralNetwork7forwardEv>
 8000d5e:	6c60      	ldr	r0, [r4, #68]	; 0x44
 8000d60:	f7ff fce2 	bl	8000728 <_ZN13NeuralNetwork12class_resultEv>
 8000d64:	64a0      	str	r0, [r4, #72]	; 0x48
 8000d66:	4805      	ldr	r0, [pc, #20]	; (8000d7c <_ZN13LinePredictor7processEPi+0xc8>)
 8000d68:	f000 ff81 	bl	8001c6e <_ZN5Timer12elapsed_timeEv>
 8000d6c:	64e0      	str	r0, [r4, #76]	; 0x4c
 8000d6e:	2000      	movs	r0, #0
 8000d70:	bd70      	pop	{r4, r5, r6, pc}
 8000d72:	eddf 7a06 	vldr	s15, [pc, #24]	; 8000d8c <_ZN13LinePredictor7processEPi+0xd8>
 8000d76:	eef0 6a67 	vmov.f32	s13, s15
 8000d7a:	e7d5      	b.n	8000d28 <_ZN13LinePredictor7processEPi+0x74>
 8000d7c:	20000218 	andcs	r0, r0, r8, lsl r2
 8000d80:	000f4240 	andeq	r4, pc, r0, asr #4
 8000d84:	fff0bdc0 			; <UNDEFINED> instruction: 0xfff0bdc0
 8000d88:	42fe0000 	rscsmi	r0, lr, #0
 8000d8c:	00000000 	andeq	r0, r0, r0

08000d90 <_ZN13LinePredictor5printEv>:
 8000d90:	e92d 43f8 	stmdb	sp!, {r3, r4, r5, r6, r7, r8, r9, lr}
 8000d94:	4604      	mov	r4, r0
 8000d96:	491b      	ldr	r1, [pc, #108]	; (8000e04 <_ZN13LinePredictor5printEv+0x74>)
 8000d98:	481b      	ldr	r0, [pc, #108]	; (8000e08 <_ZN13LinePredictor5printEv+0x78>)
 8000d9a:	4f1b      	ldr	r7, [pc, #108]	; (8000e08 <_ZN13LinePredictor5printEv+0x78>)
 8000d9c:	f8df 906c 	ldr.w	r9, [pc, #108]	; 8000e0c <_ZN13LinePredictor5printEv+0x7c>
 8000da0:	f8df 806c 	ldr.w	r8, [pc, #108]	; 8000e10 <_ZN13LinePredictor5printEv+0x80>
 8000da4:	f001 f89e 	bl	8001ee4 <_ZN8Terminal4putsEPKc>
 8000da8:	6ce1      	ldr	r1, [r4, #76]	; 0x4c
 8000daa:	4817      	ldr	r0, [pc, #92]	; (8000e08 <_ZN13LinePredictor5printEv+0x78>)
 8000dac:	f001 f8ce 	bl	8001f4c <_ZN8Terminal5putuiEm>
 8000db0:	4916      	ldr	r1, [pc, #88]	; (8000e0c <_ZN13LinePredictor5printEv+0x7c>)
 8000db2:	4815      	ldr	r0, [pc, #84]	; (8000e08 <_ZN13LinePredictor5printEv+0x78>)
 8000db4:	f001 f896 	bl	8001ee4 <_ZN8Terminal4putsEPKc>
 8000db8:	6ca1      	ldr	r1, [r4, #72]	; 0x48
 8000dba:	4813      	ldr	r0, [pc, #76]	; (8000e08 <_ZN13LinePredictor5printEv+0x78>)
 8000dbc:	f001 f8c6 	bl	8001f4c <_ZN8Terminal5putuiEm>
 8000dc0:	4910      	ldr	r1, [pc, #64]	; (8000e04 <_ZN13LinePredictor5printEv+0x74>)
 8000dc2:	4811      	ldr	r0, [pc, #68]	; (8000e08 <_ZN13LinePredictor5printEv+0x78>)
 8000dc4:	f001 f88e 	bl	8001ee4 <_ZN8Terminal4putsEPKc>
 8000dc8:	f104 0640 	add.w	r6, r4, #64	; 0x40
 8000dcc:	2500      	movs	r5, #0
 8000dce:	1963      	adds	r3, r4, r5
 8000dd0:	480d      	ldr	r0, [pc, #52]	; (8000e08 <_ZN13LinePredictor5printEv+0x78>)
 8000dd2:	f993 1004 	ldrsb.w	r1, [r3, #4]
 8000dd6:	f001 f890 	bl	8001efa <_ZN8Terminal4putiEl>
 8000dda:	3501      	adds	r5, #1
 8000ddc:	4649      	mov	r1, r9
 8000dde:	480a      	ldr	r0, [pc, #40]	; (8000e08 <_ZN13LinePredictor5printEv+0x78>)
 8000de0:	f001 f880 	bl	8001ee4 <_ZN8Terminal4putsEPKc>
 8000de4:	2d08      	cmp	r5, #8
 8000de6:	d1f2      	bne.n	8000dce <_ZN13LinePredictor5printEv+0x3e>
 8000de8:	4641      	mov	r1, r8
 8000dea:	4638      	mov	r0, r7
 8000dec:	3408      	adds	r4, #8
 8000dee:	f001 f879 	bl	8001ee4 <_ZN8Terminal4putsEPKc>
 8000df2:	42a6      	cmp	r6, r4
 8000df4:	d1ea      	bne.n	8000dcc <_ZN13LinePredictor5printEv+0x3c>
 8000df6:	4903      	ldr	r1, [pc, #12]	; (8000e04 <_ZN13LinePredictor5printEv+0x74>)
 8000df8:	4803      	ldr	r0, [pc, #12]	; (8000e08 <_ZN13LinePredictor5printEv+0x78>)
 8000dfa:	e8bd 43f8 	ldmia.w	sp!, {r3, r4, r5, r6, r7, r8, r9, lr}
 8000dfe:	f001 b871 	b.w	8001ee4 <_ZN8Terminal4putsEPKc>
 8000e02:	bf00      	nop
 8000e04:	080042a2 	stmdaeq	r0, {r1, r5, r7, r9, lr}
 8000e08:	20000214 	andcs	r0, r0, r4, lsl r2
 8000e0c:	08004297 	stmdaeq	r0, {r0, r1, r2, r4, r7, r9, lr}
 8000e10:	080042a3 	stmdaeq	r0, {r0, r1, r5, r7, r9, lr}

08000e14 <_ZN15LineTypeNetworkD1Ev>:
 8000e14:	b5f8      	push	{r3, r4, r5, r6, r7, lr}
 8000e16:	4604      	mov	r4, r0
 8000e18:	4b0b      	ldr	r3, [pc, #44]	; (8000e48 <_ZN15LineTypeNetworkD1Ev+0x34>)
 8000e1a:	f844 3b08 	str.w	r3, [r4], #8
 8000e1e:	2600      	movs	r6, #0
 8000e20:	4605      	mov	r5, r0
 8000e22:	4637      	mov	r7, r6
 8000e24:	686b      	ldr	r3, [r5, #4]
 8000e26:	42b3      	cmp	r3, r6
 8000e28:	d908      	bls.n	8000e3c <_ZN15LineTypeNetworkD1Ev+0x28>
 8000e2a:	6820      	ldr	r0, [r4, #0]
 8000e2c:	b110      	cbz	r0, 8000e34 <_ZN15LineTypeNetworkD1Ev+0x20>
 8000e2e:	6803      	ldr	r3, [r0, #0]
 8000e30:	685b      	ldr	r3, [r3, #4]
 8000e32:	4798      	blx	r3
 8000e34:	f844 7b04 	str.w	r7, [r4], #4
 8000e38:	3601      	adds	r6, #1
 8000e3a:	e7f3      	b.n	8000e24 <_ZN15LineTypeNetworkD1Ev+0x10>
 8000e3c:	4628      	mov	r0, r5
 8000e3e:	f7ff fc11 	bl	8000664 <_ZN13NeuralNetworkD1Ev>
 8000e42:	4628      	mov	r0, r5
 8000e44:	bdf8      	pop	{r3, r4, r5, r6, r7, pc}
 8000e46:	bf00      	nop
 8000e48:	08004250 	stmdaeq	r0, {r4, r6, r9, lr}

08000e4c <_ZN15LineTypeNetworkD0Ev>:
 8000e4c:	b510      	push	{r4, lr}
 8000e4e:	4604      	mov	r4, r0
 8000e50:	f7ff ffe0 	bl	8000e14 <_ZN15LineTypeNetworkD1Ev>
 8000e54:	4620      	mov	r0, r4
 8000e56:	21b0      	movs	r1, #176	; 0xb0
 8000e58:	f000 fd30 	bl	80018bc <_ZdlPvj>
 8000e5c:	4620      	mov	r0, r4
 8000e5e:	bd10      	pop	{r4, pc}

08000e60 <_ZN15LineTypeNetworkC1Ev>:
 8000e60:	e92d 43f0 	stmdb	sp!, {r4, r5, r6, r7, r8, r9, lr}
 8000e64:	4607      	mov	r7, r0
 8000e66:	b095      	sub	sp, #84	; 0x54
 8000e68:	f7ff fc18 	bl	800069c <_ZN13NeuralNetworkC1Ev>
 8000e6c:	4b6e      	ldr	r3, [pc, #440]	; (8001028 <_ZN15LineTypeNetworkC1Ev+0x1c8>)
 8000e6e:	603b      	str	r3, [r7, #0]
 8000e70:	2201      	movs	r2, #1
 8000e72:	2308      	movs	r3, #8
 8000e74:	e9c7 2326 	strd	r2, r3, [r7, #152]	; 0x98
 8000e78:	e9c7 3322 	strd	r3, r3, [r7, #136]	; 0x88
 8000e7c:	4b6b      	ldr	r3, [pc, #428]	; (800102c <_ZN15LineTypeNetworkC1Ev+0x1cc>)
 8000e7e:	e9c7 2224 	strd	r2, r2, [r7, #144]	; 0x90
 8000e82:	e893 0007 	ldmia.w	r3, {r0, r1, r2}
 8000e86:	4b6a      	ldr	r3, [pc, #424]	; (8001030 <_ZN15LineTypeNetworkC1Ev+0x1d0>)
 8000e88:	ac0b      	add	r4, sp, #44	; 0x2c
 8000e8a:	e884 0007 	stmia.w	r4, {r0, r1, r2}
 8000e8e:	e893 0007 	ldmia.w	r3, {r0, r1, r2}
 8000e92:	4b68      	ldr	r3, [pc, #416]	; (8001034 <_ZN15LineTypeNetworkC1Ev+0x1d4>)
 8000e94:	ad0e      	add	r5, sp, #56	; 0x38
 8000e96:	e885 0007 	stmia.w	r5, {r0, r1, r2}
 8000e9a:	e893 0007 	ldmia.w	r3, {r0, r1, r2}
 8000e9e:	ae11      	add	r6, sp, #68	; 0x44
 8000ea0:	e886 0007 	stmia.w	r6, {r0, r1, r2}
 8000ea4:	2038      	movs	r0, #56	; 0x38
 8000ea6:	f000 fd01 	bl	80018ac <_Znwj>
 8000eaa:	f44f 73b3 	mov.w	r3, #358	; 0x166
 8000eae:	224c      	movs	r2, #76	; 0x4c
 8000eb0:	e9cd 3208 	strd	r3, r2, [sp, #32]
 8000eb4:	4b60      	ldr	r3, [pc, #384]	; (8001038 <_ZN15LineTypeNetworkC1Ev+0x1d8>)
 8000eb6:	9307      	str	r3, [sp, #28]
 8000eb8:	4b60      	ldr	r3, [pc, #384]	; (800103c <_ZN15LineTypeNetworkC1Ev+0x1dc>)
 8000eba:	9306      	str	r3, [sp, #24]
 8000ebc:	4681      	mov	r9, r0
 8000ebe:	e896 0007 	ldmia.w	r6, {r0, r1, r2}
 8000ec2:	f10d 080c 	add.w	r8, sp, #12
 8000ec6:	e888 0007 	stmia.w	r8, {r0, r1, r2}
 8000eca:	e895 0007 	ldmia.w	r5, {r0, r1, r2}
 8000ece:	e88d 0007 	stmia.w	sp, {r0, r1, r2}
 8000ed2:	4648      	mov	r0, r9
 8000ed4:	e894 000e 	ldmia.w	r4, {r1, r2, r3}
 8000ed8:	f7ff faae 	bl	8000438 <_ZN24NetDenseConvolutionLayerC1E14sLayerGeometryS0_S0_PKaS2_ii>
 8000edc:	4b58      	ldr	r3, [pc, #352]	; (8001040 <_ZN15LineTypeNetworkC1Ev+0x1e0>)
 8000ede:	f8c7 9008 	str.w	r9, [r7, #8]
 8000ee2:	e893 0007 	ldmia.w	r3, {r0, r1, r2}
 8000ee6:	4b57      	ldr	r3, [pc, #348]	; (8001044 <_ZN15LineTypeNetworkC1Ev+0x1e4>)
 8000ee8:	e884 0007 	stmia.w	r4, {r0, r1, r2}
 8000eec:	e893 0007 	ldmia.w	r3, {r0, r1, r2}
 8000ef0:	4b55      	ldr	r3, [pc, #340]	; (8001048 <_ZN15LineTypeNetworkC1Ev+0x1e8>)
 8000ef2:	e885 0007 	stmia.w	r5, {r0, r1, r2}
 8000ef6:	e893 0007 	ldmia.w	r3, {r0, r1, r2}
 8000efa:	e886 0007 	stmia.w	r6, {r0, r1, r2}
 8000efe:	202c      	movs	r0, #44	; 0x2c
 8000f00:	f000 fcd4 	bl	80018ac <_Znwj>
 8000f04:	4681      	mov	r9, r0
 8000f06:	e896 0007 	ldmia.w	r6, {r0, r1, r2}
 8000f0a:	e888 0007 	stmia.w	r8, {r0, r1, r2}
 8000f0e:	e895 0007 	ldmia.w	r5, {r0, r1, r2}
 8000f12:	e88d 0007 	stmia.w	sp, {r0, r1, r2}
 8000f16:	4648      	mov	r0, r9
 8000f18:	e894 000e 	ldmia.w	r4, {r1, r2, r3}
 8000f1c:	f7ff fa20 	bl	8000360 <_ZN12NetReluLayerC1E14sLayerGeometryS0_S0_>
 8000f20:	4b4a      	ldr	r3, [pc, #296]	; (800104c <_ZN15LineTypeNetworkC1Ev+0x1ec>)
 8000f22:	f8c7 900c 	str.w	r9, [r7, #12]
 8000f26:	e893 0007 	ldmia.w	r3, {r0, r1, r2}
 8000f2a:	4b49      	ldr	r3, [pc, #292]	; (8001050 <_ZN15LineTypeNetworkC1Ev+0x1f0>)
 8000f2c:	e884 0007 	stmia.w	r4, {r0, r1, r2}
 8000f30:	e893 0007 	ldmia.w	r3, {r0, r1, r2}
 8000f34:	4b47      	ldr	r3, [pc, #284]	; (8001054 <_ZN15LineTypeNetworkC1Ev+0x1f4>)
 8000f36:	e885 0007 	stmia.w	r5, {r0, r1, r2}
 8000f3a:	e893 0007 	ldmia.w	r3, {r0, r1, r2}
 8000f3e:	e886 0007 	stmia.w	r6, {r0, r1, r2}
 8000f42:	2038      	movs	r0, #56	; 0x38
 8000f44:	f000 fcb2 	bl	80018ac <_Znwj>
 8000f48:	f44f 7303 	mov.w	r3, #524	; 0x20c
 8000f4c:	21b6      	movs	r1, #182	; 0xb6
 8000f4e:	e9cd 3108 	strd	r3, r1, [sp, #32]
 8000f52:	4b41      	ldr	r3, [pc, #260]	; (8001058 <_ZN15LineTypeNetworkC1Ev+0x1f8>)
 8000f54:	9307      	str	r3, [sp, #28]
 8000f56:	4b41      	ldr	r3, [pc, #260]	; (800105c <_ZN15LineTypeNetworkC1Ev+0x1fc>)
 8000f58:	9306      	str	r3, [sp, #24]
 8000f5a:	4681      	mov	r9, r0
 8000f5c:	e896 0007 	ldmia.w	r6, {r0, r1, r2}
 8000f60:	e888 0007 	stmia.w	r8, {r0, r1, r2}
 8000f64:	e895 0007 	ldmia.w	r5, {r0, r1, r2}
 8000f68:	e88d 0007 	stmia.w	sp, {r0, r1, r2}
 8000f6c:	4648      	mov	r0, r9
 8000f6e:	e894 000e 	ldmia.w	r4, {r1, r2, r3}
 8000f72:	f7ff fab9 	bl	80004e8 <_ZN19NetConvolutionLayerC1E14sLayerGeometryS0_S0_PKaS2_ii>
 8000f76:	4b3a      	ldr	r3, [pc, #232]	; (8001060 <_ZN15LineTypeNetworkC1Ev+0x200>)
 8000f78:	f8c7 9010 	str.w	r9, [r7, #16]
 8000f7c:	e893 0007 	ldmia.w	r3, {r0, r1, r2}
 8000f80:	4b38      	ldr	r3, [pc, #224]	; (8001064 <_ZN15LineTypeNetworkC1Ev+0x204>)
 8000f82:	e884 0007 	stmia.w	r4, {r0, r1, r2}
 8000f86:	e893 0007 	ldmia.w	r3, {r0, r1, r2}
 8000f8a:	4b37      	ldr	r3, [pc, #220]	; (8001068 <_ZN15LineTypeNetworkC1Ev+0x208>)
 8000f8c:	e885 0007 	stmia.w	r5, {r0, r1, r2}
 8000f90:	e893 0007 	ldmia.w	r3, {r0, r1, r2}
 8000f94:	e886 0007 	stmia.w	r6, {r0, r1, r2}
 8000f98:	202c      	movs	r0, #44	; 0x2c
 8000f9a:	f000 fc87 	bl	80018ac <_Znwj>
 8000f9e:	4681      	mov	r9, r0
 8000fa0:	e896 0007 	ldmia.w	r6, {r0, r1, r2}
 8000fa4:	e888 0007 	stmia.w	r8, {r0, r1, r2}
 8000fa8:	e895 0007 	ldmia.w	r5, {r0, r1, r2}
 8000fac:	e88d 0007 	stmia.w	sp, {r0, r1, r2}
 8000fb0:	4648      	mov	r0, r9
 8000fb2:	e894 000e 	ldmia.w	r4, {r1, r2, r3}
 8000fb6:	f7ff f9d3 	bl	8000360 <_ZN12NetReluLayerC1E14sLayerGeometryS0_S0_>
 8000fba:	4b2c      	ldr	r3, [pc, #176]	; (800106c <_ZN15LineTypeNetworkC1Ev+0x20c>)
 8000fbc:	f8c7 9014 	str.w	r9, [r7, #20]
 8000fc0:	e893 0007 	ldmia.w	r3, {r0, r1, r2}
 8000fc4:	4b2a      	ldr	r3, [pc, #168]	; (8001070 <_ZN15LineTypeNetworkC1Ev+0x210>)
 8000fc6:	e884 0007 	stmia.w	r4, {r0, r1, r2}
 8000fca:	e893 0007 	ldmia.w	r3, {r0, r1, r2}
 8000fce:	4b29      	ldr	r3, [pc, #164]	; (8001074 <_ZN15LineTypeNetworkC1Ev+0x214>)
 8000fd0:	e885 0007 	stmia.w	r5, {r0, r1, r2}
 8000fd4:	e893 0007 	ldmia.w	r3, {r0, r1, r2}
 8000fd8:	e886 0007 	stmia.w	r6, {r0, r1, r2}
 8000fdc:	2040      	movs	r0, #64	; 0x40
 8000fde:	f000 fc65 	bl	80018ac <_Znwj>
 8000fe2:	f240 134d 	movw	r3, #333	; 0x14d
 8000fe6:	4681      	mov	r9, r0
 8000fe8:	2073      	movs	r0, #115	; 0x73
 8000fea:	e9cd 3008 	strd	r3, r0, [sp, #32]
 8000fee:	4b22      	ldr	r3, [pc, #136]	; (8001078 <_ZN15LineTypeNetworkC1Ev+0x218>)
 8000ff0:	9307      	str	r3, [sp, #28]
 8000ff2:	4b22      	ldr	r3, [pc, #136]	; (800107c <_ZN15LineTypeNetworkC1Ev+0x21c>)
 8000ff4:	9306      	str	r3, [sp, #24]
 8000ff6:	e896 0007 	ldmia.w	r6, {r0, r1, r2}
 8000ffa:	e888 0007 	stmia.w	r8, {r0, r1, r2}
 8000ffe:	e895 0007 	ldmia.w	r5, {r0, r1, r2}
 8001002:	e88d 0007 	stmia.w	sp, {r0, r1, r2}
 8001006:	4648      	mov	r0, r9
 8001008:	e894 000e 	ldmia.w	r4, {r1, r2, r3}
 800100c:	f7ff fad8 	bl	80005c0 <_ZN10NetFcLayerC1E14sLayerGeometryS0_S0_PKaS2_ii>
 8001010:	2305      	movs	r3, #5
 8001012:	4638      	mov	r0, r7
 8001014:	f8c7 9018 	str.w	r9, [r7, #24]
 8001018:	607b      	str	r3, [r7, #4]
 800101a:	f7ff fbb9 	bl	8000790 <_ZN13NeuralNetwork15allocate_bufferEv>
 800101e:	4638      	mov	r0, r7
 8001020:	b015      	add	sp, #84	; 0x54
 8001022:	e8bd 83f0 	ldmia.w	sp!, {r4, r5, r6, r7, r8, r9, pc}
 8001026:	bf00      	nop
 8001028:	08004250 	stmdaeq	r0, {r4, r6, r9, lr}
 800102c:	08004218 	stmdaeq	r0, {r3, r4, r9, lr}
 8001030:	0800420c 	stmdaeq	r0, {r2, r3, r9, lr}
 8001034:	08004224 	stmdaeq	r0, {r2, r5, r9, lr}
 8001038:	08002f24 	stmdaeq	r0, {r2, r5, r8, r9, sl, fp, sp}
 800103c:	08002f3c 	stmdaeq	r0, {r2, r3, r4, r5, r8, r9, sl, fp, sp}
 8001040:	08004224 	stmdaeq	r0, {r2, r5, r9, lr}
 8001044:	08004224 	stmdaeq	r0, {r2, r5, r9, lr}
 8001048:	08004224 	stmdaeq	r0, {r2, r5, r9, lr}
 800104c:	08004218 	stmdaeq	r0, {r3, r4, r9, lr}
 8001050:	08004224 	stmdaeq	r0, {r2, r5, r9, lr}
 8001054:	08004230 	stmdaeq	r0, {r4, r5, r9, lr}
 8001058:	08002f2c 	stmdaeq	r0, {r2, r3, r5, r8, r9, sl, fp, sp}
 800105c:	08002f84 	stmdaeq	r0, {r2, r7, r8, r9, sl, fp, sp}
 8001060:	08004230 	stmdaeq	r0, {r4, r5, r9, lr}
 8001064:	08004230 	stmdaeq	r0, {r4, r5, r9, lr}
 8001068:	08004230 	stmdaeq	r0, {r4, r5, r9, lr}
 800106c:	08004230 	stmdaeq	r0, {r4, r5, r9, lr}
 8001070:	08004230 	stmdaeq	r0, {r4, r5, r9, lr}
 8001074:	0800423c 	stmdaeq	r0, {r2, r3, r4, r5, r9, lr}
 8001078:	08002f34 	stmdaeq	r0, {r2, r4, r5, r8, r9, sl, fp, sp}
 800107c:	0800320c 	stmdaeq	r0, {r2, r3, r9, ip, sp}

08001080 <main>:
 8001080:	b5f0      	push	{r4, r5, r6, r7, lr}
 8001082:	4813      	ldr	r0, [pc, #76]	; (80010d0 <main+0x50>)
 8001084:	4e13      	ldr	r6, [pc, #76]	; (80010d4 <main+0x54>)
 8001086:	b0c1      	sub	sp, #260	; 0x104
 8001088:	f000 f992 	bl	80013b0 <_ZN7Drivers4initEv>
 800108c:	a814      	add	r0, sp, #80	; 0x50
 800108e:	f7ff fee7 	bl	8000e60 <_ZN15LineTypeNetworkC1Ev>
 8001092:	a914      	add	r1, sp, #80	; 0x50
 8001094:	4668      	mov	r0, sp
 8001096:	f7ff fdfb 	bl	8000c90 <_ZN13LinePredictorC1ER13NeuralNetwork>
 800109a:	480f      	ldr	r0, [pc, #60]	; (80010d8 <main+0x58>)
 800109c:	f001 f948 	bl	8002330 <_ZN3Key4readEv>
 80010a0:	2400      	movs	r4, #0
 80010a2:	f106 0770 	add.w	r7, r6, #112	; 0x70
 80010a6:	250a      	movs	r5, #10
 80010a8:	4630      	mov	r0, r6
 80010aa:	f001 f86b 	bl	8002184 <_ZN10LineSensor5readyEv>
 80010ae:	2800      	cmp	r0, #0
 80010b0:	d0fa      	beq.n	80010a8 <main+0x28>
 80010b2:	4639      	mov	r1, r7
 80010b4:	4668      	mov	r0, sp
 80010b6:	f7ff fdfd 	bl	8000cb4 <_ZN13LinePredictor7processEPi>
 80010ba:	fbb4 f3f5 	udiv	r3, r4, r5
 80010be:	fb05 4313 	mls	r3, r5, r3, r4
 80010c2:	b913      	cbnz	r3, 80010ca <main+0x4a>
 80010c4:	4668      	mov	r0, sp
 80010c6:	f7ff fe63 	bl	8000d90 <_ZN13LinePredictor5printEv>
 80010ca:	3401      	adds	r4, #1
 80010cc:	e7ec      	b.n	80010a8 <main+0x28>
 80010ce:	bf00      	nop
 80010d0:	20000000 	andcs	r0, r0, r0
 80010d4:	200000c8 	andcs	r0, r0, r8, asr #1
 80010d8:	200000b0 	strhcs	r0, [r0], -r0	; <UNPREDICTABLE>

080010dc <_GLOBAL__sub_I_drivers>:
 80010dc:	b510      	push	{r4, lr}
 80010de:	4c05      	ldr	r4, [pc, #20]	; (80010f4 <_GLOBAL__sub_I_drivers+0x18>)
 80010e0:	4620      	mov	r0, r4
 80010e2:	f000 f837 	bl	8001154 <_ZN7DriversC1Ev>
 80010e6:	4620      	mov	r0, r4
 80010e8:	4a03      	ldr	r2, [pc, #12]	; (80010f8 <_GLOBAL__sub_I_drivers+0x1c>)
 80010ea:	4904      	ldr	r1, [pc, #16]	; (80010fc <_GLOBAL__sub_I_drivers+0x20>)
 80010ec:	e8bd 4010 	ldmia.w	sp!, {r4, lr}
 80010f0:	f001 b8b0 	b.w	8002254 <__aeabi_atexit>
 80010f4:	20000000 	andcs	r0, r0, r0
 80010f8:	20000364 	andcs	r0, r0, r4, ror #6
 80010fc:	08001101 	stmdaeq	r0, {r0, r8, ip}

08001100 <_ZN7DriversD1Ev>:
 8001100:	4770      	bx	lr

08001102 <_ZN7DriversD0Ev>:
 8001102:	b510      	push	{r4, lr}
 8001104:	2108      	movs	r1, #8
 8001106:	4604      	mov	r4, r0
 8001108:	f000 fbd8 	bl	80018bc <_ZdlPvj>
 800110c:	4620      	mov	r0, r4
 800110e:	bd10      	pop	{r4, pc}

08001110 <_ZN4TI2CILh1ELh7ELh6ELh10ELh1EED1Ev>:
 8001110:	b510      	push	{r4, lr}
 8001112:	4b03      	ldr	r3, [pc, #12]	; (8001120 <_ZN4TI2CILh1ELh7ELh6ELh10ELh1EED1Ev+0x10>)
 8001114:	6003      	str	r3, [r0, #0]
 8001116:	4604      	mov	r4, r0
 8001118:	f000 fb72 	bl	8001800 <_ZN13I2C_InterfaceD1Ev>
 800111c:	4620      	mov	r0, r4
 800111e:	bd10      	pop	{r4, pc}
 8001120:	08004268 	stmdaeq	r0, {r3, r5, r6, r9, lr}

08001124 <_ZN4TI2CILh1ELh7ELh6ELh10ELh1EED0Ev>:
 8001124:	b510      	push	{r4, lr}
 8001126:	4604      	mov	r4, r0
 8001128:	f7ff fff2 	bl	8001110 <_ZN4TI2CILh1ELh7ELh6ELh10ELh1EED1Ev>
 800112c:	4620      	mov	r0, r4
 800112e:	2110      	movs	r1, #16
 8001130:	f000 fbc4 	bl	80018bc <_ZdlPvj>
 8001134:	4620      	mov	r0, r4
 8001136:	bd10      	pop	{r4, pc}

08001138 <_ZN8TerminallsEb>:
 8001138:	b510      	push	{r4, lr}
 800113a:	4604      	mov	r4, r0
 800113c:	b121      	cbz	r1, 8001148 <_ZN8TerminallsEb+0x10>
 800113e:	4903      	ldr	r1, [pc, #12]	; (800114c <_ZN8TerminallsEb+0x14>)
 8001140:	f000 fed0 	bl	8001ee4 <_ZN8Terminal4putsEPKc>
 8001144:	4620      	mov	r0, r4
 8001146:	bd10      	pop	{r4, pc}
 8001148:	4901      	ldr	r1, [pc, #4]	; (8001150 <_ZN8TerminallsEb+0x18>)
 800114a:	e7f9      	b.n	8001140 <_ZN8TerminallsEb+0x8>
 800114c:	08004385 	stmdaeq	r0, {r0, r2, r7, r8, r9, lr}
 8001150:	0800438a 	stmdaeq	r0, {r1, r3, r7, r8, r9, lr}

08001154 <_ZN7DriversC1Ev>:
 8001154:	4910      	ldr	r1, [pc, #64]	; (8001198 <_ZN7DriversC1Ev+0x44>)
 8001156:	4b11      	ldr	r3, [pc, #68]	; (800119c <_ZN7DriversC1Ev+0x48>)
 8001158:	6003      	str	r3, [r0, #0]
 800115a:	694b      	ldr	r3, [r1, #20]
 800115c:	f443 037f 	orr.w	r3, r3, #16711680	; 0xff0000
 8001160:	614b      	str	r3, [r1, #20]
 8001162:	4b0f      	ldr	r3, [pc, #60]	; (80011a0 <_ZN7DriversC1Ev+0x4c>)
 8001164:	6043      	str	r3, [r0, #4]
 8001166:	689a      	ldr	r2, [r3, #8]
 8001168:	f022 4240 	bic.w	r2, r2, #3221225472	; 0xc0000000
 800116c:	609a      	str	r2, [r3, #8]
 800116e:	689a      	ldr	r2, [r3, #8]
 8001170:	f042 4240 	orr.w	r2, r2, #3221225472	; 0xc0000000
 8001174:	609a      	str	r2, [r3, #8]
 8001176:	889a      	ldrh	r2, [r3, #4]
 8001178:	f3c2 020e 	ubfx	r2, r2, #0, #15
 800117c:	809a      	strh	r2, [r3, #4]
 800117e:	889a      	ldrh	r2, [r3, #4]
 8001180:	b292      	uxth	r2, r2
 8001182:	809a      	strh	r2, [r3, #4]
 8001184:	681a      	ldr	r2, [r3, #0]
 8001186:	f022 4240 	bic.w	r2, r2, #3221225472	; 0xc0000000
 800118a:	601a      	str	r2, [r3, #0]
 800118c:	681a      	ldr	r2, [r3, #0]
 800118e:	f042 4280 	orr.w	r2, r2, #1073741824	; 0x40000000
 8001192:	601a      	str	r2, [r3, #0]
 8001194:	4770      	bx	lr
 8001196:	bf00      	nop
 8001198:	40021000 	andmi	r1, r2, r0
 800119c:	08004398 	stmdaeq	r0, {r3, r4, r7, r8, r9, lr}
 80011a0:	48000400 	stmdami	r0, {sl}

080011a4 <_ZN5TGpioILh1ELh15ELh0EE5writeEi>:
 80011a4:	6803      	ldr	r3, [r0, #0]
 80011a6:	b121      	cbz	r1, 80011b2 <_ZN5TGpioILh1ELh15ELh0EE5writeEi+0xe>
 80011a8:	699a      	ldr	r2, [r3, #24]
 80011aa:	f442 4200 	orr.w	r2, r2, #32768	; 0x8000
 80011ae:	619a      	str	r2, [r3, #24]
 80011b0:	4770      	bx	lr
 80011b2:	8d1a      	ldrh	r2, [r3, #40]	; 0x28
 80011b4:	f442 4200 	orr.w	r2, r2, #32768	; 0x8000
 80011b8:	851a      	strh	r2, [r3, #40]	; 0x28
 80011ba:	4770      	bx	lr

080011bc <_ZN5TGpioILh1ELh7ELh1EE8set_modeEh>:
 80011bc:	b9d1      	cbnz	r1, 80011f4 <_ZN5TGpioILh1ELh7ELh1EE8set_modeEh+0x38>
 80011be:	6803      	ldr	r3, [r0, #0]
 80011c0:	689a      	ldr	r2, [r3, #8]
 80011c2:	f422 4240 	bic.w	r2, r2, #49152	; 0xc000
 80011c6:	609a      	str	r2, [r3, #8]
 80011c8:	689a      	ldr	r2, [r3, #8]
 80011ca:	f442 4240 	orr.w	r2, r2, #49152	; 0xc000
 80011ce:	609a      	str	r2, [r3, #8]
 80011d0:	889a      	ldrh	r2, [r3, #4]
 80011d2:	f022 0280 	bic.w	r2, r2, #128	; 0x80
 80011d6:	0412      	lsls	r2, r2, #16
 80011d8:	0c12      	lsrs	r2, r2, #16
 80011da:	809a      	strh	r2, [r3, #4]
 80011dc:	889a      	ldrh	r2, [r3, #4]
 80011de:	b292      	uxth	r2, r2
 80011e0:	809a      	strh	r2, [r3, #4]
 80011e2:	681a      	ldr	r2, [r3, #0]
 80011e4:	f422 4240 	bic.w	r2, r2, #49152	; 0xc000
 80011e8:	601a      	str	r2, [r3, #0]
 80011ea:	681a      	ldr	r2, [r3, #0]
 80011ec:	f442 4280 	orr.w	r2, r2, #16384	; 0x4000
 80011f0:	601a      	str	r2, [r3, #0]
 80011f2:	4770      	bx	lr
 80011f4:	2901      	cmp	r1, #1
 80011f6:	d10e      	bne.n	8001216 <_ZN5TGpioILh1ELh7ELh1EE8set_modeEh+0x5a>
 80011f8:	6803      	ldr	r3, [r0, #0]
 80011fa:	689a      	ldr	r2, [r3, #8]
 80011fc:	f422 4240 	bic.w	r2, r2, #49152	; 0xc000
 8001200:	609a      	str	r2, [r3, #8]
 8001202:	689a      	ldr	r2, [r3, #8]
 8001204:	f442 4240 	orr.w	r2, r2, #49152	; 0xc000
 8001208:	609a      	str	r2, [r3, #8]
 800120a:	681a      	ldr	r2, [r3, #0]
 800120c:	f422 4240 	bic.w	r2, r2, #49152	; 0xc000
 8001210:	601a      	str	r2, [r3, #0]
 8001212:	681a      	ldr	r2, [r3, #0]
 8001214:	e7ec      	b.n	80011f0 <_ZN5TGpioILh1ELh7ELh1EE8set_modeEh+0x34>
 8001216:	2902      	cmp	r1, #2
 8001218:	d113      	bne.n	8001242 <_ZN5TGpioILh1ELh7ELh1EE8set_modeEh+0x86>
 800121a:	6803      	ldr	r3, [r0, #0]
 800121c:	689a      	ldr	r2, [r3, #8]
 800121e:	f422 4240 	bic.w	r2, r2, #49152	; 0xc000
 8001222:	609a      	str	r2, [r3, #8]
 8001224:	689a      	ldr	r2, [r3, #8]
 8001226:	f442 4240 	orr.w	r2, r2, #49152	; 0xc000
 800122a:	609a      	str	r2, [r3, #8]
 800122c:	681a      	ldr	r2, [r3, #0]
 800122e:	f422 4240 	bic.w	r2, r2, #49152	; 0xc000
 8001232:	601a      	str	r2, [r3, #0]
 8001234:	681a      	ldr	r2, [r3, #0]
 8001236:	601a      	str	r2, [r3, #0]
 8001238:	68da      	ldr	r2, [r3, #12]
 800123a:	f442 4280 	orr.w	r2, r2, #16384	; 0x4000
 800123e:	60da      	str	r2, [r3, #12]
 8001240:	4770      	bx	lr
 8001242:	2903      	cmp	r1, #3
 8001244:	d110      	bne.n	8001268 <_ZN5TGpioILh1ELh7ELh1EE8set_modeEh+0xac>
 8001246:	6803      	ldr	r3, [r0, #0]
 8001248:	689a      	ldr	r2, [r3, #8]
 800124a:	f422 4240 	bic.w	r2, r2, #49152	; 0xc000
 800124e:	609a      	str	r2, [r3, #8]
 8001250:	689a      	ldr	r2, [r3, #8]
 8001252:	f442 4240 	orr.w	r2, r2, #49152	; 0xc000
 8001256:	609a      	str	r2, [r3, #8]
 8001258:	681a      	ldr	r2, [r3, #0]
 800125a:	f422 4240 	bic.w	r2, r2, #49152	; 0xc000
 800125e:	601a      	str	r2, [r3, #0]
 8001260:	681a      	ldr	r2, [r3, #0]
 8001262:	f442 4200 	orr.w	r2, r2, #32768	; 0x8000
 8001266:	e7c3      	b.n	80011f0 <_ZN5TGpioILh1ELh7ELh1EE8set_modeEh+0x34>
 8001268:	2904      	cmp	r1, #4
 800126a:	d1c2      	bne.n	80011f2 <_ZN5TGpioILh1ELh7ELh1EE8set_modeEh+0x36>
 800126c:	6803      	ldr	r3, [r0, #0]
 800126e:	681a      	ldr	r2, [r3, #0]
 8001270:	f422 4240 	bic.w	r2, r2, #49152	; 0xc000
 8001274:	601a      	str	r2, [r3, #0]
 8001276:	681a      	ldr	r2, [r3, #0]
 8001278:	f442 4240 	orr.w	r2, r2, #49152	; 0xc000
 800127c:	e7b8      	b.n	80011f0 <_ZN5TGpioILh1ELh7ELh1EE8set_modeEh+0x34>
 800127e:	0000      	movs	r0, r0

08001280 <_ZN5TGpioILh1ELh7ELh1EE4initEv>:
 8001280:	4a05      	ldr	r2, [pc, #20]	; (8001298 <_ZN5TGpioILh1ELh7ELh1EE4initEv+0x18>)
 8001282:	b508      	push	{r3, lr}
 8001284:	6953      	ldr	r3, [r2, #20]
 8001286:	f443 037f 	orr.w	r3, r3, #16711680	; 0xff0000
 800128a:	6153      	str	r3, [r2, #20]
 800128c:	4b03      	ldr	r3, [pc, #12]	; (800129c <_ZN5TGpioILh1ELh7ELh1EE4initEv+0x1c>)
 800128e:	6003      	str	r3, [r0, #0]
 8001290:	2101      	movs	r1, #1
 8001292:	f7ff ff93 	bl	80011bc <_ZN5TGpioILh1ELh7ELh1EE8set_modeEh>
 8001296:	bd08      	pop	{r3, pc}
 8001298:	40021000 	andmi	r1, r2, r0
 800129c:	48000400 	stmdami	r0, {sl}

080012a0 <_ZN5TGpioILh1ELh6ELh1EE8set_modeEh>:
 80012a0:	b9d1      	cbnz	r1, 80012d8 <_ZN5TGpioILh1ELh6ELh1EE8set_modeEh+0x38>
 80012a2:	6803      	ldr	r3, [r0, #0]
 80012a4:	689a      	ldr	r2, [r3, #8]
 80012a6:	f422 5240 	bic.w	r2, r2, #12288	; 0x3000
 80012aa:	609a      	str	r2, [r3, #8]
 80012ac:	689a      	ldr	r2, [r3, #8]
 80012ae:	f442 5240 	orr.w	r2, r2, #12288	; 0x3000
 80012b2:	609a      	str	r2, [r3, #8]
 80012b4:	889a      	ldrh	r2, [r3, #4]
 80012b6:	f022 0240 	bic.w	r2, r2, #64	; 0x40
 80012ba:	0412      	lsls	r2, r2, #16
 80012bc:	0c12      	lsrs	r2, r2, #16
 80012be:	809a      	strh	r2, [r3, #4]
 80012c0:	889a      	ldrh	r2, [r3, #4]
 80012c2:	b292      	uxth	r2, r2
 80012c4:	809a      	strh	r2, [r3, #4]
 80012c6:	681a      	ldr	r2, [r3, #0]
 80012c8:	f422 5240 	bic.w	r2, r2, #12288	; 0x3000
 80012cc:	601a      	str	r2, [r3, #0]
 80012ce:	681a      	ldr	r2, [r3, #0]
 80012d0:	f442 5280 	orr.w	r2, r2, #4096	; 0x1000
 80012d4:	601a      	str	r2, [r3, #0]
 80012d6:	4770      	bx	lr
 80012d8:	2901      	cmp	r1, #1
 80012da:	d10e      	bne.n	80012fa <_ZN5TGpioILh1ELh6ELh1EE8set_modeEh+0x5a>
 80012dc:	6803      	ldr	r3, [r0, #0]
 80012de:	689a      	ldr	r2, [r3, #8]
 80012e0:	f422 5240 	bic.w	r2, r2, #12288	; 0x3000
 80012e4:	609a      	str	r2, [r3, #8]
 80012e6:	689a      	ldr	r2, [r3, #8]
 80012e8:	f442 5240 	orr.w	r2, r2, #12288	; 0x3000
 80012ec:	609a      	str	r2, [r3, #8]
 80012ee:	681a      	ldr	r2, [r3, #0]
 80012f0:	f422 5240 	bic.w	r2, r2, #12288	; 0x3000
 80012f4:	601a      	str	r2, [r3, #0]
 80012f6:	681a      	ldr	r2, [r3, #0]
 80012f8:	e7ec      	b.n	80012d4 <_ZN5TGpioILh1ELh6ELh1EE8set_modeEh+0x34>
 80012fa:	2902      	cmp	r1, #2
 80012fc:	d113      	bne.n	8001326 <_ZN5TGpioILh1ELh6ELh1EE8set_modeEh+0x86>
 80012fe:	6803      	ldr	r3, [r0, #0]
 8001300:	689a      	ldr	r2, [r3, #8]
 8001302:	f422 5240 	bic.w	r2, r2, #12288	; 0x3000
 8001306:	609a      	str	r2, [r3, #8]
 8001308:	689a      	ldr	r2, [r3, #8]
 800130a:	f442 5240 	orr.w	r2, r2, #12288	; 0x3000
 800130e:	609a      	str	r2, [r3, #8]
 8001310:	681a      	ldr	r2, [r3, #0]
 8001312:	f422 5240 	bic.w	r2, r2, #12288	; 0x3000
 8001316:	601a      	str	r2, [r3, #0]
 8001318:	681a      	ldr	r2, [r3, #0]
 800131a:	601a      	str	r2, [r3, #0]
 800131c:	68da      	ldr	r2, [r3, #12]
 800131e:	f442 5280 	orr.w	r2, r2, #4096	; 0x1000
 8001322:	60da      	str	r2, [r3, #12]
 8001324:	4770      	bx	lr
 8001326:	2903      	cmp	r1, #3
 8001328:	d110      	bne.n	800134c <_ZN5TGpioILh1ELh6ELh1EE8set_modeEh+0xac>
 800132a:	6803      	ldr	r3, [r0, #0]
 800132c:	689a      	ldr	r2, [r3, #8]
 800132e:	f422 5240 	bic.w	r2, r2, #12288	; 0x3000
 8001332:	609a      	str	r2, [r3, #8]
 8001334:	689a      	ldr	r2, [r3, #8]
 8001336:	f442 5240 	orr.w	r2, r2, #12288	; 0x3000
 800133a:	609a      	str	r2, [r3, #8]
 800133c:	681a      	ldr	r2, [r3, #0]
 800133e:	f422 5240 	bic.w	r2, r2, #12288	; 0x3000
 8001342:	601a      	str	r2, [r3, #0]
 8001344:	681a      	ldr	r2, [r3, #0]
 8001346:	f442 5200 	orr.w	r2, r2, #8192	; 0x2000
 800134a:	e7c3      	b.n	80012d4 <_ZN5TGpioILh1ELh6ELh1EE8set_modeEh+0x34>
 800134c:	2904      	cmp	r1, #4
 800134e:	d1c2      	bne.n	80012d6 <_ZN5TGpioILh1ELh6ELh1EE8set_modeEh+0x36>
 8001350:	6803      	ldr	r3, [r0, #0]
 8001352:	681a      	ldr	r2, [r3, #0]
 8001354:	f422 5240 	bic.w	r2, r2, #12288	; 0x3000
 8001358:	601a      	str	r2, [r3, #0]
 800135a:	681a      	ldr	r2, [r3, #0]
 800135c:	f442 5240 	orr.w	r2, r2, #12288	; 0x3000
 8001360:	e7b8      	b.n	80012d4 <_ZN5TGpioILh1ELh6ELh1EE8set_modeEh+0x34>
 8001362:	0000      	movs	r0, r0

08001364 <_ZN5TGpioILh1ELh6ELh1EE4initEv>:
 8001364:	4a05      	ldr	r2, [pc, #20]	; (800137c <_ZN5TGpioILh1ELh6ELh1EE4initEv+0x18>)
 8001366:	b508      	push	{r3, lr}
 8001368:	6953      	ldr	r3, [r2, #20]
 800136a:	f443 037f 	orr.w	r3, r3, #16711680	; 0xff0000
 800136e:	6153      	str	r3, [r2, #20]
 8001370:	4b03      	ldr	r3, [pc, #12]	; (8001380 <_ZN5TGpioILh1ELh6ELh1EE4initEv+0x1c>)
 8001372:	6003      	str	r3, [r0, #0]
 8001374:	2101      	movs	r1, #1
 8001376:	f7ff ff93 	bl	80012a0 <_ZN5TGpioILh1ELh6ELh1EE8set_modeEh>
 800137a:	bd08      	pop	{r3, pc}
 800137c:	40021000 	andmi	r1, r2, r0
 8001380:	48000400 	stmdami	r0, {sl}

08001384 <_ZN4TI2CILh1ELh7ELh6ELh10ELh1EE4initEv>:
 8001384:	230a      	movs	r3, #10
 8001386:	b510      	push	{r4, lr}
 8001388:	6043      	str	r3, [r0, #4]
 800138a:	4604      	mov	r4, r0
 800138c:	3008      	adds	r0, #8
 800138e:	f7ff ff77 	bl	8001280 <_ZN5TGpioILh1ELh7ELh1EE4initEv>
 8001392:	f104 000c 	add.w	r0, r4, #12
 8001396:	f7ff ffe5 	bl	8001364 <_ZN5TGpioILh1ELh6ELh1EE4initEv>
 800139a:	68a2      	ldr	r2, [r4, #8]
 800139c:	8d13      	ldrh	r3, [r2, #40]	; 0x28
 800139e:	f043 0380 	orr.w	r3, r3, #128	; 0x80
 80013a2:	8513      	strh	r3, [r2, #40]	; 0x28
 80013a4:	68e2      	ldr	r2, [r4, #12]
 80013a6:	8d13      	ldrh	r3, [r2, #40]	; 0x28
 80013a8:	f043 0340 	orr.w	r3, r3, #64	; 0x40
 80013ac:	8513      	strh	r3, [r2, #40]	; 0x28
 80013ae:	bd10      	pop	{r4, pc}

080013b0 <_ZN7Drivers4initEv>:
 80013b0:	e92d 41f0 	stmdb	sp!, {r4, r5, r6, r7, r8, lr}
 80013b4:	4605      	mov	r5, r0
 80013b6:	4c3f      	ldr	r4, [pc, #252]	; (80014b4 <_ZN7Drivers4initEv+0x104>)
 80013b8:	4f3f      	ldr	r7, [pc, #252]	; (80014b8 <_ZN7Drivers4initEv+0x108>)
 80013ba:	f8df 8150 	ldr.w	r8, [pc, #336]	; 800150c <_ZN7Drivers4initEv+0x15c>
 80013be:	3504      	adds	r5, #4
 80013c0:	f7fe ff30 	bl	8000224 <SystemInit>
 80013c4:	2101      	movs	r1, #1
 80013c6:	4628      	mov	r0, r5
 80013c8:	f7ff feec 	bl	80011a4 <_ZN5TGpioILh1ELh15ELh0EE5writeEi>
 80013cc:	4620      	mov	r0, r4
 80013ce:	f001 f935 	bl	800263c <_ZN5Usart4initEv>
 80013d2:	4620      	mov	r0, r4
 80013d4:	4939      	ldr	r1, [pc, #228]	; (80014bc <_ZN7Drivers4initEv+0x10c>)
 80013d6:	f000 fd85 	bl	8001ee4 <_ZN8Terminal4putsEPKc>
 80013da:	4939      	ldr	r1, [pc, #228]	; (80014c0 <_ZN7Drivers4initEv+0x110>)
 80013dc:	4620      	mov	r0, r4
 80013de:	f000 fd81 	bl	8001ee4 <_ZN8Terminal4putsEPKc>
 80013e2:	f000 fa5b 	bl	800189c <_Z8mem_initv>
 80013e6:	4937      	ldr	r1, [pc, #220]	; (80014c4 <_ZN7Drivers4initEv+0x114>)
 80013e8:	4606      	mov	r6, r0
 80013ea:	4620      	mov	r0, r4
 80013ec:	f000 fd7a 	bl	8001ee4 <_ZN8Terminal4putsEPKc>
 80013f0:	4631      	mov	r1, r6
 80013f2:	4e35      	ldr	r6, [pc, #212]	; (80014c8 <_ZN7Drivers4initEv+0x118>)
 80013f4:	4620      	mov	r0, r4
 80013f6:	f000 fda9 	bl	8001f4c <_ZN8Terminal5putuiEm>
 80013fa:	4631      	mov	r1, r6
 80013fc:	4620      	mov	r0, r4
 80013fe:	f000 fd71 	bl	8001ee4 <_ZN8Terminal4putsEPKc>
 8001402:	4638      	mov	r0, r7
 8001404:	f000 fba6 	bl	8001b54 <_ZN5Timer4initEv>
 8001408:	4620      	mov	r0, r4
 800140a:	4930      	ldr	r1, [pc, #192]	; (80014cc <_ZN7Drivers4initEv+0x11c>)
 800140c:	f000 fd6a 	bl	8001ee4 <_ZN8Terminal4putsEPKc>
 8001410:	4620      	mov	r0, r4
 8001412:	492f      	ldr	r1, [pc, #188]	; (80014d0 <_ZN7Drivers4initEv+0x120>)
 8001414:	f000 fd66 	bl	8001ee4 <_ZN8Terminal4putsEPKc>
 8001418:	4638      	mov	r0, r7
 800141a:	21c8      	movs	r1, #200	; 0xc8
 800141c:	f000 fc10 	bl	8001c40 <_ZN5Timer8delay_msEj>
 8001420:	492c      	ldr	r1, [pc, #176]	; (80014d4 <_ZN7Drivers4initEv+0x124>)
 8001422:	4f2d      	ldr	r7, [pc, #180]	; (80014d8 <_ZN7Drivers4initEv+0x128>)
 8001424:	4620      	mov	r0, r4
 8001426:	f000 fd5d 	bl	8001ee4 <_ZN8Terminal4putsEPKc>
 800142a:	4640      	mov	r0, r8
 800142c:	f7ff ffaa 	bl	8001384 <_ZN4TI2CILh1ELh7ELh6ELh10ELh1EE4initEv>
 8001430:	4620      	mov	r0, r4
 8001432:	492a      	ldr	r1, [pc, #168]	; (80014dc <_ZN7Drivers4initEv+0x12c>)
 8001434:	f000 fd56 	bl	8001ee4 <_ZN8Terminal4putsEPKc>
 8001438:	4641      	mov	r1, r8
 800143a:	4638      	mov	r0, r7
 800143c:	f001 f880 	bl	8002540 <_ZN3IMU4initEP13I2C_Interface>
 8001440:	4927      	ldr	r1, [pc, #156]	; (80014e0 <_ZN7Drivers4initEv+0x130>)
 8001442:	4620      	mov	r0, r4
 8001444:	f000 fd4e 	bl	8001ee4 <_ZN8Terminal4putsEPKc>
 8001448:	4638      	mov	r0, r7
 800144a:	f001 f86e 	bl	800252a <_ZN3IMU7presentEv>
 800144e:	4601      	mov	r1, r0
 8001450:	4620      	mov	r0, r4
 8001452:	f7ff fe71 	bl	8001138 <_ZN8TerminallsEb>
 8001456:	4631      	mov	r1, r6
 8001458:	f000 fd44 	bl	8001ee4 <_ZN8Terminal4putsEPKc>
 800145c:	4821      	ldr	r0, [pc, #132]	; (80014e4 <_ZN7Drivers4initEv+0x134>)
 800145e:	f000 fe33 	bl	80020c8 <_ZN10LineSensor4initEv>
 8001462:	4921      	ldr	r1, [pc, #132]	; (80014e8 <_ZN7Drivers4initEv+0x138>)
 8001464:	4620      	mov	r0, r4
 8001466:	f000 fd3d 	bl	8001ee4 <_ZN8Terminal4putsEPKc>
 800146a:	4820      	ldr	r0, [pc, #128]	; (80014ec <_ZN7Drivers4initEv+0x13c>)
 800146c:	f001 f9a2 	bl	80027b4 <_ZN7Encoder4initEv>
 8001470:	491f      	ldr	r1, [pc, #124]	; (80014f0 <_ZN7Drivers4initEv+0x140>)
 8001472:	4620      	mov	r0, r4
 8001474:	f000 fd36 	bl	8001ee4 <_ZN8Terminal4putsEPKc>
 8001478:	481e      	ldr	r0, [pc, #120]	; (80014f4 <_ZN7Drivers4initEv+0x144>)
 800147a:	f000 fcd7 	bl	8001e2c <_ZN13MotorControll4initEv>
 800147e:	4620      	mov	r0, r4
 8001480:	491d      	ldr	r1, [pc, #116]	; (80014f8 <_ZN7Drivers4initEv+0x148>)
 8001482:	f000 fd2f 	bl	8001ee4 <_ZN8Terminal4putsEPKc>
 8001486:	2100      	movs	r1, #0
 8001488:	4628      	mov	r0, r5
 800148a:	f7ff fe8b 	bl	80011a4 <_ZN5TGpioILh1ELh15ELh0EE5writeEi>
 800148e:	481b      	ldr	r0, [pc, #108]	; (80014fc <_ZN7Drivers4initEv+0x14c>)
 8001490:	f000 ff3c 	bl	800230c <_ZN3Key4initEv>
 8001494:	4620      	mov	r0, r4
 8001496:	491a      	ldr	r1, [pc, #104]	; (8001500 <_ZN7Drivers4initEv+0x150>)
 8001498:	f000 fd24 	bl	8001ee4 <_ZN8Terminal4putsEPKc>
 800149c:	4620      	mov	r0, r4
 800149e:	4919      	ldr	r1, [pc, #100]	; (8001504 <_ZN7Drivers4initEv+0x154>)
 80014a0:	f000 fd20 	bl	8001ee4 <_ZN8Terminal4putsEPKc>
 80014a4:	4620      	mov	r0, r4
 80014a6:	4918      	ldr	r1, [pc, #96]	; (8001508 <_ZN7Drivers4initEv+0x158>)
 80014a8:	f000 fd1c 	bl	8001ee4 <_ZN8Terminal4putsEPKc>
 80014ac:	2000      	movs	r0, #0
 80014ae:	e8bd 81f0 	ldmia.w	sp!, {r4, r5, r6, r7, r8, pc}
 80014b2:	bf00      	nop
 80014b4:	20000214 	andcs	r0, r0, r4, lsl r2
 80014b8:	20000218 	andcs	r0, r0, r8, lsl r2
 80014bc:	08004299 	stmdaeq	r0, {r0, r3, r4, r7, r9, lr}
 80014c0:	080042a5 	stmdaeq	r0, {r0, r2, r5, r7, r9, lr}
 80014c4:	080042b9 	stmdaeq	r0, {r0, r3, r4, r5, r7, r9, lr}
 80014c8:	080042a3 	stmdaeq	r0, {r0, r1, r5, r7, r9, lr}
 80014cc:	080042d7 	stmdaeq	r0, {r0, r1, r2, r4, r6, r7, r9, lr}
 80014d0:	080042e8 	stmdaeq	r0, {r3, r5, r6, r7, r9, lr}
 80014d4:	080042ff 	stmdaeq	r0, {r0, r1, r2, r3, r4, r5, r6, r7, r9, lr}
 80014d8:	2000006c 	andcs	r0, r0, ip, rrx
 80014dc:	080042f6 	stmdaeq	r0, {r1, r2, r4, r5, r6, r7, r9, lr}
 80014e0:	08004305 	stmdaeq	r0, {r0, r2, r8, r9, lr}
 80014e4:	200000c8 	andcs	r0, r0, r8, asr #1
 80014e8:	08004319 	stmdaeq	r0, {r0, r3, r4, r8, r9, lr}
 80014ec:	2000004c 	andcs	r0, r0, ip, asr #32
 80014f0:	08004330 	stmdaeq	r0, {r4, r5, r8, r9, lr}
 80014f4:	20000184 	andcs	r0, r0, r4, lsl #3
 80014f8:	0800434a 	stmdaeq	r0, {r1, r3, r6, r8, r9, lr}
 80014fc:	200000b0 	strhcs	r0, [r0], -r0	; <UNPREDICTABLE>
 8001500:	08004364 	stmdaeq	r0, {r2, r5, r6, r8, r9, lr}
 8001504:	080042a2 	stmdaeq	r0, {r1, r5, r7, r9, lr}
 8001508:	08004373 	stmdaeq	r0, {r0, r1, r4, r5, r6, r8, r9, lr}
 800150c:	2000005c 	andcs	r0, r0, ip, asr r0

08001510 <_ZN4TI2CILh1ELh7ELh6ELh10ELh1EE4stopEv>:
 8001510:	b570      	push	{r4, r5, r6, lr}
 8001512:	4604      	mov	r4, r0
 8001514:	f100 060c 	add.w	r6, r0, #12
 8001518:	f104 0508 	add.w	r5, r4, #8
 800151c:	4630      	mov	r0, r6
 800151e:	2100      	movs	r1, #0
 8001520:	f7ff febe 	bl	80012a0 <_ZN5TGpioILh1ELh6ELh1EE8set_modeEh>
 8001524:	4628      	mov	r0, r5
 8001526:	2100      	movs	r1, #0
 8001528:	f7ff fe48 	bl	80011bc <_ZN5TGpioILh1ELh7ELh1EE8set_modeEh>
 800152c:	4630      	mov	r0, r6
 800152e:	2101      	movs	r1, #1
 8001530:	f7ff feb6 	bl	80012a0 <_ZN5TGpioILh1ELh6ELh1EE8set_modeEh>
 8001534:	4628      	mov	r0, r5
 8001536:	2100      	movs	r1, #0
 8001538:	f7ff fe40 	bl	80011bc <_ZN5TGpioILh1ELh7ELh1EE8set_modeEh>
 800153c:	4630      	mov	r0, r6
 800153e:	2101      	movs	r1, #1
 8001540:	f7ff feae 	bl	80012a0 <_ZN5TGpioILh1ELh6ELh1EE8set_modeEh>
 8001544:	4628      	mov	r0, r5
 8001546:	2101      	movs	r1, #1
 8001548:	f7ff fe38 	bl	80011bc <_ZN5TGpioILh1ELh7ELh1EE8set_modeEh>
 800154c:	4620      	mov	r0, r4
 800154e:	e8bd 4070 	ldmia.w	sp!, {r4, r5, r6, lr}
 8001552:	f000 b99b 	b.w	800188c <_ZN13I2C_Interface5delayEv>

08001556 <_ZN4TI2CILh1ELh7ELh6ELh10ELh1EE5startEv>:
 8001556:	b570      	push	{r4, r5, r6, lr}
 8001558:	4604      	mov	r4, r0
 800155a:	f100 060c 	add.w	r6, r0, #12
 800155e:	f104 0508 	add.w	r5, r4, #8
 8001562:	4630      	mov	r0, r6
 8001564:	2101      	movs	r1, #1
 8001566:	f7ff fe9b 	bl	80012a0 <_ZN5TGpioILh1ELh6ELh1EE8set_modeEh>
 800156a:	4628      	mov	r0, r5
 800156c:	2101      	movs	r1, #1
 800156e:	f7ff fe25 	bl	80011bc <_ZN5TGpioILh1ELh7ELh1EE8set_modeEh>
 8001572:	4630      	mov	r0, r6
 8001574:	2101      	movs	r1, #1
 8001576:	f7ff fe93 	bl	80012a0 <_ZN5TGpioILh1ELh6ELh1EE8set_modeEh>
 800157a:	4628      	mov	r0, r5
 800157c:	2100      	movs	r1, #0
 800157e:	f7ff fe1d 	bl	80011bc <_ZN5TGpioILh1ELh7ELh1EE8set_modeEh>
 8001582:	4630      	mov	r0, r6
 8001584:	2100      	movs	r1, #0
 8001586:	f7ff fe8b 	bl	80012a0 <_ZN5TGpioILh1ELh6ELh1EE8set_modeEh>
 800158a:	4628      	mov	r0, r5
 800158c:	2101      	movs	r1, #1
 800158e:	f7ff fe15 	bl	80011bc <_ZN5TGpioILh1ELh7ELh1EE8set_modeEh>
 8001592:	4620      	mov	r0, r4
 8001594:	e8bd 4070 	ldmia.w	sp!, {r4, r5, r6, lr}
 8001598:	f000 b978 	b.w	800188c <_ZN13I2C_Interface5delayEv>

0800159c <_ZN4TI2CILh1ELh7ELh6ELh10ELh1EE4readEh>:
 800159c:	e92d 43f8 	stmdb	sp!, {r3, r4, r5, r6, r7, r8, r9, lr}
 80015a0:	4604      	mov	r4, r0
 80015a2:	f100 0808 	add.w	r8, r0, #8
 80015a6:	4640      	mov	r0, r8
 80015a8:	4689      	mov	r9, r1
 80015aa:	f104 070c 	add.w	r7, r4, #12
 80015ae:	2101      	movs	r1, #1
 80015b0:	f7ff fe04 	bl	80011bc <_ZN5TGpioILh1ELh7ELh1EE8set_modeEh>
 80015b4:	2100      	movs	r1, #0
 80015b6:	4638      	mov	r0, r7
 80015b8:	f7ff fe72 	bl	80012a0 <_ZN5TGpioILh1ELh6ELh1EE8set_modeEh>
 80015bc:	4620      	mov	r0, r4
 80015be:	f000 f965 	bl	800188c <_ZN13I2C_Interface5delayEv>
 80015c2:	2608      	movs	r6, #8
 80015c4:	2500      	movs	r5, #0
 80015c6:	2101      	movs	r1, #1
 80015c8:	4638      	mov	r0, r7
 80015ca:	f7ff fe69 	bl	80012a0 <_ZN5TGpioILh1ELh6ELh1EE8set_modeEh>
 80015ce:	4620      	mov	r0, r4
 80015d0:	f000 f95c 	bl	800188c <_ZN13I2C_Interface5delayEv>
 80015d4:	68a3      	ldr	r3, [r4, #8]
 80015d6:	8a1b      	ldrh	r3, [r3, #16]
 80015d8:	006d      	lsls	r5, r5, #1
 80015da:	061b      	lsls	r3, r3, #24
 80015dc:	f04f 0100 	mov.w	r1, #0
 80015e0:	4638      	mov	r0, r7
 80015e2:	b2ed      	uxtb	r5, r5
 80015e4:	bf48      	it	mi
 80015e6:	f045 0501 	orrmi.w	r5, r5, #1
 80015ea:	3e01      	subs	r6, #1
 80015ec:	f7ff fe58 	bl	80012a0 <_ZN5TGpioILh1ELh6ELh1EE8set_modeEh>
 80015f0:	4620      	mov	r0, r4
 80015f2:	f000 f94b 	bl	800188c <_ZN13I2C_Interface5delayEv>
 80015f6:	f016 06ff 	ands.w	r6, r6, #255	; 0xff
 80015fa:	d1e4      	bne.n	80015c6 <_ZN4TI2CILh1ELh7ELh6ELh10ELh1EE4readEh+0x2a>
 80015fc:	f1b9 0f00 	cmp.w	r9, #0
 8001600:	d01e      	beq.n	8001640 <_ZN4TI2CILh1ELh7ELh6ELh10ELh1EE4readEh+0xa4>
 8001602:	4631      	mov	r1, r6
 8001604:	4640      	mov	r0, r8
 8001606:	f7ff fdd9 	bl	80011bc <_ZN5TGpioILh1ELh7ELh1EE8set_modeEh>
 800160a:	4620      	mov	r0, r4
 800160c:	f000 f93e 	bl	800188c <_ZN13I2C_Interface5delayEv>
 8001610:	2101      	movs	r1, #1
 8001612:	4638      	mov	r0, r7
 8001614:	f7ff fe44 	bl	80012a0 <_ZN5TGpioILh1ELh6ELh1EE8set_modeEh>
 8001618:	4620      	mov	r0, r4
 800161a:	f000 f937 	bl	800188c <_ZN13I2C_Interface5delayEv>
 800161e:	2100      	movs	r1, #0
 8001620:	4638      	mov	r0, r7
 8001622:	f7ff fe3d 	bl	80012a0 <_ZN5TGpioILh1ELh6ELh1EE8set_modeEh>
 8001626:	4620      	mov	r0, r4
 8001628:	f000 f930 	bl	800188c <_ZN13I2C_Interface5delayEv>
 800162c:	2101      	movs	r1, #1
 800162e:	4640      	mov	r0, r8
 8001630:	f7ff fdc4 	bl	80011bc <_ZN5TGpioILh1ELh7ELh1EE8set_modeEh>
 8001634:	4620      	mov	r0, r4
 8001636:	f000 f929 	bl	800188c <_ZN13I2C_Interface5delayEv>
 800163a:	4628      	mov	r0, r5
 800163c:	e8bd 83f8 	ldmia.w	sp!, {r3, r4, r5, r6, r7, r8, r9, pc}
 8001640:	2101      	movs	r1, #1
 8001642:	e7df      	b.n	8001604 <_ZN4TI2CILh1ELh7ELh6ELh10ELh1EE4readEh+0x68>

08001644 <_ZN4TI2CILh1ELh7ELh6ELh10ELh1EE5writeEh>:
 8001644:	e92d 41f0 	stmdb	sp!, {r4, r5, r6, r7, r8, lr}
 8001648:	2508      	movs	r5, #8
 800164a:	4604      	mov	r4, r0
 800164c:	460e      	mov	r6, r1
 800164e:	eb00 0805 	add.w	r8, r0, r5
 8001652:	f104 070c 	add.w	r7, r4, #12
 8001656:	2100      	movs	r1, #0
 8001658:	4638      	mov	r0, r7
 800165a:	f7ff fe21 	bl	80012a0 <_ZN5TGpioILh1ELh6ELh1EE8set_modeEh>
 800165e:	4620      	mov	r0, r4
 8001660:	f000 f914 	bl	800188c <_ZN13I2C_Interface5delayEv>
 8001664:	0633      	lsls	r3, r6, #24
 8001666:	bf4c      	ite	mi
 8001668:	2101      	movmi	r1, #1
 800166a:	2100      	movpl	r1, #0
 800166c:	4640      	mov	r0, r8
 800166e:	f7ff fda5 	bl	80011bc <_ZN5TGpioILh1ELh7ELh1EE8set_modeEh>
 8001672:	4620      	mov	r0, r4
 8001674:	f000 f90a 	bl	800188c <_ZN13I2C_Interface5delayEv>
 8001678:	2101      	movs	r1, #1
 800167a:	4638      	mov	r0, r7
 800167c:	f7ff fe10 	bl	80012a0 <_ZN5TGpioILh1ELh6ELh1EE8set_modeEh>
 8001680:	3d01      	subs	r5, #1
 8001682:	4620      	mov	r0, r4
 8001684:	f000 f902 	bl	800188c <_ZN13I2C_Interface5delayEv>
 8001688:	0076      	lsls	r6, r6, #1
 800168a:	f015 05ff 	ands.w	r5, r5, #255	; 0xff
 800168e:	b2f6      	uxtb	r6, r6
 8001690:	d1df      	bne.n	8001652 <_ZN4TI2CILh1ELh7ELh6ELh10ELh1EE5writeEh+0xe>
 8001692:	4629      	mov	r1, r5
 8001694:	4638      	mov	r0, r7
 8001696:	f7ff fe03 	bl	80012a0 <_ZN5TGpioILh1ELh6ELh1EE8set_modeEh>
 800169a:	4620      	mov	r0, r4
 800169c:	f000 f8f6 	bl	800188c <_ZN13I2C_Interface5delayEv>
 80016a0:	2101      	movs	r1, #1
 80016a2:	4640      	mov	r0, r8
 80016a4:	f7ff fd8a 	bl	80011bc <_ZN5TGpioILh1ELh7ELh1EE8set_modeEh>
 80016a8:	4620      	mov	r0, r4
 80016aa:	f000 f8ef 	bl	800188c <_ZN13I2C_Interface5delayEv>
 80016ae:	2101      	movs	r1, #1
 80016b0:	4638      	mov	r0, r7
 80016b2:	f7ff fdf5 	bl	80012a0 <_ZN5TGpioILh1ELh6ELh1EE8set_modeEh>
 80016b6:	4620      	mov	r0, r4
 80016b8:	f000 f8e8 	bl	800188c <_ZN13I2C_Interface5delayEv>
 80016bc:	68a3      	ldr	r3, [r4, #8]
 80016be:	8a1e      	ldrh	r6, [r3, #16]
 80016c0:	4629      	mov	r1, r5
 80016c2:	4638      	mov	r0, r7
 80016c4:	f7ff fdec 	bl	80012a0 <_ZN5TGpioILh1ELh6ELh1EE8set_modeEh>
 80016c8:	b2b6      	uxth	r6, r6
 80016ca:	4620      	mov	r0, r4
 80016cc:	f000 f8de 	bl	800188c <_ZN13I2C_Interface5delayEv>
 80016d0:	f086 0080 	eor.w	r0, r6, #128	; 0x80
 80016d4:	f3c0 10c0 	ubfx	r0, r0, #7, #1
 80016d8:	e8bd 81f0 	ldmia.w	sp!, {r4, r5, r6, r7, r8, pc}

080016dc <_GLOBAL__sub_I_i2c>:
 80016dc:	b538      	push	{r3, r4, r5, lr}
 80016de:	4d2f      	ldr	r5, [pc, #188]	; (800179c <_GLOBAL__sub_I_i2c+0xc0>)
 80016e0:	4c2f      	ldr	r4, [pc, #188]	; (80017a0 <_GLOBAL__sub_I_i2c+0xc4>)
 80016e2:	4628      	mov	r0, r5
 80016e4:	f000 f886 	bl	80017f4 <_ZN13I2C_InterfaceC1Ev>
 80016e8:	4628      	mov	r0, r5
 80016ea:	4b2e      	ldr	r3, [pc, #184]	; (80017a4 <_GLOBAL__sub_I_i2c+0xc8>)
 80016ec:	f840 3b08 	str.w	r3, [r0], #8
 80016f0:	f7ff fdc6 	bl	8001280 <_ZN5TGpioILh1ELh7ELh1EE4initEv>
 80016f4:	f105 000c 	add.w	r0, r5, #12
 80016f8:	f7ff fe34 	bl	8001364 <_ZN5TGpioILh1ELh6ELh1EE4initEv>
 80016fc:	4628      	mov	r0, r5
 80016fe:	4d2a      	ldr	r5, [pc, #168]	; (80017a8 <_GLOBAL__sub_I_i2c+0xcc>)
 8001700:	492a      	ldr	r1, [pc, #168]	; (80017ac <_GLOBAL__sub_I_i2c+0xd0>)
 8001702:	4622      	mov	r2, r4
 8001704:	f000 fda6 	bl	8002254 <__aeabi_atexit>
 8001708:	4628      	mov	r0, r5
 800170a:	f000 fbdf 	bl	8001ecc <_ZN8TerminalC1Ev>
 800170e:	4628      	mov	r0, r5
 8001710:	4d27      	ldr	r5, [pc, #156]	; (80017b0 <_GLOBAL__sub_I_i2c+0xd4>)
 8001712:	4928      	ldr	r1, [pc, #160]	; (80017b4 <_GLOBAL__sub_I_i2c+0xd8>)
 8001714:	4622      	mov	r2, r4
 8001716:	f000 fd9d 	bl	8002254 <__aeabi_atexit>
 800171a:	4628      	mov	r0, r5
 800171c:	f000 fa18 	bl	8001b50 <_ZN5TimerC1Ev>
 8001720:	4628      	mov	r0, r5
 8001722:	4d25      	ldr	r5, [pc, #148]	; (80017b8 <_GLOBAL__sub_I_i2c+0xdc>)
 8001724:	4925      	ldr	r1, [pc, #148]	; (80017bc <_GLOBAL__sub_I_i2c+0xe0>)
 8001726:	4622      	mov	r2, r4
 8001728:	f000 fd94 	bl	8002254 <__aeabi_atexit>
 800172c:	4628      	mov	r0, r5
 800172e:	f000 fe35 	bl	800239c <_ZN3IMUC1Ev>
 8001732:	4628      	mov	r0, r5
 8001734:	4d22      	ldr	r5, [pc, #136]	; (80017c0 <_GLOBAL__sub_I_i2c+0xe4>)
 8001736:	4923      	ldr	r1, [pc, #140]	; (80017c4 <_GLOBAL__sub_I_i2c+0xe8>)
 8001738:	4622      	mov	r2, r4
 800173a:	f000 fd8b 	bl	8002254 <__aeabi_atexit>
 800173e:	4628      	mov	r0, r5
 8001740:	f000 f8d0 	bl	80018e4 <_ZN14DistanceSensorC1Ev>
 8001744:	4628      	mov	r0, r5
 8001746:	4d20      	ldr	r5, [pc, #128]	; (80017c8 <_GLOBAL__sub_I_i2c+0xec>)
 8001748:	4920      	ldr	r1, [pc, #128]	; (80017cc <_GLOBAL__sub_I_i2c+0xf0>)
 800174a:	4622      	mov	r2, r4
 800174c:	f000 fd82 	bl	8002254 <__aeabi_atexit>
 8001750:	4628      	mov	r0, r5
 8001752:	f000 fc1f 	bl	8001f94 <_ZN10LineSensorC1Ev>
 8001756:	4628      	mov	r0, r5
 8001758:	4d1d      	ldr	r5, [pc, #116]	; (80017d0 <_GLOBAL__sub_I_i2c+0xf4>)
 800175a:	491e      	ldr	r1, [pc, #120]	; (80017d4 <_GLOBAL__sub_I_i2c+0xf8>)
 800175c:	4622      	mov	r2, r4
 800175e:	f000 fd79 	bl	8002254 <__aeabi_atexit>
 8001762:	4628      	mov	r0, r5
 8001764:	f000 ffc0 	bl	80026e8 <_ZN7EncoderC1Ev>
 8001768:	4628      	mov	r0, r5
 800176a:	4d1b      	ldr	r5, [pc, #108]	; (80017d8 <_GLOBAL__sub_I_i2c+0xfc>)
 800176c:	491b      	ldr	r1, [pc, #108]	; (80017dc <_GLOBAL__sub_I_i2c+0x100>)
 800176e:	4622      	mov	r2, r4
 8001770:	f000 fd70 	bl	8002254 <__aeabi_atexit>
 8001774:	4628      	mov	r0, r5
 8001776:	f000 fb39 	bl	8001dec <_ZN13MotorControllC1Ev>
 800177a:	4628      	mov	r0, r5
 800177c:	4d18      	ldr	r5, [pc, #96]	; (80017e0 <_GLOBAL__sub_I_i2c+0x104>)
 800177e:	4919      	ldr	r1, [pc, #100]	; (80017e4 <_GLOBAL__sub_I_i2c+0x108>)
 8001780:	4622      	mov	r2, r4
 8001782:	f000 fd67 	bl	8002254 <__aeabi_atexit>
 8001786:	4628      	mov	r0, r5
 8001788:	f000 fd80 	bl	800228c <_ZN3KeyC1Ev>
 800178c:	4622      	mov	r2, r4
 800178e:	4628      	mov	r0, r5
 8001790:	4915      	ldr	r1, [pc, #84]	; (80017e8 <_GLOBAL__sub_I_i2c+0x10c>)
 8001792:	e8bd 4038 	ldmia.w	sp!, {r3, r4, r5, lr}
 8001796:	f000 bd5d 	b.w	8002254 <__aeabi_atexit>
 800179a:	bf00      	nop
 800179c:	2000005c 	andcs	r0, r0, ip, asr r0
 80017a0:	20000364 	andcs	r0, r0, r4, ror #6
 80017a4:	08004268 	stmdaeq	r0, {r3, r5, r6, r9, lr}
 80017a8:	20000214 	andcs	r0, r0, r4, lsl r2
 80017ac:	08001111 	stmdaeq	r0, {r0, r4, r8, ip}
 80017b0:	20000218 	andcs	r0, r0, r8, lsl r2
 80017b4:	08001ed9 	stmdaeq	r0, {r0, r3, r4, r6, r7, r9, sl, fp, ip}
 80017b8:	2000006c 	andcs	r0, r0, ip, rrx
 80017bc:	08001bbd 	stmdaeq	r0, {r0, r2, r3, r4, r5, r7, r8, r9, fp, ip}
 80017c0:	20000008 	andcs	r0, r0, r8
 80017c4:	0800238d 	stmdaeq	r0, {r0, r2, r3, r7, r8, r9, sp}
 80017c8:	200000c8 	andcs	r0, r0, r8, asr #1
 80017cc:	080018d3 	stmdaeq	r0, {r0, r1, r4, r6, r7, fp, ip}
 80017d0:	2000004c 	andcs	r0, r0, ip, asr #32
 80017d4:	08001f85 	stmdaeq	r0, {r0, r2, r7, r8, r9, sl, fp, ip}
 80017d8:	20000184 	andcs	r0, r0, r4, lsl #3
 80017dc:	080027b1 	stmdaeq	r0, {r0, r4, r5, r7, r8, r9, sl, sp}
 80017e0:	200000b0 	strhcs	r0, [r0], -r0	; <UNPREDICTABLE>
 80017e4:	08001e91 	stmdaeq	r0, {r0, r4, r7, r9, sl, fp, ip}
 80017e8:	0800225b 	stmdaeq	r0, {r0, r1, r3, r4, r6, r9, sp}

080017ec <_ZN13I2C_Interface4initEv>:
 80017ec:	2314      	movs	r3, #20
 80017ee:	6043      	str	r3, [r0, #4]
 80017f0:	4770      	bx	lr
 80017f2:	0000      	movs	r0, r0

080017f4 <_ZN13I2C_InterfaceC1Ev>:
 80017f4:	4b01      	ldr	r3, [pc, #4]	; (80017fc <_ZN13I2C_InterfaceC1Ev+0x8>)
 80017f6:	6003      	str	r3, [r0, #0]
 80017f8:	4770      	bx	lr
 80017fa:	bf00      	nop
 80017fc:	080043a8 	stmdaeq	r0, {r3, r5, r7, r8, r9, lr}

08001800 <_ZN13I2C_InterfaceD1Ev>:
 8001800:	4770      	bx	lr

08001802 <_ZN13I2C_Interface9write_regEhhh>:
 8001802:	e92d 41f0 	stmdb	sp!, {r4, r5, r6, r7, r8, lr}
 8001806:	461d      	mov	r5, r3
 8001808:	6803      	ldr	r3, [r0, #0]
 800180a:	4604      	mov	r4, r0
 800180c:	689b      	ldr	r3, [r3, #8]
 800180e:	4616      	mov	r6, r2
 8001810:	460f      	mov	r7, r1
 8001812:	4798      	blx	r3
 8001814:	6823      	ldr	r3, [r4, #0]
 8001816:	4639      	mov	r1, r7
 8001818:	695b      	ldr	r3, [r3, #20]
 800181a:	4620      	mov	r0, r4
 800181c:	4798      	blx	r3
 800181e:	6823      	ldr	r3, [r4, #0]
 8001820:	4631      	mov	r1, r6
 8001822:	695b      	ldr	r3, [r3, #20]
 8001824:	4620      	mov	r0, r4
 8001826:	4798      	blx	r3
 8001828:	6823      	ldr	r3, [r4, #0]
 800182a:	4629      	mov	r1, r5
 800182c:	695a      	ldr	r2, [r3, #20]
 800182e:	4620      	mov	r0, r4
 8001830:	4790      	blx	r2
 8001832:	6823      	ldr	r3, [r4, #0]
 8001834:	4620      	mov	r0, r4
 8001836:	68db      	ldr	r3, [r3, #12]
 8001838:	e8bd 41f0 	ldmia.w	sp!, {r4, r5, r6, r7, r8, lr}
 800183c:	4718      	bx	r3

0800183e <_ZN13I2C_Interface8read_regEhh>:
 800183e:	6803      	ldr	r3, [r0, #0]
 8001840:	b570      	push	{r4, r5, r6, lr}
 8001842:	4604      	mov	r4, r0
 8001844:	689b      	ldr	r3, [r3, #8]
 8001846:	4616      	mov	r6, r2
 8001848:	460d      	mov	r5, r1
 800184a:	4798      	blx	r3
 800184c:	6823      	ldr	r3, [r4, #0]
 800184e:	4629      	mov	r1, r5
 8001850:	695b      	ldr	r3, [r3, #20]
 8001852:	4620      	mov	r0, r4
 8001854:	4798      	blx	r3
 8001856:	6823      	ldr	r3, [r4, #0]
 8001858:	4631      	mov	r1, r6
 800185a:	695b      	ldr	r3, [r3, #20]
 800185c:	4620      	mov	r0, r4
 800185e:	4798      	blx	r3
 8001860:	6823      	ldr	r3, [r4, #0]
 8001862:	4620      	mov	r0, r4
 8001864:	689b      	ldr	r3, [r3, #8]
 8001866:	4798      	blx	r3
 8001868:	6823      	ldr	r3, [r4, #0]
 800186a:	f045 0101 	orr.w	r1, r5, #1
 800186e:	695b      	ldr	r3, [r3, #20]
 8001870:	4620      	mov	r0, r4
 8001872:	4798      	blx	r3
 8001874:	6823      	ldr	r3, [r4, #0]
 8001876:	2100      	movs	r1, #0
 8001878:	699b      	ldr	r3, [r3, #24]
 800187a:	4620      	mov	r0, r4
 800187c:	4798      	blx	r3
 800187e:	6823      	ldr	r3, [r4, #0]
 8001880:	4605      	mov	r5, r0
 8001882:	68db      	ldr	r3, [r3, #12]
 8001884:	4620      	mov	r0, r4
 8001886:	4798      	blx	r3
 8001888:	4628      	mov	r0, r5
 800188a:	bd70      	pop	{r4, r5, r6, pc}

0800188c <_ZN13I2C_Interface5delayEv>:
 800188c:	2300      	movs	r3, #0
 800188e:	6842      	ldr	r2, [r0, #4]
 8001890:	429a      	cmp	r2, r3
 8001892:	d902      	bls.n	800189a <_ZN13I2C_Interface5delayEv+0xe>
 8001894:	bf00      	nop
 8001896:	3301      	adds	r3, #1
 8001898:	e7f9      	b.n	800188e <_ZN13I2C_Interface5delayEv+0x2>
 800189a:	4770      	bx	lr

0800189c <_Z8mem_initv>:
 800189c:	4b01      	ldr	r3, [pc, #4]	; (80018a4 <_Z8mem_initv+0x8>)
 800189e:	4802      	ldr	r0, [pc, #8]	; (80018a8 <_Z8mem_initv+0xc>)
 80018a0:	6018      	str	r0, [r3, #0]
 80018a2:	4770      	bx	lr
 80018a4:	2000021c 	andcs	r0, r0, ip, lsl r2
 80018a8:	20000370 	andcs	r0, r0, r0, ror r3

080018ac <_Znwj>:
 80018ac:	4a02      	ldr	r2, [pc, #8]	; (80018b8 <_Znwj+0xc>)
 80018ae:	6813      	ldr	r3, [r2, #0]
 80018b0:	4418      	add	r0, r3
 80018b2:	6010      	str	r0, [r2, #0]
 80018b4:	4618      	mov	r0, r3
 80018b6:	4770      	bx	lr
 80018b8:	2000021c 	andcs	r0, r0, ip, lsl r2

080018bc <_ZdlPvj>:
 80018bc:	4770      	bx	lr
 80018be:	0000      	movs	r0, r0

080018c0 <_Znaj>:
 80018c0:	4a02      	ldr	r2, [pc, #8]	; (80018cc <_Znaj+0xc>)
 80018c2:	6813      	ldr	r3, [r2, #0]
 80018c4:	4418      	add	r0, r3
 80018c6:	6010      	str	r0, [r2, #0]
 80018c8:	4618      	mov	r0, r3
 80018ca:	4770      	bx	lr
 80018cc:	2000021c 	andcs	r0, r0, ip, lsl r2

080018d0 <_ZdaPv>:
 80018d0:	4770      	bx	lr

080018d2 <_ZN14DistanceSensorD1Ev>:
 80018d2:	4770      	bx	lr

080018d4 <_ZN14DistanceSensorD0Ev>:
 80018d4:	b510      	push	{r4, lr}
 80018d6:	2144      	movs	r1, #68	; 0x44
 80018d8:	4604      	mov	r4, r0
 80018da:	f7ff ffef 	bl	80018bc <_ZdlPvj>
 80018de:	4620      	mov	r0, r4
 80018e0:	bd10      	pop	{r4, pc}
 80018e2:	0000      	movs	r0, r0

080018e4 <_ZN14DistanceSensorC1Ev>:
 80018e4:	4927      	ldr	r1, [pc, #156]	; (8001984 <_ZN14DistanceSensorC1Ev+0xa0>)
 80018e6:	4b28      	ldr	r3, [pc, #160]	; (8001988 <_ZN14DistanceSensorC1Ev+0xa4>)
 80018e8:	6003      	str	r3, [r0, #0]
 80018ea:	694b      	ldr	r3, [r1, #20]
 80018ec:	f443 037f 	orr.w	r3, r3, #16711680	; 0xff0000
 80018f0:	b530      	push	{r4, r5, lr}
 80018f2:	614b      	str	r3, [r1, #20]
 80018f4:	4b25      	ldr	r3, [pc, #148]	; (800198c <_ZN14DistanceSensorC1Ev+0xa8>)
 80018f6:	6183      	str	r3, [r0, #24]
 80018f8:	689a      	ldr	r2, [r3, #8]
 80018fa:	f022 6240 	bic.w	r2, r2, #201326592	; 0xc000000
 80018fe:	609a      	str	r2, [r3, #8]
 8001900:	689a      	ldr	r2, [r3, #8]
 8001902:	f042 6240 	orr.w	r2, r2, #201326592	; 0xc000000
 8001906:	609a      	str	r2, [r3, #8]
 8001908:	889a      	ldrh	r2, [r3, #4]
 800190a:	f422 5200 	bic.w	r2, r2, #8192	; 0x2000
 800190e:	0412      	lsls	r2, r2, #16
 8001910:	0c12      	lsrs	r2, r2, #16
 8001912:	809a      	strh	r2, [r3, #4]
 8001914:	889a      	ldrh	r2, [r3, #4]
 8001916:	b292      	uxth	r2, r2
 8001918:	809a      	strh	r2, [r3, #4]
 800191a:	681a      	ldr	r2, [r3, #0]
 800191c:	f022 6240 	bic.w	r2, r2, #201326592	; 0xc000000
 8001920:	601a      	str	r2, [r3, #0]
 8001922:	681a      	ldr	r2, [r3, #0]
 8001924:	f042 6280 	orr.w	r2, r2, #67108864	; 0x4000000
 8001928:	601a      	str	r2, [r3, #0]
 800192a:	694a      	ldr	r2, [r1, #20]
 800192c:	f442 027f 	orr.w	r2, r2, #16711680	; 0xff0000
 8001930:	614a      	str	r2, [r1, #20]
 8001932:	4a17      	ldr	r2, [pc, #92]	; (8001990 <_ZN14DistanceSensorC1Ev+0xac>)
 8001934:	61c2      	str	r2, [r0, #28]
 8001936:	6815      	ldr	r5, [r2, #0]
 8001938:	f025 0503 	bic.w	r5, r5, #3
 800193c:	6015      	str	r5, [r2, #0]
 800193e:	6815      	ldr	r5, [r2, #0]
 8001940:	f045 0503 	orr.w	r5, r5, #3
 8001944:	6015      	str	r5, [r2, #0]
 8001946:	694d      	ldr	r5, [r1, #20]
 8001948:	f445 057f 	orr.w	r5, r5, #16711680	; 0xff0000
 800194c:	614d      	str	r5, [r1, #20]
 800194e:	6815      	ldr	r5, [r2, #0]
 8001950:	6202      	str	r2, [r0, #32]
 8001952:	f025 050c 	bic.w	r5, r5, #12
 8001956:	6015      	str	r5, [r2, #0]
 8001958:	6815      	ldr	r5, [r2, #0]
 800195a:	f045 050c 	orr.w	r5, r5, #12
 800195e:	6015      	str	r5, [r2, #0]
 8001960:	694a      	ldr	r2, [r1, #20]
 8001962:	f442 027f 	orr.w	r2, r2, #16711680	; 0xff0000
 8001966:	614a      	str	r2, [r1, #20]
 8001968:	681a      	ldr	r2, [r3, #0]
 800196a:	6243      	str	r3, [r0, #36]	; 0x24
 800196c:	f022 0203 	bic.w	r2, r2, #3
 8001970:	601a      	str	r2, [r3, #0]
 8001972:	681a      	ldr	r2, [r3, #0]
 8001974:	f042 0203 	orr.w	r2, r2, #3
 8001978:	601a      	str	r2, [r3, #0]
 800197a:	8d1a      	ldrh	r2, [r3, #40]	; 0x28
 800197c:	f442 5200 	orr.w	r2, r2, #8192	; 0x2000
 8001980:	851a      	strh	r2, [r3, #40]	; 0x28
 8001982:	bd30      	pop	{r4, r5, pc}
 8001984:	40021000 	andmi	r1, r2, r0
 8001988:	080043cc 	stmdaeq	r0, {r2, r3, r6, r7, r8, r9, lr}
 800198c:	48000800 	stmdami	r0, {fp}
 8001990:	48000400 	stmdami	r0, {sl}

08001994 <_ZN14DistanceSensor6filterEPij>:
 8001994:	eb00 0282 	add.w	r2, r0, r2, lsl #2
 8001998:	6b93      	ldr	r3, [r2, #56]	; 0x38
 800199a:	6ad2      	ldr	r2, [r2, #44]	; 0x2c
 800199c:	1a9b      	subs	r3, r3, r2
 800199e:	ea23 73e3 	bic.w	r3, r3, r3, asr #31
 80019a2:	2210      	movs	r2, #16
 80019a4:	f5c3 5380 	rsb	r3, r3, #4096	; 0x1000
 80019a8:	fb93 f3f2 	sdiv	r3, r3, r2
 80019ac:	680a      	ldr	r2, [r1, #0]
 80019ae:	eb02 0242 	add.w	r2, r2, r2, lsl #1
 80019b2:	4413      	add	r3, r2
 80019b4:	2204      	movs	r2, #4
 80019b6:	fb93 f3f2 	sdiv	r3, r3, r2
 80019ba:	600b      	str	r3, [r1, #0]
 80019bc:	4770      	bx	lr

080019be <_ZN14DistanceSensor4mainEv>:
 80019be:	b538      	push	{r3, r4, r5, lr}
 80019c0:	6a85      	ldr	r5, [r0, #40]	; 0x28
 80019c2:	4604      	mov	r4, r0
 80019c4:	b115      	cbz	r5, 80019cc <_ZN14DistanceSensor4mainEv+0xe>
 80019c6:	2d01      	cmp	r5, #1
 80019c8:	d014      	beq.n	80019f4 <_ZN14DistanceSensor4mainEv+0x36>
 80019ca:	bd38      	pop	{r3, r4, r5, pc}
 80019cc:	2008      	movs	r0, #8
 80019ce:	f001 fa3f 	bl	8002e50 <_Z8adc_readi>
 80019d2:	63a0      	str	r0, [r4, #56]	; 0x38
 80019d4:	2009      	movs	r0, #9
 80019d6:	f001 fa3b 	bl	8002e50 <_Z8adc_readi>
 80019da:	63e0      	str	r0, [r4, #60]	; 0x3c
 80019dc:	200a      	movs	r0, #10
 80019de:	f001 fa37 	bl	8002e50 <_Z8adc_readi>
 80019e2:	69a2      	ldr	r2, [r4, #24]
 80019e4:	6420      	str	r0, [r4, #64]	; 0x40
 80019e6:	6993      	ldr	r3, [r2, #24]
 80019e8:	f443 5300 	orr.w	r3, r3, #8192	; 0x2000
 80019ec:	6193      	str	r3, [r2, #24]
 80019ee:	2301      	movs	r3, #1
 80019f0:	62a3      	str	r3, [r4, #40]	; 0x28
 80019f2:	e7ea      	b.n	80019ca <_ZN14DistanceSensor4mainEv+0xc>
 80019f4:	2008      	movs	r0, #8
 80019f6:	f001 fa2b 	bl	8002e50 <_Z8adc_readi>
 80019fa:	62e0      	str	r0, [r4, #44]	; 0x2c
 80019fc:	2009      	movs	r0, #9
 80019fe:	f001 fa27 	bl	8002e50 <_Z8adc_readi>
 8001a02:	6320      	str	r0, [r4, #48]	; 0x30
 8001a04:	200a      	movs	r0, #10
 8001a06:	f001 fa23 	bl	8002e50 <_Z8adc_readi>
 8001a0a:	69a2      	ldr	r2, [r4, #24]
 8001a0c:	6360      	str	r0, [r4, #52]	; 0x34
 8001a0e:	8d13      	ldrh	r3, [r2, #40]	; 0x28
 8001a10:	f443 5300 	orr.w	r3, r3, #8192	; 0x2000
 8001a14:	8513      	strh	r3, [r2, #40]	; 0x28
 8001a16:	4620      	mov	r0, r4
 8001a18:	2200      	movs	r2, #0
 8001a1a:	f104 0108 	add.w	r1, r4, #8
 8001a1e:	f7ff ffb9 	bl	8001994 <_ZN14DistanceSensor6filterEPij>
 8001a22:	462a      	mov	r2, r5
 8001a24:	1d21      	adds	r1, r4, #4
 8001a26:	f7ff ffb5 	bl	8001994 <_ZN14DistanceSensor6filterEPij>
 8001a2a:	2202      	movs	r2, #2
 8001a2c:	f104 010c 	add.w	r1, r4, #12
 8001a30:	f7ff ffb0 	bl	8001994 <_ZN14DistanceSensor6filterEPij>
 8001a34:	68a2      	ldr	r2, [r4, #8]
 8001a36:	2aef      	cmp	r2, #239	; 0xef
 8001a38:	f04f 0300 	mov.w	r3, #0
 8001a3c:	dc04      	bgt.n	8001a48 <_ZN14DistanceSensor4mainEv+0x8a>
 8001a3e:	2ad1      	cmp	r2, #209	; 0xd1
 8001a40:	7425      	strb	r5, [r4, #16]
 8001a42:	dd03      	ble.n	8001a4c <_ZN14DistanceSensor4mainEv+0x8e>
 8001a44:	7463      	strb	r3, [r4, #17]
 8001a46:	e002      	b.n	8001a4e <_ZN14DistanceSensor4mainEv+0x90>
 8001a48:	7423      	strb	r3, [r4, #16]
 8001a4a:	e7fb      	b.n	8001a44 <_ZN14DistanceSensor4mainEv+0x86>
 8001a4c:	7465      	strb	r5, [r4, #17]
 8001a4e:	2300      	movs	r3, #0
 8001a50:	62a3      	str	r3, [r4, #40]	; 0x28
 8001a52:	2301      	movs	r3, #1
 8001a54:	7523      	strb	r3, [r4, #20]
 8001a56:	e7b8      	b.n	80019ca <_ZN14DistanceSensor4mainEv+0xc>

08001a58 <_ZN3PIDD1Ev>:
 8001a58:	4770      	bx	lr

08001a5a <_ZN3PIDD0Ev>:
 8001a5a:	b510      	push	{r4, lr}
 8001a5c:	212c      	movs	r1, #44	; 0x2c
 8001a5e:	4604      	mov	r4, r0
 8001a60:	f7ff ff2c 	bl	80018bc <_ZdlPvj>
 8001a64:	4620      	mov	r0, r4
 8001a66:	bd10      	pop	{r4, pc}

08001a68 <_ZN3PID7processEff>:
 8001a68:	edd0 6a03 	vldr	s13, [r0, #12]
 8001a6c:	edd0 7a01 	vldr	s15, [r0, #4]
 8001a70:	ed90 6a04 	vldr	s12, [r0, #16]
 8001a74:	edd0 4a07 	vldr	s9, [r0, #28]
 8001a78:	edc0 6a04 	vstr	s13, [r0, #16]
 8001a7c:	ee07 2a10 	vmov	s14, r2
 8001a80:	ee76 6aa6 	vadd.f32	s13, s13, s13
 8001a84:	ed90 5a06 	vldr	s10, [r0, #24]
 8001a88:	edc0 7a02 	vstr	s15, [r0, #8]
 8001a8c:	ee05 1a90 	vmov	s11, r1
 8001a90:	ee67 7aa4 	vmul.f32	s15, s15, s9
 8001a94:	ee37 7a66 	vsub.f32	s14, s14, s13
 8001a98:	ee45 7a85 	vmla.f32	s15, s11, s10
 8001a9c:	6041      	str	r1, [r0, #4]
 8001a9e:	60c2      	str	r2, [r0, #12]
 8001aa0:	ee37 7a06 	vadd.f32	s14, s14, s12
 8001aa4:	edd0 6a08 	vldr	s13, [r0, #32]
 8001aa8:	ed80 6a05 	vstr	s12, [r0, #20]
 8001aac:	ee47 7a66 	vmls.f32	s15, s14, s13
 8001ab0:	ed90 7a0a 	vldr	s14, [r0, #40]	; 0x28
 8001ab4:	ee77 7a87 	vadd.f32	s15, s15, s14
 8001ab8:	ed90 7a09 	vldr	s14, [r0, #36]	; 0x24
 8001abc:	edc0 7a0a 	vstr	s15, [r0, #40]	; 0x28
 8001ac0:	eef4 7ac7 	vcmpe.f32	s15, s14
 8001ac4:	eef1 fa10 	vmrs	APSR_nzcv, fpscr
 8001ac8:	bfc8      	it	gt
 8001aca:	ed80 7a0a 	vstrgt	s14, [r0, #40]	; 0x28
 8001ace:	edd0 7a0a 	vldr	s15, [r0, #40]	; 0x28
 8001ad2:	eeb1 7a47 	vneg.f32	s14, s14
 8001ad6:	eef4 7ac7 	vcmpe.f32	s15, s14
 8001ada:	eef1 fa10 	vmrs	APSR_nzcv, fpscr
 8001ade:	bf48      	it	mi
 8001ae0:	ed80 7a0a 	vstrmi	s14, [r0, #40]	; 0x28
 8001ae4:	6a80      	ldr	r0, [r0, #40]	; 0x28
 8001ae6:	4770      	bx	lr

08001ae8 <_ZN3PID5resetEv>:
 8001ae8:	2300      	movs	r3, #0
 8001aea:	6043      	str	r3, [r0, #4]
 8001aec:	6083      	str	r3, [r0, #8]
 8001aee:	60c3      	str	r3, [r0, #12]
 8001af0:	6103      	str	r3, [r0, #16]
 8001af2:	6143      	str	r3, [r0, #20]
 8001af4:	6283      	str	r3, [r0, #40]	; 0x28
 8001af6:	4770      	bx	lr

08001af8 <_ZN3PID4initEffff>:
 8001af8:	b510      	push	{r4, lr}
 8001afa:	ee07 1a90 	vmov	s15, r1
 8001afe:	ee07 2a10 	vmov	s14, r2
 8001b02:	461a      	mov	r2, r3
 8001b04:	f7ff fff0 	bl	8001ae8 <_ZN3PID5resetEv>
 8001b08:	ee37 7a87 	vadd.f32	s14, s15, s14
 8001b0c:	9b02      	ldr	r3, [sp, #8]
 8001b0e:	ed80 7a06 	vstr	s14, [r0, #24]
 8001b12:	eef1 7a67 	vneg.f32	s15, s15
 8001b16:	edc0 7a07 	vstr	s15, [r0, #28]
 8001b1a:	6202      	str	r2, [r0, #32]
 8001b1c:	6243      	str	r3, [r0, #36]	; 0x24
 8001b1e:	bd10      	pop	{r4, pc}

08001b20 <_ZN3PIDC1Effff>:
 8001b20:	ee07 2a10 	vmov	s14, r2
 8001b24:	461a      	mov	r2, r3
 8001b26:	4b09      	ldr	r3, [pc, #36]	; (8001b4c <_ZN3PIDC1Effff+0x2c>)
 8001b28:	6003      	str	r3, [r0, #0]
 8001b2a:	b510      	push	{r4, lr}
 8001b2c:	ee07 1a90 	vmov	s15, r1
 8001b30:	f7ff ffda 	bl	8001ae8 <_ZN3PID5resetEv>
 8001b34:	ee37 7a87 	vadd.f32	s14, s15, s14
 8001b38:	9b02      	ldr	r3, [sp, #8]
 8001b3a:	ed80 7a06 	vstr	s14, [r0, #24]
 8001b3e:	eef1 7a67 	vneg.f32	s15, s15
 8001b42:	edc0 7a07 	vstr	s15, [r0, #28]
 8001b46:	6202      	str	r2, [r0, #32]
 8001b48:	6243      	str	r3, [r0, #36]	; 0x24
 8001b4a:	bd10      	pop	{r4, pc}
 8001b4c:	080043e0 	stmdaeq	r0, {r5, r6, r7, r8, r9, lr}

08001b50 <_ZN5TimerC1Ev>:
 8001b50:	4770      	bx	lr
 8001b52:	0000      	movs	r0, r0

08001b54 <_ZN5Timer4initEv>:
 8001b54:	b5f7      	push	{r0, r1, r2, r4, r5, r6, r7, lr}
 8001b56:	2200      	movs	r2, #0
 8001b58:	4d15      	ldr	r5, [pc, #84]	; (8001bb0 <_ZN5Timer4initEv+0x5c>)
 8001b5a:	2714      	movs	r7, #20
 8001b5c:	4613      	mov	r3, r2
 8001b5e:	f44f 767a 	mov.w	r6, #1000	; 0x3e8
 8001b62:	fb07 f402 	mul.w	r4, r7, r2
 8001b66:	1929      	adds	r1, r5, r4
 8001b68:	3201      	adds	r2, #1
 8001b6a:	2a10      	cmp	r2, #16
 8001b6c:	512b      	str	r3, [r5, r4]
 8001b6e:	604b      	str	r3, [r1, #4]
 8001b70:	608e      	str	r6, [r1, #8]
 8001b72:	60cb      	str	r3, [r1, #12]
 8001b74:	740b      	strb	r3, [r1, #16]
 8001b76:	744b      	strb	r3, [r1, #17]
 8001b78:	d1f3      	bne.n	8001b62 <_ZN5Timer4initEv+0xe>
 8001b7a:	4a0e      	ldr	r2, [pc, #56]	; (8001bb4 <_ZN5Timer4initEv+0x60>)
 8001b7c:	6013      	str	r3, [r2, #0]
 8001b7e:	4a0e      	ldr	r2, [pc, #56]	; (8001bb8 <_ZN5Timer4initEv+0x64>)
 8001b80:	6003      	str	r3, [r0, #0]
 8001b82:	69d3      	ldr	r3, [r2, #28]
 8001b84:	f043 0301 	orr.w	r3, r3, #1
 8001b88:	61d3      	str	r3, [r2, #28]
 8001b8a:	2200      	movs	r2, #0
 8001b8c:	f44f 7334 	mov.w	r3, #720	; 0x2d0
 8001b90:	9300      	str	r3, [sp, #0]
 8001b92:	4611      	mov	r1, r2
 8001b94:	2363      	movs	r3, #99	; 0x63
 8001b96:	f04f 4080 	mov.w	r0, #1073741824	; 0x40000000
 8001b9a:	f000 fff3 	bl	8002b84 <_Z10timer_initP11TIM_TypeDefmmmm>
 8001b9e:	2201      	movs	r2, #1
 8001ba0:	2100      	movs	r1, #0
 8001ba2:	201c      	movs	r0, #28
 8001ba4:	f000 ffcc 	bl	8002b40 <_Z9nvic_initmmm>
 8001ba8:	b662      	cpsie	i
 8001baa:	b003      	add	sp, #12
 8001bac:	bdf0      	pop	{r4, r5, r6, r7, pc}
 8001bae:	bf00      	nop
 8001bb0:	20000224 	andcs	r0, r0, r4, lsr #4
 8001bb4:	20000220 	andcs	r0, r0, r0, lsr #4
 8001bb8:	40021000 	andmi	r1, r2, r0

08001bbc <_ZN5TimerD1Ev>:
 8001bbc:	4770      	bx	lr
 8001bbe:	0000      	movs	r0, r0

08001bc0 <_ZN5Timer8add_taskEP6Threadjb>:
 8001bc0:	b5f0      	push	{r4, r5, r6, r7, lr}
 8001bc2:	b672      	cpsid	i
 8001bc4:	4d11      	ldr	r5, [pc, #68]	; (8001c0c <_ZN5Timer8add_taskEP6Threadjb+0x4c>)
 8001bc6:	2400      	movs	r4, #0
 8001bc8:	f04f 30ff 	mov.w	r0, #4294967295	; 0xffffffff
 8001bcc:	f04f 0c14 	mov.w	ip, #20
 8001bd0:	462f      	mov	r7, r5
 8001bd2:	fb0c f604 	mul.w	r6, ip, r4
 8001bd6:	eb05 0e06 	add.w	lr, r5, r6
 8001bda:	59ae      	ldr	r6, [r5, r6]
 8001bdc:	b926      	cbnz	r6, 8001be8 <_ZN5Timer8add_taskEP6Threadjb+0x28>
 8001bde:	f8de 6004 	ldr.w	r6, [lr, #4]
 8001be2:	2e00      	cmp	r6, #0
 8001be4:	bf08      	it	eq
 8001be6:	4620      	moveq	r0, r4
 8001be8:	3401      	adds	r4, #1
 8001bea:	2c10      	cmp	r4, #16
 8001bec:	d1f1      	bne.n	8001bd2 <_ZN5Timer8add_taskEP6Threadjb+0x12>
 8001bee:	1c44      	adds	r4, r0, #1
 8001bf0:	d00a      	beq.n	8001c08 <_ZN5Timer8add_taskEP6Threadjb+0x48>
 8001bf2:	b2c4      	uxtb	r4, r0
 8001bf4:	2514      	movs	r5, #20
 8001bf6:	4365      	muls	r5, r4
 8001bf8:	197c      	adds	r4, r7, r5
 8001bfa:	2600      	movs	r6, #0
 8001bfc:	517e      	str	r6, [r7, r5]
 8001bfe:	6061      	str	r1, [r4, #4]
 8001c00:	60a2      	str	r2, [r4, #8]
 8001c02:	60e2      	str	r2, [r4, #12]
 8001c04:	7426      	strb	r6, [r4, #16]
 8001c06:	7463      	strb	r3, [r4, #17]
 8001c08:	b662      	cpsie	i
 8001c0a:	bdf0      	pop	{r4, r5, r6, r7, pc}
 8001c0c:	20000224 	andcs	r0, r0, r4, lsr #4

08001c10 <_ZN5Timer10set_periodEhj>:
 8001c10:	4804      	ldr	r0, [pc, #16]	; (8001c24 <_ZN5Timer10set_periodEhj+0x14>)
 8001c12:	2314      	movs	r3, #20
 8001c14:	fb03 0101 	mla	r1, r3, r1, r0
 8001c18:	2300      	movs	r3, #0
 8001c1a:	60ca      	str	r2, [r1, #12]
 8001c1c:	608a      	str	r2, [r1, #8]
 8001c1e:	740b      	strb	r3, [r1, #16]
 8001c20:	4770      	bx	lr
 8001c22:	bf00      	nop
 8001c24:	20000224 	andcs	r0, r0, r4, lsr #4

08001c28 <_ZN5Timer8get_timeEv>:
 8001c28:	b082      	sub	sp, #8
 8001c2a:	b672      	cpsid	i
 8001c2c:	4b03      	ldr	r3, [pc, #12]	; (8001c3c <_ZN5Timer8get_timeEv+0x14>)
 8001c2e:	681b      	ldr	r3, [r3, #0]
 8001c30:	9301      	str	r3, [sp, #4]
 8001c32:	b662      	cpsie	i
 8001c34:	9801      	ldr	r0, [sp, #4]
 8001c36:	b002      	add	sp, #8
 8001c38:	4770      	bx	lr
 8001c3a:	bf00      	nop
 8001c3c:	20000220 	andcs	r0, r0, r0, lsr #4

08001c40 <_ZN5Timer8delay_msEj>:
 8001c40:	b507      	push	{r0, r1, r2, lr}
 8001c42:	4602      	mov	r2, r0
 8001c44:	f7ff fff0 	bl	8001c28 <_ZN5Timer8get_timeEv>
 8001c48:	4401      	add	r1, r0
 8001c4a:	9101      	str	r1, [sp, #4]
 8001c4c:	4610      	mov	r0, r2
 8001c4e:	f7ff ffeb 	bl	8001c28 <_ZN5Timer8get_timeEv>
 8001c52:	9b01      	ldr	r3, [sp, #4]
 8001c54:	4298      	cmp	r0, r3
 8001c56:	d201      	bcs.n	8001c5c <_ZN5Timer8delay_msEj+0x1c>
 8001c58:	bf00      	nop
 8001c5a:	e7f7      	b.n	8001c4c <_ZN5Timer8delay_msEj+0xc>
 8001c5c:	b003      	add	sp, #12
 8001c5e:	f85d fb04 	ldr.w	pc, [sp], #4

08001c62 <_ZN5Timer5resetEv>:
 8001c62:	b508      	push	{r3, lr}
 8001c64:	4602      	mov	r2, r0
 8001c66:	f7ff ffdf 	bl	8001c28 <_ZN5Timer8get_timeEv>
 8001c6a:	6010      	str	r0, [r2, #0]
 8001c6c:	bd08      	pop	{r3, pc}

08001c6e <_ZN5Timer12elapsed_timeEv>:
 8001c6e:	b508      	push	{r3, lr}
 8001c70:	4602      	mov	r2, r0
 8001c72:	f7ff ffd9 	bl	8001c28 <_ZN5Timer8get_timeEv>
 8001c76:	6813      	ldr	r3, [r2, #0]
 8001c78:	1ac0      	subs	r0, r0, r3
 8001c7a:	bd08      	pop	{r3, pc}

08001c7c <TIM2_IRQHandler>:
 8001c7c:	b5f8      	push	{r3, r4, r5, r6, r7, lr}
 8001c7e:	f04f 4380 	mov.w	r3, #1073741824	; 0x40000000
 8001c82:	691a      	ldr	r2, [r3, #16]
 8001c84:	07d2      	lsls	r2, r2, #31
 8001c86:	d514      	bpl.n	8001cb2 <TIM2_IRQHandler+0x36>
 8001c88:	4f19      	ldr	r7, [pc, #100]	; (8001cf0 <TIM2_IRQHandler+0x74>)
 8001c8a:	f64f 72fe 	movw	r2, #65534	; 0xfffe
 8001c8e:	611a      	str	r2, [r3, #16]
 8001c90:	2400      	movs	r4, #0
 8001c92:	2614      	movs	r6, #20
 8001c94:	463d      	mov	r5, r7
 8001c96:	fb06 7304 	mla	r3, r6, r4, r7
 8001c9a:	68da      	ldr	r2, [r3, #12]
 8001c9c:	b152      	cbz	r2, 8001cb4 <TIM2_IRQHandler+0x38>
 8001c9e:	68da      	ldr	r2, [r3, #12]
 8001ca0:	3a01      	subs	r2, #1
 8001ca2:	60da      	str	r2, [r3, #12]
 8001ca4:	3401      	adds	r4, #1
 8001ca6:	2c10      	cmp	r4, #16
 8001ca8:	d1f5      	bne.n	8001c96 <TIM2_IRQHandler+0x1a>
 8001caa:	4a12      	ldr	r2, [pc, #72]	; (8001cf4 <TIM2_IRQHandler+0x78>)
 8001cac:	6813      	ldr	r3, [r2, #0]
 8001cae:	3301      	adds	r3, #1
 8001cb0:	6013      	str	r3, [r2, #0]
 8001cb2:	bdf8      	pop	{r3, r4, r5, r6, r7, pc}
 8001cb4:	689a      	ldr	r2, [r3, #8]
 8001cb6:	60da      	str	r2, [r3, #12]
 8001cb8:	7c1a      	ldrb	r2, [r3, #16]
 8001cba:	2aff      	cmp	r2, #255	; 0xff
 8001cbc:	bf1f      	itttt	ne
 8001cbe:	7c1a      	ldrbne	r2, [r3, #16]
 8001cc0:	3201      	addne	r2, #1
 8001cc2:	b2d2      	uxtbne	r2, r2
 8001cc4:	741a      	strbne	r2, [r3, #16]
 8001cc6:	fb06 f304 	mul.w	r3, r6, r4
 8001cca:	18ea      	adds	r2, r5, r3
 8001ccc:	7c52      	ldrb	r2, [r2, #17]
 8001cce:	2a00      	cmp	r2, #0
 8001cd0:	d1e8      	bne.n	8001ca4 <TIM2_IRQHandler+0x28>
 8001cd2:	58ea      	ldr	r2, [r5, r3]
 8001cd4:	b10a      	cbz	r2, 8001cda <TIM2_IRQHandler+0x5e>
 8001cd6:	58eb      	ldr	r3, [r5, r3]
 8001cd8:	4798      	blx	r3
 8001cda:	fb06 5304 	mla	r3, r6, r4, r5
 8001cde:	685a      	ldr	r2, [r3, #4]
 8001ce0:	2a00      	cmp	r2, #0
 8001ce2:	d0df      	beq.n	8001ca4 <TIM2_IRQHandler+0x28>
 8001ce4:	6858      	ldr	r0, [r3, #4]
 8001ce6:	6803      	ldr	r3, [r0, #0]
 8001ce8:	689b      	ldr	r3, [r3, #8]
 8001cea:	4798      	blx	r3
 8001cec:	e7da      	b.n	8001ca4 <TIM2_IRQHandler+0x28>
 8001cee:	bf00      	nop
 8001cf0:	20000224 	andcs	r0, r0, r4, lsr #4
 8001cf4:	20000220 	andcs	r0, r0, r0, lsr #4

08001cf8 <_ZN13MotorControll4mainEv>:
 8001cf8:	b538      	push	{r3, r4, r5, lr}
 8001cfa:	68c3      	ldr	r3, [r0, #12]
 8001cfc:	4d36      	ldr	r5, [pc, #216]	; (8001dd8 <_ZN13MotorControll4mainEv+0xe0>)
 8001cfe:	ed2d 8b04 	vpush	{d8-d9}
 8001d02:	6043      	str	r3, [r0, #4]
 8001d04:	6903      	ldr	r3, [r0, #16]
 8001d06:	6083      	str	r3, [r0, #8]
 8001d08:	4604      	mov	r4, r0
 8001d0a:	4628      	mov	r0, r5
 8001d0c:	f000 fd86 	bl	800281c <_ZN7Encoder18get_left_no_atomicEv>
 8001d10:	60e0      	str	r0, [r4, #12]
 8001d12:	4628      	mov	r0, r5
 8001d14:	f000 fd8c 	bl	8002830 <_ZN7Encoder19get_right_no_atomicEv>
 8001d18:	6862      	ldr	r2, [r4, #4]
 8001d1a:	68e3      	ldr	r3, [r4, #12]
 8001d1c:	ed9f 5a2f 	vldr	s10, [pc, #188]	; 8001ddc <_ZN13MotorControll4mainEv+0xe4>
 8001d20:	edd4 6a05 	vldr	s13, [r4, #20]
 8001d24:	eddf 5a2e 	vldr	s11, [pc, #184]	; 8001de0 <_ZN13MotorControll4mainEv+0xe8>
 8001d28:	ed9f 6a2e 	vldr	s12, [pc, #184]	; 8001de4 <_ZN13MotorControll4mainEv+0xec>
 8001d2c:	6120      	str	r0, [r4, #16]
 8001d2e:	1a9b      	subs	r3, r3, r2
 8001d30:	ee07 3a10 	vmov	s14, r3
 8001d34:	eeb8 7ac7 	vcvt.f32.s32	s14, s14
 8001d38:	68a3      	ldr	r3, [r4, #8]
 8001d3a:	ed9f 9a2b 	vldr	s18, [pc, #172]	; 8001de8 <_ZN13MotorControll4mainEv+0xf0>
 8001d3e:	ee27 7a05 	vmul.f32	s14, s14, s10
 8001d42:	ee66 6aa5 	vmul.f32	s13, s13, s11
 8001d46:	ee47 6a06 	vmla.f32	s13, s14, s12
 8001d4a:	1ac3      	subs	r3, r0, r3
 8001d4c:	f104 0038 	add.w	r0, r4, #56	; 0x38
 8001d50:	ee07 3a90 	vmov	s15, r3
 8001d54:	eef8 7ae7 	vcvt.f32.s32	s15, s15
 8001d58:	edc4 6a05 	vstr	s13, [r4, #20]
 8001d5c:	eeb0 7a66 	vmov.f32	s14, s13
 8001d60:	edd4 6a06 	vldr	s13, [r4, #24]
 8001d64:	ee67 7a85 	vmul.f32	s15, s15, s10
 8001d68:	ee66 6aa5 	vmul.f32	s13, s13, s11
 8001d6c:	ee47 6a86 	vmla.f32	s13, s15, s12
 8001d70:	edd4 7a07 	vldr	s15, [r4, #28]
 8001d74:	edc4 6a06 	vstr	s13, [r4, #24]
 8001d78:	ee77 7ac7 	vsub.f32	s15, s15, s14
 8001d7c:	ee17 2a10 	vmov	r2, s14
 8001d80:	ee17 1a90 	vmov	r1, s15
 8001d84:	f7ff fe70 	bl	8001a68 <_ZN3PID7processEff>
 8001d88:	69a2      	ldr	r2, [r4, #24]
 8001d8a:	edd4 7a08 	vldr	s15, [r4, #32]
 8001d8e:	ee07 2a10 	vmov	s14, r2
 8001d92:	ee77 7ac7 	vsub.f32	s15, s15, s14
 8001d96:	ee08 0a90 	vmov	s17, r0
 8001d9a:	ee17 1a90 	vmov	r1, s15
 8001d9e:	f104 0064 	add.w	r0, r4, #100	; 0x64
 8001da2:	f7ff fe61 	bl	8001a68 <_ZN3PID7processEff>
 8001da6:	ee68 8a89 	vmul.f32	s17, s17, s18
 8001daa:	3424      	adds	r4, #36	; 0x24
 8001dac:	eefd 7ae8 	vcvt.s32.f32	s15, s17
 8001db0:	ee08 0a10 	vmov	s16, r0
 8001db4:	ee17 1a90 	vmov	r1, s15
 8001db8:	4620      	mov	r0, r4
 8001dba:	f000 fe15 	bl	80029e8 <_ZN5Motor8run_leftEi>
 8001dbe:	ee28 8a09 	vmul.f32	s16, s16, s18
 8001dc2:	4620      	mov	r0, r4
 8001dc4:	eefd 7ac8 	vcvt.s32.f32	s15, s16
 8001dc8:	ecbd 8b04 	vpop	{d8-d9}
 8001dcc:	ee17 1a90 	vmov	r1, s15
 8001dd0:	e8bd 4038 	ldmia.w	sp!, {r3, r4, r5, lr}
 8001dd4:	f000 be24 	b.w	8002a20 <_ZN5Motor9run_rightEi>
 8001dd8:	2000004c 	andcs	r0, r0, ip, asr #32
 8001ddc:	3dcccccd 	stclcc	12, cr12, [ip, #820]	; 0x334
 8001de0:	3f666666 	svccc	0x00666666
 8001de4:	3e000000 	cdpcc	0, 0, cr0, cr0, cr0, {0}
 8001de8:	437f0000 	cmnmi	pc, #0

08001dec <_ZN13MotorControllC1Ev>:
 8001dec:	b573      	push	{r0, r1, r4, r5, r6, lr}
 8001dee:	4b0e      	ldr	r3, [pc, #56]	; (8001e28 <_ZN13MotorControllC1Ev+0x3c>)
 8001df0:	2500      	movs	r5, #0
 8001df2:	4604      	mov	r4, r0
 8001df4:	f04f 567e 	mov.w	r6, #1065353216	; 0x3f800000
 8001df8:	f840 3b24 	str.w	r3, [r0], #36
 8001dfc:	f000 fd54 	bl	80028a8 <_ZN5MotorC1Ev>
 8001e00:	462b      	mov	r3, r5
 8001e02:	462a      	mov	r2, r5
 8001e04:	4629      	mov	r1, r5
 8001e06:	9600      	str	r6, [sp, #0]
 8001e08:	f104 0038 	add.w	r0, r4, #56	; 0x38
 8001e0c:	f7ff fe88 	bl	8001b20 <_ZN3PIDC1Effff>
 8001e10:	9600      	str	r6, [sp, #0]
 8001e12:	462b      	mov	r3, r5
 8001e14:	462a      	mov	r2, r5
 8001e16:	4629      	mov	r1, r5
 8001e18:	f104 0064 	add.w	r0, r4, #100	; 0x64
 8001e1c:	f7ff fe80 	bl	8001b20 <_ZN3PIDC1Effff>
 8001e20:	4620      	mov	r0, r4
 8001e22:	b002      	add	sp, #8
 8001e24:	bd70      	pop	{r4, r5, r6, pc}
 8001e26:	bf00      	nop
 8001e28:	080043f0 	stmdaeq	r0, {r4, r5, r6, r7, r8, r9, lr}

08001e2c <_ZN13MotorControll4initEv>:
 8001e2c:	b5f7      	push	{r0, r1, r2, r4, r5, r6, r7, lr}
 8001e2e:	4f15      	ldr	r7, [pc, #84]	; (8001e84 <_ZN13MotorControll4initEv+0x58>)
 8001e30:	4e15      	ldr	r6, [pc, #84]	; (8001e88 <_ZN13MotorControll4initEv+0x5c>)
 8001e32:	4604      	mov	r4, r0
 8001e34:	f04f 557e 	mov.w	r5, #1065353216	; 0x3f800000
 8001e38:	3024      	adds	r0, #36	; 0x24
 8001e3a:	f000 fe65 	bl	8002b08 <_ZN5Motor4initEv>
 8001e3e:	9500      	str	r5, [sp, #0]
 8001e40:	462b      	mov	r3, r5
 8001e42:	463a      	mov	r2, r7
 8001e44:	4631      	mov	r1, r6
 8001e46:	f104 0038 	add.w	r0, r4, #56	; 0x38
 8001e4a:	f7ff fe55 	bl	8001af8 <_ZN3PID4initEffff>
 8001e4e:	9500      	str	r5, [sp, #0]
 8001e50:	462b      	mov	r3, r5
 8001e52:	463a      	mov	r2, r7
 8001e54:	4631      	mov	r1, r6
 8001e56:	f104 0064 	add.w	r0, r4, #100	; 0x64
 8001e5a:	f7ff fe4d 	bl	8001af8 <_ZN3PID4initEffff>
 8001e5e:	2500      	movs	r5, #0
 8001e60:	2300      	movs	r3, #0
 8001e62:	6163      	str	r3, [r4, #20]
 8001e64:	61a3      	str	r3, [r4, #24]
 8001e66:	61e3      	str	r3, [r4, #28]
 8001e68:	6223      	str	r3, [r4, #32]
 8001e6a:	e9c4 5501 	strd	r5, r5, [r4, #4]
 8001e6e:	e9c4 5503 	strd	r5, r5, [r4, #12]
 8001e72:	462b      	mov	r3, r5
 8001e74:	2204      	movs	r2, #4
 8001e76:	4621      	mov	r1, r4
 8001e78:	4804      	ldr	r0, [pc, #16]	; (8001e8c <_ZN13MotorControll4initEv+0x60>)
 8001e7a:	f7ff fea1 	bl	8001bc0 <_ZN5Timer8add_taskEP6Threadjb>
 8001e7e:	4628      	mov	r0, r5
 8001e80:	b003      	add	sp, #12
 8001e82:	bdf0      	pop	{r4, r5, r6, r7, pc}
 8001e84:	3db851ec 	ldfccs	f5, [r8, #944]!	; 0x3b0
 8001e88:	3f4ccccd 	svccc	0x004ccccd
 8001e8c:	20000218 	andcs	r0, r0, r8, lsl r2

08001e90 <_ZN13MotorControllD1Ev>:
 8001e90:	b510      	push	{r4, lr}
 8001e92:	4b08      	ldr	r3, [pc, #32]	; (8001eb4 <_ZN13MotorControllD1Ev+0x24>)
 8001e94:	4604      	mov	r4, r0
 8001e96:	f840 3b64 	str.w	r3, [r0], #100
 8001e9a:	f7ff fddd 	bl	8001a58 <_ZN3PIDD1Ev>
 8001e9e:	f104 0038 	add.w	r0, r4, #56	; 0x38
 8001ea2:	f7ff fdd9 	bl	8001a58 <_ZN3PIDD1Ev>
 8001ea6:	f104 0024 	add.w	r0, r4, #36	; 0x24
 8001eaa:	f000 fd9b 	bl	80029e4 <_ZN5MotorD1Ev>
 8001eae:	4620      	mov	r0, r4
 8001eb0:	bd10      	pop	{r4, pc}
 8001eb2:	bf00      	nop
 8001eb4:	080043f0 	stmdaeq	r0, {r4, r5, r6, r7, r8, r9, lr}

08001eb8 <_ZN13MotorControllD0Ev>:
 8001eb8:	b510      	push	{r4, lr}
 8001eba:	4604      	mov	r4, r0
 8001ebc:	f7ff ffe8 	bl	8001e90 <_ZN13MotorControllD1Ev>
 8001ec0:	4620      	mov	r0, r4
 8001ec2:	2190      	movs	r1, #144	; 0x90
 8001ec4:	f7ff fcfa 	bl	80018bc <_ZdlPvj>
 8001ec8:	4620      	mov	r0, r4
 8001eca:	bd10      	pop	{r4, pc}

08001ecc <_ZN8TerminalC1Ev>:
 8001ecc:	b510      	push	{r4, lr}
 8001ece:	4604      	mov	r4, r0
 8001ed0:	f000 fbb2 	bl	8002638 <_ZN5UsartC1Ev>
 8001ed4:	4620      	mov	r0, r4
 8001ed6:	bd10      	pop	{r4, pc}

08001ed8 <_ZN8TerminalD1Ev>:
 8001ed8:	b510      	push	{r4, lr}
 8001eda:	4604      	mov	r4, r0
 8001edc:	f000 fbf6 	bl	80026cc <_ZN5UsartD1Ev>
 8001ee0:	4620      	mov	r0, r4
 8001ee2:	bd10      	pop	{r4, pc}

08001ee4 <_ZN8Terminal4putsEPKc>:
 8001ee4:	b538      	push	{r3, r4, r5, lr}
 8001ee6:	4605      	mov	r5, r0
 8001ee8:	1e4c      	subs	r4, r1, #1
 8001eea:	f814 1f01 	ldrb.w	r1, [r4, #1]!
 8001eee:	b119      	cbz	r1, 8001ef8 <_ZN8Terminal4putsEPKc+0x14>
 8001ef0:	4628      	mov	r0, r5
 8001ef2:	f000 fbed 	bl	80026d0 <_ZN5Usart8put_charEc>
 8001ef6:	e7f8      	b.n	8001eea <_ZN8Terminal4putsEPKc+0x6>
 8001ef8:	bd38      	pop	{r3, r4, r5, pc}

08001efa <_ZN8Terminal4putiEl>:
 8001efa:	b57f      	push	{r0, r1, r2, r3, r4, r5, r6, lr}
 8001efc:	1e0b      	subs	r3, r1, #0
 8001efe:	f04f 0200 	mov.w	r2, #0
 8001f02:	f04f 010a 	mov.w	r1, #10
 8001f06:	bfba      	itte	lt
 8001f08:	425b      	neglt	r3, r3
 8001f0a:	2401      	movlt	r4, #1
 8001f0c:	4614      	movge	r4, r2
 8001f0e:	f88d 200f 	strb.w	r2, [sp, #15]
 8001f12:	460e      	mov	r6, r1
 8001f14:	aa04      	add	r2, sp, #16
 8001f16:	fb93 f5f6 	sdiv	r5, r3, r6
 8001f1a:	440a      	add	r2, r1
 8001f1c:	fb06 3315 	mls	r3, r6, r5, r3
 8001f20:	3330      	adds	r3, #48	; 0x30
 8001f22:	f802 3c0c 	strb.w	r3, [r2, #-12]
 8001f26:	1e4a      	subs	r2, r1, #1
 8001f28:	b2d2      	uxtb	r2, r2
 8001f2a:	462b      	mov	r3, r5
 8001f2c:	b965      	cbnz	r5, 8001f48 <_ZN8Terminal4putiEl+0x4e>
 8001f2e:	b12c      	cbz	r4, 8001f3c <_ZN8Terminal4putiEl+0x42>
 8001f30:	ab04      	add	r3, sp, #16
 8001f32:	4413      	add	r3, r2
 8001f34:	212d      	movs	r1, #45	; 0x2d
 8001f36:	f803 1c0c 	strb.w	r1, [r3, #-12]
 8001f3a:	4611      	mov	r1, r2
 8001f3c:	ab01      	add	r3, sp, #4
 8001f3e:	4419      	add	r1, r3
 8001f40:	f7ff ffd0 	bl	8001ee4 <_ZN8Terminal4putsEPKc>
 8001f44:	b004      	add	sp, #16
 8001f46:	bd70      	pop	{r4, r5, r6, pc}
 8001f48:	4611      	mov	r1, r2
 8001f4a:	e7e3      	b.n	8001f14 <_ZN8Terminal4putiEl+0x1a>

08001f4c <_ZN8Terminal5putuiEm>:
 8001f4c:	b530      	push	{r4, r5, lr}
 8001f4e:	b085      	sub	sp, #20
 8001f50:	2300      	movs	r3, #0
 8001f52:	220a      	movs	r2, #10
 8001f54:	f88d 300f 	strb.w	r3, [sp, #15]
 8001f58:	4615      	mov	r5, r2
 8001f5a:	fbb1 f4f5 	udiv	r4, r1, r5
 8001f5e:	fb05 1314 	mls	r3, r5, r4, r1
 8001f62:	a904      	add	r1, sp, #16
 8001f64:	4411      	add	r1, r2
 8001f66:	3330      	adds	r3, #48	; 0x30
 8001f68:	f801 3c0c 	strb.w	r3, [r1, #-12]
 8001f6c:	1e53      	subs	r3, r2, #1
 8001f6e:	b2db      	uxtb	r3, r3
 8001f70:	4621      	mov	r1, r4
 8001f72:	b92c      	cbnz	r4, 8001f80 <_ZN8Terminal5putuiEm+0x34>
 8001f74:	ab01      	add	r3, sp, #4
 8001f76:	1899      	adds	r1, r3, r2
 8001f78:	f7ff ffb4 	bl	8001ee4 <_ZN8Terminal4putsEPKc>
 8001f7c:	b005      	add	sp, #20
 8001f7e:	bd30      	pop	{r4, r5, pc}
 8001f80:	461a      	mov	r2, r3
 8001f82:	e7ea      	b.n	8001f5a <_ZN8Terminal5putuiEm+0xe>

08001f84 <_ZN10LineSensorD1Ev>:
 8001f84:	4770      	bx	lr

08001f86 <_ZN10LineSensorD0Ev>:
 8001f86:	b510      	push	{r4, lr}
 8001f88:	21bc      	movs	r1, #188	; 0xbc
 8001f8a:	4604      	mov	r4, r0
 8001f8c:	f7ff fc96 	bl	80018bc <_ZdlPvj>
 8001f90:	4620      	mov	r0, r4
 8001f92:	bd10      	pop	{r4, pc}

08001f94 <_ZN10LineSensorC1Ev>:
 8001f94:	4a4a      	ldr	r2, [pc, #296]	; (80020c0 <_ZN10LineSensorC1Ev+0x12c>)
 8001f96:	4b4b      	ldr	r3, [pc, #300]	; (80020c4 <_ZN10LineSensorC1Ev+0x130>)
 8001f98:	6003      	str	r3, [r0, #0]
 8001f9a:	6953      	ldr	r3, [r2, #20]
 8001f9c:	f443 037f 	orr.w	r3, r3, #16711680	; 0xff0000
 8001fa0:	b510      	push	{r4, lr}
 8001fa2:	6153      	str	r3, [r2, #20]
 8001fa4:	f04f 4390 	mov.w	r3, #1207959552	; 0x48000000
 8001fa8:	6043      	str	r3, [r0, #4]
 8001faa:	689c      	ldr	r4, [r3, #8]
 8001fac:	f424 3440 	bic.w	r4, r4, #196608	; 0x30000
 8001fb0:	609c      	str	r4, [r3, #8]
 8001fb2:	689c      	ldr	r4, [r3, #8]
 8001fb4:	f444 3440 	orr.w	r4, r4, #196608	; 0x30000
 8001fb8:	609c      	str	r4, [r3, #8]
 8001fba:	889c      	ldrh	r4, [r3, #4]
 8001fbc:	f424 7480 	bic.w	r4, r4, #256	; 0x100
 8001fc0:	0424      	lsls	r4, r4, #16
 8001fc2:	0c24      	lsrs	r4, r4, #16
 8001fc4:	809c      	strh	r4, [r3, #4]
 8001fc6:	889c      	ldrh	r4, [r3, #4]
 8001fc8:	b2a4      	uxth	r4, r4
 8001fca:	809c      	strh	r4, [r3, #4]
 8001fcc:	681c      	ldr	r4, [r3, #0]
 8001fce:	f424 3440 	bic.w	r4, r4, #196608	; 0x30000
 8001fd2:	601c      	str	r4, [r3, #0]
 8001fd4:	681c      	ldr	r4, [r3, #0]
 8001fd6:	f444 3480 	orr.w	r4, r4, #65536	; 0x10000
 8001fda:	601c      	str	r4, [r3, #0]
 8001fdc:	6954      	ldr	r4, [r2, #20]
 8001fde:	f444 047f 	orr.w	r4, r4, #16711680	; 0xff0000
 8001fe2:	6154      	str	r4, [r2, #20]
 8001fe4:	681c      	ldr	r4, [r3, #0]
 8001fe6:	f8c0 3090 	str.w	r3, [r0, #144]	; 0x90
 8001fea:	f024 0403 	bic.w	r4, r4, #3
 8001fee:	601c      	str	r4, [r3, #0]
 8001ff0:	681c      	ldr	r4, [r3, #0]
 8001ff2:	f044 0403 	orr.w	r4, r4, #3
 8001ff6:	601c      	str	r4, [r3, #0]
 8001ff8:	6954      	ldr	r4, [r2, #20]
 8001ffa:	f444 047f 	orr.w	r4, r4, #16711680	; 0xff0000
 8001ffe:	6154      	str	r4, [r2, #20]
 8002000:	681c      	ldr	r4, [r3, #0]
 8002002:	f8c0 3094 	str.w	r3, [r0, #148]	; 0x94
 8002006:	f024 040c 	bic.w	r4, r4, #12
 800200a:	601c      	str	r4, [r3, #0]
 800200c:	681c      	ldr	r4, [r3, #0]
 800200e:	f044 040c 	orr.w	r4, r4, #12
 8002012:	601c      	str	r4, [r3, #0]
 8002014:	6954      	ldr	r4, [r2, #20]
 8002016:	f444 047f 	orr.w	r4, r4, #16711680	; 0xff0000
 800201a:	6154      	str	r4, [r2, #20]
 800201c:	681c      	ldr	r4, [r3, #0]
 800201e:	f8c0 3098 	str.w	r3, [r0, #152]	; 0x98
 8002022:	f024 0430 	bic.w	r4, r4, #48	; 0x30
 8002026:	601c      	str	r4, [r3, #0]
 8002028:	681c      	ldr	r4, [r3, #0]
 800202a:	f044 0430 	orr.w	r4, r4, #48	; 0x30
 800202e:	601c      	str	r4, [r3, #0]
 8002030:	6954      	ldr	r4, [r2, #20]
 8002032:	f444 047f 	orr.w	r4, r4, #16711680	; 0xff0000
 8002036:	6154      	str	r4, [r2, #20]
 8002038:	681c      	ldr	r4, [r3, #0]
 800203a:	f8c0 309c 	str.w	r3, [r0, #156]	; 0x9c
 800203e:	f024 04c0 	bic.w	r4, r4, #192	; 0xc0
 8002042:	601c      	str	r4, [r3, #0]
 8002044:	681c      	ldr	r4, [r3, #0]
 8002046:	f044 04c0 	orr.w	r4, r4, #192	; 0xc0
 800204a:	601c      	str	r4, [r3, #0]
 800204c:	6954      	ldr	r4, [r2, #20]
 800204e:	f444 047f 	orr.w	r4, r4, #16711680	; 0xff0000
 8002052:	6154      	str	r4, [r2, #20]
 8002054:	681c      	ldr	r4, [r3, #0]
 8002056:	f8c0 30a0 	str.w	r3, [r0, #160]	; 0xa0
 800205a:	f424 7440 	bic.w	r4, r4, #768	; 0x300
 800205e:	601c      	str	r4, [r3, #0]
 8002060:	681c      	ldr	r4, [r3, #0]
 8002062:	f444 7440 	orr.w	r4, r4, #768	; 0x300
 8002066:	601c      	str	r4, [r3, #0]
 8002068:	6954      	ldr	r4, [r2, #20]
 800206a:	f444 047f 	orr.w	r4, r4, #16711680	; 0xff0000
 800206e:	6154      	str	r4, [r2, #20]
 8002070:	681c      	ldr	r4, [r3, #0]
 8002072:	f8c0 30a4 	str.w	r3, [r0, #164]	; 0xa4
 8002076:	f424 6440 	bic.w	r4, r4, #3072	; 0xc00
 800207a:	601c      	str	r4, [r3, #0]
 800207c:	681c      	ldr	r4, [r3, #0]
 800207e:	f444 6440 	orr.w	r4, r4, #3072	; 0xc00
 8002082:	601c      	str	r4, [r3, #0]
 8002084:	6954      	ldr	r4, [r2, #20]
 8002086:	f444 047f 	orr.w	r4, r4, #16711680	; 0xff0000
 800208a:	6154      	str	r4, [r2, #20]
 800208c:	681c      	ldr	r4, [r3, #0]
 800208e:	f8c0 30a8 	str.w	r3, [r0, #168]	; 0xa8
 8002092:	f424 5440 	bic.w	r4, r4, #12288	; 0x3000
 8002096:	601c      	str	r4, [r3, #0]
 8002098:	681c      	ldr	r4, [r3, #0]
 800209a:	f444 5440 	orr.w	r4, r4, #12288	; 0x3000
 800209e:	601c      	str	r4, [r3, #0]
 80020a0:	6954      	ldr	r4, [r2, #20]
 80020a2:	f444 047f 	orr.w	r4, r4, #16711680	; 0xff0000
 80020a6:	6154      	str	r4, [r2, #20]
 80020a8:	681a      	ldr	r2, [r3, #0]
 80020aa:	f8c0 30ac 	str.w	r3, [r0, #172]	; 0xac
 80020ae:	f422 4240 	bic.w	r2, r2, #49152	; 0xc000
 80020b2:	601a      	str	r2, [r3, #0]
 80020b4:	681a      	ldr	r2, [r3, #0]
 80020b6:	f442 4240 	orr.w	r2, r2, #49152	; 0xc000
 80020ba:	601a      	str	r2, [r3, #0]
 80020bc:	bd10      	pop	{r4, pc}
 80020be:	bf00      	nop
 80020c0:	40021000 	andmi	r1, r2, r0
 80020c4:	08004404 	stmdaeq	r0, {r2, sl, lr}

080020c8 <_ZN10LineSensor4initEv>:
 80020c8:	6842      	ldr	r2, [r0, #4]
 80020ca:	b5f8      	push	{r3, r4, r5, r6, r7, lr}
 80020cc:	8d13      	ldrh	r3, [r2, #40]	; 0x28
 80020ce:	f443 7380 	orr.w	r3, r3, #256	; 0x100
 80020d2:	8513      	strh	r3, [r2, #40]	; 0x28
 80020d4:	2164      	movs	r1, #100	; 0x64
 80020d6:	4604      	mov	r4, r0
 80020d8:	4829      	ldr	r0, [pc, #164]	; (8002180 <_ZN10LineSensor4initEv+0xb8>)
 80020da:	f7ff fdb1 	bl	8001c40 <_ZN5Timer8delay_msEj>
 80020de:	f000 fe77 	bl	8002dd0 <_Z8adc_initv>
 80020e2:	2164      	movs	r1, #100	; 0x64
 80020e4:	4826      	ldr	r0, [pc, #152]	; (8002180 <_ZN10LineSensor4initEv+0xb8>)
 80020e6:	f7ff fdab 	bl	8001c40 <_ZN5Timer8delay_msEj>
 80020ea:	f104 0630 	add.w	r6, r4, #48	; 0x30
 80020ee:	4637      	mov	r7, r6
 80020f0:	2500      	movs	r5, #0
 80020f2:	4628      	mov	r0, r5
 80020f4:	f000 feac 	bl	8002e50 <_Z8adc_readi>
 80020f8:	3501      	adds	r5, #1
 80020fa:	2d08      	cmp	r5, #8
 80020fc:	f847 0b04 	str.w	r0, [r7], #4
 8002100:	d1f7      	bne.n	80020f2 <_ZN10LineSensor4initEv+0x2a>
 8002102:	6862      	ldr	r2, [r4, #4]
 8002104:	481e      	ldr	r0, [pc, #120]	; (8002180 <_ZN10LineSensor4initEv+0xb8>)
 8002106:	6993      	ldr	r3, [r2, #24]
 8002108:	f443 7380 	orr.w	r3, r3, #256	; 0x100
 800210c:	6193      	str	r3, [r2, #24]
 800210e:	2164      	movs	r1, #100	; 0x64
 8002110:	f7ff fd96 	bl	8001c40 <_ZN5Timer8delay_msEj>
 8002114:	2500      	movs	r5, #0
 8002116:	4628      	mov	r0, r5
 8002118:	f000 fe9a 	bl	8002e50 <_Z8adc_readi>
 800211c:	f856 3b04 	ldr.w	r3, [r6], #4
 8002120:	3501      	adds	r5, #1
 8002122:	1ac0      	subs	r0, r0, r3
 8002124:	2d08      	cmp	r5, #8
 8002126:	61f0      	str	r0, [r6, #28]
 8002128:	d1f5      	bne.n	8002116 <_ZN10LineSensor4initEv+0x4e>
 800212a:	f06f 02ff 	mvn.w	r2, #255	; 0xff
 800212e:	f06f 03bf 	mvn.w	r3, #191	; 0xbf
 8002132:	e9c4 2304 	strd	r2, r3, [r4, #16]
 8002136:	f06f 017f 	mvn.w	r1, #127	; 0x7f
 800213a:	f06f 033f 	mvn.w	r3, #63	; 0x3f
 800213e:	e9c4 1306 	strd	r1, r3, [r4, #24]
 8002142:	2040      	movs	r0, #64	; 0x40
 8002144:	2380      	movs	r3, #128	; 0x80
 8002146:	e9c4 0308 	strd	r0, r3, [r4, #32]
 800214a:	26c0      	movs	r6, #192	; 0xc0
 800214c:	f44f 7380 	mov.w	r3, #256	; 0x100
 8002150:	2500      	movs	r5, #0
 8002152:	e9c4 630a 	strd	r6, r3, [r4, #40]	; 0x28
 8002156:	f44f 73c8 	mov.w	r3, #400	; 0x190
 800215a:	60a3      	str	r3, [r4, #8]
 800215c:	e9c4 551c 	strd	r5, r5, [r4, #112]	; 0x70
 8002160:	e9c4 551e 	strd	r5, r5, [r4, #120]	; 0x78
 8002164:	e9c4 5520 	strd	r5, r5, [r4, #128]	; 0x80
 8002168:	e9c4 5522 	strd	r5, r5, [r4, #136]	; 0x88
 800216c:	7325      	strb	r5, [r4, #12]
 800216e:	462b      	mov	r3, r5
 8002170:	2204      	movs	r2, #4
 8002172:	4621      	mov	r1, r4
 8002174:	4802      	ldr	r0, [pc, #8]	; (8002180 <_ZN10LineSensor4initEv+0xb8>)
 8002176:	f7ff fd23 	bl	8001bc0 <_ZN5Timer8add_taskEP6Threadjb>
 800217a:	4628      	mov	r0, r5
 800217c:	bdf8      	pop	{r3, r4, r5, r6, r7, pc}
 800217e:	bf00      	nop
 8002180:	20000218 	andcs	r0, r0, r8, lsl r2

08002184 <_ZN10LineSensor5readyEv>:
 8002184:	7b03      	ldrb	r3, [r0, #12]
 8002186:	b672      	cpsid	i
 8002188:	b10b      	cbz	r3, 800218e <_ZN10LineSensor5readyEv+0xa>
 800218a:	2200      	movs	r2, #0
 800218c:	7302      	strb	r2, [r0, #12]
 800218e:	b662      	cpsie	i
 8002190:	4618      	mov	r0, r3
 8002192:	4770      	bx	lr

08002194 <_ZN10LineSensor9integrateEj>:
 8002194:	eb00 0081 	add.w	r0, r0, r1, lsl #2
 8002198:	b530      	push	{r4, r5, lr}
 800219a:	6902      	ldr	r2, [r0, #16]
 800219c:	6f05      	ldr	r5, [r0, #112]	; 0x70
 800219e:	fb02 f405 	mul.w	r4, r2, r5
 80021a2:	b171      	cbz	r1, 80021c2 <_ZN10LineSensor9integrateEj+0x2e>
 80021a4:	6ec3      	ldr	r3, [r0, #108]	; 0x6c
 80021a6:	68c2      	ldr	r2, [r0, #12]
 80021a8:	2906      	cmp	r1, #6
 80021aa:	fb02 4203 	mla	r2, r2, r3, r4
 80021ae:	442b      	add	r3, r5
 80021b0:	d80a      	bhi.n	80021c8 <_ZN10LineSensor9integrateEj+0x34>
 80021b2:	6f41      	ldr	r1, [r0, #116]	; 0x74
 80021b4:	6940      	ldr	r0, [r0, #20]
 80021b6:	440b      	add	r3, r1
 80021b8:	fb00 2201 	mla	r2, r0, r1, r2
 80021bc:	fb92 f0f3 	sdiv	r0, r2, r3
 80021c0:	bd30      	pop	{r4, r5, pc}
 80021c2:	0062      	lsls	r2, r4, #1
 80021c4:	006b      	lsls	r3, r5, #1
 80021c6:	e7f4      	b.n	80021b2 <_ZN10LineSensor9integrateEj+0x1e>
 80021c8:	4422      	add	r2, r4
 80021ca:	442b      	add	r3, r5
 80021cc:	e7f6      	b.n	80021bc <_ZN10LineSensor9integrateEj+0x28>

080021ce <_ZN10LineSensor20find_center_line_posEv>:
 80021ce:	6882      	ldr	r2, [r0, #8]
 80021d0:	f100 0370 	add.w	r3, r0, #112	; 0x70
 80021d4:	2000      	movs	r0, #0
 80021d6:	f853 1b04 	ldr.w	r1, [r3], #4
 80021da:	428a      	cmp	r2, r1
 80021dc:	db04      	blt.n	80021e8 <_ZN10LineSensor20find_center_line_posEv+0x1a>
 80021de:	3001      	adds	r0, #1
 80021e0:	2808      	cmp	r0, #8
 80021e2:	d1f8      	bne.n	80021d6 <_ZN10LineSensor20find_center_line_posEv+0x8>
 80021e4:	f04f 30ff 	mov.w	r0, #4294967295	; 0xffffffff
 80021e8:	4770      	bx	lr

080021ea <_ZN10LineSensor4mainEv>:
 80021ea:	e92d 47f0 	stmdb	sp!, {r4, r5, r6, r7, r8, r9, sl, lr}
 80021ee:	2500      	movs	r5, #0
 80021f0:	4604      	mov	r4, r0
 80021f2:	f100 0630 	add.w	r6, r0, #48	; 0x30
 80021f6:	f44f 797a 	mov.w	r9, #1000	; 0x3e8
 80021fa:	46aa      	mov	sl, r5
 80021fc:	4628      	mov	r0, r5
 80021fe:	f000 fe27 	bl	8002e50 <_Z8adc_readi>
 8002202:	f856 3b04 	ldr.w	r3, [r6], #4
 8002206:	1ac0      	subs	r0, r0, r3
 8002208:	fb09 f000 	mul.w	r0, r9, r0
 800220c:	69f2      	ldr	r2, [r6, #28]
 800220e:	fb90 f0f2 	sdiv	r0, r0, r2
 8002212:	3501      	adds	r5, #1
 8002214:	f5d0 707a 	rsbs	r0, r0, #1000	; 0x3e8
 8002218:	bf54      	ite	pl
 800221a:	63f0      	strpl	r0, [r6, #60]	; 0x3c
 800221c:	f8c6 a03c 	strmi.w	sl, [r6, #60]	; 0x3c
 8002220:	2d08      	cmp	r5, #8
 8002222:	d1eb      	bne.n	80021fc <_ZN10LineSensor4mainEv+0x12>
 8002224:	4620      	mov	r0, r4
 8002226:	f7ff ffd2 	bl	80021ce <_ZN10LineSensor20find_center_line_posEv>
 800222a:	1c43      	adds	r3, r0, #1
 800222c:	4601      	mov	r1, r0
 800222e:	d00f      	beq.n	8002250 <_ZN10LineSensor4mainEv+0x66>
 8002230:	4620      	mov	r0, r4
 8002232:	f7ff ffaf 	bl	8002194 <_ZN10LineSensor9integrateEj>
 8002236:	2301      	movs	r3, #1
 8002238:	4607      	mov	r7, r0
 800223a:	4680      	mov	r8, r0
 800223c:	f884 30b0 	strb.w	r3, [r4, #176]	; 0xb0
 8002240:	2301      	movs	r3, #1
 8002242:	f884 30b1 	strb.w	r3, [r4, #177]	; 0xb1
 8002246:	e9c4 782d 	strd	r7, r8, [r4, #180]	; 0xb4
 800224a:	7323      	strb	r3, [r4, #12]
 800224c:	e8bd 87f0 	ldmia.w	sp!, {r4, r5, r6, r7, r8, r9, sl, pc}
 8002250:	2300      	movs	r3, #0
 8002252:	e7f3      	b.n	800223c <_ZN10LineSensor4mainEv+0x52>

08002254 <__aeabi_atexit>:
 8002254:	2000      	movs	r0, #0
 8002256:	4770      	bx	lr

08002258 <__cxa_pure_virtual>:
 8002258:	e7fe      	b.n	8002258 <__cxa_pure_virtual>

0800225a <_ZN3KeyD1Ev>:
 800225a:	4770      	bx	lr

0800225c <_ZN3KeyD0Ev>:
 800225c:	b510      	push	{r4, lr}
 800225e:	2118      	movs	r1, #24
 8002260:	4604      	mov	r4, r0
 8002262:	f7ff fb2b 	bl	80018bc <_ZdlPvj>
 8002266:	4620      	mov	r0, r4
 8002268:	bd10      	pop	{r4, pc}

0800226a <_ZN3Key4mainEv>:
 800226a:	7b02      	ldrb	r2, [r0, #12]
 800226c:	6883      	ldr	r3, [r0, #8]
 800226e:	b132      	cbz	r2, 800227e <_ZN3Key4mainEv+0x14>
 8002270:	2200      	movs	r2, #0
 8002272:	7302      	strb	r2, [r0, #12]
 8002274:	699a      	ldr	r2, [r3, #24]
 8002276:	f442 4200 	orr.w	r2, r2, #32768	; 0x8000
 800227a:	619a      	str	r2, [r3, #24]
 800227c:	4770      	bx	lr
 800227e:	2201      	movs	r2, #1
 8002280:	7302      	strb	r2, [r0, #12]
 8002282:	8d1a      	ldrh	r2, [r3, #40]	; 0x28
 8002284:	f442 4200 	orr.w	r2, r2, #32768	; 0x8000
 8002288:	851a      	strh	r2, [r3, #40]	; 0x28
 800228a:	4770      	bx	lr

0800228c <_ZN3KeyC1Ev>:
 800228c:	4a1c      	ldr	r2, [pc, #112]	; (8002300 <_ZN3KeyC1Ev+0x74>)
 800228e:	4b1d      	ldr	r3, [pc, #116]	; (8002304 <_ZN3KeyC1Ev+0x78>)
 8002290:	6003      	str	r3, [r0, #0]
 8002292:	6953      	ldr	r3, [r2, #20]
 8002294:	f443 037f 	orr.w	r3, r3, #16711680	; 0xff0000
 8002298:	b510      	push	{r4, lr}
 800229a:	6153      	str	r3, [r2, #20]
 800229c:	4b1a      	ldr	r3, [pc, #104]	; (8002308 <_ZN3KeyC1Ev+0x7c>)
 800229e:	6043      	str	r3, [r0, #4]
 80022a0:	689c      	ldr	r4, [r3, #8]
 80022a2:	f024 7440 	bic.w	r4, r4, #50331648	; 0x3000000
 80022a6:	609c      	str	r4, [r3, #8]
 80022a8:	689c      	ldr	r4, [r3, #8]
 80022aa:	f044 7440 	orr.w	r4, r4, #50331648	; 0x3000000
 80022ae:	609c      	str	r4, [r3, #8]
 80022b0:	681c      	ldr	r4, [r3, #0]
 80022b2:	f024 7440 	bic.w	r4, r4, #50331648	; 0x3000000
 80022b6:	601c      	str	r4, [r3, #0]
 80022b8:	681c      	ldr	r4, [r3, #0]
 80022ba:	601c      	str	r4, [r3, #0]
 80022bc:	68dc      	ldr	r4, [r3, #12]
 80022be:	f044 7480 	orr.w	r4, r4, #16777216	; 0x1000000
 80022c2:	60dc      	str	r4, [r3, #12]
 80022c4:	6954      	ldr	r4, [r2, #20]
 80022c6:	f444 047f 	orr.w	r4, r4, #16711680	; 0xff0000
 80022ca:	6154      	str	r4, [r2, #20]
 80022cc:	689a      	ldr	r2, [r3, #8]
 80022ce:	6083      	str	r3, [r0, #8]
 80022d0:	f022 4240 	bic.w	r2, r2, #3221225472	; 0xc0000000
 80022d4:	609a      	str	r2, [r3, #8]
 80022d6:	689a      	ldr	r2, [r3, #8]
 80022d8:	f042 4240 	orr.w	r2, r2, #3221225472	; 0xc0000000
 80022dc:	609a      	str	r2, [r3, #8]
 80022de:	889a      	ldrh	r2, [r3, #4]
 80022e0:	f3c2 020e 	ubfx	r2, r2, #0, #15
 80022e4:	809a      	strh	r2, [r3, #4]
 80022e6:	889a      	ldrh	r2, [r3, #4]
 80022e8:	b292      	uxth	r2, r2
 80022ea:	809a      	strh	r2, [r3, #4]
 80022ec:	681a      	ldr	r2, [r3, #0]
 80022ee:	f022 4240 	bic.w	r2, r2, #3221225472	; 0xc0000000
 80022f2:	601a      	str	r2, [r3, #0]
 80022f4:	681a      	ldr	r2, [r3, #0]
 80022f6:	f042 4280 	orr.w	r2, r2, #1073741824	; 0x40000000
 80022fa:	601a      	str	r2, [r3, #0]
 80022fc:	bd10      	pop	{r4, pc}
 80022fe:	bf00      	nop
 8002300:	40021000 	andmi	r1, r2, r0
 8002304:	08004418 	stmdaeq	r0, {r3, r4, sl, lr}
 8002308:	48000400 	stmdami	r0, {sl}

0800230c <_ZN3Key4initEv>:
 800230c:	f04f 33ff 	mov.w	r3, #4294967295	; 0xffffffff
 8002310:	b510      	push	{r4, lr}
 8002312:	6143      	str	r3, [r0, #20]
 8002314:	2300      	movs	r3, #0
 8002316:	4604      	mov	r4, r0
 8002318:	7303      	strb	r3, [r0, #12]
 800231a:	4601      	mov	r1, r0
 800231c:	f44f 72fa 	mov.w	r2, #500	; 0x1f4
 8002320:	4802      	ldr	r0, [pc, #8]	; (800232c <_ZN3Key4initEv+0x20>)
 8002322:	f7ff fc4d 	bl	8001bc0 <_ZN5Timer8add_taskEP6Threadjb>
 8002326:	6120      	str	r0, [r4, #16]
 8002328:	bd10      	pop	{r4, pc}
 800232a:	bf00      	nop
 800232c:	20000218 	andcs	r0, r0, r8, lsl r2

08002330 <_ZN3Key4readEv>:
 8002330:	b570      	push	{r4, r5, r6, lr}
 8002332:	4604      	mov	r4, r0
 8002334:	6863      	ldr	r3, [r4, #4]
 8002336:	8a1b      	ldrh	r3, [r3, #16]
 8002338:	04da      	lsls	r2, r3, #19
 800233a:	d501      	bpl.n	8002340 <_ZN3Key4readEv+0x10>
 800233c:	bf00      	nop
 800233e:	e7f9      	b.n	8002334 <_ZN3Key4readEv+0x4>
 8002340:	2301      	movs	r3, #1
 8002342:	6163      	str	r3, [r4, #20]
 8002344:	2264      	movs	r2, #100	; 0x64
 8002346:	7c21      	ldrb	r1, [r4, #16]
 8002348:	480f      	ldr	r0, [pc, #60]	; (8002388 <_ZN3Key4readEv+0x58>)
 800234a:	4d0f      	ldr	r5, [pc, #60]	; (8002388 <_ZN3Key4readEv+0x58>)
 800234c:	f7ff fc60 	bl	8001c10 <_ZN5Timer10set_periodEhj>
 8002350:	480d      	ldr	r0, [pc, #52]	; (8002388 <_ZN3Key4readEv+0x58>)
 8002352:	f7ff fc69 	bl	8001c28 <_ZN5Timer8get_timeEv>
 8002356:	f500 66fa 	add.w	r6, r0, #2000	; 0x7d0
 800235a:	6863      	ldr	r3, [r4, #4]
 800235c:	8a1b      	ldrh	r3, [r3, #16]
 800235e:	04db      	lsls	r3, r3, #19
 8002360:	d40f      	bmi.n	8002382 <_ZN3Key4readEv+0x52>
 8002362:	4809      	ldr	r0, [pc, #36]	; (8002388 <_ZN3Key4readEv+0x58>)
 8002364:	f7ff fc60 	bl	8001c28 <_ZN5Timer8get_timeEv>
 8002368:	42b0      	cmp	r0, r6
 800236a:	d9f6      	bls.n	800235a <_ZN3Key4readEv+0x2a>
 800236c:	6963      	ldr	r3, [r4, #20]
 800236e:	2b01      	cmp	r3, #1
 8002370:	d1f3      	bne.n	800235a <_ZN3Key4readEv+0x2a>
 8002372:	2232      	movs	r2, #50	; 0x32
 8002374:	7c21      	ldrb	r1, [r4, #16]
 8002376:	4628      	mov	r0, r5
 8002378:	f7ff fc4a 	bl	8001c10 <_ZN5Timer10set_periodEhj>
 800237c:	2302      	movs	r3, #2
 800237e:	6163      	str	r3, [r4, #20]
 8002380:	e7eb      	b.n	800235a <_ZN3Key4readEv+0x2a>
 8002382:	6960      	ldr	r0, [r4, #20]
 8002384:	bd70      	pop	{r4, r5, r6, pc}
 8002386:	bf00      	nop
 8002388:	20000218 	andcs	r0, r0, r8, lsl r2

0800238c <_ZN3IMUD1Ev>:
 800238c:	4770      	bx	lr

0800238e <_ZN3IMUD0Ev>:
 800238e:	b510      	push	{r4, lr}
 8002390:	2144      	movs	r1, #68	; 0x44
 8002392:	4604      	mov	r4, r0
 8002394:	f7ff fa92 	bl	80018bc <_ZdlPvj>
 8002398:	4620      	mov	r0, r4
 800239a:	bd10      	pop	{r4, pc}

0800239c <_ZN3IMUC1Ev>:
 800239c:	4b01      	ldr	r3, [pc, #4]	; (80023a4 <_ZN3IMUC1Ev+0x8>)
 800239e:	6003      	str	r3, [r0, #0]
 80023a0:	4770      	bx	lr
 80023a2:	bf00      	nop
 80023a4:	0800442c 	stmdaeq	r0, {r2, r3, r5, sl, lr}

080023a8 <_ZN3IMU4readEb>:
 80023a8:	e92d 41f0 	stmdb	sp!, {r4, r5, r6, r7, r8, lr}
 80023ac:	4604      	mov	r4, r0
 80023ae:	6c00      	ldr	r0, [r0, #64]	; 0x40
 80023b0:	6803      	ldr	r3, [r0, #0]
 80023b2:	689b      	ldr	r3, [r3, #8]
 80023b4:	4688      	mov	r8, r1
 80023b6:	4798      	blx	r3
 80023b8:	6c20      	ldr	r0, [r4, #64]	; 0x40
 80023ba:	6803      	ldr	r3, [r0, #0]
 80023bc:	21d4      	movs	r1, #212	; 0xd4
 80023be:	695b      	ldr	r3, [r3, #20]
 80023c0:	4798      	blx	r3
 80023c2:	6c20      	ldr	r0, [r4, #64]	; 0x40
 80023c4:	6803      	ldr	r3, [r0, #0]
 80023c6:	2119      	movs	r1, #25
 80023c8:	695b      	ldr	r3, [r3, #20]
 80023ca:	4798      	blx	r3
 80023cc:	6c20      	ldr	r0, [r4, #64]	; 0x40
 80023ce:	6803      	ldr	r3, [r0, #0]
 80023d0:	689b      	ldr	r3, [r3, #8]
 80023d2:	4798      	blx	r3
 80023d4:	6c20      	ldr	r0, [r4, #64]	; 0x40
 80023d6:	6803      	ldr	r3, [r0, #0]
 80023d8:	21d5      	movs	r1, #213	; 0xd5
 80023da:	695b      	ldr	r3, [r3, #20]
 80023dc:	4798      	blx	r3
 80023de:	6c20      	ldr	r0, [r4, #64]	; 0x40
 80023e0:	6803      	ldr	r3, [r0, #0]
 80023e2:	2101      	movs	r1, #1
 80023e4:	699b      	ldr	r3, [r3, #24]
 80023e6:	4798      	blx	r3
 80023e8:	0200      	lsls	r0, r0, #8
 80023ea:	b207      	sxth	r7, r0
 80023ec:	6c20      	ldr	r0, [r4, #64]	; 0x40
 80023ee:	6803      	ldr	r3, [r0, #0]
 80023f0:	2101      	movs	r1, #1
 80023f2:	699b      	ldr	r3, [r3, #24]
 80023f4:	4798      	blx	r3
 80023f6:	4307      	orrs	r7, r0
 80023f8:	6c20      	ldr	r0, [r4, #64]	; 0x40
 80023fa:	6803      	ldr	r3, [r0, #0]
 80023fc:	2101      	movs	r1, #1
 80023fe:	699b      	ldr	r3, [r3, #24]
 8002400:	4798      	blx	r3
 8002402:	0200      	lsls	r0, r0, #8
 8002404:	b206      	sxth	r6, r0
 8002406:	6c20      	ldr	r0, [r4, #64]	; 0x40
 8002408:	6803      	ldr	r3, [r0, #0]
 800240a:	2101      	movs	r1, #1
 800240c:	699b      	ldr	r3, [r3, #24]
 800240e:	4798      	blx	r3
 8002410:	4306      	orrs	r6, r0
 8002412:	6c20      	ldr	r0, [r4, #64]	; 0x40
 8002414:	6803      	ldr	r3, [r0, #0]
 8002416:	2101      	movs	r1, #1
 8002418:	699b      	ldr	r3, [r3, #24]
 800241a:	4798      	blx	r3
 800241c:	0200      	lsls	r0, r0, #8
 800241e:	b205      	sxth	r5, r0
 8002420:	6c20      	ldr	r0, [r4, #64]	; 0x40
 8002422:	6803      	ldr	r3, [r0, #0]
 8002424:	2100      	movs	r1, #0
 8002426:	699b      	ldr	r3, [r3, #24]
 8002428:	4798      	blx	r3
 800242a:	4305      	orrs	r5, r0
 800242c:	6c20      	ldr	r0, [r4, #64]	; 0x40
 800242e:	6803      	ldr	r3, [r0, #0]
 8002430:	68db      	ldr	r3, [r3, #12]
 8002432:	b23f      	sxth	r7, r7
 8002434:	b236      	sxth	r6, r6
 8002436:	b22d      	sxth	r5, r5
 8002438:	4798      	blx	r3
 800243a:	f1b8 0f00 	cmp.w	r8, #0
 800243e:	d008      	beq.n	8002452 <_ZN3IMU4readEb+0xaa>
 8002440:	6aa3      	ldr	r3, [r4, #40]	; 0x28
 8002442:	443b      	add	r3, r7
 8002444:	62a3      	str	r3, [r4, #40]	; 0x28
 8002446:	6ae3      	ldr	r3, [r4, #44]	; 0x2c
 8002448:	4433      	add	r3, r6
 800244a:	62e3      	str	r3, [r4, #44]	; 0x2c
 800244c:	6b23      	ldr	r3, [r4, #48]	; 0x30
 800244e:	442b      	add	r3, r5
 8002450:	6323      	str	r3, [r4, #48]	; 0x30
 8002452:	6aa3      	ldr	r3, [r4, #40]	; 0x28
 8002454:	69e1      	ldr	r1, [r4, #28]
 8002456:	6b22      	ldr	r2, [r4, #48]	; 0x30
 8002458:	6ae0      	ldr	r0, [r4, #44]	; 0x2c
 800245a:	1afb      	subs	r3, r7, r3
 800245c:	1aad      	subs	r5, r5, r2
 800245e:	6123      	str	r3, [r4, #16]
 8002460:	2219      	movs	r2, #25
 8002462:	fb93 f3f2 	sdiv	r3, r3, r2
 8002466:	eb01 0343 	add.w	r3, r1, r3, lsl #1
 800246a:	61e3      	str	r3, [r4, #28]
 800246c:	6a23      	ldr	r3, [r4, #32]
 800246e:	61a5      	str	r5, [r4, #24]
 8002470:	1a30      	subs	r0, r6, r0
 8002472:	6160      	str	r0, [r4, #20]
 8002474:	fb90 f0f2 	sdiv	r0, r0, r2
 8002478:	eb03 0040 	add.w	r0, r3, r0, lsl #1
 800247c:	6220      	str	r0, [r4, #32]
 800247e:	6a63      	ldr	r3, [r4, #36]	; 0x24
 8002480:	6c20      	ldr	r0, [r4, #64]	; 0x40
 8002482:	fb95 f5f2 	sdiv	r5, r5, r2
 8002486:	eb03 0545 	add.w	r5, r3, r5, lsl #1
 800248a:	6803      	ldr	r3, [r0, #0]
 800248c:	6265      	str	r5, [r4, #36]	; 0x24
 800248e:	689b      	ldr	r3, [r3, #8]
 8002490:	4798      	blx	r3
 8002492:	6c20      	ldr	r0, [r4, #64]	; 0x40
 8002494:	6803      	ldr	r3, [r0, #0]
 8002496:	21d4      	movs	r1, #212	; 0xd4
 8002498:	695b      	ldr	r3, [r3, #20]
 800249a:	4798      	blx	r3
 800249c:	6c20      	ldr	r0, [r4, #64]	; 0x40
 800249e:	6803      	ldr	r3, [r0, #0]
 80024a0:	2129      	movs	r1, #41	; 0x29
 80024a2:	695b      	ldr	r3, [r3, #20]
 80024a4:	4798      	blx	r3
 80024a6:	6c20      	ldr	r0, [r4, #64]	; 0x40
 80024a8:	6803      	ldr	r3, [r0, #0]
 80024aa:	689b      	ldr	r3, [r3, #8]
 80024ac:	4798      	blx	r3
 80024ae:	6c20      	ldr	r0, [r4, #64]	; 0x40
 80024b0:	6803      	ldr	r3, [r0, #0]
 80024b2:	21d5      	movs	r1, #213	; 0xd5
 80024b4:	695b      	ldr	r3, [r3, #20]
 80024b6:	4798      	blx	r3
 80024b8:	6c20      	ldr	r0, [r4, #64]	; 0x40
 80024ba:	6803      	ldr	r3, [r0, #0]
 80024bc:	2101      	movs	r1, #1
 80024be:	699b      	ldr	r3, [r3, #24]
 80024c0:	4798      	blx	r3
 80024c2:	0200      	lsls	r0, r0, #8
 80024c4:	b207      	sxth	r7, r0
 80024c6:	6c20      	ldr	r0, [r4, #64]	; 0x40
 80024c8:	6803      	ldr	r3, [r0, #0]
 80024ca:	2101      	movs	r1, #1
 80024cc:	699b      	ldr	r3, [r3, #24]
 80024ce:	4798      	blx	r3
 80024d0:	4307      	orrs	r7, r0
 80024d2:	6c20      	ldr	r0, [r4, #64]	; 0x40
 80024d4:	6803      	ldr	r3, [r0, #0]
 80024d6:	2101      	movs	r1, #1
 80024d8:	699b      	ldr	r3, [r3, #24]
 80024da:	4798      	blx	r3
 80024dc:	0200      	lsls	r0, r0, #8
 80024de:	b206      	sxth	r6, r0
 80024e0:	6c20      	ldr	r0, [r4, #64]	; 0x40
 80024e2:	6803      	ldr	r3, [r0, #0]
 80024e4:	2101      	movs	r1, #1
 80024e6:	699b      	ldr	r3, [r3, #24]
 80024e8:	4798      	blx	r3
 80024ea:	4306      	orrs	r6, r0
 80024ec:	6c20      	ldr	r0, [r4, #64]	; 0x40
 80024ee:	6803      	ldr	r3, [r0, #0]
 80024f0:	2101      	movs	r1, #1
 80024f2:	699b      	ldr	r3, [r3, #24]
 80024f4:	4798      	blx	r3
 80024f6:	0200      	lsls	r0, r0, #8
 80024f8:	b205      	sxth	r5, r0
 80024fa:	6c20      	ldr	r0, [r4, #64]	; 0x40
 80024fc:	6803      	ldr	r3, [r0, #0]
 80024fe:	2100      	movs	r1, #0
 8002500:	699b      	ldr	r3, [r3, #24]
 8002502:	4798      	blx	r3
 8002504:	4305      	orrs	r5, r0
 8002506:	6c20      	ldr	r0, [r4, #64]	; 0x40
 8002508:	6803      	ldr	r3, [r0, #0]
 800250a:	68db      	ldr	r3, [r3, #12]
 800250c:	4798      	blx	r3
 800250e:	b23f      	sxth	r7, r7
 8002510:	b236      	sxth	r6, r6
 8002512:	b22d      	sxth	r5, r5
 8002514:	2301      	movs	r3, #1
 8002516:	e9c4 7601 	strd	r7, r6, [r4, #4]
 800251a:	60e5      	str	r5, [r4, #12]
 800251c:	f884 303c 	strb.w	r3, [r4, #60]	; 0x3c
 8002520:	e8bd 81f0 	ldmia.w	sp!, {r4, r5, r6, r7, r8, pc}

08002524 <_ZN3IMU4mainEv>:
 8002524:	2100      	movs	r1, #0
 8002526:	f7ff bf3f 	b.w	80023a8 <_ZN3IMU4readEb>

0800252a <_ZN3IMU7presentEv>:
 800252a:	6b40      	ldr	r0, [r0, #52]	; 0x34
 800252c:	3000      	adds	r0, #0
 800252e:	bf18      	it	ne
 8002530:	2001      	movne	r0, #1
 8002532:	4770      	bx	lr

08002534 <_ZN3IMU11delay_loopsEm>:
 8002534:	f111 31ff 	adds.w	r1, r1, #4294967295	; 0xffffffff
 8002538:	d301      	bcc.n	800253e <_ZN3IMU11delay_loopsEm+0xa>
 800253a:	bf00      	nop
 800253c:	e7fa      	b.n	8002534 <_ZN3IMU11delay_loopsEm>
 800253e:	4770      	bx	lr

08002540 <_ZN3IMU4initEP13I2C_Interface>:
 8002540:	b538      	push	{r3, r4, r5, lr}
 8002542:	4604      	mov	r4, r0
 8002544:	2210      	movs	r2, #16
 8002546:	4608      	mov	r0, r1
 8002548:	6421      	str	r1, [r4, #64]	; 0x40
 800254a:	23a8      	movs	r3, #168	; 0xa8
 800254c:	21d4      	movs	r1, #212	; 0xd4
 800254e:	f7ff f958 	bl	8001802 <_ZN13I2C_Interface9write_regEhhh>
 8002552:	2300      	movs	r3, #0
 8002554:	e9c4 3304 	strd	r3, r3, [r4, #16]
 8002558:	61a3      	str	r3, [r4, #24]
 800255a:	e9c4 330a 	strd	r3, r3, [r4, #40]	; 0x28
 800255e:	6323      	str	r3, [r4, #48]	; 0x30
 8002560:	e9c4 3307 	strd	r3, r3, [r4, #28]
 8002564:	6263      	str	r3, [r4, #36]	; 0x24
 8002566:	f242 7110 	movw	r1, #10000	; 0x2710
 800256a:	4620      	mov	r0, r4
 800256c:	f7ff ffe2 	bl	8002534 <_ZN3IMU11delay_loopsEm>
 8002570:	220f      	movs	r2, #15
 8002572:	6363      	str	r3, [r4, #52]	; 0x34
 8002574:	21d4      	movs	r1, #212	; 0xd4
 8002576:	6c20      	ldr	r0, [r4, #64]	; 0x40
 8002578:	f7ff f961 	bl	800183e <_ZN13I2C_Interface8read_regEhh>
 800257c:	2868      	cmp	r0, #104	; 0x68
 800257e:	bf04      	itt	eq
 8002580:	2301      	moveq	r3, #1
 8002582:	6363      	streq	r3, [r4, #52]	; 0x34
 8002584:	2210      	movs	r2, #16
 8002586:	23a8      	movs	r3, #168	; 0xa8
 8002588:	21d4      	movs	r1, #212	; 0xd4
 800258a:	6c20      	ldr	r0, [r4, #64]	; 0x40
 800258c:	f7ff f939 	bl	8001802 <_ZN13I2C_Interface9write_regEhhh>
 8002590:	2338      	movs	r3, #56	; 0x38
 8002592:	221e      	movs	r2, #30
 8002594:	21d4      	movs	r1, #212	; 0xd4
 8002596:	6c20      	ldr	r0, [r4, #64]	; 0x40
 8002598:	f7ff f933 	bl	8001802 <_ZN13I2C_Interface9write_regEhhh>
 800259c:	2300      	movs	r3, #0
 800259e:	222e      	movs	r2, #46	; 0x2e
 80025a0:	21d4      	movs	r1, #212	; 0xd4
 80025a2:	6c20      	ldr	r0, [r4, #64]	; 0x40
 80025a4:	f7ff f92d 	bl	8001802 <_ZN13I2C_Interface9write_regEhhh>
 80025a8:	2300      	movs	r3, #0
 80025aa:	2212      	movs	r2, #18
 80025ac:	21d4      	movs	r1, #212	; 0xd4
 80025ae:	6c20      	ldr	r0, [r4, #64]	; 0x40
 80025b0:	f7ff f927 	bl	8001802 <_ZN13I2C_Interface9write_regEhhh>
 80025b4:	2360      	movs	r3, #96	; 0x60
 80025b6:	2220      	movs	r2, #32
 80025b8:	21d4      	movs	r1, #212	; 0xd4
 80025ba:	6c20      	ldr	r0, [r4, #64]	; 0x40
 80025bc:	f7ff f921 	bl	8001802 <_ZN13I2C_Interface9write_regEhhh>
 80025c0:	2338      	movs	r3, #56	; 0x38
 80025c2:	221f      	movs	r2, #31
 80025c4:	21d4      	movs	r1, #212	; 0xd4
 80025c6:	6c20      	ldr	r0, [r4, #64]	; 0x40
 80025c8:	f7ff f91b 	bl	8001802 <_ZN13I2C_Interface9write_regEhhh>
 80025cc:	f242 7110 	movw	r1, #10000	; 0x2710
 80025d0:	4620      	mov	r0, r4
 80025d2:	f7ff ffaf 	bl	8002534 <_ZN3IMU11delay_loopsEm>
 80025d6:	2100      	movs	r1, #0
 80025d8:	f7ff fee6 	bl	80023a8 <_ZN3IMU4readEb>
 80025dc:	2300      	movs	r3, #0
 80025de:	63a3      	str	r3, [r4, #56]	; 0x38
 80025e0:	f44f 757a 	mov.w	r5, #1000	; 0x3e8
 80025e4:	2101      	movs	r1, #1
 80025e6:	4620      	mov	r0, r4
 80025e8:	f7ff fede 	bl	80023a8 <_ZN3IMU4readEb>
 80025ec:	2164      	movs	r1, #100	; 0x64
 80025ee:	4620      	mov	r0, r4
 80025f0:	f7ff ffa0 	bl	8002534 <_ZN3IMU11delay_loopsEm>
 80025f4:	3d01      	subs	r5, #1
 80025f6:	d1f5      	bne.n	80025e4 <_ZN3IMU4initEP13I2C_Interface+0xa4>
 80025f8:	f44f 727a 	mov.w	r2, #1000	; 0x3e8
 80025fc:	6aa3      	ldr	r3, [r4, #40]	; 0x28
 80025fe:	6265      	str	r5, [r4, #36]	; 0x24
 8002600:	fb93 f3f2 	sdiv	r3, r3, r2
 8002604:	e9c4 5507 	strd	r5, r5, [r4, #28]
 8002608:	62a3      	str	r3, [r4, #40]	; 0x28
 800260a:	e9c4 5501 	strd	r5, r5, [r4, #4]
 800260e:	6ae3      	ldr	r3, [r4, #44]	; 0x2c
 8002610:	60e5      	str	r5, [r4, #12]
 8002612:	fb93 f3f2 	sdiv	r3, r3, r2
 8002616:	4621      	mov	r1, r4
 8002618:	62e3      	str	r3, [r4, #44]	; 0x2c
 800261a:	4806      	ldr	r0, [pc, #24]	; (8002634 <_ZN3IMU4initEP13I2C_Interface+0xf4>)
 800261c:	6b23      	ldr	r3, [r4, #48]	; 0x30
 800261e:	fb93 f3f2 	sdiv	r3, r3, r2
 8002622:	220a      	movs	r2, #10
 8002624:	6323      	str	r3, [r4, #48]	; 0x30
 8002626:	462b      	mov	r3, r5
 8002628:	f7ff faca 	bl	8001bc0 <_ZN5Timer8add_taskEP6Threadjb>
 800262c:	f884 503c 	strb.w	r5, [r4, #60]	; 0x3c
 8002630:	bd38      	pop	{r3, r4, r5, pc}
 8002632:	bf00      	nop
 8002634:	20000218 	andcs	r0, r0, r8, lsl r2

08002638 <_ZN5UsartC1Ev>:
 8002638:	4770      	bx	lr
 800263a:	0000      	movs	r0, r0

0800263c <_ZN5Usart4initEv>:
 800263c:	4a21      	ldr	r2, [pc, #132]	; (80026c4 <_ZN5Usart4initEv+0x88>)
 800263e:	4822      	ldr	r0, [pc, #136]	; (80026c8 <_ZN5Usart4initEv+0x8c>)
 8002640:	6953      	ldr	r3, [r2, #20]
 8002642:	f443 037f 	orr.w	r3, r3, #16711680	; 0xff0000
 8002646:	6153      	str	r3, [r2, #20]
 8002648:	f04f 4390 	mov.w	r3, #1207959552	; 0x48000000
 800264c:	6899      	ldr	r1, [r3, #8]
 800264e:	f421 2140 	bic.w	r1, r1, #786432	; 0xc0000
 8002652:	6099      	str	r1, [r3, #8]
 8002654:	6899      	ldr	r1, [r3, #8]
 8002656:	f441 2140 	orr.w	r1, r1, #786432	; 0xc0000
 800265a:	6099      	str	r1, [r3, #8]
 800265c:	6819      	ldr	r1, [r3, #0]
 800265e:	f421 2140 	bic.w	r1, r1, #786432	; 0xc0000
 8002662:	6019      	str	r1, [r3, #0]
 8002664:	6819      	ldr	r1, [r3, #0]
 8002666:	f441 2100 	orr.w	r1, r1, #524288	; 0x80000
 800266a:	6019      	str	r1, [r3, #0]
 800266c:	6951      	ldr	r1, [r2, #20]
 800266e:	f441 017f 	orr.w	r1, r1, #16711680	; 0xff0000
 8002672:	6151      	str	r1, [r2, #20]
 8002674:	6899      	ldr	r1, [r3, #8]
 8002676:	f421 1140 	bic.w	r1, r1, #3145728	; 0x300000
 800267a:	6099      	str	r1, [r3, #8]
 800267c:	6899      	ldr	r1, [r3, #8]
 800267e:	f441 1140 	orr.w	r1, r1, #3145728	; 0x300000
 8002682:	6099      	str	r1, [r3, #8]
 8002684:	6819      	ldr	r1, [r3, #0]
 8002686:	f421 1140 	bic.w	r1, r1, #3145728	; 0x300000
 800268a:	6019      	str	r1, [r3, #0]
 800268c:	6819      	ldr	r1, [r3, #0]
 800268e:	f441 1100 	orr.w	r1, r1, #2097152	; 0x200000
 8002692:	6019      	str	r1, [r3, #0]
 8002694:	6a59      	ldr	r1, [r3, #36]	; 0x24
 8002696:	f021 01f0 	bic.w	r1, r1, #240	; 0xf0
 800269a:	6259      	str	r1, [r3, #36]	; 0x24
 800269c:	6a59      	ldr	r1, [r3, #36]	; 0x24
 800269e:	f041 0170 	orr.w	r1, r1, #112	; 0x70
 80026a2:	6259      	str	r1, [r3, #36]	; 0x24
 80026a4:	6a59      	ldr	r1, [r3, #36]	; 0x24
 80026a6:	f421 6170 	bic.w	r1, r1, #3840	; 0xf00
 80026aa:	6259      	str	r1, [r3, #36]	; 0x24
 80026ac:	6a59      	ldr	r1, [r3, #36]	; 0x24
 80026ae:	f441 61e0 	orr.w	r1, r1, #1792	; 0x700
 80026b2:	6259      	str	r1, [r3, #36]	; 0x24
 80026b4:	6993      	ldr	r3, [r2, #24]
 80026b6:	f443 4380 	orr.w	r3, r3, #16384	; 0x4000
 80026ba:	6193      	str	r3, [r2, #24]
 80026bc:	f44f 31e1 	mov.w	r1, #115200	; 0x1c200
 80026c0:	f000 bab6 	b.w	8002c30 <_Z10usart_initP13USART_TypeDefm>
 80026c4:	40021000 	andmi	r1, r2, r0
 80026c8:	40013800 	andmi	r3, r1, r0, lsl #16

080026cc <_ZN5UsartD1Ev>:
 80026cc:	4770      	bx	lr
 80026ce:	0000      	movs	r0, r0

080026d0 <_ZN5Usart8put_charEc>:
 80026d0:	4b04      	ldr	r3, [pc, #16]	; (80026e4 <_ZN5Usart8put_charEc+0x14>)
 80026d2:	69da      	ldr	r2, [r3, #28]
 80026d4:	0612      	lsls	r2, r2, #24
 80026d6:	d401      	bmi.n	80026dc <_ZN5Usart8put_charEc+0xc>
 80026d8:	bf00      	nop
 80026da:	e7fa      	b.n	80026d2 <_ZN5Usart8put_charEc+0x2>
 80026dc:	b289      	uxth	r1, r1
 80026de:	8519      	strh	r1, [r3, #40]	; 0x28
 80026e0:	4770      	bx	lr
 80026e2:	bf00      	nop
 80026e4:	40013800 	andmi	r3, r1, r0, lsl #16

080026e8 <_ZN7EncoderC1Ev>:
 80026e8:	4a2f      	ldr	r2, [pc, #188]	; (80027a8 <_ZN7EncoderC1Ev+0xc0>)
 80026ea:	6953      	ldr	r3, [r2, #20]
 80026ec:	f443 037f 	orr.w	r3, r3, #16711680	; 0xff0000
 80026f0:	b510      	push	{r4, lr}
 80026f2:	6153      	str	r3, [r2, #20]
 80026f4:	4b2d      	ldr	r3, [pc, #180]	; (80027ac <_ZN7EncoderC1Ev+0xc4>)
 80026f6:	6003      	str	r3, [r0, #0]
 80026f8:	689c      	ldr	r4, [r3, #8]
 80026fa:	f424 5440 	bic.w	r4, r4, #12288	; 0x3000
 80026fe:	609c      	str	r4, [r3, #8]
 8002700:	689c      	ldr	r4, [r3, #8]
 8002702:	f444 5440 	orr.w	r4, r4, #12288	; 0x3000
 8002706:	609c      	str	r4, [r3, #8]
 8002708:	681c      	ldr	r4, [r3, #0]
 800270a:	f424 5440 	bic.w	r4, r4, #12288	; 0x3000
 800270e:	601c      	str	r4, [r3, #0]
 8002710:	681c      	ldr	r4, [r3, #0]
 8002712:	601c      	str	r4, [r3, #0]
 8002714:	68dc      	ldr	r4, [r3, #12]
 8002716:	f444 5480 	orr.w	r4, r4, #4096	; 0x1000
 800271a:	60dc      	str	r4, [r3, #12]
 800271c:	6954      	ldr	r4, [r2, #20]
 800271e:	f444 047f 	orr.w	r4, r4, #16711680	; 0xff0000
 8002722:	6154      	str	r4, [r2, #20]
 8002724:	689c      	ldr	r4, [r3, #8]
 8002726:	6043      	str	r3, [r0, #4]
 8002728:	f424 4440 	bic.w	r4, r4, #49152	; 0xc000
 800272c:	609c      	str	r4, [r3, #8]
 800272e:	689c      	ldr	r4, [r3, #8]
 8002730:	f444 4440 	orr.w	r4, r4, #49152	; 0xc000
 8002734:	609c      	str	r4, [r3, #8]
 8002736:	681c      	ldr	r4, [r3, #0]
 8002738:	f424 4440 	bic.w	r4, r4, #49152	; 0xc000
 800273c:	601c      	str	r4, [r3, #0]
 800273e:	681c      	ldr	r4, [r3, #0]
 8002740:	601c      	str	r4, [r3, #0]
 8002742:	68dc      	ldr	r4, [r3, #12]
 8002744:	f444 4480 	orr.w	r4, r4, #16384	; 0x4000
 8002748:	60dc      	str	r4, [r3, #12]
 800274a:	6954      	ldr	r4, [r2, #20]
 800274c:	f444 047f 	orr.w	r4, r4, #16711680	; 0xff0000
 8002750:	6154      	str	r4, [r2, #20]
 8002752:	689c      	ldr	r4, [r3, #8]
 8002754:	6083      	str	r3, [r0, #8]
 8002756:	f024 7440 	bic.w	r4, r4, #50331648	; 0x3000000
 800275a:	609c      	str	r4, [r3, #8]
 800275c:	689c      	ldr	r4, [r3, #8]
 800275e:	f044 7440 	orr.w	r4, r4, #50331648	; 0x3000000
 8002762:	609c      	str	r4, [r3, #8]
 8002764:	681c      	ldr	r4, [r3, #0]
 8002766:	f024 7440 	bic.w	r4, r4, #50331648	; 0x3000000
 800276a:	601c      	str	r4, [r3, #0]
 800276c:	681c      	ldr	r4, [r3, #0]
 800276e:	601c      	str	r4, [r3, #0]
 8002770:	68dc      	ldr	r4, [r3, #12]
 8002772:	f044 7480 	orr.w	r4, r4, #16777216	; 0x1000000
 8002776:	60dc      	str	r4, [r3, #12]
 8002778:	6954      	ldr	r4, [r2, #20]
 800277a:	f444 047f 	orr.w	r4, r4, #16711680	; 0xff0000
 800277e:	6154      	str	r4, [r2, #20]
 8002780:	689a      	ldr	r2, [r3, #8]
 8002782:	60c3      	str	r3, [r0, #12]
 8002784:	f422 0240 	bic.w	r2, r2, #12582912	; 0xc00000
 8002788:	609a      	str	r2, [r3, #8]
 800278a:	689a      	ldr	r2, [r3, #8]
 800278c:	f442 0240 	orr.w	r2, r2, #12582912	; 0xc00000
 8002790:	609a      	str	r2, [r3, #8]
 8002792:	681a      	ldr	r2, [r3, #0]
 8002794:	f422 0240 	bic.w	r2, r2, #12582912	; 0xc00000
 8002798:	601a      	str	r2, [r3, #0]
 800279a:	681a      	ldr	r2, [r3, #0]
 800279c:	601a      	str	r2, [r3, #0]
 800279e:	68da      	ldr	r2, [r3, #12]
 80027a0:	f442 0280 	orr.w	r2, r2, #4194304	; 0x400000
 80027a4:	60da      	str	r2, [r3, #12]
 80027a6:	bd10      	pop	{r4, pc}
 80027a8:	40021000 	andmi	r1, r2, r0
 80027ac:	48000800 	stmdami	r0, {fp}

080027b0 <_ZN7EncoderD1Ev>:
 80027b0:	4770      	bx	lr
 80027b2:	0000      	movs	r0, r0

080027b4 <_ZN7Encoder4initEv>:
 80027b4:	4b16      	ldr	r3, [pc, #88]	; (8002810 <_ZN7Encoder4initEv+0x5c>)
 80027b6:	4a17      	ldr	r2, [pc, #92]	; (8002814 <_ZN7Encoder4initEv+0x60>)
 80027b8:	b510      	push	{r4, lr}
 80027ba:	2400      	movs	r4, #0
 80027bc:	601c      	str	r4, [r3, #0]
 80027be:	4b16      	ldr	r3, [pc, #88]	; (8002818 <_ZN7Encoder4initEv+0x64>)
 80027c0:	601c      	str	r4, [r3, #0]
 80027c2:	6993      	ldr	r3, [r2, #24]
 80027c4:	f043 0301 	orr.w	r3, r3, #1
 80027c8:	6193      	str	r3, [r2, #24]
 80027ca:	2106      	movs	r1, #6
 80027cc:	2002      	movs	r0, #2
 80027ce:	f000 fa4d 	bl	8002c6c <_Z16exti_line_confighh>
 80027d2:	210c      	movs	r1, #12
 80027d4:	2002      	movs	r0, #2
 80027d6:	f000 fa49 	bl	8002c6c <_Z16exti_line_confighh>
 80027da:	2108      	movs	r1, #8
 80027dc:	2006      	movs	r0, #6
 80027de:	f000 fa5a 	bl	8002c96 <_Z14configure_extimm>
 80027e2:	2108      	movs	r1, #8
 80027e4:	200c      	movs	r0, #12
 80027e6:	f000 fa56 	bl	8002c96 <_Z14configure_extimm>
 80027ea:	4622      	mov	r2, r4
 80027ec:	4621      	mov	r1, r4
 80027ee:	2017      	movs	r0, #23
 80027f0:	f000 f9a6 	bl	8002b40 <_Z9nvic_initmmm>
 80027f4:	4622      	mov	r2, r4
 80027f6:	4621      	mov	r1, r4
 80027f8:	2028      	movs	r0, #40	; 0x28
 80027fa:	f000 f9a1 	bl	8002b40 <_Z9nvic_initmmm>
 80027fe:	2006      	movs	r0, #6
 8002800:	f000 fa28 	bl	8002c54 <_Z22exti_clear_pending_bitm>
 8002804:	200c      	movs	r0, #12
 8002806:	e8bd 4010 	ldmia.w	sp!, {r4, lr}
 800280a:	f000 ba23 	b.w	8002c54 <_Z22exti_clear_pending_bitm>
 800280e:	bf00      	nop
 8002810:	20000368 	andcs	r0, r0, r8, ror #6
 8002814:	40021000 	andmi	r1, r2, r0
 8002818:	2000036c 	andcs	r0, r0, ip, ror #6

0800281c <_ZN7Encoder18get_left_no_atomicEv>:
 800281c:	4b03      	ldr	r3, [pc, #12]	; (800282c <_ZN7Encoder18get_left_no_atomicEv+0x10>)
 800281e:	6818      	ldr	r0, [r3, #0]
 8002820:	2358      	movs	r3, #88	; 0x58
 8002822:	4343      	muls	r3, r0
 8002824:	205a      	movs	r0, #90	; 0x5a
 8002826:	fb93 f0f0 	sdiv	r0, r3, r0
 800282a:	4770      	bx	lr
 800282c:	20000368 	andcs	r0, r0, r8, ror #6

08002830 <_ZN7Encoder19get_right_no_atomicEv>:
 8002830:	4b03      	ldr	r3, [pc, #12]	; (8002840 <_ZN7Encoder19get_right_no_atomicEv+0x10>)
 8002832:	6818      	ldr	r0, [r3, #0]
 8002834:	2358      	movs	r3, #88	; 0x58
 8002836:	4343      	muls	r3, r0
 8002838:	205a      	movs	r0, #90	; 0x5a
 800283a:	fb93 f0f0 	sdiv	r0, r3, r0
 800283e:	4770      	bx	lr
 8002840:	2000036c 	andcs	r0, r0, ip, ror #6

08002844 <EXTI9_5_IRQHandler>:
 8002844:	4b09      	ldr	r3, [pc, #36]	; (800286c <EXTI9_5_IRQHandler+0x28>)
 8002846:	8a1b      	ldrh	r3, [r3, #16]
 8002848:	f013 03c0 	ands.w	r3, r3, #192	; 0xc0
 800284c:	d00b      	beq.n	8002866 <EXTI9_5_IRQHandler+0x22>
 800284e:	2bc0      	cmp	r3, #192	; 0xc0
 8002850:	bf0c      	ite	eq
 8002852:	2101      	moveq	r1, #1
 8002854:	f04f 31ff 	movne.w	r1, #4294967295	; 0xffffffff
 8002858:	4a05      	ldr	r2, [pc, #20]	; (8002870 <EXTI9_5_IRQHandler+0x2c>)
 800285a:	6813      	ldr	r3, [r2, #0]
 800285c:	2006      	movs	r0, #6
 800285e:	440b      	add	r3, r1
 8002860:	6013      	str	r3, [r2, #0]
 8002862:	f000 b9f7 	b.w	8002c54 <_Z22exti_clear_pending_bitm>
 8002866:	2101      	movs	r1, #1
 8002868:	e7f6      	b.n	8002858 <EXTI9_5_IRQHandler+0x14>
 800286a:	bf00      	nop
 800286c:	48000800 	stmdami	r0, {fp}
 8002870:	20000368 	andcs	r0, r0, r8, ror #6

08002874 <EXTI15_10_IRQHandler>:
 8002874:	4b0a      	ldr	r3, [pc, #40]	; (80028a0 <EXTI15_10_IRQHandler+0x2c>)
 8002876:	8a1b      	ldrh	r3, [r3, #16]
 8002878:	f413 53c0 	ands.w	r3, r3, #6144	; 0x1800
 800287c:	d00c      	beq.n	8002898 <EXTI15_10_IRQHandler+0x24>
 800287e:	f5b3 5fc0 	cmp.w	r3, #6144	; 0x1800
 8002882:	bf0c      	ite	eq
 8002884:	f04f 31ff 	moveq.w	r1, #4294967295	; 0xffffffff
 8002888:	2101      	movne	r1, #1
 800288a:	4a06      	ldr	r2, [pc, #24]	; (80028a4 <EXTI15_10_IRQHandler+0x30>)
 800288c:	6813      	ldr	r3, [r2, #0]
 800288e:	200c      	movs	r0, #12
 8002890:	440b      	add	r3, r1
 8002892:	6013      	str	r3, [r2, #0]
 8002894:	f000 b9de 	b.w	8002c54 <_Z22exti_clear_pending_bitm>
 8002898:	f04f 31ff 	mov.w	r1, #4294967295	; 0xffffffff
 800289c:	e7f5      	b.n	800288a <EXTI15_10_IRQHandler+0x16>
 800289e:	bf00      	nop
 80028a0:	48000800 	stmdami	r0, {fp}
 80028a4:	2000036c 	andcs	r0, r0, ip, ror #6

080028a8 <_ZN5MotorC1Ev>:
 80028a8:	494c      	ldr	r1, [pc, #304]	; (80029dc <_ZN5MotorC1Ev+0x134>)
 80028aa:	694b      	ldr	r3, [r1, #20]
 80028ac:	f443 037f 	orr.w	r3, r3, #16711680	; 0xff0000
 80028b0:	b530      	push	{r4, r5, lr}
 80028b2:	614b      	str	r3, [r1, #20]
 80028b4:	4b4a      	ldr	r3, [pc, #296]	; (80029e0 <_ZN5MotorC1Ev+0x138>)
 80028b6:	6003      	str	r3, [r0, #0]
 80028b8:	689a      	ldr	r2, [r3, #8]
 80028ba:	f422 7240 	bic.w	r2, r2, #768	; 0x300
 80028be:	609a      	str	r2, [r3, #8]
 80028c0:	689a      	ldr	r2, [r3, #8]
 80028c2:	f442 7240 	orr.w	r2, r2, #768	; 0x300
 80028c6:	609a      	str	r2, [r3, #8]
 80028c8:	889a      	ldrh	r2, [r3, #4]
 80028ca:	f022 0210 	bic.w	r2, r2, #16
 80028ce:	0412      	lsls	r2, r2, #16
 80028d0:	0c12      	lsrs	r2, r2, #16
 80028d2:	809a      	strh	r2, [r3, #4]
 80028d4:	889a      	ldrh	r2, [r3, #4]
 80028d6:	b292      	uxth	r2, r2
 80028d8:	809a      	strh	r2, [r3, #4]
 80028da:	681a      	ldr	r2, [r3, #0]
 80028dc:	f422 7240 	bic.w	r2, r2, #768	; 0x300
 80028e0:	601a      	str	r2, [r3, #0]
 80028e2:	681a      	ldr	r2, [r3, #0]
 80028e4:	f442 7280 	orr.w	r2, r2, #256	; 0x100
 80028e8:	601a      	str	r2, [r3, #0]
 80028ea:	694a      	ldr	r2, [r1, #20]
 80028ec:	f442 027f 	orr.w	r2, r2, #16711680	; 0xff0000
 80028f0:	614a      	str	r2, [r1, #20]
 80028f2:	689a      	ldr	r2, [r3, #8]
 80028f4:	6043      	str	r3, [r0, #4]
 80028f6:	f422 6240 	bic.w	r2, r2, #3072	; 0xc00
 80028fa:	609a      	str	r2, [r3, #8]
 80028fc:	689a      	ldr	r2, [r3, #8]
 80028fe:	f442 6240 	orr.w	r2, r2, #3072	; 0xc00
 8002902:	609a      	str	r2, [r3, #8]
 8002904:	889a      	ldrh	r2, [r3, #4]
 8002906:	f022 0220 	bic.w	r2, r2, #32
 800290a:	0412      	lsls	r2, r2, #16
 800290c:	0c12      	lsrs	r2, r2, #16
 800290e:	809a      	strh	r2, [r3, #4]
 8002910:	889a      	ldrh	r2, [r3, #4]
 8002912:	b292      	uxth	r2, r2
 8002914:	809a      	strh	r2, [r3, #4]
 8002916:	681a      	ldr	r2, [r3, #0]
 8002918:	f422 6240 	bic.w	r2, r2, #3072	; 0xc00
 800291c:	601a      	str	r2, [r3, #0]
 800291e:	681a      	ldr	r2, [r3, #0]
 8002920:	f442 6280 	orr.w	r2, r2, #1024	; 0x400
 8002924:	601a      	str	r2, [r3, #0]
 8002926:	694a      	ldr	r2, [r1, #20]
 8002928:	f442 027f 	orr.w	r2, r2, #16711680	; 0xff0000
 800292c:	614a      	str	r2, [r1, #20]
 800292e:	f04f 4290 	mov.w	r2, #1207959552	; 0x48000000
 8002932:	6082      	str	r2, [r0, #8]
 8002934:	6895      	ldr	r5, [r2, #8]
 8002936:	f025 4540 	bic.w	r5, r5, #3221225472	; 0xc0000000
 800293a:	6095      	str	r5, [r2, #8]
 800293c:	6895      	ldr	r5, [r2, #8]
 800293e:	f045 4540 	orr.w	r5, r5, #3221225472	; 0xc0000000
 8002942:	6095      	str	r5, [r2, #8]
 8002944:	8895      	ldrh	r5, [r2, #4]
 8002946:	f3c5 050e 	ubfx	r5, r5, #0, #15
 800294a:	8095      	strh	r5, [r2, #4]
 800294c:	8895      	ldrh	r5, [r2, #4]
 800294e:	b2ad      	uxth	r5, r5
 8002950:	8095      	strh	r5, [r2, #4]
 8002952:	6815      	ldr	r5, [r2, #0]
 8002954:	f025 4540 	bic.w	r5, r5, #3221225472	; 0xc0000000
 8002958:	6015      	str	r5, [r2, #0]
 800295a:	6815      	ldr	r5, [r2, #0]
 800295c:	f045 4580 	orr.w	r5, r5, #1073741824	; 0x40000000
 8002960:	6015      	str	r5, [r2, #0]
 8002962:	694a      	ldr	r2, [r1, #20]
 8002964:	f442 027f 	orr.w	r2, r2, #16711680	; 0xff0000
 8002968:	614a      	str	r2, [r1, #20]
 800296a:	689a      	ldr	r2, [r3, #8]
 800296c:	60c3      	str	r3, [r0, #12]
 800296e:	f022 6240 	bic.w	r2, r2, #201326592	; 0xc000000
 8002972:	609a      	str	r2, [r3, #8]
 8002974:	689a      	ldr	r2, [r3, #8]
 8002976:	f042 6240 	orr.w	r2, r2, #201326592	; 0xc000000
 800297a:	609a      	str	r2, [r3, #8]
 800297c:	889a      	ldrh	r2, [r3, #4]
 800297e:	f422 5200 	bic.w	r2, r2, #8192	; 0x2000
 8002982:	0412      	lsls	r2, r2, #16
 8002984:	0c12      	lsrs	r2, r2, #16
 8002986:	809a      	strh	r2, [r3, #4]
 8002988:	889a      	ldrh	r2, [r3, #4]
 800298a:	b292      	uxth	r2, r2
 800298c:	809a      	strh	r2, [r3, #4]
 800298e:	681a      	ldr	r2, [r3, #0]
 8002990:	f022 6240 	bic.w	r2, r2, #201326592	; 0xc000000
 8002994:	601a      	str	r2, [r3, #0]
 8002996:	681a      	ldr	r2, [r3, #0]
 8002998:	f042 6280 	orr.w	r2, r2, #67108864	; 0x4000000
 800299c:	601a      	str	r2, [r3, #0]
 800299e:	694a      	ldr	r2, [r1, #20]
 80029a0:	f442 027f 	orr.w	r2, r2, #16711680	; 0xff0000
 80029a4:	614a      	str	r2, [r1, #20]
 80029a6:	689a      	ldr	r2, [r3, #8]
 80029a8:	6103      	str	r3, [r0, #16]
 80029aa:	f022 5240 	bic.w	r2, r2, #805306368	; 0x30000000
 80029ae:	609a      	str	r2, [r3, #8]
 80029b0:	689a      	ldr	r2, [r3, #8]
 80029b2:	f042 5240 	orr.w	r2, r2, #805306368	; 0x30000000
 80029b6:	609a      	str	r2, [r3, #8]
 80029b8:	889a      	ldrh	r2, [r3, #4]
 80029ba:	f422 4280 	bic.w	r2, r2, #16384	; 0x4000
 80029be:	0412      	lsls	r2, r2, #16
 80029c0:	0c12      	lsrs	r2, r2, #16
 80029c2:	809a      	strh	r2, [r3, #4]
 80029c4:	889a      	ldrh	r2, [r3, #4]
 80029c6:	b292      	uxth	r2, r2
 80029c8:	809a      	strh	r2, [r3, #4]
 80029ca:	681a      	ldr	r2, [r3, #0]
 80029cc:	f022 5240 	bic.w	r2, r2, #805306368	; 0x30000000
 80029d0:	601a      	str	r2, [r3, #0]
 80029d2:	681a      	ldr	r2, [r3, #0]
 80029d4:	f042 5280 	orr.w	r2, r2, #268435456	; 0x10000000
 80029d8:	601a      	str	r2, [r3, #0]
 80029da:	bd30      	pop	{r4, r5, pc}
 80029dc:	40021000 	andmi	r1, r2, r0
 80029e0:	48000400 	stmdami	r0, {sl}

080029e4 <_ZN5MotorD1Ev>:
 80029e4:	4770      	bx	lr
 80029e6:	0000      	movs	r0, r0

080029e8 <_ZN5Motor8run_leftEi>:
 80029e8:	6883      	ldr	r3, [r0, #8]
 80029ea:	2900      	cmp	r1, #0
 80029ec:	bfb7      	itett	lt
 80029ee:	8d1a      	ldrhlt	r2, [r3, #40]	; 0x28
 80029f0:	699a      	ldrge	r2, [r3, #24]
 80029f2:	4249      	neglt	r1, r1
 80029f4:	f442 4200 	orrlt.w	r2, r2, #32768	; 0x8000
 80029f8:	bfaa      	itet	ge
 80029fa:	f442 4200 	orrge.w	r2, r2, #32768	; 0x8000
 80029fe:	851a      	strhlt	r2, [r3, #40]	; 0x28
 8002a00:	619a      	strge	r2, [r3, #24]
 8002a02:	29ff      	cmp	r1, #255	; 0xff
 8002a04:	460b      	mov	r3, r1
 8002a06:	bfa8      	it	ge
 8002a08:	23ff      	movge	r3, #255	; 0xff
 8002a0a:	f241 21be 	movw	r1, #4798	; 0x12be
 8002a0e:	4359      	muls	r1, r3
 8002a10:	23ff      	movs	r3, #255	; 0xff
 8002a12:	fbb1 f1f3 	udiv	r1, r1, r3
 8002a16:	4b01      	ldr	r3, [pc, #4]	; (8002a1c <_ZN5Motor8run_leftEi+0x34>)
 8002a18:	6399      	str	r1, [r3, #56]	; 0x38
 8002a1a:	4770      	bx	lr
 8002a1c:	40012c00 	andmi	r2, r1, r0, lsl #24

08002a20 <_ZN5Motor9run_rightEi>:
 8002a20:	6843      	ldr	r3, [r0, #4]
 8002a22:	2900      	cmp	r1, #0
 8002a24:	bfb7      	itett	lt
 8002a26:	699a      	ldrlt	r2, [r3, #24]
 8002a28:	8d1a      	ldrhge	r2, [r3, #40]	; 0x28
 8002a2a:	4249      	neglt	r1, r1
 8002a2c:	f042 0220 	orrlt.w	r2, r2, #32
 8002a30:	bfaa      	itet	ge
 8002a32:	f042 0220 	orrge.w	r2, r2, #32
 8002a36:	619a      	strlt	r2, [r3, #24]
 8002a38:	851a      	strhge	r2, [r3, #40]	; 0x28
 8002a3a:	29ff      	cmp	r1, #255	; 0xff
 8002a3c:	460b      	mov	r3, r1
 8002a3e:	bfa8      	it	ge
 8002a40:	23ff      	movge	r3, #255	; 0xff
 8002a42:	f241 21be 	movw	r1, #4798	; 0x12be
 8002a46:	4359      	muls	r1, r3
 8002a48:	23ff      	movs	r3, #255	; 0xff
 8002a4a:	fbb1 f1f3 	udiv	r1, r1, r3
 8002a4e:	4b01      	ldr	r3, [pc, #4]	; (8002a54 <_ZN5Motor9run_rightEi+0x34>)
 8002a50:	6359      	str	r1, [r3, #52]	; 0x34
 8002a52:	4770      	bx	lr
 8002a54:	40012c00 	andmi	r2, r1, r0, lsl #24

08002a58 <_ZN5Motor8pwm_initEv>:
 8002a58:	68c2      	ldr	r2, [r0, #12]
 8002a5a:	6893      	ldr	r3, [r2, #8]
 8002a5c:	f023 6340 	bic.w	r3, r3, #201326592	; 0xc000000
 8002a60:	6093      	str	r3, [r2, #8]
 8002a62:	6893      	ldr	r3, [r2, #8]
 8002a64:	f043 6340 	orr.w	r3, r3, #201326592	; 0xc000000
 8002a68:	6093      	str	r3, [r2, #8]
 8002a6a:	6813      	ldr	r3, [r2, #0]
 8002a6c:	f023 6340 	bic.w	r3, r3, #201326592	; 0xc000000
 8002a70:	6013      	str	r3, [r2, #0]
 8002a72:	6813      	ldr	r3, [r2, #0]
 8002a74:	f043 6300 	orr.w	r3, r3, #134217728	; 0x8000000
 8002a78:	6013      	str	r3, [r2, #0]
 8002a7a:	6903      	ldr	r3, [r0, #16]
 8002a7c:	6899      	ldr	r1, [r3, #8]
 8002a7e:	f021 5140 	bic.w	r1, r1, #805306368	; 0x30000000
 8002a82:	6099      	str	r1, [r3, #8]
 8002a84:	6899      	ldr	r1, [r3, #8]
 8002a86:	f041 5140 	orr.w	r1, r1, #805306368	; 0x30000000
 8002a8a:	6099      	str	r1, [r3, #8]
 8002a8c:	6819      	ldr	r1, [r3, #0]
 8002a8e:	f021 5140 	bic.w	r1, r1, #805306368	; 0x30000000
 8002a92:	6019      	str	r1, [r3, #0]
 8002a94:	6819      	ldr	r1, [r3, #0]
 8002a96:	f041 5100 	orr.w	r1, r1, #536870912	; 0x20000000
 8002a9a:	6019      	str	r1, [r3, #0]
 8002a9c:	6a51      	ldr	r1, [r2, #36]	; 0x24
 8002a9e:	f421 0170 	bic.w	r1, r1, #15728640	; 0xf00000
 8002aa2:	6251      	str	r1, [r2, #36]	; 0x24
 8002aa4:	6a51      	ldr	r1, [r2, #36]	; 0x24
 8002aa6:	f441 01c0 	orr.w	r1, r1, #6291456	; 0x600000
 8002aaa:	6251      	str	r1, [r2, #36]	; 0x24
 8002aac:	6a5a      	ldr	r2, [r3, #36]	; 0x24
 8002aae:	f022 6270 	bic.w	r2, r2, #251658240	; 0xf000000
 8002ab2:	625a      	str	r2, [r3, #36]	; 0x24
 8002ab4:	6a5a      	ldr	r2, [r3, #36]	; 0x24
 8002ab6:	f042 62c0 	orr.w	r2, r2, #100663296	; 0x6000000
 8002aba:	625a      	str	r2, [r3, #36]	; 0x24
 8002abc:	4a10      	ldr	r2, [pc, #64]	; (8002b00 <_ZN5Motor8pwm_initEv+0xa8>)
 8002abe:	6993      	ldr	r3, [r2, #24]
 8002ac0:	f443 6300 	orr.w	r3, r3, #2048	; 0x800
 8002ac4:	6193      	str	r3, [r2, #24]
 8002ac6:	4b0f      	ldr	r3, [pc, #60]	; (8002b04 <_ZN5Motor8pwm_initEv+0xac>)
 8002ac8:	2200      	movs	r2, #0
 8002aca:	f241 21bf 	movw	r1, #4799	; 0x12bf
 8002ace:	801a      	strh	r2, [r3, #0]
 8002ad0:	62d9      	str	r1, [r3, #44]	; 0x2c
 8002ad2:	2101      	movs	r1, #1
 8002ad4:	851a      	strh	r2, [r3, #40]	; 0x28
 8002ad6:	861a      	strh	r2, [r3, #48]	; 0x30
 8002ad8:	6159      	str	r1, [r3, #20]
 8002ada:	635a      	str	r2, [r3, #52]	; 0x34
 8002adc:	639a      	str	r2, [r3, #56]	; 0x38
 8002ade:	f44f 7280 	mov.w	r2, #256	; 0x100
 8002ae2:	605a      	str	r2, [r3, #4]
 8002ae4:	f247 0270 	movw	r2, #28784	; 0x7070
 8002ae8:	619a      	str	r2, [r3, #24]
 8002aea:	2277      	movs	r2, #119	; 0x77
 8002aec:	621a      	str	r2, [r3, #32]
 8002aee:	881a      	ldrh	r2, [r3, #0]
 8002af0:	430a      	orrs	r2, r1
 8002af2:	801a      	strh	r2, [r3, #0]
 8002af4:	6c5a      	ldr	r2, [r3, #68]	; 0x44
 8002af6:	f442 4200 	orr.w	r2, r2, #32768	; 0x8000
 8002afa:	645a      	str	r2, [r3, #68]	; 0x44
 8002afc:	4770      	bx	lr
 8002afe:	bf00      	nop
 8002b00:	40021000 	andmi	r1, r2, r0
 8002b04:	40012c00 	andmi	r2, r1, r0, lsl #24

08002b08 <_ZN5Motor4initEv>:
 8002b08:	6801      	ldr	r1, [r0, #0]
 8002b0a:	8d0a      	ldrh	r2, [r1, #40]	; 0x28
 8002b0c:	f042 0210 	orr.w	r2, r2, #16
 8002b10:	850a      	strh	r2, [r1, #40]	; 0x28
 8002b12:	6841      	ldr	r1, [r0, #4]
 8002b14:	8d0a      	ldrh	r2, [r1, #40]	; 0x28
 8002b16:	f042 0220 	orr.w	r2, r2, #32
 8002b1a:	850a      	strh	r2, [r1, #40]	; 0x28
 8002b1c:	6881      	ldr	r1, [r0, #8]
 8002b1e:	8d0a      	ldrh	r2, [r1, #40]	; 0x28
 8002b20:	f442 4200 	orr.w	r2, r2, #32768	; 0x8000
 8002b24:	850a      	strh	r2, [r1, #40]	; 0x28
 8002b26:	68c1      	ldr	r1, [r0, #12]
 8002b28:	8d0a      	ldrh	r2, [r1, #40]	; 0x28
 8002b2a:	f442 5200 	orr.w	r2, r2, #8192	; 0x2000
 8002b2e:	850a      	strh	r2, [r1, #40]	; 0x28
 8002b30:	6902      	ldr	r2, [r0, #16]
 8002b32:	8d13      	ldrh	r3, [r2, #40]	; 0x28
 8002b34:	f443 4380 	orr.w	r3, r3, #16384	; 0x4000
 8002b38:	8513      	strh	r3, [r2, #40]	; 0x28
 8002b3a:	f7ff bf8d 	b.w	8002a58 <_ZN5Motor8pwm_initEv>
 8002b3e:	0000      	movs	r0, r0

08002b40 <_Z9nvic_initmmm>:
 8002b40:	b510      	push	{r4, lr}
 8002b42:	4b0e      	ldr	r3, [pc, #56]	; (8002b7c <_Z9nvic_initmmm+0x3c>)
 8002b44:	68db      	ldr	r3, [r3, #12]
 8002b46:	43db      	mvns	r3, r3
 8002b48:	f3c3 2402 	ubfx	r4, r3, #8, #3
 8002b4c:	f1c4 0304 	rsb	r3, r4, #4
 8002b50:	b2db      	uxtb	r3, r3
 8002b52:	4099      	lsls	r1, r3
 8002b54:	230f      	movs	r3, #15
 8002b56:	4123      	asrs	r3, r4
 8002b58:	4013      	ands	r3, r2
 8002b5a:	4a09      	ldr	r2, [pc, #36]	; (8002b80 <_Z9nvic_initmmm+0x40>)
 8002b5c:	430b      	orrs	r3, r1
 8002b5e:	011b      	lsls	r3, r3, #4
 8002b60:	1811      	adds	r1, r2, r0
 8002b62:	f003 03f0 	and.w	r3, r3, #240	; 0xf0
 8002b66:	f881 3300 	strb.w	r3, [r1, #768]	; 0x300
 8002b6a:	0941      	lsrs	r1, r0, #5
 8002b6c:	2301      	movs	r3, #1
 8002b6e:	f000 001f 	and.w	r0, r0, #31
 8002b72:	fa03 f000 	lsl.w	r0, r3, r0
 8002b76:	f842 0021 	str.w	r0, [r2, r1, lsl #2]
 8002b7a:	bd10      	pop	{r4, pc}
 8002b7c:	e000ed00 	and	lr, r0, r0, lsl #26
 8002b80:	e000e100 	and	lr, r0, r0, lsl #2

08002b84 <_Z10timer_initP11TIM_TypeDefmmmm>:
 8002b84:	b530      	push	{r4, r5, lr}
 8002b86:	8805      	ldrh	r5, [r0, #0]
 8002b88:	b2ac      	uxth	r4, r5
 8002b8a:	4d27      	ldr	r5, [pc, #156]	; (8002c28 <_Z10timer_initP11TIM_TypeDefmmmm+0xa4>)
 8002b8c:	42a8      	cmp	r0, r5
 8002b8e:	d012      	beq.n	8002bb6 <_Z10timer_initP11TIM_TypeDefmmmm+0x32>
 8002b90:	f505 6500 	add.w	r5, r5, #2048	; 0x800
 8002b94:	42a8      	cmp	r0, r5
 8002b96:	d00e      	beq.n	8002bb6 <_Z10timer_initP11TIM_TypeDefmmmm+0x32>
 8002b98:	f1b0 4f80 	cmp.w	r0, #1073741824	; 0x40000000
 8002b9c:	d00b      	beq.n	8002bb6 <_Z10timer_initP11TIM_TypeDefmmmm+0x32>
 8002b9e:	f5a5 3598 	sub.w	r5, r5, #77824	; 0x13000
 8002ba2:	42a8      	cmp	r0, r5
 8002ba4:	d007      	beq.n	8002bb6 <_Z10timer_initP11TIM_TypeDefmmmm+0x32>
 8002ba6:	f505 6580 	add.w	r5, r5, #1024	; 0x400
 8002baa:	42a8      	cmp	r0, r5
 8002bac:	d003      	beq.n	8002bb6 <_Z10timer_initP11TIM_TypeDefmmmm+0x32>
 8002bae:	f505 35a4 	add.w	r5, r5, #83968	; 0x14800
 8002bb2:	42a8      	cmp	r0, r5
 8002bb4:	d103      	bne.n	8002bbe <_Z10timer_initP11TIM_TypeDefmmmm+0x3a>
 8002bb6:	f024 0470 	bic.w	r4, r4, #112	; 0x70
 8002bba:	430c      	orrs	r4, r1
 8002bbc:	b2a4      	uxth	r4, r4
 8002bbe:	491b      	ldr	r1, [pc, #108]	; (8002c2c <_Z10timer_initP11TIM_TypeDefmmmm+0xa8>)
 8002bc0:	4288      	cmp	r0, r1
 8002bc2:	d008      	beq.n	8002bd6 <_Z10timer_initP11TIM_TypeDefmmmm+0x52>
 8002bc4:	f501 6180 	add.w	r1, r1, #1024	; 0x400
 8002bc8:	4288      	cmp	r0, r1
 8002bca:	bf1f      	itttt	ne
 8002bcc:	f424 7440 	bicne.w	r4, r4, #768	; 0x300
 8002bd0:	b2a4      	uxthne	r4, r4
 8002bd2:	4314      	orrne	r4, r2
 8002bd4:	b2a4      	uxthne	r4, r4
 8002bd6:	8004      	strh	r4, [r0, #0]
 8002bd8:	62c3      	str	r3, [r0, #44]	; 0x2c
 8002bda:	f8bd 300c 	ldrh.w	r3, [sp, #12]
 8002bde:	8503      	strh	r3, [r0, #40]	; 0x28
 8002be0:	4b11      	ldr	r3, [pc, #68]	; (8002c28 <_Z10timer_initP11TIM_TypeDefmmmm+0xa4>)
 8002be2:	4298      	cmp	r0, r3
 8002be4:	d013      	beq.n	8002c0e <_Z10timer_initP11TIM_TypeDefmmmm+0x8a>
 8002be6:	f503 6300 	add.w	r3, r3, #2048	; 0x800
 8002bea:	4298      	cmp	r0, r3
 8002bec:	d00f      	beq.n	8002c0e <_Z10timer_initP11TIM_TypeDefmmmm+0x8a>
 8002bee:	f503 6340 	add.w	r3, r3, #3072	; 0xc00
 8002bf2:	4298      	cmp	r0, r3
 8002bf4:	d00b      	beq.n	8002c0e <_Z10timer_initP11TIM_TypeDefmmmm+0x8a>
 8002bf6:	f503 6380 	add.w	r3, r3, #1024	; 0x400
 8002bfa:	4298      	cmp	r0, r3
 8002bfc:	d007      	beq.n	8002c0e <_Z10timer_initP11TIM_TypeDefmmmm+0x8a>
 8002bfe:	f503 6380 	add.w	r3, r3, #1024	; 0x400
 8002c02:	4298      	cmp	r0, r3
 8002c04:	d003      	beq.n	8002c0e <_Z10timer_initP11TIM_TypeDefmmmm+0x8a>
 8002c06:	f503 6300 	add.w	r3, r3, #2048	; 0x800
 8002c0a:	4298      	cmp	r0, r3
 8002c0c:	d101      	bne.n	8002c12 <_Z10timer_initP11TIM_TypeDefmmmm+0x8e>
 8002c0e:	2300      	movs	r3, #0
 8002c10:	8603      	strh	r3, [r0, #48]	; 0x30
 8002c12:	2301      	movs	r3, #1
 8002c14:	6143      	str	r3, [r0, #20]
 8002c16:	8803      	ldrh	r3, [r0, #0]
 8002c18:	f043 0301 	orr.w	r3, r3, #1
 8002c1c:	8003      	strh	r3, [r0, #0]
 8002c1e:	68c3      	ldr	r3, [r0, #12]
 8002c20:	f043 0301 	orr.w	r3, r3, #1
 8002c24:	60c3      	str	r3, [r0, #12]
 8002c26:	bd30      	pop	{r4, r5, pc}
 8002c28:	40012c00 	andmi	r2, r1, r0, lsl #24
 8002c2c:	40001000 	andmi	r1, r0, r0

08002c30 <_Z10usart_initP13USART_TypeDefm>:
 8002c30:	2300      	movs	r3, #0
 8002c32:	220c      	movs	r2, #12
 8002c34:	6043      	str	r3, [r0, #4]
 8002c36:	6002      	str	r2, [r0, #0]
 8002c38:	6083      	str	r3, [r0, #8]
 8002c3a:	4b05      	ldr	r3, [pc, #20]	; (8002c50 <_Z10usart_initP13USART_TypeDefm+0x20>)
 8002c3c:	fbb3 f1f1 	udiv	r1, r3, r1
 8002c40:	b289      	uxth	r1, r1
 8002c42:	8181      	strh	r1, [r0, #12]
 8002c44:	6803      	ldr	r3, [r0, #0]
 8002c46:	f043 0301 	orr.w	r3, r3, #1
 8002c4a:	6003      	str	r3, [r0, #0]
 8002c4c:	4770      	bx	lr
 8002c4e:	bf00      	nop
 8002c50:	044aa200 	strbeq	sl, [sl], #-512	; 0xfffffe00

08002c54 <_Z22exti_clear_pending_bitm>:
 8002c54:	f020 021f 	bic.w	r2, r0, #31
 8002c58:	2301      	movs	r3, #1
 8002c5a:	f000 001f 	and.w	r0, r0, #31
 8002c5e:	fa03 f000 	lsl.w	r0, r3, r0
 8002c62:	4b01      	ldr	r3, [pc, #4]	; (8002c68 <_Z22exti_clear_pending_bitm+0x14>)
 8002c64:	50d0      	str	r0, [r2, r3]
 8002c66:	4770      	bx	lr
 8002c68:	40010414 	andmi	r0, r1, r4, lsl r4

08002c6c <_Z16exti_line_confighh>:
 8002c6c:	f001 0303 	and.w	r3, r1, #3
 8002c70:	f001 01fc 	and.w	r1, r1, #252	; 0xfc
 8002c74:	f101 4180 	add.w	r1, r1, #1073741824	; 0x40000000
 8002c78:	f501 3180 	add.w	r1, r1, #65536	; 0x10000
 8002c7c:	b510      	push	{r4, lr}
 8002c7e:	688a      	ldr	r2, [r1, #8]
 8002c80:	009b      	lsls	r3, r3, #2
 8002c82:	240f      	movs	r4, #15
 8002c84:	409c      	lsls	r4, r3
 8002c86:	ea22 0204 	bic.w	r2, r2, r4
 8002c8a:	608a      	str	r2, [r1, #8]
 8002c8c:	688a      	ldr	r2, [r1, #8]
 8002c8e:	4098      	lsls	r0, r3
 8002c90:	4310      	orrs	r0, r2
 8002c92:	6088      	str	r0, [r1, #8]
 8002c94:	bd10      	pop	{r4, pc}

08002c96 <_Z14configure_extimm>:
 8002c96:	f020 031f 	bic.w	r3, r0, #31
 8002c9a:	f103 4380 	add.w	r3, r3, #1073741824	; 0x40000000
 8002c9e:	f503 3382 	add.w	r3, r3, #66560	; 0x10400
 8002ca2:	2201      	movs	r2, #1
 8002ca4:	f000 001f 	and.w	r0, r0, #31
 8002ca8:	b530      	push	{r4, r5, lr}
 8002caa:	fa02 f000 	lsl.w	r0, r2, r0
 8002cae:	681c      	ldr	r4, [r3, #0]
 8002cb0:	43c2      	mvns	r2, r0
 8002cb2:	4014      	ands	r4, r2
 8002cb4:	601c      	str	r4, [r3, #0]
 8002cb6:	685d      	ldr	r5, [r3, #4]
 8002cb8:	4015      	ands	r5, r2
 8002cba:	605d      	str	r5, [r3, #4]
 8002cbc:	681d      	ldr	r5, [r3, #0]
 8002cbe:	4305      	orrs	r5, r0
 8002cc0:	601d      	str	r5, [r3, #0]
 8002cc2:	689d      	ldr	r5, [r3, #8]
 8002cc4:	4015      	ands	r5, r2
 8002cc6:	609d      	str	r5, [r3, #8]
 8002cc8:	68dd      	ldr	r5, [r3, #12]
 8002cca:	f103 4440 	add.w	r4, r3, #3221225472	; 0xc0000000
 8002cce:	402a      	ands	r2, r5
 8002cd0:	2910      	cmp	r1, #16
 8002cd2:	f5a4 3482 	sub.w	r4, r4, #66560	; 0x10400
 8002cd6:	60da      	str	r2, [r3, #12]
 8002cd8:	d106      	bne.n	8002ce8 <_Z14configure_extimm+0x52>
 8002cda:	689a      	ldr	r2, [r3, #8]
 8002cdc:	4302      	orrs	r2, r0
 8002cde:	609a      	str	r2, [r3, #8]
 8002ce0:	68da      	ldr	r2, [r3, #12]
 8002ce2:	4310      	orrs	r0, r2
 8002ce4:	60d8      	str	r0, [r3, #12]
 8002ce6:	bd30      	pop	{r4, r5, pc}
 8002ce8:	f101 4180 	add.w	r1, r1, #1073741824	; 0x40000000
 8002cec:	f501 3182 	add.w	r1, r1, #66560	; 0x10400
 8002cf0:	590b      	ldr	r3, [r1, r4]
 8002cf2:	4318      	orrs	r0, r3
 8002cf4:	5108      	str	r0, [r1, r4]
 8002cf6:	e7f6      	b.n	8002ce6 <_Z14configure_extimm+0x50>

08002cf8 <_Z16RCC_ADCCLKConfigm>:
 8002cf8:	0f03      	lsrs	r3, r0, #28
 8002cfa:	4b06      	ldr	r3, [pc, #24]	; (8002d14 <_Z16RCC_ADCCLKConfigm+0x1c>)
 8002cfc:	6ada      	ldr	r2, [r3, #44]	; 0x2c
 8002cfe:	bf14      	ite	ne
 8002d00:	f422 5278 	bicne.w	r2, r2, #15872	; 0x3e00
 8002d04:	f422 72f8 	biceq.w	r2, r2, #496	; 0x1f0
 8002d08:	62da      	str	r2, [r3, #44]	; 0x2c
 8002d0a:	6ada      	ldr	r2, [r3, #44]	; 0x2c
 8002d0c:	4310      	orrs	r0, r2
 8002d0e:	62d8      	str	r0, [r3, #44]	; 0x2c
 8002d10:	4770      	bx	lr
 8002d12:	bf00      	nop
 8002d14:	40021000 	andmi	r1, r2, r0

08002d18 <_Z24ADC_RegularChannelConfigP11ADC_TypeDefhhh>:
 8002d18:	2a04      	cmp	r2, #4
 8002d1a:	b530      	push	{r4, r5, lr}
 8002d1c:	d81c      	bhi.n	8002d58 <_Z24ADC_RegularChannelConfigP11ADC_TypeDefhhh+0x40>
 8002d1e:	eb02 0242 	add.w	r2, r2, r2, lsl #1
 8002d22:	6b04      	ldr	r4, [r0, #48]	; 0x30
 8002d24:	0052      	lsls	r2, r2, #1
 8002d26:	251f      	movs	r5, #31
 8002d28:	4095      	lsls	r5, r2
 8002d2a:	ea24 0405 	bic.w	r4, r4, r5
 8002d2e:	fa01 f202 	lsl.w	r2, r1, r2
 8002d32:	4322      	orrs	r2, r4
 8002d34:	6302      	str	r2, [r0, #48]	; 0x30
 8002d36:	2909      	cmp	r1, #9
 8002d38:	d939      	bls.n	8002dae <_Z24ADC_RegularChannelConfigP11ADC_TypeDefhhh+0x96>
 8002d3a:	390a      	subs	r1, #10
 8002d3c:	6982      	ldr	r2, [r0, #24]
 8002d3e:	6982      	ldr	r2, [r0, #24]
 8002d40:	eb01 0141 	add.w	r1, r1, r1, lsl #1
 8002d44:	2407      	movs	r4, #7
 8002d46:	408c      	lsls	r4, r1
 8002d48:	ea22 0204 	bic.w	r2, r2, r4
 8002d4c:	6182      	str	r2, [r0, #24]
 8002d4e:	6982      	ldr	r2, [r0, #24]
 8002d50:	408b      	lsls	r3, r1
 8002d52:	4313      	orrs	r3, r2
 8002d54:	6183      	str	r3, [r0, #24]
 8002d56:	bd30      	pop	{r4, r5, pc}
 8002d58:	2a09      	cmp	r2, #9
 8002d5a:	d80c      	bhi.n	8002d76 <_Z24ADC_RegularChannelConfigP11ADC_TypeDefhhh+0x5e>
 8002d5c:	2406      	movs	r4, #6
 8002d5e:	3a05      	subs	r2, #5
 8002d60:	4362      	muls	r2, r4
 8002d62:	6b45      	ldr	r5, [r0, #52]	; 0x34
 8002d64:	241f      	movs	r4, #31
 8002d66:	4094      	lsls	r4, r2
 8002d68:	ea25 0404 	bic.w	r4, r5, r4
 8002d6c:	fa01 f202 	lsl.w	r2, r1, r2
 8002d70:	4322      	orrs	r2, r4
 8002d72:	6342      	str	r2, [r0, #52]	; 0x34
 8002d74:	e7df      	b.n	8002d36 <_Z24ADC_RegularChannelConfigP11ADC_TypeDefhhh+0x1e>
 8002d76:	2a0e      	cmp	r2, #14
 8002d78:	f04f 0406 	mov.w	r4, #6
 8002d7c:	d80b      	bhi.n	8002d96 <_Z24ADC_RegularChannelConfigP11ADC_TypeDefhhh+0x7e>
 8002d7e:	3a0a      	subs	r2, #10
 8002d80:	4362      	muls	r2, r4
 8002d82:	6b85      	ldr	r5, [r0, #56]	; 0x38
 8002d84:	241f      	movs	r4, #31
 8002d86:	4094      	lsls	r4, r2
 8002d88:	ea25 0404 	bic.w	r4, r5, r4
 8002d8c:	fa01 f202 	lsl.w	r2, r1, r2
 8002d90:	4322      	orrs	r2, r4
 8002d92:	6382      	str	r2, [r0, #56]	; 0x38
 8002d94:	e7cf      	b.n	8002d36 <_Z24ADC_RegularChannelConfigP11ADC_TypeDefhhh+0x1e>
 8002d96:	3a0f      	subs	r2, #15
 8002d98:	4362      	muls	r2, r4
 8002d9a:	6bc5      	ldr	r5, [r0, #60]	; 0x3c
 8002d9c:	241f      	movs	r4, #31
 8002d9e:	4094      	lsls	r4, r2
 8002da0:	ea25 0404 	bic.w	r4, r5, r4
 8002da4:	fa01 f202 	lsl.w	r2, r1, r2
 8002da8:	4322      	orrs	r2, r4
 8002daa:	63c2      	str	r2, [r0, #60]	; 0x3c
 8002dac:	e7c3      	b.n	8002d36 <_Z24ADC_RegularChannelConfigP11ADC_TypeDefhhh+0x1e>
 8002dae:	3901      	subs	r1, #1
 8002db0:	6942      	ldr	r2, [r0, #20]
 8002db2:	6942      	ldr	r2, [r0, #20]
 8002db4:	eb01 0141 	add.w	r1, r1, r1, lsl #1
 8002db8:	2438      	movs	r4, #56	; 0x38
 8002dba:	408c      	lsls	r4, r1
 8002dbc:	ea22 0204 	bic.w	r2, r2, r4
 8002dc0:	6142      	str	r2, [r0, #20]
 8002dc2:	6942      	ldr	r2, [r0, #20]
 8002dc4:	3103      	adds	r1, #3
 8002dc6:	fa03 f101 	lsl.w	r1, r3, r1
 8002dca:	4311      	orrs	r1, r2
 8002dcc:	6141      	str	r1, [r0, #20]
 8002dce:	e7c2      	b.n	8002d56 <_Z24ADC_RegularChannelConfigP11ADC_TypeDefhhh+0x3e>

08002dd0 <_Z8adc_initv>:
 8002dd0:	b570      	push	{r4, r5, r6, lr}
 8002dd2:	f44f 7088 	mov.w	r0, #272	; 0x110
 8002dd6:	f7ff ff8f 	bl	8002cf8 <_Z16RCC_ADCCLKConfigm>
 8002dda:	4919      	ldr	r1, [pc, #100]	; (8002e40 <_Z8adc_initv+0x70>)
 8002ddc:	4819      	ldr	r0, [pc, #100]	; (8002e44 <_Z8adc_initv+0x74>)
 8002dde:	694b      	ldr	r3, [r1, #20]
 8002de0:	4d19      	ldr	r5, [pc, #100]	; (8002e48 <_Z8adc_initv+0x78>)
 8002de2:	4c1a      	ldr	r4, [pc, #104]	; (8002e4c <_Z8adc_initv+0x7c>)
 8002de4:	f043 5380 	orr.w	r3, r3, #268435456	; 0x10000000
 8002de8:	614b      	str	r3, [r1, #20]
 8002dea:	f7ff ff85 	bl	8002cf8 <_Z16RCC_ADCCLKConfigm>
 8002dee:	694b      	ldr	r3, [r1, #20]
 8002df0:	f04f 46a0 	mov.w	r6, #1342177280	; 0x50000000
 8002df4:	f043 5300 	orr.w	r3, r3, #536870912	; 0x20000000
 8002df8:	614b      	str	r3, [r1, #20]
 8002dfa:	2201      	movs	r2, #1
 8002dfc:	2300      	movs	r3, #0
 8002dfe:	60f3      	str	r3, [r6, #12]
 8002e00:	4611      	mov	r1, r2
 8002e02:	60eb      	str	r3, [r5, #12]
 8002e04:	4630      	mov	r0, r6
 8002e06:	60e3      	str	r3, [r4, #12]
 8002e08:	2302      	movs	r3, #2
 8002e0a:	f7ff ff85 	bl	8002d18 <_Z24ADC_RegularChannelConfigP11ADC_TypeDefhhh>
 8002e0e:	2201      	movs	r2, #1
 8002e10:	4611      	mov	r1, r2
 8002e12:	2302      	movs	r3, #2
 8002e14:	4628      	mov	r0, r5
 8002e16:	f7ff ff7f 	bl	8002d18 <_Z24ADC_RegularChannelConfigP11ADC_TypeDefhhh>
 8002e1a:	2302      	movs	r3, #2
 8002e1c:	2201      	movs	r2, #1
 8002e1e:	210c      	movs	r1, #12
 8002e20:	4620      	mov	r0, r4
 8002e22:	f7ff ff79 	bl	8002d18 <_Z24ADC_RegularChannelConfigP11ADC_TypeDefhhh>
 8002e26:	68b3      	ldr	r3, [r6, #8]
 8002e28:	f043 0301 	orr.w	r3, r3, #1
 8002e2c:	60b3      	str	r3, [r6, #8]
 8002e2e:	68ab      	ldr	r3, [r5, #8]
 8002e30:	f043 0301 	orr.w	r3, r3, #1
 8002e34:	60ab      	str	r3, [r5, #8]
 8002e36:	68a3      	ldr	r3, [r4, #8]
 8002e38:	f043 0301 	orr.w	r3, r3, #1
 8002e3c:	60a3      	str	r3, [r4, #8]
 8002e3e:	bd70      	pop	{r4, r5, r6, pc}
 8002e40:	40021000 	andmi	r1, r2, r0
 8002e44:	10002200 	andne	r2, r0, r0, lsl #4
 8002e48:	50000100 	andpl	r0, r0, r0, lsl #2
 8002e4c:	50000400 	andpl	r0, r0, r0, lsl #8

08002e50 <_Z8adc_readi>:
 8002e50:	3801      	subs	r0, #1
 8002e52:	2809      	cmp	r0, #9
 8002e54:	bf98      	it	ls
 8002e56:	4b0e      	ldrls	r3, [pc, #56]	; (8002e90 <_Z8adc_readi+0x40>)
 8002e58:	b510      	push	{r4, lr}
 8002e5a:	bf9b      	ittet	ls
 8002e5c:	f853 4020 	ldrls.w	r4, [r3, r0, lsl #2]
 8002e60:	4b0c      	ldrls	r3, [pc, #48]	; (8002e94 <_Z8adc_readi+0x44>)
 8002e62:	f04f 44a0 	movhi.w	r4, #1342177280	; 0x50000000
 8002e66:	5c19      	ldrbls	r1, [r3, r0]
 8002e68:	f04f 0301 	mov.w	r3, #1
 8002e6c:	461a      	mov	r2, r3
 8002e6e:	bf88      	it	hi
 8002e70:	2101      	movhi	r1, #1
 8002e72:	4620      	mov	r0, r4
 8002e74:	f7ff ff50 	bl	8002d18 <_Z24ADC_RegularChannelConfigP11ADC_TypeDefhhh>
 8002e78:	68a3      	ldr	r3, [r4, #8]
 8002e7a:	f043 0304 	orr.w	r3, r3, #4
 8002e7e:	60a3      	str	r3, [r4, #8]
 8002e80:	6823      	ldr	r3, [r4, #0]
 8002e82:	075b      	lsls	r3, r3, #29
 8002e84:	d401      	bmi.n	8002e8a <_Z8adc_readi+0x3a>
 8002e86:	bf00      	nop
 8002e88:	e7fa      	b.n	8002e80 <_Z8adc_readi+0x30>
 8002e8a:	6c20      	ldr	r0, [r4, #64]	; 0x40
 8002e8c:	bd10      	pop	{r4, pc}
 8002e8e:	bf00      	nop
 8002e90:	08004438 	stmdaeq	r0, {r3, r4, r5, sl, lr}
 8002e94:	08004460 	stmdaeq	r0, {r5, r6, sl, lr}

08002e98 <_ZTV12NetReluLayer>:
 8002e98:	00000000 	andeq	r0, r0, r0
 8002e9c:	00000000 	andeq	r0, r0, r0
 8002ea0:	08000339 	stmdaeq	r0, {r0, r3, r4, r5, r8, r9}
 8002ea4:	0800034d 	stmdaeq	r0, {r0, r2, r3, r6, r8, r9}
 8002ea8:	0800031d 	stmdaeq	r0, {r0, r2, r3, r4, r8, r9}

08002eac <_ZTV24NetDenseConvolutionLayer>:
 8002eac:	00000000 	andeq	r0, r0, r0
 8002eb0:	00000000 	andeq	r0, r0, r0
 8002eb4:	080003ad 	stmdaeq	r0, {r0, r2, r3, r5, r7, r8, r9}
 8002eb8:	080003c1 	stmdaeq	r0, {r0, r6, r7, r8, r9}
 8002ebc:	080003d5 	stmdaeq	r0, {r0, r2, r4, r6, r7, r8, r9}

08002ec0 <_ZTV19NetConvolutionLayer>:
 8002ec0:	00000000 	andeq	r0, r0, r0
 8002ec4:	00000000 	andeq	r0, r0, r0
 8002ec8:	08000489 	stmdaeq	r0, {r0, r3, r7, sl}
 8002ecc:	0800049d 	stmdaeq	r0, {r0, r2, r3, r4, r7, sl}
 8002ed0:	080004b1 	stmdaeq	r0, {r0, r4, r5, r7, sl}

08002ed4 <_ZTV10NetFcLayer>:
 8002ed4:	00000000 	andeq	r0, r0, r0
 8002ed8:	00000000 	andeq	r0, r0, r0
 8002edc:	08000539 	stmdaeq	r0, {r0, r3, r4, r5, r8, sl}
 8002ee0:	0800054d 	stmdaeq	r0, {r0, r2, r3, r6, r8, sl}
 8002ee4:	08000561 	stmdaeq	r0, {r0, r5, r6, r8, sl}

08002ee8 <_ZTV13NeuralNetwork>:
 8002ee8:	00000000 	andeq	r0, r0, r0
 8002eec:	00000000 	andeq	r0, r0, r0
 8002ef0:	08000665 	stmdaeq	r0, {r0, r2, r5, r6, r9, sl}
 8002ef4:	08000689 	stmdaeq	r0, {r0, r3, r7, r9, sl}
 8002ef8:	08000643 	stmdaeq	r0, {r0, r1, r6, r9, sl}
 8002efc:	08000791 	stmdaeq	r0, {r0, r4, r7, r8, r9, sl}

08002f00 <_ZTV12NetworkLayer>:
 8002f00:	00000000 	andeq	r0, r0, r0
 8002f04:	00000000 	andeq	r0, r0, r0
 8002f08:	08000c4d 	stmdaeq	r0, {r0, r2, r3, r6, sl, fp}
 8002f0c:	08000c51 	stmdaeq	r0, {r0, r4, r6, sl, fp}
 8002f10:	08000c4f 	stmdaeq	r0, {r0, r1, r2, r3, r6, sl, fp}

08002f14 <_ZTV13LinePredictor>:
 8002f14:	00000000 	andeq	r0, r0, r0
 8002f18:	00000000 	andeq	r0, r0, r0
 8002f1c:	08000c81 	stmdaeq	r0, {r0, r7, sl, fp}
 8002f20:	08000c83 	stmdaeq	r0, {r0, r1, r7, sl, fp}

08002f24 <_ZL12layer_0_bias>:
 8002f24:	7fdd1660 	svcvc	0x00dd1660
 8002f28:	dc566ac0 	mrrcle	10, 12, r6, r6, cr0	; <UNPREDICTABLE>

08002f2c <_ZL12layer_2_bias>:
 8002f2c:	c3fe151c 	mvnsgt	r1, #28, 10	; 0x7000000
 8002f30:	9081bd8b 	addls	fp, r1, fp, lsl #27

08002f34 <_ZL12layer_4_bias>:
 8002f34:	313e4104 	teqcc	lr, r4, lsl #2
 8002f38:	39427f62 	stmdbcc	r2, {r1, r5, r6, r8, r9, sl, fp, ip, sp, lr}^

08002f3c <_ZL15layer_0_weights>:
 8002f3c:	00000000 	andeq	r0, r0, r0
 8002f40:	00000000 	andeq	r0, r0, r0
 8002f44:	00000000 	andeq	r0, r0, r0
 8002f48:	00000000 	andeq	r0, r0, r0
 8002f4c:	1a209e52 	bne	882a89c <_sidata+0x826428>
 8002f50:	1613de4c 	ldrne	sp, [r3], -ip, asr #28
 8002f54:	6ff9220d 	svcvs	0x00f9220d
 8002f58:	2d064040 	stccs	0, cr4, [r6, #-256]	; 0xffffff00
 8002f5c:	1100befd 	strdne	fp, [r0, -sp]
 8002f60:	544bd05f 	strbpl	sp, [fp], #-95	; 0xffffffa1
 8002f64:	3b32fa12 	blcc	8cc17b4 <_sidata+0xcbd340>
 8002f68:	a1f4f00f 	mvnsge	pc, pc
 8002f6c:	77ef0535 			; <UNDEFINED> instruction: 0x77ef0535
 8002f70:	facdc2c9 	blx	7373a9c <__text_size__+0x736f7b8>
 8002f74:	1129920f 			; <UNDEFINED> instruction: 0x1129920f
 8002f78:	e7381b81 	ldr	r1, [r8, -r1, lsl #23]!
 8002f7c:	2c11f30f 	ldccs	3, cr15, [r1], {15}
 8002f80:	e94b4e9b 	stmdb	fp, {r0, r1, r3, r4, r7, r9, sl, fp, lr}^

08002f84 <_ZL15layer_2_weights>:
 8002f84:	00000000 	andeq	r0, r0, r0
 8002f88:	00000000 	andeq	r0, r0, r0
 8002f8c:	00000000 	andeq	r0, r0, r0
 8002f90:	00000000 	andeq	r0, r0, r0
 8002f94:	00000000 	andeq	r0, r0, r0
 8002f98:	00000000 	andeq	r0, r0, r0
 8002f9c:	00000000 	andeq	r0, r0, r0
 8002fa0:	00000000 	andeq	r0, r0, r0
 8002fa4:	00000000 	andeq	r0, r0, r0
 8002fa8:	00000000 	andeq	r0, r0, r0
 8002fac:	00000000 	andeq	r0, r0, r0
 8002fb0:	00000000 	andeq	r0, r0, r0
 8002fb4:	00000000 	andeq	r0, r0, r0
 8002fb8:	00000000 	andeq	r0, r0, r0
 8002fbc:	00000000 	andeq	r0, r0, r0
 8002fc0:	00000000 	andeq	r0, r0, r0
 8002fc4:	00000000 	andeq	r0, r0, r0
 8002fc8:	00000000 	andeq	r0, r0, r0
 8002fcc:	00000000 	andeq	r0, r0, r0
 8002fd0:	00000000 	andeq	r0, r0, r0
 8002fd4:	00000000 	andeq	r0, r0, r0
 8002fd8:	00000000 	andeq	r0, r0, r0
 8002fdc:	00000000 	andeq	r0, r0, r0
 8002fe0:	00000000 	andeq	r0, r0, r0
 8002fe4:	00000000 	andeq	r0, r0, r0
 8002fe8:	00000000 	andeq	r0, r0, r0
 8002fec:	00000000 	andeq	r0, r0, r0
 8002ff0:	00000000 	andeq	r0, r0, r0
 8002ff4:	00000000 	andeq	r0, r0, r0
 8002ff8:	00000000 	andeq	r0, r0, r0
 8002ffc:	00000000 	andeq	r0, r0, r0
 8003000:	00000000 	andeq	r0, r0, r0
 8003004:	00000000 	andeq	r0, r0, r0
 8003008:	00000000 	andeq	r0, r0, r0
 800300c:	00000000 	andeq	r0, r0, r0
 8003010:	00000000 	andeq	r0, r0, r0
 8003014:	00000000 	andeq	r0, r0, r0
 8003018:	00000000 	andeq	r0, r0, r0
 800301c:	00000000 	andeq	r0, r0, r0
 8003020:	00000000 	andeq	r0, r0, r0
 8003024:	00000000 	andeq	r0, r0, r0
 8003028:	00000000 	andeq	r0, r0, r0
 800302c:	00000000 	andeq	r0, r0, r0
 8003030:	00000000 	andeq	r0, r0, r0
 8003034:	00000000 	andeq	r0, r0, r0
 8003038:	00000000 	andeq	r0, r0, r0
 800303c:	00000000 	andeq	r0, r0, r0
 8003040:	00000000 	andeq	r0, r0, r0
 8003044:	00000000 	andeq	r0, r0, r0
 8003048:	00000000 	andeq	r0, r0, r0
 800304c:	00000000 	andeq	r0, r0, r0
 8003050:	00000000 	andeq	r0, r0, r0
 8003054:	00000000 	andeq	r0, r0, r0
 8003058:	00000000 	andeq	r0, r0, r0
 800305c:	00000000 	andeq	r0, r0, r0
 8003060:	00000000 	andeq	r0, r0, r0
 8003064:	00000000 	andeq	r0, r0, r0
 8003068:	00000000 	andeq	r0, r0, r0
 800306c:	00000000 	andeq	r0, r0, r0
 8003070:	00000000 	andeq	r0, r0, r0
 8003074:	00000000 	andeq	r0, r0, r0
 8003078:	00000000 	andeq	r0, r0, r0
 800307c:	00000000 	andeq	r0, r0, r0
 8003080:	00000000 	andeq	r0, r0, r0
 8003084:	0c09f639 	stceq	6, cr15, [r9], {57}	; 0x39
 8003088:	dc0deb24 			; <UNDEFINED> instruction: 0xdc0deb24
 800308c:	02ecf5f2 	rsceq	pc, ip, #1015021568	; 0x3c800000
 8003090:	e5fad909 	ldrb	sp, [sl, #2313]!	; 0x909
 8003094:	dc011adf 			; <UNDEFINED> instruction: 0xdc011adf
 8003098:	12d2f614 	sbcsne	pc, r2, #20, 12	; 0x1400000
 800309c:	04fbf9f8 	ldrbteq	pc, [fp], #2552	; 0x9f8	; <UNPREDICTABLE>
 80030a0:	1b0cedfb 	blne	833e894 <_sidata+0x33a420>
 80030a4:	0432fb30 	ldrteq	pc, [r2], #-2864	; 0xfffff4d0	; <UNPREDICTABLE>
 80030a8:	fe003d04 	vsdot.s8	d3, d0, d4[0]
 80030ac:	fcb40243 	ldc2	2, cr0, [r4], #268	; 0x10c
 80030b0:	1a2088f5 	bne	882548c <_sidata+0x821018>
 80030b4:	2e0b2584 	cfsh32cs	mvfx2, mvfx11, #-60
 80030b8:	3327f521 	msrcc	CPSR_sxc, #138412032	; 0x8400000
 80030bc:	03422613 	movteq	r2, #9747	; 0x2613
 80030c0:	090ed60f 	stmdbeq	lr, {r0, r1, r2, r3, r9, sl, ip, lr, pc}
 80030c4:	d61f0ed0 			; <UNDEFINED> instruction: 0xd61f0ed0
 80030c8:	f0f6f5fe 			; <UNDEFINED> instruction: 0xf0f6f5fe
 80030cc:	e4eeefe0 	strbt	lr, [lr], #4064	; 0xfe0
 80030d0:	132df5fa 	msrne	CPSR_fsc, #1048576000	; 0x3e800000
 80030d4:	e51e37f2 	ldr	r3, [lr, #-2034]	; 0xfffff80e
 80030d8:	fbeefa32 	blx	7bc19aa <__text_size__+0x7bbd6c6>
 80030dc:	011bf414 	tsteq	fp, r4, lsl r4	; <UNPREDICTABLE>
 80030e0:	0af923e5 	beq	7e4c07c <__text_size__+0x7e47d98>
 80030e4:	2407e7ee 	strcs	lr, [r7], #-2030	; 0xfffff812
 80030e8:	f51cebf9 			; <UNDEFINED> instruction: 0xf51cebf9
 80030ec:	eb0b1cfe 	bl	82ca4ec <_sidata+0x2c6078>
 80030f0:	ecd4f408 	cfldrd	mvd15, [r4], {8}
 80030f4:	151ed5de 	ldrne	sp, [lr, #-1502]	; 0xfffffa22
 80030f8:	d520f2c7 	strle	pc, [r0, #-711]!	; 0xfffffd39
 80030fc:	2ad02cf9 	bcs	740e4e8 <__text_size__+0x740a204>
 8003100:	a32d0ace 			; <UNDEFINED> instruction: 0xa32d0ace
 8003104:	06a24633 			; <UNDEFINED> instruction: 0x06a24633
 8003108:	27da2426 	ldrbcs	r2, [sl, r6, lsr #8]
 800310c:	0e14ee22 	cdpeq	14, 1, cr14, cr4, cr2, {1}
 8003110:	fdff15ff 	ldc2l	5, cr1, [pc, #1020]!	; 8003514 <_ZL15layer_4_weights+0x308>
 8003114:	27d41c2d 	ldrbcs	r1, [r4, sp, lsr #24]
 8003118:	05f1f8f5 	ldrbeq	pc, [r1, #2293]!	; 0x8f5	; <UNPREDICTABLE>
 800311c:	00edf6fc 	strdeq	pc, [sp], #108	; 0x6c	; <UNPREDICTABLE>
 8003120:	fa28020b 	blx	8a03954 <_sidata+0x9ff4e0>
 8003124:	26122d49 	ldrcs	r2, [r2], -r9, asr #26
 8003128:	1be71818 	blne	79c9190 <__text_size__+0x79c4eac>
 800312c:	1efffbf8 	vmovne.u8	pc, d31[7]
 8003130:	ec1cfe18 	ldc	14, cr15, [ip], {24}
 8003134:	eae80cf1 	b	7a06500 <__text_size__+0x7a0221c>
 8003138:	13070c05 	movwne	r0, #31749	; 0x7c05
 800313c:	07f1f503 	ldrbeq	pc, [r1, r3, lsl #10]!	; <UNPREDICTABLE>
 8003140:	0e09fced 	cdpeq	12, 0, cr15, cr9, cr13, {7}
 8003144:	1fc7eb04 	svcne	0x00c7eb04
 8003148:	e734cbeb 	ldr	ip, [r4, -fp, ror #23]!
 800314c:	f3e429b1 			; <UNDEFINED> instruction: 0xf3e429b1
 8003150:	54eb3036 	strbtpl	r3, [fp], #54	; 0x36
 8003154:	ee75c106 	exps	f4, f6
 8003158:	2ceee017 	stclcs	0, cr14, [lr], #92	; 0x5c
 800315c:	122721f5 	eorne	r2, r7, #1073741885	; 0x4000003d
 8003160:	180bf115 	stmdane	fp, {r0, r2, r4, r8, ip, sp, lr, pc}
 8003164:	121809eb 	andsne	r0, r8, #3850240	; 0x3ac000
 8003168:	edd0091e 	vldr.16	s1, [r0, #60]	; 0x3c
 800316c:	f8eaba01 			; <UNDEFINED> instruction: 0xf8eaba01
 8003170:	e0ffdebd 	ldrht	sp, [pc], #237
 8003174:	3fdee036 	svccc	0x00dee036
 8003178:	ea22d9d8 	b	88b98e0 <_sidata+0x8b546c>
 800317c:	000b03dd 	ldrdeq	r0, [fp], -sp
 8003180:	0af5f421 	beq	7d8020c <__text_size__+0x7d7bf28>
 8003184:	e1fb1df0 	ldrsh	r1, [fp, #208]!	; 0xd0
 8003188:	edd20a01 	vldr	s1, [r2, #4]
 800318c:	37f1e21a 			; <UNDEFINED> instruction: 0x37f1e21a
 8003190:	0120de0f 			; <UNDEFINED> instruction: 0x0120de0f
 8003194:	eefe01cb 	cdp	1, 15, cr0, cr14, cr11, {6}
 8003198:	f3e525ff 	vsli.64	q9, <illegal reg q15.5>, #37	; 0x25
 800319c:	35d70e38 	ldrbcc	r0, [r7, #3640]	; 0xe38
 80031a0:	34ede3ea 	strbtcc	lr, [sp], #1002	; 0x3ea
 80031a4:	87522981 	ldrbhi	r2, [r2, -r1, lsl #19]
 80031a8:	1826dd43 	stmdane	r6!, {r0, r1, r6, r8, sl, fp, ip, lr, pc}
 80031ac:	f40632bc 	vst1.32	{d3-d6}, [r6 :256], ip
 80031b0:	0c1ff820 	ldceq	8, cr15, [pc], {32}
 80031b4:	fe3013dd 	mrc2	3, 1, r1, cr0, cr13, {6}
 80031b8:	02ea1702 	rsceq	r1, sl, #524288	; 0x80000
 80031bc:	effdebed 	svc	0x00fdebed
 80031c0:	11f6f3f4 	ldrshne	pc, [r6, #52]!	; 0x34	; <UNPREDICTABLE>
 80031c4:	14183bfc 	ldrne	r3, [r8], #-3068	; 0xfffff404
 80031c8:	13ed1a29 	mvnne	r1, #167936	; 0x29000
 80031cc:	20f4f9fe 	ldrshtcs	pc, [r4], #158	; 0x9e	; <UNPREDICTABLE>
 80031d0:	f6030eea 			; <UNDEFINED> instruction: 0xf6030eea
 80031d4:	def2ff12 	mrcle	15, 7, APSR_nzcv, cr2, cr2, {0}
 80031d8:	fdfdffee 	ldc2l	15, cr15, [sp, #952]!	; 0x3b8
 80031dc:	19130a0a 	ldmdbne	r3, {r1, r3, r9, fp}
 80031e0:	0d15fb27 	vldreq	d15, [r5, #-156]	; 0xffffff64
 80031e4:	ea0aea0b 	b	82bda18 <_sidata+0x2b95a4>
 80031e8:	f6e2c6d8 			; <UNDEFINED> instruction: 0xf6e2c6d8
 80031ec:	ba1509de 	blt	854596c <_sidata+0x5414f8>
 80031f0:	11b8a917 			; <UNDEFINED> instruction: 0x11b8a917
 80031f4:	241b87cd 	ldrcs	r8, [fp], #-1997	; 0xfffff833
 80031f8:	1cf115b5 	cfldr64ne	mvdx1, [r1], #724	; 0x2d4
 80031fc:	150ed808 	strne	sp, [lr, #-2056]	; 0xfffff7f8
 8003200:	0b11f8f7 	bleq	84815e4 <_sidata+0x47d170>
 8003204:	262013fe 			; <UNDEFINED> instruction: 0x262013fe
 8003208:	32030939 	andcc	r0, r3, #933888	; 0xe4000

0800320c <_ZL15layer_4_weights>:
 800320c:	00000000 	andeq	r0, r0, r0
 8003210:	00000000 	andeq	r0, r0, r0
 8003214:	00000000 	andeq	r0, r0, r0
 8003218:	00000000 	andeq	r0, r0, r0
 800321c:	00000000 	andeq	r0, r0, r0
 8003220:	00000000 	andeq	r0, r0, r0
 8003224:	00000000 	andeq	r0, r0, r0
 8003228:	00000000 	andeq	r0, r0, r0
 800322c:	00000000 	andeq	r0, r0, r0
 8003230:	00000000 	andeq	r0, r0, r0
 8003234:	00000000 	andeq	r0, r0, r0
 8003238:	00000000 	andeq	r0, r0, r0
 800323c:	00000000 	andeq	r0, r0, r0
 8003240:	00000000 	andeq	r0, r0, r0
 8003244:	00000000 	andeq	r0, r0, r0
 8003248:	00000000 	andeq	r0, r0, r0
 800324c:	00000000 	andeq	r0, r0, r0
 8003250:	00000000 	andeq	r0, r0, r0
 8003254:	00000000 	andeq	r0, r0, r0
 8003258:	00000000 	andeq	r0, r0, r0
 800325c:	00000000 	andeq	r0, r0, r0
 8003260:	00000000 	andeq	r0, r0, r0
 8003264:	00000000 	andeq	r0, r0, r0
 8003268:	00000000 	andeq	r0, r0, r0
 800326c:	00000000 	andeq	r0, r0, r0
 8003270:	00000000 	andeq	r0, r0, r0
 8003274:	00000000 	andeq	r0, r0, r0
 8003278:	00000000 	andeq	r0, r0, r0
 800327c:	00000000 	andeq	r0, r0, r0
 8003280:	00000000 	andeq	r0, r0, r0
 8003284:	00000000 	andeq	r0, r0, r0
 8003288:	00000000 	andeq	r0, r0, r0
 800328c:	00000000 	andeq	r0, r0, r0
 8003290:	00000000 	andeq	r0, r0, r0
 8003294:	00000000 	andeq	r0, r0, r0
 8003298:	00000000 	andeq	r0, r0, r0
 800329c:	00000000 	andeq	r0, r0, r0
 80032a0:	00000000 	andeq	r0, r0, r0
 80032a4:	00000000 	andeq	r0, r0, r0
 80032a8:	00000000 	andeq	r0, r0, r0
 80032ac:	00000000 	andeq	r0, r0, r0
 80032b0:	00000000 	andeq	r0, r0, r0
 80032b4:	00000000 	andeq	r0, r0, r0
 80032b8:	00000000 	andeq	r0, r0, r0
 80032bc:	00000000 	andeq	r0, r0, r0
 80032c0:	00000000 	andeq	r0, r0, r0
 80032c4:	00000000 	andeq	r0, r0, r0
 80032c8:	00000000 	andeq	r0, r0, r0
 80032cc:	00000000 	andeq	r0, r0, r0
 80032d0:	00000000 	andeq	r0, r0, r0
 80032d4:	00000000 	andeq	r0, r0, r0
 80032d8:	00000000 	andeq	r0, r0, r0
 80032dc:	00000000 	andeq	r0, r0, r0
 80032e0:	00000000 	andeq	r0, r0, r0
 80032e4:	00000000 	andeq	r0, r0, r0
 80032e8:	00000000 	andeq	r0, r0, r0
 80032ec:	00000000 	andeq	r0, r0, r0
 80032f0:	00000000 	andeq	r0, r0, r0
 80032f4:	00000000 	andeq	r0, r0, r0
 80032f8:	00000000 	andeq	r0, r0, r0
 80032fc:	00000000 	andeq	r0, r0, r0
 8003300:	00000000 	andeq	r0, r0, r0
 8003304:	00000000 	andeq	r0, r0, r0
 8003308:	00000000 	andeq	r0, r0, r0
 800330c:	000804fd 	strdeq	r0, [r8], -sp
 8003310:	f806fb05 			; <UNDEFINED> instruction: 0xf806fb05
 8003314:	fdfe19f9 	ldc2l	9, cr1, [lr, #498]!	; 0x1f2	; <UNPREDICTABLE>
 8003318:	f5fef9fa 			; <UNDEFINED> instruction: 0xf5fef9fa
 800331c:	fefd0ffa 	mrc2	15, 7, r0, cr13, cr10, {7}
 8003320:	fffffc00 			; <UNDEFINED> instruction: 0xfffffc00
 8003324:	fefb1a02 			; <UNDEFINED> instruction: 0xfefb1a02
 8003328:	f2fffd01 	vqdmull.s<illegal width 64>	<illegal reg q15.5>, d15, d1
 800332c:	faf20b08 	blx	7c85f54 <__text_size__+0x7c81c70>
 8003330:	00030200 	andeq	r0, r3, r0, lsl #4
 8003334:	f2e20b01 	vqdmlsl.s32	q8, d2, d1
 8003338:	0902fbf8 	stmdbeq	r2, {r3, r4, r5, r6, r7, r8, r9, fp, ip, sp, lr, pc}
 800333c:	e5d44501 	ldrb	r4, [r4, #1281]	; 0x501
 8003340:	f80afcee 			; <UNDEFINED> instruction: 0xf80afcee
 8003344:	02176e02 	andseq	r6, r7, #2, 28
 8003348:	f1fe0805 			; <UNDEFINED> instruction: 0xf1fe0805
 800334c:	f9fefb01 			; <UNDEFINED> instruction: 0xf9fefb01
 8003350:	fa04faf8 	blx	8141f38 <_sidata+0x13dac4>
 8003354:	fbfaff00 	blx	7ec2f5e <__text_size__+0x7ebec7a>
 8003358:	fffafdfb 			; <UNDEFINED> instruction: 0xfffafdfb
 800335c:	0209f607 	andeq	pc, r9, #7340032	; 0x700000
 8003360:	f300fcfe 	vqrdmlsh.s<illegal width 8>	<illegal reg q7.5>, q8, q15
 8003364:	0b09fb05 	bleq	8281f80 <_sidata+0x27db0c>
 8003368:	010f0808 	tsteq	pc, r8, lsl #16
 800336c:	00100903 	andseq	r0, r0, r3, lsl #18
 8003370:	16030704 	strne	r0, [r3], -r4, lsl #14
 8003374:	093405fe 	ldmdbeq	r4!, {r1, r2, r3, r4, r5, r6, r7, r8, sl}
 8003378:	2efb0100 	cdpcs	1, 15, cr0, cr11, cr0, {0}
 800337c:	0b20eafb 	bleq	883df70 <_sidata+0x839afc>
 8003380:	29fffa00 	ldmibcs	pc!, {r9, fp, ip, sp, lr, pc}^	; <UNPREDICTABLE>
 8003384:	e6dffd06 	ldrb	pc, [pc], r6, lsl #26	; <UNPREDICTABLE>
 8003388:	19fbeeef 	ldmibne	fp!, {r0, r1, r2, r3, r5, r6, r7, r9, sl, fp, sp, lr, pc}^
 800338c:	fffa0405 			; <UNDEFINED> instruction: 0xfffa0405
 8003390:	020700fb 	andeq	r0, r7, #251	; 0xfb
 8003394:	fffc15fd 			; <UNDEFINED> instruction: 0xfffc15fd
 8003398:	00fdfb00 	rscseq	pc, sp, r0, lsl #22
 800339c:	fef811fe 	mrc2	1, 7, r1, cr8, cr14, {7}
 80033a0:	09ff00ff 	ldmibeq	pc!, {r0, r1, r2, r3, r4, r5, r6, r7}^	; <UNPREDICTABLE>
 80033a4:	00f013fd 	ldrshteq	r1, [r0], #61	; 0x3d
 80033a8:	06fe0001 	ldrbteq	r0, [lr], r1
 80033ac:	00f51700 	rscseq	r1, r5, r0, lsl #14
 80033b0:	03010201 	movweq	r0, #4609	; 0x1201
 80033b4:	f9c82200 			; <UNDEFINED> instruction: 0xf9c82200
 80033b8:	fbfe00fb 	blx	7f837ae <__text_size__+0x7f7f4ca>
 80033bc:	e2c574f9 	sbc	r7, r5, #-117440512	; 0xf9000000
 80033c0:	fb06faf5 	blx	81c1f9e <_sidata+0x1bdb2a>
 80033c4:	00197bff 			; <UNDEFINED> instruction: 0x00197bff
 80033c8:	00001e05 	andeq	r1, r0, r5, lsl #28
 80033cc:	fe08f802 	vcmla.f16	d15, d8, d2[0], #0
 80033d0:	f9020705 			; <UNDEFINED> instruction: 0xf9020705
 80033d4:	00fb04fb 	ldrshteq	r0, [fp], #75	; 0x4b
 80033d8:	fcf8fffe 	ldc2l	15, cr15, [r8], #1016	; 0x3f8
 80033dc:	fef902fa 	mrc2	2, 7, r0, cr9, cr10, {7}
 80033e0:	f1fe0002 			; <UNDEFINED> instruction: 0xf1fe0002
 80033e4:	0a0107fe 	beq	80453e4 <_sidata+0x40f70>
 80033e8:	00fd0508 	rscseq	r0, sp, r8, lsl #10
 80033ec:	11feff08 	mvnsne	pc, r8, lsl #30
 80033f0:	39061014 	stmdbcc	r6, {r2, r4, ip}
 80033f4:	01ea0ffd 	strdeq	r0, [sl, #253]!	; 0xfd
 80033f8:	3ee9f5fa 	mcrcc	5, 7, pc, cr9, cr10, {7}	; <UNPREDICTABLE>
 80033fc:	03164b06 	tsteq	r6, #6144	; 0x1800
 8003400:	f7e0e303 			; <UNDEFINED> instruction: 0xf7e0e303
 8003404:	245e7afe 	ldrbcs	r7, [lr], #-2814	; 0xfffff502
 8003408:	e0dc081e 	sbcs	r0, ip, lr, lsl r8
 800340c:	fefcff00 	cdp2	15, 15, cr15, cr12, cr0, {0}
 8003410:	fa000406 	blx	8004430 <_ZTV3IMU+0xc>
 8003414:	140905fe 	strne	r0, [r9], #-1534	; 0xfffffa02
 8003418:	09040c08 	stmdbeq	r4, {r3, sl, fp}
 800341c:	04120206 	ldreq	r0, [r2], #-518	; 0xfffffdfa
 8003420:	07080608 	streq	r0, [r8, -r8, lsl #12]
 8003424:	0c0afefb 	stceq	14, cr15, [sl], {251}	; 0xfb
 8003428:	0b070500 	bleq	81c4830 <_sidata+0x1c03bc>
 800342c:	080f1504 	stmdaeq	pc, {r2, r8, sl, ip}	; <UNPREDICTABLE>
 8003430:	030a0702 	movweq	r0, #42754	; 0xa702
 8003434:	0a110e01 	beq	8446c40 <_sidata+0x4427cc>
 8003438:	00ff0204 	rscseq	r0, pc, r4, lsl #4
 800343c:	090f05fe 	stmdbeq	pc, {r1, r2, r3, r4, r5, r6, r7, r8, sl}	; <UNPREDICTABLE>
 8003440:	050c0f0c 	streq	r0, [ip, #-3852]	; 0xfffff0f4
 8003444:	0c1603f9 	ldceq	3, cr0, [r6], {249}	; 0xf9
 8003448:	0b020e08 	bleq	8086c70 <_sidata+0x827fc>
 800344c:	fdf904fa 	ldc2l	4, cr0, [r9, #1000]!	; 0x3e8
 8003450:	05f9fb03 	ldrbeq	pc, [r9, #2819]!	; 0xb03	; <UNPREDICTABLE>
 8003454:	120e0c08 	andne	r0, lr, #8, 24	; 0x800
 8003458:	090c150b 	stmdbeq	ip, {r0, r1, r3, r8, sl, ip}
 800345c:	10040d01 	andne	r0, r4, r1, lsl #26
 8003460:	0f0c0d00 	svceq	0x000c0d00
 8003464:	040d0a08 	streq	r0, [sp], #-2568	; 0xfffff5f8
 8003468:	fbfffff7 	blx	800344e <_ZL15layer_4_weights+0x242>
 800346c:	06031407 	streq	r1, [r3], -r7, lsl #8
 8003470:	faf8fbfd 	blx	7e4246c <__text_size__+0x7e3e188>
 8003474:	141214fd 	ldrne	r1, [r2], #-1277	; 0xfffffb03
 8003478:	03fdffff 	mvnseq	pc, #1020	; 0x3fc
 800347c:	0d140efb 	ldceq	14, cr0, [r4, #-1004]	; 0xfffffc14
 8003480:	fffb0101 			; <UNDEFINED> instruction: 0xfffb0101
 8003484:	11001cf9 	strdne	r1, [r0, -r9]
 8003488:	090308fc 	stmdbeq	r3, {r2, r3, r4, r5, r6, r7, fp}
 800348c:	02070304 	andeq	r0, r7, #4, 6	; 0x10000000
 8003490:	f902fd06 			; <UNDEFINED> instruction: 0xf902fd06
 8003494:	fb0907f9 	blx	8245482 <_sidata+0x24100e>
 8003498:	09040301 	stmdbeq	r4, {r0, r8, r9}
 800349c:	fa05fe05 	blx	8182cb8 <_sidata+0x17e844>
 80034a0:	0102fdfb 	strdeq	pc, [r2, -fp]
 80034a4:	f1fb0200 			; <UNDEFINED> instruction: 0xf1fb0200
 80034a8:	f9f7fff6 			; <UNDEFINED> instruction: 0xf9f7fff6
 80034ac:	e50e1000 	str	r1, [lr, #-0]
 80034b0:	f0f1fdf9 			; <UNDEFINED> instruction: 0xf0f1fdf9
 80034b4:	f81619fd 			; <UNDEFINED> instruction: 0xf81619fd
 80034b8:	e8f4f8f2 	ldm	r4!, {r1, r4, r5, r6, r7, fp, ip, sp, lr, pc}^
 80034bc:	f1150d05 			; <UNDEFINED> instruction: 0xf1150d05
 80034c0:	f1f7fbf9 			; <UNDEFINED> instruction: 0xf1f7fbf9
 80034c4:	f2ff0004 	vext.8	d16, d15, d4, #0
 80034c8:	f1f60d03 			; <UNDEFINED> instruction: 0xf1f60d03
 80034cc:	fd05fdfa 	stc2	13, cr15, [r5, #-1000]	; 0xfffffc18
 80034d0:	f8fd00fe 			; <UNDEFINED> instruction: 0xf8fd00fe
 80034d4:	0700d305 	streq	sp, [r0, -r5, lsl #6]
 80034d8:	fbfe0201 	blx	7f83ce6 <__text_size__+0x7f7fa02>
 80034dc:	faf9e705 	blx	7e7d0f8 <__text_size__+0x7e78e14>
 80034e0:	f6fd00fa 			; <UNDEFINED> instruction: 0xf6fd00fa
 80034e4:	f7fe08fb 			; <UNDEFINED> instruction: 0xf7fe08fb
 80034e8:	0503fbf4 	streq	pc, [r3, #-3060]	; 0xfffff40c
 80034ec:	ff1f1005 			; <UNDEFINED> instruction: 0xff1f1005
 80034f0:	0b05fefc 	bleq	81830e8 <_sidata+0x17ec74>
 80034f4:	133fde06 	teqne	pc, #6, 28	; 0x60
 80034f8:	f900140f 			; <UNDEFINED> instruction: 0xf900140f
 80034fc:	1644c500 	strbne	ip, [r4], -r0, lsl #10
 8003500:	f8122a10 			; <UNDEFINED> instruction: 0xf8122a10
 8003504:	1c20caff 			; <UNDEFINED> instruction: 0x1c20caff
 8003508:	00171408 	andseq	r1, r7, r8, lsl #8
 800350c:	000705f8 	strdeq	r0, [r7], -r8
 8003510:	fff80101 			; <UNDEFINED> instruction: 0xfff80101
 8003514:	0713fafb 			; <UNDEFINED> instruction: 0x0713fafb
 8003518:	03040302 	movweq	r0, #17154	; 0x4302
 800351c:	fe03f7fc 	mcr2	7, 0, pc, cr3, cr12, {7}	; <UNPREDICTABLE>
 8003520:	ffff00fe 			; <UNDEFINED> instruction: 0xffff00fe
 8003524:	fbfffb01 	blx	8002132 <_ZN10LineSensor4initEv+0x6a>
 8003528:	03fcfbf7 	mvnseq	pc, #252928	; 0x3dc00
 800352c:	f3ff1400 	vraddhn.i<illegal width 128>	d17, <illegal reg q7.5>, q0
 8003530:	f3f7f5f4 	vsli.64	<illegal reg q15.5>, q10, #55	; 0x37
 8003534:	f51f2207 			; <UNDEFINED> instruction: 0xf51f2207
 8003538:	f503f9ee 			; <UNDEFINED> instruction: 0xf503f9ee
 800353c:	fe3a0dfe 	vudot.u8	q0, q13, d14[1]
 8003540:	0103f905 	tsteq	r3, r5, lsl #18	; <UNPREDICTABLE>
 8003544:	fb0aeb00 	blx	82be14e <_sidata+0x2b9cda>
 8003548:	f7f80601 			; <UNDEFINED> instruction: 0xf7f80601
 800354c:	0302ff00 	movweq	pc, #12032	; 0x2f00	; <UNPREDICTABLE>
 8003550:	fc01fdfc 	stc2	13, cr15, [r1], {252}	; 0xfc
 8003554:	0c0113ff 	stceq	3, cr1, [r1], {255}	; 0xff
 8003558:	ff080407 			; <UNDEFINED> instruction: 0xff080407
 800355c:	03fc13fa 	mvnseq	r1, #-402653181	; 0xe8000003
 8003560:	16010200 	strne	r0, [r1], -r0, lsl #4
 8003564:	fb070400 	blx	81c456e <_sidata+0x1c00fa>
 8003568:	11eff2f4 	strdne	pc, [pc, #36]	; 8003594 <_ZL15layer_4_weights+0x388>
 800356c:	0c00fa06 			; <UNDEFINED> instruction: 0x0c00fa06
 8003570:	fbeff0f8 	blx	7bff95a <__text_size__+0x7bfb676>
 8003574:	00e00a02 	rsceq	r0, r0, r2, lsl #20
 8003578:	d8f1f2f5 	ldmle	r1!, {r0, r2, r4, r5, r6, r7, r9, ip, sp, lr, pc}^
 800357c:	f0d42208 			; <UNDEFINED> instruction: 0xf0d42208
 8003580:	d500f4e0 	strle	pc, [r0, #-1248]	; 0xfffffb20
 8003584:	01011b07 	tsteq	r1, r7, lsl #22
 8003588:	f309fff7 	vmaxnm.f32	<illegal reg q7.5>, <illegal reg q12.5>, <illegal reg q11.5>
 800358c:	010804fe 	strdeq	r0, [r8, -lr]
 8003590:	0700fc00 	streq	pc, [r0, -r0, lsl #24]
 8003594:	fe12ef00 	cdp2	15, 1, cr14, cr2, cr0, {0}
 8003598:	08000306 	stmdaeq	r0, {r1, r2, r8, r9}
 800359c:	f90bea05 			; <UNDEFINED> instruction: 0xf90bea05
 80035a0:	ffffffff 			; <UNDEFINED> instruction: 0xffffffff
 80035a4:	edff07fc 	ldcl	7, cr0, [pc, #1008]!	; 800399c <_ZL15layer_4_weights+0x790>
 80035a8:	fbfefdf9 	blx	7fc2d96 <__text_size__+0x7fbeab2>
 80035ac:	e2011e05 	and	r1, r1, #5, 28	; 0x50
 80035b0:	f900fdf3 			; <UNDEFINED> instruction: 0xf900fdf3
 80035b4:	df3a1c04 	svcle	0x003a1c04
 80035b8:	0004f9f2 	strdeq	pc, [r4], -r2
 80035bc:	eb51da08 	bl	9479de4 <_sidata+0x1475970>
 80035c0:	0601f803 	streq	pc, [r1], -r3, lsl #16
 80035c4:	dc25c7fa 	stcle	7, cr12, [r5], #-1000	; 0xfffffc18
 80035c8:	03ff140a 	mvnseq	r1, #167772160	; 0xa000000
 80035cc:	00fdf904 	rscseq	pc, sp, r4, lsl #18
 80035d0:	02fefa06 	rscseq	pc, lr, #24576	; 0x6000
 80035d4:	030dfefb 	movweq	pc, #57083	; 0xdefb	; <UNPREDICTABLE>
 80035d8:	0b0b0a05 	bleq	82c5df4 <_sidata+0x2c1980>
 80035dc:	0105fdfe 	strdeq	pc, [r5, -lr]
 80035e0:	28010201 	stmdacs	r1, {r0, r9}
 80035e4:	eef80507 	cdp	5, 15, cr0, cr8, cr7, {0}
 80035e8:	16f4f7f8 			; <UNDEFINED> instruction: 0x16f4f7f8
 80035ec:	e70020ff 			; <UNDEFINED> instruction: 0xe70020ff
 80035f0:	e6e5eae5 	strbt	lr, [r5], r5, ror #21
 80035f4:	fd231f05 	stc2	15, cr1, [r3, #-20]!	; 0xffffffec
 80035f8:	d8f7f1fc 	ldmle	r7!, {r2, r3, r4, r5, r6, r7, r8, ip, sp, lr, pc}^
 80035fc:	08110804 	ldmdaeq	r1, {r2, fp}
 8003600:	f5f9ff09 			; <UNDEFINED> instruction: 0xf5f9ff09
 8003604:	e5dbd806 	ldrb	sp, [fp, #2054]	; 0x806
 8003608:	edf80600 	ldcl	6, cr0, [r8]
 800360c:	010000fc 	strdeq	r0, [r0, -ip]
 8003610:	04fe0302 	ldrbteq	r0, [lr], #770	; 0x302
 8003614:	040419fe 	streq	r1, [r4], #-2558	; 0xfffff602
 8003618:	0104fd05 	tsteq	r4, r5, lsl #26	; <UNPREDICTABLE>
 800361c:	190a07fc 	stmdbne	sl, {r2, r3, r4, r5, r6, r7, r8, r9, sl}
 8003620:	fff9040e 			; <UNDEFINED> instruction: 0xfff9040e
 8003624:	0c120700 	ldceq	7, cr0, [r2], {-0}
 8003628:	08080004 	stmdaeq	r8, {r2}
 800362c:	100e05fd 	strdne	r0, [lr], -sp
 8003630:	06100112 			; <UNDEFINED> instruction: 0x06100112
 8003634:	0dff0101 	ldfeqe	f0, [pc, #4]!	; 8003640 <_ZL15layer_4_weights+0x434>
 8003638:	01040910 	tsteq	r4, r0, lsl r9
 800363c:	150308fe 	strne	r0, [r3, #-2302]	; 0xfffff702
 8003640:	06060d15 			; <UNDEFINED> instruction: 0x06060d15
 8003644:	090600fb 	stmdbeq	r6, {r0, r1, r3, r4, r5, r6, r7}
 8003648:	0402010c 	streq	r0, [r2], #-268	; 0xfffffef4
 800364c:	0003fffe 	strdeq	pc, [r3], -lr
 8003650:	06fa04f8 			; <UNDEFINED> instruction: 0x06fa04f8
 8003654:	03070a02 	movweq	r0, #31234	; 0x7a02
 8003658:	0afaff04 	beq	7ec3270 <__text_size__+0x7ebef8c>
 800365c:	01030900 	tsteq	r3, r0, lsl #18
 8003660:	05feff04 	ldrbeq	pc, [lr, #3844]!	; 0xf04	; <UNPREDICTABLE>
 8003664:	0c080502 	cfstr32eq	mvfx0, [r8], {2}
 8003668:	050cfd00 	streq	pc, [ip, #-3328]	; 0xfffff300
 800366c:	0f08fd04 	svceq	0x0008fd04
 8003670:	0206ff11 	andeq	pc, r6, #17, 30	; 0x44
 8003674:	0d0b0004 	stceq	0, cr0, [fp, #-16]
 8003678:	0004f910 	andeq	pc, r4, r0, lsl r9	; <UNPREDICTABLE>
 800367c:	0e0f0004 	cdpeq	0, 0, cr0, cr15, cr4, {0}
 8003680:	0809000e 	stmdaeq	r9, {r1, r2, r3}
 8003684:	060e02fa 			; <UNDEFINED> instruction: 0x060e02fa
 8003688:	0d06fe14 	stceq	14, cr15, [r6, #-80]	; 0xffffffb0
 800368c:	08fa05fc 	ldmeq	sl!, {r2, r3, r4, r5, r6, r7, r8, sl}^
 8003690:	02fcfb01 	rscseq	pc, ip, #1024	; 0x400
 8003694:	fb000800 	blx	800569e <_sidata+0x122a>
 8003698:	f70004ed 			; <UNDEFINED> instruction: 0xf70004ed
 800369c:	010404ff 	strdeq	r0, [r4, -pc]
 80036a0:	f8fffcf3 			; <UNDEFINED> instruction: 0xf8fffcf3
 80036a4:	06090206 	streq	r0, [r9], -r6, lsl #4
 80036a8:	f600fdec 			; <UNDEFINED> instruction: 0xf600fdec
 80036ac:	0c150400 	cfldrseq	mvf0, [r5], {-0}
 80036b0:	f7fb00ec 			; <UNDEFINED> instruction: 0xf7fb00ec
 80036b4:	1106f3ff 	strdne	pc, [r6, -pc]
 80036b8:	f40509ff 	vst2.<illegal width 64>	{d0,d2}, [r5 :256]
 80036bc:	0a0cfa00 	beq	8341ec4 <_sidata+0x33da50>
 80036c0:	00f5fef8 	ldrshteq	pc, [r5], #232	; 0xe8	; <UNPREDICTABLE>
 80036c4:	fb05ea04 	blx	817dede <_sidata+0x179a6a>
 80036c8:	10fc02f4 	ldrshtne	r0, [ip], #36	; 0x24
 80036cc:	0105fffd 	strdeq	pc, [r5, -sp]
 80036d0:	02fa0605 	rscseq	r0, sl, #5242880	; 0x500000
 80036d4:	011232fe 			; <UNDEFINED> instruction: 0x011232fe
 80036d8:	0c00faf9 			; <UNDEFINED> instruction: 0x0c00faf9
 80036dc:	1d1e15ff 	cfldr32ne	mvfx1, [lr, #-1020]	; 0xfffffc04
 80036e0:	0300f602 	movweq	pc, #1538	; 0x602	; <UNPREDICTABLE>
 80036e4:	2112f403 	tstcs	r2, r3, lsl #8	; <UNPREDICTABLE>
 80036e8:	f9fffb14 			; <UNDEFINED> instruction: 0xf9fffb14
 80036ec:	19f7f0f9 	ldmibne	r7!, {r0, r3, r4, r5, r6, r7, ip, sp, lr, pc}^
 80036f0:	f8fd1020 			; <UNDEFINED> instruction: 0xf8fd1020
 80036f4:	23e5f605 	mvncs	pc, #5242880	; 0x500000
 80036f8:	fb041509 	blx	8108b26 <_sidata+0x1046b2>
 80036fc:	49c4e8ff 	stmibmi	r4, {r0, r1, r2, r3, r4, r5, r6, r7, fp, sp, lr, pc}^
 8003700:	091311f7 	ldmdbeq	r3, {r0, r1, r2, r4, r5, r6, r7, r8, ip}
 8003704:	40d60d07 	sbcsmi	r0, r6, r7, lsl #26
 8003708:	1afaf510 	bne	7ec0b50 <__text_size__+0x7ebc86c>
 800370c:	030100fc 	movweq	r0, #4348	; 0x10fc
 8003710:	fb020800 	blx	808571a <_sidata+0x812a6>
 8003714:	fde80004 	stc2l	0, cr0, [r8, #16]!
 8003718:	faf7f3f7 	blx	7e006fc <__text_size__+0x7dfc418>
 800371c:	00fc0d07 	rscseq	r0, ip, r7, lsl #26
 8003720:	fb00f9f9 	blx	8041f0e <_sidata+0x3da9a>
 8003724:	07110200 	ldreq	r0, [r1, -r0, lsl #4]
 8003728:	ff00fdf9 			; <UNDEFINED> instruction: 0xff00fdf9
 800372c:	1a0efd04 	bne	83c2b44 <_sidata+0x3be6d0>
 8003730:	0200f3f9 	andeq	pc, r0, #-469762045	; 0xe4000003
 8003734:	1e0feeff 	mcrne	14, 0, lr, cr15, cr15, {7}
 8003738:	0004f20b 	andeq	pc, r4, fp, lsl #4
 800373c:	140de400 	strne	lr, [sp], #-1024	; 0xfffffc00
 8003740:	fc000b07 	stc2	11, cr0, [r0], {7}	; <UNPREDICTABLE>
 8003744:	0c12dcfc 	ldceq	12, cr13, [r2], {252}	; 0xfc
 8003748:	02f800f1 	rscseq	r0, r8, #241	; 0xf1
 800374c:	0300fefd 	movweq	pc, #3837	; 0xefd	; <UNPREDICTABLE>
 8003750:	0401f9fa 	streq	pc, [r1], #-2554	; 0xfffff606
 8003754:	fa04e408 	blx	813c77c <_sidata+0x138308>
 8003758:	10f7f8fa 	ldrshtne	pc, [r7], #138	; 0x8a	; <UNPREDICTABLE>
 800375c:	fafff500 	blx	8000b64 <_Z26network_convolution_kernelPaS_S_S_ii14sLayerGeometryS0_+0x18>
 8003760:	fbf8f5ff 	blx	7e40f66 <__text_size__+0x7e3cc82>
 8003764:	f3fe08fe 			; <UNDEFINED> instruction: 0xf3fe08fe
 8003768:	eef8f904 	vmov.f16	s31, #132	; 0xc0200000 -2.5
 800376c:	f2040afa 	vpmin.s8	q0, q10, q13
 8003770:	f5fa03ff 			; <UNDEFINED> instruction: 0xf5fa03ff
 8003774:	f5100600 			; <UNDEFINED> instruction: 0xf5100600
 8003778:	edfb0106 	ldfe	f0, [fp, #24]!
 800377c:	f01cff05 			; <UNDEFINED> instruction: 0xf01cff05
 8003780:	02fefe06 	rscseq	pc, lr, #6, 28	; 0x60
 8003784:	dd150504 	cfldr32le	mvfx0, [r5, #-16]
 8003788:	2bfc08f3 	blcs	7f05b5c <__text_size__+0x7f01878>
 800378c:	07ff0204 	ldrbeq	r0, [pc, r4, lsl #4]!
 8003790:	f8020308 			; <UNDEFINED> instruction: 0xf8020308
 8003794:	fae22706 	blx	788d3b4 <__text_size__+0x78890d0>
 8003798:	00fef9f4 	ldrshteq	pc, [lr], #148	; 0x94	; <UNPREDICTABLE>
 800379c:	04fd19fe 	ldrbteq	r1, [sp], #2558	; 0x9fe
 80037a0:	0300feec 	movweq	pc, #3820	; 0xeec	; <UNPREDICTABLE>
 80037a4:	0d15fe00 	ldceq	14, cr15, [r5, #-0]
 80037a8:	03fefde7 	mvnseq	pc, #14784	; 0x39c0
 80037ac:	1710ea01 	ldrne	lr, [r0, -r1, lsl #20]
 80037b0:	0004edfe 	strdeq	lr, [r4], -lr	; <UNPREDICTABLE>
 80037b4:	2afbf500 	bcs	7f00bbc <__text_size__+0x7efc8d8>
 80037b8:	0004fbff 	strdeq	pc, [r4], -pc	; <UNPREDICTABLE>
 80037bc:	39e6f106 	stmibcc	r6!, {r1, r2, r8, ip, sp, lr, pc}^
 80037c0:	000116e5 	andeq	r1, r1, r5, ror #13
 80037c4:	48d7e4fc 	ldmmi	r7, {r2, r3, r4, r5, r6, r7, sl, sp, lr, pc}^
 80037c8:	fdfa1dd9 	ldc2l	13, cr1, [sl, #868]!	; 0x364
 80037cc:	fefcfbfa 	mrc2	11, 7, pc, cr12, cr10, {7}	; <UNPREDICTABLE>
 80037d0:	0001fbfe 	strdeq	pc, [r1], -lr
 80037d4:	f8f90606 			; <UNDEFINED> instruction: 0xf8f90606
 80037d8:	fff0f6f8 			; <UNDEFINED> instruction: 0xfff0f6f8
 80037dc:	00070a00 	andeq	r0, r7, r0, lsl #20
 80037e0:	f0f7fbfa 			; <UNDEFINED> instruction: 0xf0f7fbfa
 80037e4:	0c1002fd 	lfmeq	f0, 4, [r0], {253}	; 0xfd
 80037e8:	f4fefcf8 			; <UNDEFINED> instruction: 0xf4fefcf8
 80037ec:	1613f606 	ldrne	pc, [r3], -r6, lsl #12
 80037f0:	fafff102 	blx	7fffc00 <__text_size__+0x7ffb91c>
 80037f4:	1a08f905 	bne	8241c10 <_sidata+0x23d79c>
 80037f8:	fcff0307 	ldc2l	3, cr0, [pc], #28	; 800381c <_ZL15layer_4_weights+0x610>
 80037fc:	0601f0fb 			; <UNDEFINED> instruction: 0x0601f0fb
 8003800:	faf704fd 	blx	7dc4bfc <__text_size__+0x7dc0918>
 8003804:	050edc07 	streq	sp, [lr, #-3079]	; 0xfffff3f9
 8003808:	10ef00e9 	rscne	r0, pc, r9, ror #1
 800380c:	040707fe 	streq	r0, [r7], #-2046	; 0xfffff802
 8003810:	fcfafa00 	ldc2l	10, cr15, [sl]	; <UNPREDICTABLE>
 8003814:	0000fc00 	andeq	pc, r0, r0, lsl #24
 8003818:	03fd0616 	mvnseq	r0, #23068672	; 0x1600000
 800381c:	05f9fe07 	ldrbeq	pc, [r9, #3591]!	; 0xe07	; <UNPREDICTABLE>
 8003820:	ff0a0f11 			; <UNDEFINED> instruction: 0xff0a0f11
 8003824:	08000006 	stmdaeq	r0, {r1, r2}
 8003828:	fe03060a 	cdp2	6, 0, cr0, cr3, cr10, {0}
 800382c:	050f0505 	streq	r0, [pc, #-1285]	; 800332f <_ZL15layer_4_weights+0x123>
 8003830:	00fb1010 	rscseq	r1, fp, r0, lsl r0
 8003834:	020ffffc 	andeq	pc, pc, #252, 30	; 0x3f0
 8003838:	000b0b0b 	andeq	r0, fp, fp, lsl #22
 800383c:	01070700 	tsteq	r7, r0, lsl #14
 8003840:	03021210 	movweq	r1, #8720	; 0x2210
 8003844:	08100605 	ldmdaeq	r0, {r0, r2, r9, sl}
 8003848:	0b06020c 	bleq	8184080 <_sidata+0x17fc0c>
 800384c:	fbfe07fb 	blx	7f85842 <__text_size__+0x7f8155e>
 8003850:	f901fffb 			; <UNDEFINED> instruction: 0xf901fffb
 8003854:	0a090408 	beq	824487c <_sidata+0x240408>
 8003858:	faf8050f 	blx	7e04c9c <__text_size__+0x7e009b8>
 800385c:	0401f605 	streq	pc, [r1], #-1541	; 0xfffff9fb
 8003860:	fb010312 	blx	80444b2 <_sidata+0x4003e>
 8003864:	0cfffc03 	ldcleq	12, cr15, [pc], #12	; 8003878 <_ZL15layer_4_weights+0x66c>
 8003868:	f9f80707 			; <UNDEFINED> instruction: 0xf9f80707
 800386c:	1302fbfa 	movwne	pc, #11258	; 0x2bfa	; <UNPREDICTABLE>
 8003870:	fdfc1100 	ldc2l	1, cr1, [ip]
 8003874:	0dfcfdff 	ldcleq	13, cr15, [ip, #1020]!	; 0x3fc
 8003878:	00061505 	andeq	r1, r6, r5, lsl #10
 800387c:	0b0104fd 	bleq	8044c78 <_sidata+0x40804>
 8003880:	01fa0309 	mvnseq	r0, r9, lsl #6
 8003884:	0d030904 	vstreq.16	s0, [r3, #-8]	; <UNPREDICTABLE>
 8003888:	04fa10fd 	ldrbteq	r1, [sl], #253	; 0xfd
 800388c:	f9fdfffd 			; <UNDEFINED> instruction: 0xf9fdfffd
 8003890:	fc010600 	stc2	6, cr0, [r1], {-0}
 8003894:	0701f8f8 			; <UNDEFINED> instruction: 0x0701f8f8
 8003898:	f7f5e60b 			; <UNDEFINED> instruction: 0xf7f5e60b
 800389c:	150cfb04 	strne	pc, [ip, #-2820]	; 0xfffff4fc
 80038a0:	effce505 	svc	0x00fce505
 80038a4:	1409ff05 	strne	pc, [r9], #-3845	; 0xfffff0fb
 80038a8:	f1f5e513 			; <UNDEFINED> instruction: 0xf1f5e513
 80038ac:	1202efff 	andne	lr, r2, #1020	; 0x3fc
 80038b0:	fff8e816 			; <UNDEFINED> instruction: 0xfff8e816
 80038b4:	1303f900 	movwne	pc, #14592	; 0x3900	; <UNPREDICTABLE>
 80038b8:	fefdec06 	cdp2	12, 15, cr14, cr13, cr6, {0}
 80038bc:	10fbf605 	rscsne	pc, fp, r5, lsl #12
 80038c0:	00fcec09 	rscseq	lr, ip, r9, lsl #24
 80038c4:	000004fc 	strdeq	r0, [r0], -ip
 80038c8:	0600ebf8 			; <UNDEFINED> instruction: 0x0600ebf8
 80038cc:	03030105 	movweq	r0, #12549	; 0x3105
 80038d0:	030503fa 	movweq	r0, #21498	; 0x53fa
 80038d4:	1609f8fe 			; <UNDEFINED> instruction: 0x1609f8fe
 80038d8:	f3eb1034 	vshr.u32	d17, d20, #21
 80038dc:	000005ff 	strdeq	r0, [r0], -pc	; <UNPREDICTABLE>
 80038e0:	fb031134 	blx	80c7dba <_sidata+0xc3946>
 80038e4:	040007f8 	streq	r0, [r0], #-2040	; 0xfffff808
 80038e8:	fe061619 	mcr2	6, 0, r1, cr6, cr9, {0}
 80038ec:	000501fa 	strdeq	r0, [r5], -sl
 80038f0:	fd0e1312 	stc2	3, cr1, [lr, #-72]	; 0xffffffb8
 80038f4:	fc06fd02 	stc2	13, cr15, [r6], {2}
 80038f8:	fd0d1118 	stc2	1, cr1, [sp, #-96]	; 0xffffffa0
 80038fc:	d8f3fe01 	ldmle	r3!, {r0, r9, sl, fp, ip, sp, lr, pc}^
 8003900:	f408062c 	vst1.8	{d0-d2}, [r8 :128], ip
 8003904:	b5fee2fe 	ldrblt	lr, [lr, #766]!	; 0x2fe
 8003908:	ede4ff01 	stcl	15, cr15, [r4, #4]!
 800390c:	080003fe 	stmdaeq	r0, {r1, r2, r3, r4, r5, r6, r7, r8, r9}
 8003910:	fb0205f9 	blx	80850fe <_sidata+0x80c8a>
 8003914:	2210f8fd 	andscs	pc, r0, #16580608	; 0xfd0000
 8003918:	fbf6eb0f 	blx	7dbe55e <__text_size__+0x7dba27a>
 800391c:	1008fa05 	andne	pc, r8, r5, lsl #20
 8003920:	fffdfa0e 			; <UNDEFINED> instruction: 0xfffdfa0e
 8003924:	09f5fbfe 	ldmibeq	r5!, {r1, r2, r3, r4, r5, r6, r7, r8, r9, fp, ip, sp, lr, pc}^
 8003928:	02000010 	andeq	r0, r0, #16
 800392c:	01f7fb03 	mvnseq	pc, r3, lsl #22
 8003930:	04040e0e 	streq	r0, [r4], #-3598	; 0xfffff1f2
 8003934:	01ecfdff 	strdeq	pc, [ip, #223]!	; 0xdf
 8003938:	fe001602 	cdp2	6, 0, cr1, cr0, cr2, {0}
 800393c:	03e70302 	mvneq	r0, #134217728	; 0x8000000
 8003940:	ff001300 			; <UNDEFINED> instruction: 0xff001300
 8003944:	00e902f9 	strdeq	r0, [r9], #41	; 0x29	; <UNPREDICTABLE>
 8003948:	fc03f005 	stc2	0, cr15, [r3], {5}
 800394c:	fbfa03fe 	blx	7e8494e <__text_size__+0x7e8066a>
 8003950:	fc000500 	stc2	5, cr0, [r0], {-0}
 8003954:	100f15ff 	strdne	r1, [pc], -pc	; <UNPREDICTABLE>
 8003958:	f0f3f8e3 			; <UNDEFINED> instruction: 0xf0f3f8e3
 800395c:	110d0a00 	tstne	sp, r0, lsl #20
 8003960:	eef701ee 	cdp	1, 15, cr0, cr7, cr14, {7}
 8003964:	0b04fc02 	bleq	8142974 <_sidata+0x13e500>
 8003968:	f6fc02f1 			; <UNDEFINED> instruction: 0xf6fc02f1
 800396c:	0605fe04 	streq	pc, [r5], -r4, lsl #28
 8003970:	f700f7fa 			; <UNDEFINED> instruction: 0xf700f7fa
 8003974:	fe02fbfc 	mcr2	11, 0, pc, cr2, cr12, {7}	; <UNPREDICTABLE>
 8003978:	fe02fdfe 	vudot.u8	<illegal reg q7.5>, q9, d14[1]
 800397c:	00f6fc03 	rscseq	pc, r6, r3, lsl #24
 8003980:	060200f6 			; <UNDEFINED> instruction: 0x060200f6
 8003984:	1200fc07 	andne	pc, r0, #1792	; 0x700
 8003988:	ee010408 	cdp	4, 0, cr0, cr1, cr8, {0}
 800398c:	08fa0104 	ldmeq	sl!, {r2, r8}^
 8003990:	00fa04fd 	ldrshteq	r0, [sl], #77	; 0x4d
 8003994:	0d13edfb 	ldceq	13, cr14, [r3, #-1004]	; 0xfffffc14
 8003998:	00fce82e 	rscseq	lr, ip, lr, lsr #16
 800399c:	0b06ff00 	bleq	81c35a4 <_sidata+0x1bf130>
 80039a0:	0000fa1e 	andeq	pc, r0, lr, lsl sl	; <UNPREDICTABLE>
 80039a4:	08f90007 	ldmeq	r9!, {r0, r1, r2}^
 80039a8:	01040021 	tsteq	r4, r1, lsr #32
 80039ac:	07f6fef9 			; <UNDEFINED> instruction: 0x07f6fef9
 80039b0:	03000e19 	movweq	r0, #3609	; 0xe19
 80039b4:	f7f9fffa 			; <UNDEFINED> instruction: 0xf7f9fffa
 80039b8:	03fd0e13 	mvnseq	r0, #304	; 0x130
 80039bc:	effe0604 	svc	0x00fe0604
 80039c0:	01f8ff1d 	mvnseq	pc, sp, lsl pc	; <UNPREDICTABLE>
 80039c4:	e60003fb 			; <UNDEFINED> instruction: 0xe60003fb
 80039c8:	000fe32a 	andeq	lr, pc, sl, lsr #6
 80039cc:	fa080502 	blx	8204ddc <_sidata+0x200968>
 80039d0:	03030507 	movweq	r0, #13575	; 0x3507
 80039d4:	11070002 	tstne	r7, r2
 80039d8:	fbfaf8fe 	blx	7ec1dda <__text_size__+0x7ebdaf6>
 80039dc:	03f6fcfc 	mvnseq	pc, #252, 24	; 0xfc00
 80039e0:	0304fffe 	movweq	pc, #20478	; 0x4ffe	; <UNPREDICTABLE>
 80039e4:	00fffdfb 	ldrshteq	pc, [pc], #219	; <UNPREDICTABLE>
 80039e8:	0401fe04 	streq	pc, [r1], #-3588	; 0xfffff1fc
 80039ec:	fefdfd01 	vsdot.s8	d31, d13, d1[0]
 80039f0:	0afa0304 	beq	7e84608 <__text_size__+0x7e80324>
 80039f4:	f7fdfffa 			; <UNDEFINED> instruction: 0xf7fdfffa
 80039f8:	0bf402ff 	bleq	7d045fc <__text_size__+0x7d00318>
 80039fc:	010104fa 	strdeq	r0, [r1, -sl]
 8003a00:	06fbf500 	ldrbteq	pc, [fp], r0, lsl #10	; <UNPREDICTABLE>
 8003a04:	f8da0200 			; <UNDEFINED> instruction: 0xf8da0200
 8003a08:	fa07e9f2 	blx	81fe1d8 <_sidata+0x1f9d64>
 8003a0c:	fd0604fa 	stc2	4, cr0, [r6, #-1000]	; 0xfffffc18
 8003a10:	fefef907 			; <UNDEFINED> instruction: 0xfefef907
 8003a14:	06000303 	streq	r0, [r0], -r3, lsl #6
 8003a18:	110f130f 	tstne	pc, pc, lsl #6
 8003a1c:	0b0807f9 	bleq	8205a08 <_sidata+0x201594>
 8003a20:	06160f03 	ldreq	r0, [r6], -r3, lsl #30
 8003a24:	110b06fd 	strdne	r0, [fp, -sp]
 8003a28:	040e1b01 	streq	r1, [lr], #-2817	; 0xfffff4ff
 8003a2c:	040b00f8 	streq	r0, [fp], #-248	; 0xffffff08
 8003a30:	0a0f160a 	beq	83c9260 <_sidata+0x3c4dec>
 8003a34:	0d0a0b06 	vstreq	d0, [sl, #-24]	; 0xffffffe8
 8003a38:	080f1415 	stmdaeq	pc, {r0, r2, r4, sl, ip}	; <UNPREDICTABLE>
 8003a3c:	140c05fd 	strne	r0, [ip], #-1533	; 0xfffffa03
 8003a40:	08081903 	stmdaeq	r8, {r0, r1, r8, fp, ip}
 8003a44:	0f0211fc 	svceq	0x000211fc
 8003a48:	00090910 	andeq	r0, r9, r0, lsl r9
 8003a4c:	03fc06fe 	mvnseq	r0, #266338304	; 0xfe00000
 8003a50:	fa04f903 	blx	8141e64 <_sidata+0x13d9f0>
 8003a54:	fb00fdfd 	blx	8043252 <_sidata+0x3edde>
 8003a58:	11140c07 	tstne	r4, r7, lsl #24
 8003a5c:	0a000001 	beq	8003a68 <_ZL15layer_4_weights+0x85c>
 8003a60:	050d0910 	streq	r0, [sp, #-2320]	; 0xfffff6f0
 8003a64:	ffffff07 			; <UNDEFINED> instruction: 0xffffff07
 8003a68:	00100915 	andseq	r0, r0, r5, lsl r9
 8003a6c:	09fe0807 	ldmibeq	lr!, {r0, r1, r2, fp}^
 8003a70:	fb150715 	blx	85456ce <_sidata+0x54125a>
 8003a74:	0f030602 	svceq	0x00030602
 8003a78:	ff05130d 			; <UNDEFINED> instruction: 0xff05130d
 8003a7c:	100504f9 	strdne	r0, [r5], -r9
 8003a80:	0010150c 	andseq	r1, r0, ip, lsl #10
 8003a84:	100a05fc 	strdne	r0, [sl], -ip
 8003a88:	fa12030f 	blx	84846cc <_sidata+0x480258>
 8003a8c:	05ff00f8 	ldrbeq	r0, [pc, #248]!	; 8003b8c <_ZL15layer_4_weights+0x980>
 8003a90:	fc000806 	stc2	8, cr0, [r0], {6}
 8003a94:	fffbf2f9 			; <UNDEFINED> instruction: 0xfffbf2f9
 8003a98:	f5f1020e 			; <UNDEFINED> instruction: 0xf5f1020e
 8003a9c:	00f3f6ff 	ldrshteq	pc, [r3], #111	; 0x6f	; <UNPREDICTABLE>
 8003aa0:	f1ee1310 			; <UNDEFINED> instruction: 0xf1ee1310
 8003aa4:	00fefd05 	rscseq	pc, lr, r5, lsl #26
 8003aa8:	f6ee1306 			; <UNDEFINED> instruction: 0xf6ee1306
 8003aac:	02010103 	andeq	r0, r1, #-1073741824	; 0xc0000000
 8003ab0:	f6f21012 			; <UNDEFINED> instruction: 0xf6f21012
 8003ab4:	01040306 	tsteq	r4, r6, lsl #6
 8003ab8:	fcec0917 	stc2l	9, cr0, [ip], #46	; 0x2e	; <UNPREDICTABLE>
 8003abc:	fefd0507 	cdp2	5, 15, cr0, cr13, cr7, {0}
 8003ac0:	00e00014 	rsceq	r0, r0, r4, lsl r0
 8003ac4:	07050706 	streq	r0, [r5, -r6, lsl #14]
 8003ac8:	03e7f906 	mvneq	pc, #98304	; 0x18000
 8003acc:	03fcf904 	mvnseq	pc, #4, 18	; 0x10000
 8003ad0:	fffcfbfe 			; <UNDEFINED> instruction: 0xfffcfbfe
 8003ad4:	f8f5f9fc 			; <UNDEFINED> instruction: 0xf8f5f9fc
 8003ad8:	12220be0 	eorne	r0, r2, #224, 22	; 0x38000
 8003adc:	f9fbfe00 			; <UNDEFINED> instruction: 0xf9fbfe00
 8003ae0:	081712e8 	ldmdaeq	r7, {r3, r5, r6, r7, r9, ip}
 8003ae4:	fbfbfd00 	blx	7f02eee <__text_size__+0x7efec0a>
 8003ae8:	fd080ef4 	stc2	14, cr0, [r8, #-976]	; 0xfffffc30
 8003aec:	fefaffff 	mrc2	15, 7, pc, cr10, cr15, {7}
 8003af0:	030709fd 	movweq	r0, #31229	; 0x79fd
 8003af4:	02030708 	andeq	r0, r3, #8, 14	; 0x200000
 8003af8:	00f9020b 	rscseq	r0, r9, fp, lsl #4
 8003afc:	161b1ef9 			; <UNDEFINED> instruction: 0x161b1ef9
 8003b00:	f3d6f50f 	vabal.u16	<illegal reg q15.5>, d6, d15
 8003b04:	1a0df107 	bne	837ff28 <_sidata+0x37bab4>
 8003b08:	f20f0b0b 	vqdmulh.s<illegal width 8>	d0, d15, d11
 8003b0c:	f802fcfb 			; <UNDEFINED> instruction: 0xf802fcfb
 8003b10:	05000007 	streq	r0, [r0, #-7]
 8003b14:	e0f7effb 	ldrsht	lr, [r7], #251	; 0xfb
 8003b18:	f8172b01 			; <UNDEFINED> instruction: 0xf8172b01
 8003b1c:	f801fc08 			; <UNDEFINED> instruction: 0xf801fc08
 8003b20:	f40a1d09 			; <UNDEFINED> instruction: 0xf40a1d09
 8003b24:	f900fb00 			; <UNDEFINED> instruction: 0xf900fb00
 8003b28:	f6fe1510 			; <UNDEFINED> instruction: 0xf6fe1510
 8003b2c:	0205fe01 	andeq	pc, r5, #1, 28
 8003b30:	fffb1213 			; <UNDEFINED> instruction: 0xfffb1213
 8003b34:	100800fd 	strdne	r0, [r8], -sp
 8003b38:	f4e51808 	vld1.32	{d17[0]}, [r5], r8
 8003b3c:	0501f9f8 	streq	pc, [r1, #-2552]	; 0xfffff608
 8003b40:	fbcb0706 	blx	72c5762 <__text_size__+0x72c147e>
 8003b44:	f1fbfff8 			; <UNDEFINED> instruction: 0xf1fbfff8
 8003b48:	07f7040d 	ldrbeq	r0, [r7, sp, lsl #8]!
 8003b4c:	0006f904 	andeq	pc, r6, r4, lsl #18
 8003b50:	0500fbfe 	streq	pc, [r0, #-3070]	; 0xfffff402
 8003b54:	f0e7f0fb 			; <UNDEFINED> instruction: 0xf0e7f0fb
 8003b58:	f5101c1d 			; <UNDEFINED> instruction: 0xf5101c1d
 8003b5c:	fcf0f7fc 	ldc2l	7, cr15, [r0], #1008	; 0x3f0
 8003b60:	fb011119 	blx	8047fce <_sidata+0x43b5a>
 8003b64:	01f6fa01 	mvnseq	pc, r1, lsl #20
 8003b68:	02fd0316 	rscseq	r0, sp, #1476395008	; 0x58000000
 8003b6c:	0cfafb07 	fldmiaxeq	sl!, {d31-d33}	;@ Deprecated
 8003b70:	03ff0315 	mvnseq	r0, #1409286144	; 0x54000000
 8003b74:	080000ff 	stmdaeq	r0, {r0, r1, r2, r3, r4, r5, r6, r7}
 8003b78:	f802fb0a 			; <UNDEFINED> instruction: 0xf802fb0a
 8003b7c:	070500fa 			; <UNDEFINED> instruction: 0x070500fa
 8003b80:	e500f116 	str	pc, [r0, #-278]	; 0xfffffeea
 8003b84:	f4deeb02 			; <UNDEFINED> instruction: 0xf4deeb02
 8003b88:	f6feb80c 			; <UNDEFINED> instruction: 0xf6feb80c
 8003b8c:	00fd0700 	rscseq	r0, sp, r0, lsl #14
 8003b90:	fcf80400 	ldc2l	4, cr0, [r8]
 8003b94:	f9fdf304 			; <UNDEFINED> instruction: 0xf9fdf304
 8003b98:	070520e1 	streq	r2, [r5, -r1, ror #1]
 8003b9c:	ff00fe04 			; <UNDEFINED> instruction: 0xff00fe04
 8003ba0:	f4fb13fb 			; <UNDEFINED> instruction: 0xf4fb13fb
 8003ba4:	0201fb07 	andeq	pc, r1, #7168	; 0x1c00
 8003ba8:	f5fd0e00 			; <UNDEFINED> instruction: 0xf5fd0e00
 8003bac:	0400fef9 	streq	pc, [r0], #-3833	; 0xfffff107
 8003bb0:	fcf61004 	ldc2l	0, cr1, [r6], #16
 8003bb4:	0702fdff 			; <UNDEFINED> instruction: 0x0702fdff
 8003bb8:	fce30f0e 	stc2l	15, cr0, [r3], #56	; 0x38
 8003bbc:	0705fdff 			; <UNDEFINED> instruction: 0x0705fdff
 8003bc0:	00c40f01 	sbceq	r0, r4, r1, lsl #30
 8003bc4:	fcff07f9 	ldc2l	7, cr0, [pc], #996	; 8003fb0 <_ZL15layer_4_weights+0xda4>
 8003bc8:	0abb05f1 	beq	6ec5394 <__text_size__+0x6ec10b0>
 8003bcc:	05fb07f9 	ldrbeq	r0, [fp, #2041]!	; 0x7f9
 8003bd0:	020401fa 	andeq	r0, r4, #-2147483586	; 0x8000003e
 8003bd4:	eceaf0fd 	stcl	0, cr15, [sl], #1012	; 0x3f4
 8003bd8:	f0ff0f02 			; <UNDEFINED> instruction: 0xf0ff0f02
 8003bdc:	fcfbfd00 	ldc2l	13, cr15, [fp]
 8003be0:	f4ee0708 	vld4.16	{d16[0],d17[0],d18[0],d19[0]}, [lr], r8
 8003be4:	fef3fa02 			; <UNDEFINED> instruction: 0xfef3fa02
 8003be8:	f7f70105 			; <UNDEFINED> instruction: 0xf7f70105
 8003bec:	02fbfa06 	rscseq	pc, fp, #24576	; 0x6000
 8003bf0:	ecf60607 	ldcl	6, cr0, [r6], #28
 8003bf4:	fef6f8ff 	mrc2	8, 7, pc, cr6, cr15, {7}
 8003bf8:	00ee0c05 	rsceq	r0, lr, r5, lsl #24
 8003bfc:	fbf3fafb 	blx	7d027f2 <__text_size__+0x7cfe50e>
 8003c00:	10fefefc 	ldrshtne	pc, [lr], #236	; 0xec	; <UNPREDICTABLE>
 8003c04:	f9f10100 			; <UNDEFINED> instruction: 0xf9f10100
 8003c08:	0d080116 	stfeqs	f0, [r8, #-88]	; 0xffffffa8
 8003c0c:	08f9f803 	ldmeq	r9!, {r0, r1, fp, ip, sp, lr, pc}^
 8003c10:	0502f9fa 	streq	pc, [r2, #-2554]	; 0xfffff606
 8003c14:	0c090800 	stceq	8, cr0, [r9], {-0}
 8003c18:	140d1411 	strne	r1, [sp], #-1041	; 0xfffffbef
 8003c1c:	0f0d12fc 	svceq	0x000d12fc
 8003c20:	170e080c 	strne	r0, [lr, -ip, lsl #16]
 8003c24:	080a0204 	stmdaeq	sl, {r2, r9}
 8003c28:	0c140303 	ldceq	3, cr0, [r4], {3}
 8003c2c:	0d0d0604 	stceq	6, cr0, [sp, #-16]
 8003c30:	0f140506 	svceq	0x00140506
 8003c34:	11130f00 	tstne	r3, r0, lsl #30
 8003c38:	121a1213 	andsne	r1, sl, #805306369	; 0x30000001
 8003c3c:	ff0d1204 			; <UNDEFINED> instruction: 0xff0d1204
 8003c40:	0e190412 	cfmvrdleq	r0, mvd9
 8003c44:	040b0c04 	streq	r0, [fp], #-3076	; 0xfffff3fc
 8003c48:	0d140a08 	vldreq	s0, [r4, #-32]	; 0xffffffe0
 8003c4c:	ff00fe01 			; <UNDEFINED> instruction: 0xff00fe01
 8003c50:	fafb0004 	blx	7ec3c68 <__text_size__+0x7ebf984>
 8003c54:	100c0dfe 	strdne	r0, [ip], -lr
 8003c58:	0e0b0604 	cfmadd32eq	mvax0, mvfx0, mvfx11, mvfx4
 8003c5c:	060706fe 			; <UNDEFINED> instruction: 0x060706fe
 8003c60:	110c0d01 	tstne	ip, r1, lsl #26
 8003c64:	04030005 	streq	r0, [r3], #-5
 8003c68:	11111102 	tstne	r1, r2, lsl #2
 8003c6c:	0601fe00 	streq	pc, [r1], -r0, lsl #28
 8003c70:	19190e0d 	ldmdbne	r9, {r0, r2, r3, r9, sl, fp}
 8003c74:	0a0e02f9 	beq	8384860 <_sidata+0x3803ec>
 8003c78:	0f151105 	svceq	0x00151105
 8003c7c:	0eff0303 	cdpeq	3, 15, cr0, cr15, cr3, {0}
 8003c80:	14090c0f 	strne	r0, [r9], #-3087	; 0xfffff3f1
 8003c84:	130e0b00 	movwne	r0, #60160	; 0xeb00
 8003c88:	0e0f1314 	mcreq	3, 0, r1, cr15, cr4, {0}
 8003c8c:	07f90506 	ldrbeq	r0, [r9, r6, lsl #10]!
 8003c90:	ff06fefb 			; <UNDEFINED> instruction: 0xff06fefb
 8003c94:	f8fc0d00 			; <UNDEFINED> instruction: 0xf8fc0d00
 8003c98:	ff0c13fb 			; <UNDEFINED> instruction: 0xff0c13fb
 8003c9c:	fef7fdfa 	vudot.u8	<illegal reg q15.5>, <illegal reg q11.5>, d10[1]
 8003ca0:	fa1104f1 	blx	844506c <_sidata+0x440bf8>
 8003ca4:	fffdfcfb 			; <UNDEFINED> instruction: 0xfffdfcfb
 8003ca8:	f70b10fd 			; <UNDEFINED> instruction: 0xf70b10fd
 8003cac:	fa00fb02 	blx	80428bc <_sidata+0x3e448>
 8003cb0:	da10130a 	ble	84088e0 <_sidata+0x40446c>
 8003cb4:	f9fe0100 			; <UNDEFINED> instruction: 0xf9fe0100
 8003cb8:	df121303 	svcle	0x00121303
 8003cbc:	fc020400 	stc2	4, cr0, [r2], {-0}
 8003cc0:	da0a1203 	ble	82884d4 <_sidata+0x284060>
 8003cc4:	03ff0afb 	mvnseq	r0, #1028096	; 0xfb000
 8003cc8:	dafd0c02 	ble	7f46cd8 <__text_size__+0x7f429f4>
 8003ccc:	0507fbf9 	streq	pc, [r7, #-3065]	; 0xfffff407
 8003cd0:	fbf80306 	blx	7e048f2 <__text_size__+0x7e0060e>
 8003cd4:	fbfb0000 	blx	7ec3cde <__text_size__+0x7ebf9fa>
 8003cd8:	1301fcfc 	movwne	pc, #7420	; 0x1cfc	; <UNPREDICTABLE>
 8003cdc:	fb0000fd 	blx	80040da <_ZL15layer_4_weights+0xece>
 8003ce0:	17f9f5fc 			; <UNDEFINED> instruction: 0x17f9f5fc
 8003ce4:	fdfffafa 	ldc2l	10, cr15, [pc, #1000]!	; 80040d4 <_ZL15layer_4_weights+0xec8>	; <UNPREDICTABLE>
 8003ce8:	26f9f2fe 			; <UNDEFINED> instruction: 0x26f9f2fe
 8003cec:	fcfefb00 	ldc2l	11, cr15, [lr]	; <UNPREDICTABLE>
 8003cf0:	1208f4f5 	andne	pc, r8, #-184549376	; 0xf5000000
 8003cf4:	fbfdfff9 	blx	7f83ce2 <__text_size__+0x7f7f9fe>
 8003cf8:	0416ede6 	ldreq	lr, [r6], #-3558	; 0xfffff21a
 8003cfc:	09050700 	stmdbeq	r5, {r8, r9, sl}
 8003d00:	0430efed 	ldrteq	lr, [r0], #-4077	; 0xfffff013
 8003d04:	00281f05 	eoreq	r1, r8, r5, lsl #30
 8003d08:	0013ebf5 			; <UNDEFINED> instruction: 0x0013ebf5
 8003d0c:	00080200 	andeq	r0, r8, r0, lsl #4
 8003d10:	00fc0707 	rscseq	r0, ip, r7, lsl #14
 8003d14:	00050000 	andeq	r0, r5, r0
 8003d18:	19fafcf3 	ldmibne	sl!, {r0, r1, r4, r5, r6, r7, sl, fp, ip, sp, lr, pc}^
 8003d1c:	fd00f7ff 	stc2	7, cr15, [r0, #-1020]	; 0xfffffc04
 8003d20:	120af5f3 	andne	pc, sl, #1019215872	; 0x3cc00000
 8003d24:	f6faf6fa 			; <UNDEFINED> instruction: 0xf6faf6fa
 8003d28:	001b00ee 	andseq	r0, fp, lr, ror #1
 8003d2c:	f8faf4fc 			; <UNDEFINED> instruction: 0xf8faf4fc
 8003d30:	e31bfff8 	tst	fp, #248, 30	; 0x3e0	; <UNPREDICTABLE>
 8003d34:	fb00fffd 	blx	8043d32 <_sidata+0x3f8be>
 8003d38:	d021020d 	eorle	r0, r1, sp, lsl #4
 8003d3c:	00fcf600 	rscseq	pc, ip, r0, lsl #12
 8003d40:	d512080d 	ldrle	r0, [r2, #-2061]	; 0xfffff7f3
 8003d44:	fef7f807 	vcmla.f32	d31, d7, d7[0], #270
 8003d48:	defc0302 	cdple	3, 15, cr0, cr12, cr2, {0}
 8003d4c:	04fdfbfd 	ldrbteq	pc, [sp], #3069	; 0xbfd	; <UNPREDICTABLE>
 8003d50:	08000700 	stmdaeq	r0, {r8, r9, sl}
 8003d54:	fe030006 	cdp2	0, 0, cr0, cr3, cr6, {0}
 8003d58:	0801f501 	stmdaeq	r1, {r0, r8, sl, ip, sp, lr, pc}
 8003d5c:	f4f3f407 			; <UNDEFINED> instruction: 0xf4f3f407
 8003d60:	ff0df3f8 			; <UNDEFINED> instruction: 0xff0df3f8
 8003d64:	ecf5f600 	ldcl	6, cr15, [r5]
 8003d68:	021610fb 	andseq	r1, r6, #251	; 0xfb
 8003d6c:	f8f7f9f8 			; <UNDEFINED> instruction: 0xf8f7f9f8
 8003d70:	07052008 	streq	r2, [r5, -r8]
 8003d74:	0efcfd03 	cdpeq	13, 15, cr15, cr12, cr3, {0}
 8003d78:	1be32314 	blne	78cc9d0 <__text_size__+0x78c86ec>
 8003d7c:	100a0208 	andne	r0, sl, r8, lsl #4
 8003d80:	1cc92204 	sfmne	f2, 2, [r9], {4}
 8003d84:	1c0b0bfa 			; <UNDEFINED> instruction: 0x1c0b0bfa
 8003d88:	15d02408 	ldrbne	r2, [r0, #1032]	; 0x408
 8003d8c:	ff020103 			; <UNDEFINED> instruction: 0xff020103
 8003d90:	08f9fbfa 	ldmeq	r9!, {r1, r3, r4, r5, r6, r7, r8, r9, fp, ip, sp, lr, pc}^
 8003d94:	fbfffefa 	blx	8003986 <_ZL15layer_4_weights+0x77a>
 8003d98:	fb00fdfe 	blx	804359a <_sidata+0x3f126>
 8003d9c:	fafbf800 	blx	7f01da4 <__text_size__+0x7efdac0>
 8003da0:	100afbfd 	strdne	pc, [sl], -sp
 8003da4:	fbfef0f8 	blx	7fc018e <__text_size__+0x7fbbeaa>
 8003da8:	0d0afbfc 	vstreq	d15, [sl, #-1008]	; 0xfffffc10
 8003dac:	fffef503 			; <UNDEFINED> instruction: 0xfffef503
 8003db0:	e91af6f3 	ldmdb	sl, {r0, r1, r4, r5, r6, r7, r9, sl, ip, sp, lr, pc}
 8003db4:	0500fe01 	streq	pc, [r0, #-3585]	; 0xfffff1ff
 8003db8:	d027f5fd 	strdle	pc, [r7], -sp	; <UNPREDICTABLE>
 8003dbc:	00fef808 	rscseq	pc, lr, r8, lsl #16
 8003dc0:	bd39ec09 	ldclt	12, cr14, [r9, #-36]!	; 0xffffffdc
 8003dc4:	f1f4fafb 			; <UNDEFINED> instruction: 0xf1f4fafb
 8003dc8:	c237ee0a 	eorsgt	lr, r7, #10, 28	; 0xa0
 8003dcc:	f801f901 			; <UNDEFINED> instruction: 0xf801f901
 8003dd0:	fcfb02ff 	ldc2l	2, cr0, [fp], #1020	; 0x3fc
 8003dd4:	02080007 	andeq	r0, r8, #7
 8003dd8:	fe0ef902 	vseleq.f16	s30, s28, s4
 8003ddc:	f2f4f402 	vext.8	d31, d4, d2, #4
 8003de0:	f616f8f7 	pldw	[r6], -r7	; <illegal shifter operand>
 8003de4:	e9eff0fb 	stmib	pc!, {r0, r1, r3, r4, r5, r6, r7, ip, sp, lr, pc}^	; <UNPREDICTABLE>
 8003de8:	f61606f0 			; <UNDEFINED> instruction: 0xf61606f0
 8003dec:	f6ecf500 			; <UNDEFINED> instruction: 0xf6ecf500
 8003df0:	f5101300 			; <UNDEFINED> instruction: 0xf5101300
 8003df4:	06fffbf9 			; <UNDEFINED> instruction: 0x06fffbf9
 8003df8:	deff1412 	mrcle	4, 7, r1, cr15, cr2, {0}
 8003dfc:	0f02fb05 	svceq	0x0002fb05
 8003e00:	dcec0703 	stclle	7, cr0, [ip], #12
 8003e04:	feeded06 	vsdot.s8	d30, d13, d6[0]
 8003e08:	fdcff0ed 	stc2l	0, cr15, [pc, #948]	; 80041c4 <_ZL15layer_4_weights+0xfb8>
 8003e0c:	05fd00fa 	ldrbeq	r0, [sp, #250]!	; 0xfa
 8003e10:	080008fb 	stmdaeq	r0, {r0, r1, r3, r4, r5, r6, r7, fp}
 8003e14:	051209fc 	ldreq	r0, [r2, #-2556]	; 0xfffff604
 8003e18:	0d0f0d07 	stceq	13, cr0, [pc, #-28]	; 8003e04 <_ZL15layer_4_weights+0xbf8>
 8003e1c:	0f000a07 	svceq	0x00000a07
 8003e20:	11080e01 	tstne	r8, r1, lsl #28
 8003e24:	0a0905fb 	beq	8245618 <_sidata+0x2411a4>
 8003e28:	15060707 	strne	r0, [r6, #-1799]	; 0xfffff8f9
 8003e2c:	030205fc 	movweq	r0, #9724	; 0x25fc
 8003e30:	100b0b08 	andne	r0, fp, r8, lsl #22
 8003e34:	06fc01fb 			; <UNDEFINED> instruction: 0x06fc01fb
 8003e38:	0703fc00 	streq	pc, [r3, -r0, lsl #24]
 8003e3c:	0b06fbfc 	bleq	81c2e34 <_sidata+0x1be9c0>
 8003e40:	180a0afe 	stmdane	sl, {r1, r2, r3, r4, r5, r6, r7, r9, fp}
 8003e44:	fffd05fc 			; <UNDEFINED> instruction: 0xfffd05fc
 8003e48:	0e060d0c 	cdpeq	13, 0, cr0, cr6, cr12, {0}
 8003e4c:	fbfd07fb 	blx	7f45e42 <__text_size__+0x7f41b5e>
 8003e50:	07fff9fd 			; <UNDEFINED> instruction: 0x07fff9fd
 8003e54:	080802fc 	stmdaeq	r8, {r2, r3, r4, r5, r6, r7, r9}
 8003e58:	0a0a140f 	beq	8288e9c <_sidata+0x284a28>
 8003e5c:	0a0e0cfe 	beq	838725c <_sidata+0x382de8>
 8003e60:	07070e0a 	streq	r0, [r7, -sl, lsl #28]
 8003e64:	0f0a0dff 	svceq	0x000a0dff
 8003e68:	09030a0a 	stmdbeq	r3, {r1, r3, r9, fp}
 8003e6c:	fe000501 	cdp2	5, 0, cr0, cr0, cr1, {0}
 8003e70:	100ffe00 	andne	pc, pc, r0, lsl #28
 8003e74:	01fe0600 	mvnseq	r0, r0, lsl #12
 8003e78:	13090600 	movwne	r0, #38400	; 0x9600
 8003e7c:	fcfb0100 	ldc2l	1, cr0, [fp]
 8003e80:	11060400 	tstne	r6, r0, lsl #8
 8003e84:	fefe0000 	cdp2	0, 15, cr0, cr14, cr0, {0}
 8003e88:	0f0a0d01 	svceq	0x000a0d01
 8003e8c:	fafa0102 	blx	7e8429c <__text_size__+0x7e7ffb8>
 8003e90:	fb0008f9 	blx	800627e <_sidata+0x1e0a>
 8003e94:	0cff02fa 	lfmeq	f0, 2, [pc], #1000	; 8004284 <_ZTV4TI2CILh1ELh7ELh6ELh10ELh1EE+0x24>
 8003e98:	040bfdfc 	streq	pc, [fp], #-3580	; 0xfffff204
 8003e9c:	00080b03 	andeq	r0, r8, r3, lsl #22
 8003ea0:	0109fefe 	strdeq	pc, [r9, -lr]
 8003ea4:	0afd0707 	beq	7f45ac8 <__text_size__+0x7f417e4>
 8003ea8:	11010302 	tstne	r1, r2, lsl #6
 8003eac:	fcfdf7ff 	ldc2l	7, cr15, [sp], #1020	; 0x3fc
 8003eb0:	1313fefa 	tstne	r3, #4000	; 0xfa0	; <UNPREDICTABLE>
 8003eb4:	00effa06 	rsceq	pc, pc, r6, lsl #20
 8003eb8:	0a18fdfb 	beq	86436ac <_sidata+0x63f238>
 8003ebc:	ff00fc04 			; <UNDEFINED> instruction: 0xff00fc04
 8003ec0:	060bfbfd 			; <UNDEFINED> instruction: 0x060bfbfd
 8003ec4:	02fdefff 	rscseq	lr, sp, #1020	; 0x3fc
 8003ec8:	0000f908 	andeq	pc, r0, r8, lsl #18
 8003ecc:	03ff0107 	mvnseq	r0, #-1073741823	; 0xc0000001
 8003ed0:	000302fc 	strdeq	r0, [r3], -ip
 8003ed4:	01050602 	tsteq	r5, r2, lsl #12
 8003ed8:	08f70800 	ldmeq	r7!, {fp}^
 8003edc:	fffd02ff 			; <UNDEFINED> instruction: 0xfffd02ff
 8003ee0:	0bfd08ff 	bleq	7f462e4 <__text_size__+0x7f42000>
 8003ee4:	fdfd0005 	ldc2l	0, cr0, [sp, #20]!
 8003ee8:	1efb05fc 	mrcne	5, 7, r0, cr11, cr12, {7}
 8003eec:	fc02feff 	stc2	14, cr15, [r2], {255}	; 0xff
 8003ef0:	39e3fdfb 	stmibcc	r3!, {r0, r1, r3, r4, r5, r6, r7, r8, sl, fp, ip, sp, lr, pc}^
 8003ef4:	fe04fe05 	cdp2	14, 0, cr15, cr4, cr5, {0}
 8003ef8:	2ddafdf7 	ldclcs	13, cr15, [sl, #988]	; 0x3dc
 8003efc:	00010206 	andeq	r0, r1, r6, lsl #4
 8003f00:	16ebebea 	strbtne	lr, [fp], sl, ror #23
 8003f04:	ea032c07 	b	80cef28 <_sidata+0xcaab4>
 8003f08:	05fe00f3 	ldrbeq	r0, [lr, #243]!	; 0xf3
 8003f0c:	fcfcfc04 	ldc2l	12, cr15, [ip], #16
 8003f10:	fafd0005 	blx	7f43f2c <__text_size__+0x7f3fc48>
 8003f14:	0b040a03 	bleq	8106728 <_sidata+0x1022b4>
 8003f18:	ea240300 	b	8904b20 <_sidata+0x9006ac>
 8003f1c:	03000301 	movweq	r0, #769	; 0x301
 8003f20:	fa0d0100 	blx	8344328 <_sidata+0x33feb4>
 8003f24:	080a0607 	stmdaeq	sl, {r0, r1, r2, r9, sl}
 8003f28:	0d09f904 	vstreq.16	s30, [r9, #-8]	; <UNPREDICTABLE>
 8003f2c:	0003ff03 	andeq	pc, r3, r3, lsl #30
 8003f30:	0722f3f5 			; <UNDEFINED> instruction: 0x0722f3f5
 8003f34:	ecf5e5fb 	cfldr64	mvdx14, [r5], #1004	; 0x3ec
 8003f38:	152fe4f1 	strne	lr, [pc, #-1265]!	; 8003a4f <_ZL15layer_4_weights+0x843>
 8003f3c:	0800eff9 	stmdaeq	r0, {r0, r3, r4, r5, r6, r7, r8, r9, sl, fp, sp, lr, pc}
 8003f40:	f925e500 			; <UNDEFINED> instruction: 0xf925e500
 8003f44:	04fbf107 	ldrbteq	pc, [fp], #263	; 0x107	; <UNPREDICTABLE>
 8003f48:	e406f602 	str	pc, [r6], #-1538	; 0xfffff9fe
 8003f4c:	030605fc 	movweq	r0, #26108	; 0x65fc
 8003f50:	fefefbf9 	mrc2	11, 7, pc, cr14, cr9, {7}	; <UNPREDICTABLE>
 8003f54:	05070907 	streq	r0, [r7, #-2311]	; 0xfffff6f9
 8003f58:	f90c1509 			; <UNDEFINED> instruction: 0xf90c1509
 8003f5c:	040c0dfd 	streq	r0, [ip], #-3581	; 0xfffff203
 8003f60:	f7031304 			; <UNDEFINED> instruction: 0xf7031304
 8003f64:	090300fc 	stmdbeq	r3, {r2, r3, r4, r5, r6, r7}
 8003f68:	e2fefffb 	rscs	pc, lr, #1004	; 0x3ec
 8003f6c:	eeecedf9 	mcr	13, 7, lr, cr12, cr9, {7}
 8003f70:	ca1cece9 	bgt	873f31c <_sidata+0x73aea8>
 8003f74:	e6e6f304 	strbt	pc, [r6], r4, lsl #6	; <UNPREDICTABLE>
 8003f78:	9f230ff1 	svcls	0x00230ff1
 8003f7c:	00edea02 	rsceq	lr, sp, r2, lsl #20
 8003f80:	ac1a1e03 	ldcge	14, cr1, [sl], {3}
 8003f84:	1b1c0008 	blne	8703fac <_sidata+0x6ffb38>
 8003f88:	fbf824ff 	blx	7e0d38e <__text_size__+0x7e090aa>
 8003f8c:	04fff9fa 	ldrbteq	pc, [pc], #2554	; 8003f94 <_ZL15layer_4_weights+0xd88>	; <UNPREDICTABLE>
 8003f90:	040104fd 	streq	r0, [r1], #-1277	; 0xfffffb03
 8003f94:	04010d01 	streq	r0, [r1], #-3329	; 0xfffff2ff
 8003f98:	12fd0302 	rscsne	r0, sp, #134217728	; 0x8000000
 8003f9c:	01030904 	tsteq	r3, r4, lsl #18
 8003fa0:	01f90403 	mvnseq	r0, r3, lsl #8
 8003fa4:	03040fff 	movweq	r0, #20479	; 0x4fff
 8003fa8:	12f10402 	rscsne	r0, r1, #33554432	; 0x2000000
 8003fac:	fc00fdf8 	stc2	13, cr15, [r0], {248}	; 0xf8
 8003fb0:	33dff9fa 	bicscc	pc, pc, #4096000	; 0x3e8000
 8003fb4:	f7fbeaff 			; <UNDEFINED> instruction: 0xf7fbeaff
 8003fb8:	3ef7fcf4 	mrccc	12, 7, APSR_nzcv, cr7, cr4, {7}
 8003fbc:	0000f902 	andeq	pc, r0, r2, lsl #18
 8003fc0:	17ecf8fb 			; <UNDEFINED> instruction: 0x17ecf8fb
 8003fc4:	f6f40000 			; <UNDEFINED> instruction: 0xf6f40000
 8003fc8:	01f1f8f2 	ldrsheq	pc, [r1, #130]!	; 0x82	; <UNPREDICTABLE>
 8003fcc:	050106ff 	streq	r0, [r1, #-1791]	; 0xfffff901
 8003fd0:	02faf800 	rscseq	pc, sl, #0, 16
 8003fd4:	00070500 	andeq	r0, r7, r0, lsl #10
 8003fd8:	17f51304 	ldrbne	r1, [r5, r4, lsl #6]!
 8003fdc:	0f0d0fff 	svceq	0x000d0fff
 8003fe0:	10ee0c0b 	rscne	r0, lr, fp, lsl #24
 8003fe4:	12101208 	andsne	r1, r0, #8, 4	; 0x80000000
 8003fe8:	02f90513 	rscseq	r0, r9, #79691776	; 0x4c00000
 8003fec:	f5fbfb00 			; <UNDEFINED> instruction: 0xf5fbfb00
 8003ff0:	090bfef1 	stmdbeq	fp, {r0, r4, r5, r6, r7, r9, sl, fp, ip, sp, lr, pc}
 8003ff4:	e0dbdcfd 	ldrsh	sp, [fp], #205	; 0xcd
 8003ff8:	3713fee8 	ldrcc	pc, [r3, -r8, ror #29]
 8003ffc:	faf3eeff 	blx	7cffc00 <__text_size__+0x7cfb91c>
 8004000:	0af51503 	beq	7d49414 <__text_size__+0x7d45130>
 8004004:	1105f6fc 	strdne	pc, [r5, -ip]
 8004008:	bdc7fd09 	stcllt	13, cr15, [r7, #36]	; 0x24
 800400c:	f8080301 			; <UNDEFINED> instruction: 0xf8080301
 8004010:	06fc05fa 			; <UNDEFINED> instruction: 0x06fc05fa
 8004014:	010b0dfd 	strdeq	r0, [fp, -sp]
 8004018:	06ff00fb 			; <UNDEFINED> instruction: 0x06ff00fb
 800401c:	0b0602fb 	bleq	8184c10 <_sidata+0x18079c>
 8004020:	0600030b 	streq	r0, [r0], -fp, lsl #6
 8004024:	030a11fc 	movweq	r1, #41468	; 0xa1fc
 8004028:	0a090409 	beq	8245054 <_sidata+0x240be0>
 800402c:	060f05fb 			; <UNDEFINED> instruction: 0x060f05fb
 8004030:	07fc0701 	ldrbeq	r0, [ip, r1, lsl #14]!
 8004034:	0a070b07 	beq	81c6c58 <_sidata+0x1c27e4>
 8004038:	16ffff08 	ldrbtne	pc, [pc], r8, lsl #30	; <UNPREDICTABLE>
 800403c:	04080506 	streq	r0, [r8], #-1286	; 0xfffffafa
 8004040:	08010bf6 	stmdaeq	r1, {r1, r2, r4, r5, r6, r7, r8, r9, fp}
 8004044:	fc030001 	stc2	0, cr0, [r3], {1}
 8004048:	1010ff0a 	andsne	pc, r0, sl, lsl #30
 800404c:	ff04fbff 			; <UNDEFINED> instruction: 0xff04fbff
 8004050:	ff0005fb 			; <UNDEFINED> instruction: 0xff0005fb
 8004054:	0a0805fe 	beq	8205854 <_sidata+0x2013e0>
 8004058:	0909f703 	stmdbeq	r9, {r0, r1, r8, r9, sl, ip, sp, lr, pc}
 800405c:	ff0611f9 			; <UNDEFINED> instruction: 0xff0611f9
 8004060:	14090003 	strne	r0, [r9], #-3
 8004064:	0f060903 	svceq	0x00060903
 8004068:	100cfd09 	andne	pc, ip, r9, lsl #26
 800406c:	10100303 	andsne	r0, r0, r3, lsl #6
 8004070:	0d02fe03 	stceq	14, cr15, [r2, #-12]
 8004074:	02ff0602 	rscseq	r0, pc, #2097152	; 0x200000
 8004078:	150e0209 	strne	r0, [lr, #-521]	; 0xfffffdf7
 800407c:	fd000100 	stc2	1, cr0, [r0, #-0]
 8004080:	091803ff 	ldmdbeq	r8, {r0, r1, r2, r3, r4, r5, r6, r7, r8, r9}
 8004084:	fffd03ff 			; <UNDEFINED> instruction: 0xfffd03ff
 8004088:	0e190600 	cfmsub32eq	mvax0, mvfx0, mvfx9, mvfx0
 800408c:	fefffe05 	cdp2	14, 15, cr15, cr15, cr5, {0}
 8004090:	05040105 	streq	r0, [r4, #-261]	; 0xfffffefb
 8004094:	ff08fbfa 			; <UNDEFINED> instruction: 0xff08fbfa
 8004098:	140df305 	strne	pc, [sp], #-773	; 0xfffffcfb
 800409c:	040806fe 	streq	r0, [r8], #-1790	; 0xfffff902
 80040a0:	09fffd09 	ldmibeq	pc!, {r0, r3, r8, sl, fp, ip, sp, lr, pc}^	; <UNPREDICTABLE>
 80040a4:	f7050205 			; <UNDEFINED> instruction: 0xf7050205
 80040a8:	1603f5ff 			; <UNDEFINED> instruction: 0x1603f5ff
 80040ac:	ff03f900 			; <UNDEFINED> instruction: 0xff03f900
 80040b0:	0e0e0103 	adfeqe	f0, f6, f3
 80040b4:	f7fb0306 			; <UNDEFINED> instruction: 0xf7fb0306
 80040b8:	130707ff 	movwne	r0, #30719	; 0x77ff
 80040bc:	f7f5f805 			; <UNDEFINED> instruction: 0xf7f5f805
 80040c0:	1e110cf7 	mrcne	12, 0, r0, cr1, cr7, {7}
 80040c4:	01ebe6fe 	strdeq	lr, [fp, #110]!	; 0x6e
 80040c8:	060ff3fd 			; <UNDEFINED> instruction: 0x060ff3fd
 80040cc:	07f9fe03 	ldrbeq	pc, [r9, r3, lsl #28]!	; <UNPREDICTABLE>
 80040d0:	0005f903 	andeq	pc, r5, r3, lsl #18
 80040d4:	faf4f507 	blx	7d414f8 <__text_size__+0x7d3d214>
 80040d8:	dd09f7f8 	stcle	7, cr15, [r9, #-992]	; 0xfffffc20
 80040dc:	f6f4fafb 			; <UNDEFINED> instruction: 0xf6f4fafb
 80040e0:	de08f2f7 	mcrle	2, 0, pc, cr8, cr7, {7}	; <UNPREDICTABLE>
 80040e4:	f6f9fc03 			; <UNDEFINED> instruction: 0xf6f9fc03
 80040e8:	d009f4fa 	strdle	pc, [r9], -sl
 80040ec:	f9f4faff 			; <UNDEFINED> instruction: 0xf9f4faff
 80040f0:	cc0ef6f8 	stcgt	6, cr15, [lr], {248}	; 0xf8
 80040f4:	f8fdf408 			; <UNDEFINED> instruction: 0xf8fdf408
 80040f8:	e610f0f7 			; <UNDEFINED> instruction: 0xe610f0f7
 80040fc:	ff02effb 			; <UNDEFINED> instruction: 0xff02effb
 8004100:	12edebf7 	rscne	lr, sp, #252928	; 0x3dc00
 8004104:	fdead500 	stc2l	5, cr13, [sl]
 8004108:	0cf0e5eb 	cfldr64eq	mvdx14, [r0], #940	; 0x3ac
 800410c:	0400fd03 	streq	pc, [r0], #-3331	; 0xfffff2fd
 8004110:	06000306 	streq	r0, [r0], -r6, lsl #6
 8004114:	f9f805fe 			; <UNDEFINED> instruction: 0xf9f805fe
 8004118:	1dccf804 	stclne	8, cr15, [ip, #16]
 800411c:	f9fd0607 			; <UNDEFINED> instruction: 0xf9fd0607
 8004120:	0ee1fcfc 	mcreq	12, 7, pc, cr1, cr12, {7}	; <UNPREDICTABLE>
 8004124:	fafd0300 	blx	7f44d2c <__text_size__+0x7f40a48>
 8004128:	08ddfefe 	ldmeq	sp, {r1, r2, r3, r4, r5, r6, r7, r9, sl, fp, ip, sp, lr, pc}^
 800412c:	fc0406fa 	stc2	6, cr0, [r4], {250}	; 0xfa
 8004130:	20c30205 	sbccs	r0, r3, r5, lsl #4
 8004134:	000a0c05 	andeq	r0, sl, r5, lsl #24
 8004138:	2cc20001 	stclcs	0, cr0, [r2], {1}
 800413c:	faf0f4ff 	blx	7c41540 <__text_size__+0x7c3d25c>
 8004140:	3ee3f7f0 	mcrcc	7, 7, pc, cr3, cr0, {7}	; <UNPREDICTABLE>
 8004144:	03eff006 	mvneq	pc, #6
 8004148:	50210bf8 	strdpl	r0, [r1], -r8	; <UNPREDICTABLE>
 800414c:	02fe0004 	rscseq	r0, lr, #4
 8004150:	04fd0705 	ldrbteq	r0, [sp], #1797	; 0x705
 8004154:	090805fb 	stmdbeq	r8, {r0, r1, r3, r4, r5, r6, r7, r8, sl}
 8004158:	1904ef04 	stmdbne	r4, {r2, r8, r9, sl, fp, sp, lr, pc}
 800415c:	05040400 	streq	r0, [r4, #-1024]	; 0xfffffc00
 8004160:	2906f300 	stmdbcs	r6, {r8, r9, ip, sp, lr, pc}
 8004164:	08070afc 	stmdaeq	r7, {r2, r3, r4, r5, r6, r7, r9, fp}
 8004168:	3301fb07 	movwcc	pc, #6919	; 0x1b07	; <UNPREDICTABLE>
 800416c:	0f1618fc 	svceq	0x001618fc
 8004170:	3f02f708 	svccc	0x0002f708
 8004174:	0b0603fa 	bleq	8185164 <_sidata+0x180cf0>
 8004178:	6b08e0ff 	blvs	823c57c <_sidata+0x238108>
 800417c:	09030a01 	stmdbeq	r3, {r0, r9, fp}
 8004180:	4725e200 	strmi	lr, [r5, -r0, lsl #4]!
 8004184:	0601e705 	streq	lr, [r1], -r5, lsl #14
 8004188:	fa44fa08 	blx	91429b0 <_sidata+0x113e53c>
 800418c:	000001fd 	strdeq	r0, [r0], -sp
 8004190:	fcfb05f8 	ldc2l	5, cr0, [fp], #992	; 0x3e0
 8004194:	faf9f108 	blx	7e805bc <__text_size__+0x7e7c2d8>
 8004198:	f005f9f7 			; <UNDEFINED> instruction: 0xf005f9f7
 800419c:	fcfafb02 	ldc2l	11, cr15, [sl], #8	; <UNPREDICTABLE>
 80041a0:	fa09fbff 	blx	82831a4 <_sidata+0x27ed30>
 80041a4:	fdfdf406 	ldc2l	4, cr15, [sp, #24]!
 80041a8:	f00ff9fd 			; <UNDEFINED> instruction: 0xf00ff9fd
 80041ac:	00fffa01 	rscseq	pc, pc, r1, lsl #20
 80041b0:	ea0c0102 	b	83045c0 <_sidata+0x30014c>
 80041b4:	0000fcfc 	strdeq	pc, [r0], -ip
 80041b8:	eff7fcfd 	svc	0x00f7fcfd
 80041bc:	f4f3dc02 			; <UNDEFINED> instruction: 0xf4f3dc02
 80041c0:	241100f9 	ldrcs	r0, [r1], #-249	; 0xffffff07
 80041c4:	f8ffeb05 			; <UNDEFINED> instruction: 0xf8ffeb05
 80041c8:	391beef6 	ldmdbcc	fp, {r1, r2, r4, r5, r6, r7, r9, sl, fp, sp, lr, pc}
 80041cc:	00fbfcfa 	ldrshteq	pc, [fp], #202	; 0xca	; <UNPREDICTABLE>
 80041d0:	0501fe06 	streq	pc, [r1, #-3590]	; 0xfffff1fa
 80041d4:	03000104 	movweq	r0, #260	; 0x104
 80041d8:	f718f602 	pldw	[r8, -r2, lsl #12]
 80041dc:	00ffff00 	rscseq	pc, pc, r0, lsl #30
 80041e0:	fa1300fe 	blx	84c45e0 <_sidata+0x4c016c>
 80041e4:	0204f902 	andeq	pc, r4, #32768	; 0x8000
 80041e8:	04110000 	ldreq	r0, [r1], #-0
 80041ec:	110f06ff 	strdne	r0, [pc, -pc]
 80041f0:	fa0fff10 	blx	8403e38 <_sidata+0x3ff9c4>
 80041f4:	0e090a05 	vmlaeq.f32	s0, s18, s10
 80041f8:	e221f614 	eor	pc, r1, #20, 12	; 0x1400000
 80041fc:	eff1e403 	svc	0x00f1e403
 8004200:	2a4efffd 	bcs	93c41fc <_sidata+0x13bfd88>
 8004204:	ecdad601 	ldcl	6, cr13, [sl], {1}
 8004208:	697f19fd 	ldmdbvs	pc!, {r0, r2, r3, r4, r5, r6, r7, r8, fp, ip}^	; <UNPREDICTABLE>

0800420c <_ZL22layer_0_input_geometry>:
 800420c:	00000008 	andeq	r0, r0, r8
 8004210:	00000008 	andeq	r0, r0, r8
 8004214:	00000001 	andeq	r0, r0, r1

08004218 <_ZL23layer_0_kernel_geometry>:
 8004218:	00000003 	andeq	r0, r0, r3
 800421c:	00000003 	andeq	r0, r0, r3
 8004220:	00000008 	andeq	r0, r0, r8

08004224 <_ZL22layer_1_input_geometry>:
 8004224:	00000008 	andeq	r0, r0, r8
 8004228:	00000008 	andeq	r0, r0, r8
 800422c:	00000009 	andeq	r0, r0, r9

08004230 <_ZL22layer_3_input_geometry>:
 8004230:	00000008 	andeq	r0, r0, r8
 8004234:	00000008 	andeq	r0, r0, r8
 8004238:	00000008 	andeq	r0, r0, r8

0800423c <_ZL23layer_4_output_geometry>:
 800423c:	00000001 	andeq	r0, r0, r1
 8004240:	00000001 	andeq	r0, r0, r1
 8004244:	00000008 	andeq	r0, r0, r8

08004248 <_ZTV15LineTypeNetwork>:
 8004248:	00000000 	andeq	r0, r0, r0
 800424c:	00000000 	andeq	r0, r0, r0
 8004250:	08000e15 	stmdaeq	r0, {r0, r2, r4, r9, sl, fp}
 8004254:	08000e4d 	stmdaeq	r0, {r0, r2, r3, r6, r9, sl, fp}
 8004258:	08000643 	stmdaeq	r0, {r0, r1, r6, r9, sl}
 800425c:	08000791 	stmdaeq	r0, {r0, r4, r7, r8, r9, sl}

08004260 <_ZTV4TI2CILh1ELh7ELh6ELh10ELh1EE>:
 8004260:	00000000 	andeq	r0, r0, r0
 8004264:	00000000 	andeq	r0, r0, r0
 8004268:	08001111 	stmdaeq	r0, {r0, r4, r8, ip}
 800426c:	08001125 	stmdaeq	r0, {r0, r2, r5, r8, ip}
 8004270:	08001557 	stmdaeq	r0, {r0, r1, r2, r4, r6, r8, sl, ip}
 8004274:	08001511 	stmdaeq	r0, {r0, r4, r8, sl, ip}
 8004278:	08001385 	stmdaeq	r0, {r0, r2, r7, r8, r9, ip}
 800427c:	08001645 	stmdaeq	r0, {r0, r2, r6, r9, sl, ip}
 8004280:	0800159d 	stmdaeq	r0, {r0, r2, r3, r4, r7, r8, sl, ip}
 8004284:	74736509 	ldrbtvc	r6, [r3], #-1289	; 0xfffffaf7
 8004288:	756d695f 	strbvc	r6, [sp, #-2399]!	; 0xfffff6a1
 800428c:	6e65735f 	mcrvs	3, 3, r7, cr5, cr15, {2}
 8004290:	0a726f73 	beq	9ca0064 <_sidata+0x1c9bbf0>
 8004294:	203a2000 	eorscs	r2, sl, r0
 8004298:	0a0a0a00 	beq	8286aa0 <_sidata+0x28262c>
 800429c:	23232323 			; <UNDEFINED> instruction: 0x23232323
 80042a0:	0a0a0a23 	beq	8286b34 <_sidata+0x2826c0>
 80042a4:	72657400 	rsbvc	r7, r5, #0, 8
 80042a8:	616e696d 	cmnvs	lr, sp, ror #18
 80042ac:	6e69206c 	cdpvs	0, 6, cr2, cr9, cr12, {3}
 80042b0:	64207469 	strtvs	r7, [r0], #-1129	; 0xfffffb97
 80042b4:	0a656e6f 	beq	995fc78 <_sidata+0x195b804>
 80042b8:	6d656d00 	stclvs	13, cr6, [r5, #-0]
 80042bc:	696e6920 	stmdbvs	lr!, {r5, r8, fp, sp, lr}^
 80042c0:	6f642074 	svcvs	0x00642074
 80042c4:	202c656e 	eorcs	r6, ip, lr, ror #10
 80042c8:	70616568 	rsbvc	r6, r1, r8, ror #10
 80042cc:	61747320 	cmnvs	r4, r0, lsr #6
 80042d0:	61207472 			; <UNDEFINED> instruction: 0x61207472
 80042d4:	74002074 	strvc	r2, [r0], #-116	; 0xffffff8c
 80042d8:	72656d69 	rsbvc	r6, r5, #6720	; 0x1a40
 80042dc:	696e6920 	stmdbvs	lr!, {r5, r8, fp, sp, lr}^
 80042e0:	6f642074 	svcvs	0x00642074
 80042e4:	000a656e 	andeq	r6, sl, lr, ror #10
 80042e8:	616c6564 	cmnvs	ip, r4, ror #10
 80042ec:	30322079 	eorscc	r2, r2, r9, ror r0
 80042f0:	736d2030 	cmnvc	sp, #48	; 0x30
 80042f4:	32690020 	rsbcc	r0, r9, #32
 80042f8:	6e692063 	cdpvs	0, 6, cr2, cr9, cr3, {3}
 80042fc:	64207469 	strtvs	r7, [r0], #-1129	; 0xfffffb97
 8004300:	0a656e6f 	beq	995fcc4 <_sidata+0x195b850>
 8004304:	756d6900 	strbvc	r6, [sp, #-2304]!	; 0xfffff700
 8004308:	696e6920 	stmdbvs	lr!, {r5, r8, fp, sp, lr}^
 800430c:	6f642074 	svcvs	0x00642074
 8004310:	7720656e 	strvc	r6, [r0, -lr, ror #10]!
 8004314:	20687469 	rsbcs	r7, r8, r9, ror #8
 8004318:	6e696c00 	cdpvs	12, 6, cr6, cr9, cr0, {0}
 800431c:	65732065 	ldrbvs	r2, [r3, #-101]!	; 0xffffff9b
 8004320:	726f736e 	rsbvc	r7, pc, #-1207959551	; 0xb8000001
 8004324:	696e6920 	stmdbvs	lr!, {r5, r8, fp, sp, lr}^
 8004328:	6f642074 	svcvs	0x00642074
 800432c:	000a656e 	andeq	r6, sl, lr, ror #10
 8004330:	6f636e65 	svcvs	0x00636e65
 8004334:	20726564 	rsbscs	r6, r2, r4, ror #10
 8004338:	736e6573 	cmnvc	lr, #482344960	; 0x1cc00000
 800433c:	6920726f 	stmdbvs	r0!, {r0, r1, r2, r3, r5, r6, r9, ip, sp, lr}
 8004340:	2074696e 	rsbscs	r6, r4, lr, ror #18
 8004344:	656e6f64 	strbvs	r6, [lr, #-3940]!	; 0xfffff09c
 8004348:	6f6d000a 	svcvs	0x006d000a
 800434c:	20726f74 	rsbscs	r6, r2, r4, ror pc
 8004350:	746e6f63 	strbtvc	r6, [lr], #-3939	; 0xfffff09d
 8004354:	6c6c6f72 	stclvs	15, cr6, [ip], #-456	; 0xfffffe38
 8004358:	696e6920 	stmdbvs	lr!, {r5, r8, fp, sp, lr}^
 800435c:	6f642074 	svcvs	0x00642074
 8004360:	000a656e 	andeq	r6, sl, lr, ror #10
 8004364:	2079656b 	rsbscs	r6, r9, fp, ror #10
 8004368:	74696e69 	strbtvc	r6, [r9], #-3689	; 0xfffff197
 800436c:	6e6f6420 	cdpvs	4, 6, cr6, cr15, cr0, {1}
 8004370:	73000a65 	movwvc	r0, #2661	; 0xa65
 8004374:	65747379 	ldrbvs	r7, [r4, #-889]!	; 0xfffffc87
 8004378:	6e69206d 	cdpvs	0, 6, cr2, cr9, cr13, {3}
 800437c:	64207469 	strtvs	r7, [r0], #-1129	; 0xfffffb97
 8004380:	0a656e6f 	beq	995fd44 <_sidata+0x195b8d0>
 8004384:	75727400 	ldrbvc	r7, [r2, #-1024]!	; 0xfffffc00
 8004388:	61660065 	cmnvs	r6, r5, rrx
 800438c:	0065736c 	rsbeq	r7, r5, ip, ror #6

08004390 <_ZTV7Drivers>:
 8004390:	00000000 	andeq	r0, r0, r0
 8004394:	00000000 	andeq	r0, r0, r0
 8004398:	08001101 	stmdaeq	r0, {r0, r8, ip}
 800439c:	08001103 	stmdaeq	r0, {r0, r1, r8, ip}

080043a0 <_ZTV13I2C_Interface>:
 80043a0:	00000000 	andeq	r0, r0, r0
 80043a4:	00000000 	andeq	r0, r0, r0
 80043a8:	00000000 	andeq	r0, r0, r0
 80043ac:	00000000 	andeq	r0, r0, r0
 80043b0:	08002259 	stmdaeq	r0, {r0, r3, r4, r6, r9, sp}
 80043b4:	08002259 	stmdaeq	r0, {r0, r3, r4, r6, r9, sp}
 80043b8:	080017ed 	stmdaeq	r0, {r0, r2, r3, r5, r6, r7, r8, r9, sl, ip}
 80043bc:	08002259 	stmdaeq	r0, {r0, r3, r4, r6, r9, sp}
 80043c0:	08002259 	stmdaeq	r0, {r0, r3, r4, r6, r9, sp}

080043c4 <_ZTV14DistanceSensor>:
 80043c4:	00000000 	andeq	r0, r0, r0
 80043c8:	00000000 	andeq	r0, r0, r0
 80043cc:	080018d3 	stmdaeq	r0, {r0, r1, r4, r6, r7, fp, ip}
 80043d0:	080018d5 	stmdaeq	r0, {r0, r2, r4, r6, r7, fp, ip}
 80043d4:	080019bf 	stmdaeq	r0, {r0, r1, r2, r3, r4, r5, r7, r8, fp, ip}

080043d8 <_ZTV3PID>:
 80043d8:	00000000 	andeq	r0, r0, r0
 80043dc:	00000000 	andeq	r0, r0, r0
 80043e0:	08001a59 	stmdaeq	r0, {r0, r3, r4, r6, r9, fp, ip}
 80043e4:	08001a5b 	stmdaeq	r0, {r0, r1, r3, r4, r6, r9, fp, ip}

080043e8 <_ZTV13MotorControll>:
 80043e8:	00000000 	andeq	r0, r0, r0
 80043ec:	00000000 	andeq	r0, r0, r0
 80043f0:	08001e91 	stmdaeq	r0, {r0, r4, r7, r9, sl, fp, ip}
 80043f4:	08001eb9 	stmdaeq	r0, {r0, r3, r4, r5, r7, r9, sl, fp, ip}
 80043f8:	08001cf9 	stmdaeq	r0, {r0, r3, r4, r5, r6, r7, sl, fp, ip}

080043fc <_ZTV10LineSensor>:
 80043fc:	00000000 	andeq	r0, r0, r0
 8004400:	00000000 	andeq	r0, r0, r0
 8004404:	08001f85 	stmdaeq	r0, {r0, r2, r7, r8, r9, sl, fp, ip}
 8004408:	08001f87 	stmdaeq	r0, {r0, r1, r2, r7, r8, r9, sl, fp, ip}
 800440c:	080021eb 	stmdaeq	r0, {r0, r1, r3, r5, r6, r7, r8, sp}

08004410 <_ZTV3Key>:
 8004410:	00000000 	andeq	r0, r0, r0
 8004414:	00000000 	andeq	r0, r0, r0
 8004418:	0800225b 	stmdaeq	r0, {r0, r1, r3, r4, r6, r9, sp}
 800441c:	0800225d 	stmdaeq	r0, {r0, r2, r3, r4, r6, r9, sp}
 8004420:	0800226b 	stmdaeq	r0, {r0, r1, r3, r5, r6, r9, sp}

08004424 <_ZTV3IMU>:
 8004424:	00000000 	andeq	r0, r0, r0
 8004428:	00000000 	andeq	r0, r0, r0
 800442c:	0800238d 	stmdaeq	r0, {r0, r2, r3, r7, r8, r9, sp}
 8004430:	0800238f 	stmdaeq	r0, {r0, r1, r2, r3, r7, r8, r9, sp}
 8004434:	08002525 	stmdaeq	r0, {r0, r2, r5, r8, sl, sp}

08004438 <CSWTCH.25>:
 8004438:	50000000 	andpl	r0, r0, r0
 800443c:	50000000 	andpl	r0, r0, r0
 8004440:	50000000 	andpl	r0, r0, r0
 8004444:	50000100 	andpl	r0, r0, r0, lsl #2
 8004448:	50000100 	andpl	r0, r0, r0, lsl #2
 800444c:	50000100 	andpl	r0, r0, r0, lsl #2
 8004450:	50000100 	andpl	r0, r0, r0, lsl #2
 8004454:	50000400 	andpl	r0, r0, r0, lsl #8
 8004458:	50000400 	andpl	r0, r0, r0, lsl #8
 800445c:	50000000 	andpl	r0, r0, r0

08004460 <CSWTCH.26>:
 8004460:	01040302 	tsteq	r4, r2, lsl #6
 8004464:	0c040302 	stceq	3, cr0, [r4], {2}
 8004468:	00000601 	andeq	r0, r0, r1, lsl #12

Disassembly of section .init_array:

0800446c <__init_array_start>:
 800446c:	080010dd 	stmdaeq	r0, {r0, r2, r3, r4, r6, r7, ip}
 8004470:	080016dd 	stmdaeq	r0, {r0, r2, r3, r4, r6, r7, r9, sl, ip}

Disassembly of section .bss:

20000000 <drivers>:
20000000:	00000000 	andeq	r0, r0, r0
20000004:	00000000 	andeq	r0, r0, r0

20000008 <distance_sensor>:
20000008:	00000000 	andeq	r0, r0, r0
2000000c:	00000000 	andeq	r0, r0, r0
20000010:	00000000 	andeq	r0, r0, r0
20000014:	00000000 	andeq	r0, r0, r0
20000018:	00000000 	andeq	r0, r0, r0
2000001c:	00000000 	andeq	r0, r0, r0
20000020:	00000000 	andeq	r0, r0, r0
20000024:	00000000 	andeq	r0, r0, r0
20000028:	00000000 	andeq	r0, r0, r0
2000002c:	00000000 	andeq	r0, r0, r0
20000030:	00000000 	andeq	r0, r0, r0
20000034:	00000000 	andeq	r0, r0, r0
20000038:	00000000 	andeq	r0, r0, r0
2000003c:	00000000 	andeq	r0, r0, r0
20000040:	00000000 	andeq	r0, r0, r0
20000044:	00000000 	andeq	r0, r0, r0
20000048:	00000000 	andeq	r0, r0, r0

2000004c <encoder_sensor>:
2000004c:	00000000 	andeq	r0, r0, r0
20000050:	00000000 	andeq	r0, r0, r0
20000054:	00000000 	andeq	r0, r0, r0
20000058:	00000000 	andeq	r0, r0, r0

2000005c <i2c>:
2000005c:	00000000 	andeq	r0, r0, r0
20000060:	00000000 	andeq	r0, r0, r0
20000064:	00000000 	andeq	r0, r0, r0
20000068:	00000000 	andeq	r0, r0, r0

2000006c <imu_sensor>:
2000006c:	00000000 	andeq	r0, r0, r0
20000070:	00000000 	andeq	r0, r0, r0
20000074:	00000000 	andeq	r0, r0, r0
20000078:	00000000 	andeq	r0, r0, r0
2000007c:	00000000 	andeq	r0, r0, r0
20000080:	00000000 	andeq	r0, r0, r0
20000084:	00000000 	andeq	r0, r0, r0
20000088:	00000000 	andeq	r0, r0, r0
2000008c:	00000000 	andeq	r0, r0, r0
20000090:	00000000 	andeq	r0, r0, r0
20000094:	00000000 	andeq	r0, r0, r0
20000098:	00000000 	andeq	r0, r0, r0
2000009c:	00000000 	andeq	r0, r0, r0
200000a0:	00000000 	andeq	r0, r0, r0
200000a4:	00000000 	andeq	r0, r0, r0
200000a8:	00000000 	andeq	r0, r0, r0
200000ac:	00000000 	andeq	r0, r0, r0

200000b0 <key>:
200000b0:	00000000 	andeq	r0, r0, r0
200000b4:	00000000 	andeq	r0, r0, r0
200000b8:	00000000 	andeq	r0, r0, r0
200000bc:	00000000 	andeq	r0, r0, r0
200000c0:	00000000 	andeq	r0, r0, r0
200000c4:	00000000 	andeq	r0, r0, r0

200000c8 <line_sensor>:
200000c8:	00000000 	andeq	r0, r0, r0
200000cc:	00000000 	andeq	r0, r0, r0
200000d0:	00000000 	andeq	r0, r0, r0
200000d4:	00000000 	andeq	r0, r0, r0
200000d8:	00000000 	andeq	r0, r0, r0
200000dc:	00000000 	andeq	r0, r0, r0
200000e0:	00000000 	andeq	r0, r0, r0
200000e4:	00000000 	andeq	r0, r0, r0
200000e8:	00000000 	andeq	r0, r0, r0
200000ec:	00000000 	andeq	r0, r0, r0
200000f0:	00000000 	andeq	r0, r0, r0
200000f4:	00000000 	andeq	r0, r0, r0
200000f8:	00000000 	andeq	r0, r0, r0
200000fc:	00000000 	andeq	r0, r0, r0
20000100:	00000000 	andeq	r0, r0, r0
20000104:	00000000 	andeq	r0, r0, r0
20000108:	00000000 	andeq	r0, r0, r0
2000010c:	00000000 	andeq	r0, r0, r0
20000110:	00000000 	andeq	r0, r0, r0
20000114:	00000000 	andeq	r0, r0, r0
20000118:	00000000 	andeq	r0, r0, r0
2000011c:	00000000 	andeq	r0, r0, r0
20000120:	00000000 	andeq	r0, r0, r0
20000124:	00000000 	andeq	r0, r0, r0
20000128:	00000000 	andeq	r0, r0, r0
2000012c:	00000000 	andeq	r0, r0, r0
20000130:	00000000 	andeq	r0, r0, r0
20000134:	00000000 	andeq	r0, r0, r0
20000138:	00000000 	andeq	r0, r0, r0
2000013c:	00000000 	andeq	r0, r0, r0
20000140:	00000000 	andeq	r0, r0, r0
20000144:	00000000 	andeq	r0, r0, r0
20000148:	00000000 	andeq	r0, r0, r0
2000014c:	00000000 	andeq	r0, r0, r0
20000150:	00000000 	andeq	r0, r0, r0
20000154:	00000000 	andeq	r0, r0, r0
20000158:	00000000 	andeq	r0, r0, r0
2000015c:	00000000 	andeq	r0, r0, r0
20000160:	00000000 	andeq	r0, r0, r0
20000164:	00000000 	andeq	r0, r0, r0
20000168:	00000000 	andeq	r0, r0, r0
2000016c:	00000000 	andeq	r0, r0, r0
20000170:	00000000 	andeq	r0, r0, r0
20000174:	00000000 	andeq	r0, r0, r0
20000178:	00000000 	andeq	r0, r0, r0
2000017c:	00000000 	andeq	r0, r0, r0
20000180:	00000000 	andeq	r0, r0, r0

20000184 <motor_controll>:
20000184:	00000000 	andeq	r0, r0, r0
20000188:	00000000 	andeq	r0, r0, r0
2000018c:	00000000 	andeq	r0, r0, r0
20000190:	00000000 	andeq	r0, r0, r0
20000194:	00000000 	andeq	r0, r0, r0
20000198:	00000000 	andeq	r0, r0, r0
2000019c:	00000000 	andeq	r0, r0, r0
200001a0:	00000000 	andeq	r0, r0, r0
200001a4:	00000000 	andeq	r0, r0, r0
200001a8:	00000000 	andeq	r0, r0, r0
200001ac:	00000000 	andeq	r0, r0, r0
200001b0:	00000000 	andeq	r0, r0, r0
200001b4:	00000000 	andeq	r0, r0, r0
200001b8:	00000000 	andeq	r0, r0, r0
200001bc:	00000000 	andeq	r0, r0, r0
200001c0:	00000000 	andeq	r0, r0, r0
200001c4:	00000000 	andeq	r0, r0, r0
200001c8:	00000000 	andeq	r0, r0, r0
200001cc:	00000000 	andeq	r0, r0, r0
200001d0:	00000000 	andeq	r0, r0, r0
200001d4:	00000000 	andeq	r0, r0, r0
200001d8:	00000000 	andeq	r0, r0, r0
200001dc:	00000000 	andeq	r0, r0, r0
200001e0:	00000000 	andeq	r0, r0, r0
200001e4:	00000000 	andeq	r0, r0, r0
200001e8:	00000000 	andeq	r0, r0, r0
200001ec:	00000000 	andeq	r0, r0, r0
200001f0:	00000000 	andeq	r0, r0, r0
200001f4:	00000000 	andeq	r0, r0, r0
200001f8:	00000000 	andeq	r0, r0, r0
200001fc:	00000000 	andeq	r0, r0, r0
20000200:	00000000 	andeq	r0, r0, r0
20000204:	00000000 	andeq	r0, r0, r0
20000208:	00000000 	andeq	r0, r0, r0
2000020c:	00000000 	andeq	r0, r0, r0
20000210:	00000000 	andeq	r0, r0, r0

20000214 <terminal>:
20000214:	00000000 	andeq	r0, r0, r0

20000218 <timer>:
20000218:	00000000 	andeq	r0, r0, r0

2000021c <mem_ptr>:
2000021c:	00000000 	andeq	r0, r0, r0

20000220 <g_time>:
20000220:	00000000 	andeq	r0, r0, r0

20000224 <g_timers>:
20000224:	00000000 	andeq	r0, r0, r0
20000228:	00000000 	andeq	r0, r0, r0
2000022c:	00000000 	andeq	r0, r0, r0
20000230:	00000000 	andeq	r0, r0, r0
20000234:	00000000 	andeq	r0, r0, r0
20000238:	00000000 	andeq	r0, r0, r0
2000023c:	00000000 	andeq	r0, r0, r0
20000240:	00000000 	andeq	r0, r0, r0
20000244:	00000000 	andeq	r0, r0, r0
20000248:	00000000 	andeq	r0, r0, r0
2000024c:	00000000 	andeq	r0, r0, r0
20000250:	00000000 	andeq	r0, r0, r0
20000254:	00000000 	andeq	r0, r0, r0
20000258:	00000000 	andeq	r0, r0, r0
2000025c:	00000000 	andeq	r0, r0, r0
20000260:	00000000 	andeq	r0, r0, r0
20000264:	00000000 	andeq	r0, r0, r0
20000268:	00000000 	andeq	r0, r0, r0
2000026c:	00000000 	andeq	r0, r0, r0
20000270:	00000000 	andeq	r0, r0, r0
20000274:	00000000 	andeq	r0, r0, r0
20000278:	00000000 	andeq	r0, r0, r0
2000027c:	00000000 	andeq	r0, r0, r0
20000280:	00000000 	andeq	r0, r0, r0
20000284:	00000000 	andeq	r0, r0, r0
20000288:	00000000 	andeq	r0, r0, r0
2000028c:	00000000 	andeq	r0, r0, r0
20000290:	00000000 	andeq	r0, r0, r0
20000294:	00000000 	andeq	r0, r0, r0
20000298:	00000000 	andeq	r0, r0, r0
2000029c:	00000000 	andeq	r0, r0, r0
200002a0:	00000000 	andeq	r0, r0, r0
200002a4:	00000000 	andeq	r0, r0, r0
200002a8:	00000000 	andeq	r0, r0, r0
200002ac:	00000000 	andeq	r0, r0, r0
200002b0:	00000000 	andeq	r0, r0, r0
200002b4:	00000000 	andeq	r0, r0, r0
200002b8:	00000000 	andeq	r0, r0, r0
200002bc:	00000000 	andeq	r0, r0, r0
200002c0:	00000000 	andeq	r0, r0, r0
200002c4:	00000000 	andeq	r0, r0, r0
200002c8:	00000000 	andeq	r0, r0, r0
200002cc:	00000000 	andeq	r0, r0, r0
200002d0:	00000000 	andeq	r0, r0, r0
200002d4:	00000000 	andeq	r0, r0, r0
200002d8:	00000000 	andeq	r0, r0, r0
200002dc:	00000000 	andeq	r0, r0, r0
200002e0:	00000000 	andeq	r0, r0, r0
200002e4:	00000000 	andeq	r0, r0, r0
200002e8:	00000000 	andeq	r0, r0, r0
200002ec:	00000000 	andeq	r0, r0, r0
200002f0:	00000000 	andeq	r0, r0, r0
200002f4:	00000000 	andeq	r0, r0, r0
200002f8:	00000000 	andeq	r0, r0, r0
200002fc:	00000000 	andeq	r0, r0, r0
20000300:	00000000 	andeq	r0, r0, r0
20000304:	00000000 	andeq	r0, r0, r0
20000308:	00000000 	andeq	r0, r0, r0
2000030c:	00000000 	andeq	r0, r0, r0
20000310:	00000000 	andeq	r0, r0, r0
20000314:	00000000 	andeq	r0, r0, r0
20000318:	00000000 	andeq	r0, r0, r0
2000031c:	00000000 	andeq	r0, r0, r0
20000320:	00000000 	andeq	r0, r0, r0
20000324:	00000000 	andeq	r0, r0, r0
20000328:	00000000 	andeq	r0, r0, r0
2000032c:	00000000 	andeq	r0, r0, r0
20000330:	00000000 	andeq	r0, r0, r0
20000334:	00000000 	andeq	r0, r0, r0
20000338:	00000000 	andeq	r0, r0, r0
2000033c:	00000000 	andeq	r0, r0, r0
20000340:	00000000 	andeq	r0, r0, r0
20000344:	00000000 	andeq	r0, r0, r0
20000348:	00000000 	andeq	r0, r0, r0
2000034c:	00000000 	andeq	r0, r0, r0
20000350:	00000000 	andeq	r0, r0, r0
20000354:	00000000 	andeq	r0, r0, r0
20000358:	00000000 	andeq	r0, r0, r0
2000035c:	00000000 	andeq	r0, r0, r0
20000360:	00000000 	andeq	r0, r0, r0

20000364 <__dso_handle>:
20000364:	00000000 	andeq	r0, r0, r0

20000368 <g_left_encoder>:
20000368:	00000000 	andeq	r0, r0, r0

2000036c <g_right_encoder>:
2000036c:	00000000 	andeq	r0, r0, r0

Disassembly of section .comment:

00000000 <.comment>:
   0:	3a434347 	bcc	10d0d24 <__text_size__+0x10cca40>
   4:	4e472820 	cdpmi	8, 4, cr2, cr7, cr0, {1}
   8:	6f542055 	svcvs	0x00542055
   c:	20736c6f 	rsbscs	r6, r3, pc, ror #24
  10:	20726f66 	rsbscs	r6, r2, r6, ror #30
  14:	206d7241 	rsbcs	r7, sp, r1, asr #4
  18:	65626d45 	strbvs	r6, [r2, #-3397]!	; 0xfffff2bb
  1c:	64656464 	strbtvs	r6, [r5], #-1124	; 0xfffffb9c
  20:	6f725020 	svcvs	0x00725020
  24:	73736563 	cmnvc	r3, #415236096	; 0x18c00000
  28:	2073726f 	rsbscs	r7, r3, pc, ror #4
  2c:	30322d37 	eorscc	r2, r2, r7, lsr sp
  30:	712d3831 			; <UNDEFINED> instruction: 0x712d3831
  34:	70752d33 	rsbsvc	r2, r5, r3, lsr sp
  38:	65746164 	ldrbvs	r6, [r4, #-356]!	; 0xfffffe9c
  3c:	2e372029 	cdpcs	0, 3, cr2, cr7, cr9, {1}
  40:	20312e33 	eorscs	r2, r1, r3, lsr lr
  44:	38313032 	ldmdacc	r1!, {r1, r4, r5, ip, sp}
  48:	32323630 	eorscc	r3, r2, #48, 12	; 0x3000000
  4c:	65722820 	ldrbvs	r2, [r2, #-2080]!	; 0xfffff7e0
  50:	7361656c 	cmnvc	r1, #108, 10	; 0x1b000000
  54:	5b202965 	blpl	80a5f0 <__text_size__+0x80630c>
  58:	2f4d5241 	svccs	0x004d5241
  5c:	65626d65 	strbvs	r6, [r2, #-3429]!	; 0xfffff29b
  60:	64656464 	strbtvs	r6, [r5], #-1124	; 0xfffffb9c
  64:	622d372d 	eorvs	r3, sp, #11796480	; 0xb40000
  68:	636e6172 	cmnvs	lr, #-2147483620	; 0x8000001c
  6c:	65722068 	ldrbvs	r2, [r2, #-104]!	; 0xffffff98
  70:	69736976 	ldmdbvs	r3!, {r1, r2, r4, r5, r6, r8, fp, sp, lr}^
  74:	32206e6f 	eorcc	r6, r0, #1776	; 0x6f0
  78:	30393136 	eorscc	r3, r9, r6, lsr r1
  7c:	Address 0x000000000000007c is out of bounds.


Disassembly of section .ARM.attributes:

00000000 <.ARM.attributes>:
   0:	00003441 	andeq	r3, r0, r1, asr #8
   4:	61656100 	cmnvs	r5, r0, lsl #2
   8:	01006962 	tsteq	r0, r2, ror #18
   c:	0000002a 	andeq	r0, r0, sl, lsr #32
  10:	726f4305 	rsbvc	r4, pc, #335544320	; 0x14000000
  14:	2d786574 	cfldr64cs	mvdx6, [r8, #-464]!	; 0xfffffe30
  18:	0600344d 	streq	r3, [r0], -sp, asr #8
  1c:	094d070d 	stmdbeq	sp, {r0, r2, r3, r8, r9, sl}^
  20:	12020a02 	andne	r0, r2, #8192	; 0x2000
  24:	15011404 	strne	r1, [r1, #-1028]	; 0xfffffbfc
  28:	18031701 	stmdane	r3, {r0, r8, r9, sl, ip}
  2c:	1a011901 	bne	46438 <__text_size__+0x42154>
  30:	22041e01 	andcs	r1, r4, #1, 28
  34:	Address 0x0000000000000034 is out of bounds.

