
bin/main.elf:     file format elf32-littlearm


Disassembly of section .isr_vector:

08000000 <InterruptVector>:
 8000000:	20008000 	andcs	r8, r0, r0
 8000004:	0800019d 	stmdaeq	r0, {r0, r2, r3, r4, r7, r8}
 8000008:	08000189 	stmdaeq	r0, {r0, r3, r7, r8}
 800000c:	08000193 	stmdaeq	r0, {r0, r1, r4, r7, r8}
 8000010:	08000189 	stmdaeq	r0, {r0, r3, r7, r8}
 8000014:	08000189 	stmdaeq	r0, {r0, r3, r7, r8}
 8000018:	08000189 	stmdaeq	r0, {r0, r3, r7, r8}
 800001c:	00000000 	andeq	r0, r0, r0
 8000020:	00000000 	andeq	r0, r0, r0
 8000024:	00000000 	andeq	r0, r0, r0
 8000028:	00000000 	andeq	r0, r0, r0
 800002c:	08000189 	stmdaeq	r0, {r0, r3, r7, r8}
 8000030:	08000189 	stmdaeq	r0, {r0, r3, r7, r8}
 8000034:	00000000 	andeq	r0, r0, r0
 8000038:	08000189 	stmdaeq	r0, {r0, r3, r7, r8}
 800003c:	08000189 	stmdaeq	r0, {r0, r3, r7, r8}
 8000040:	08000189 	stmdaeq	r0, {r0, r3, r7, r8}
 8000044:	08000189 	stmdaeq	r0, {r0, r3, r7, r8}
 8000048:	08000189 	stmdaeq	r0, {r0, r3, r7, r8}
 800004c:	08000189 	stmdaeq	r0, {r0, r3, r7, r8}
 8000050:	08000189 	stmdaeq	r0, {r0, r3, r7, r8}
 8000054:	08000189 	stmdaeq	r0, {r0, r3, r7, r8}
 8000058:	08000189 	stmdaeq	r0, {r0, r3, r7, r8}
 800005c:	08000189 	stmdaeq	r0, {r0, r3, r7, r8}
 8000060:	08000189 	stmdaeq	r0, {r0, r3, r7, r8}
 8000064:	08000189 	stmdaeq	r0, {r0, r3, r7, r8}
 8000068:	08000189 	stmdaeq	r0, {r0, r3, r7, r8}
 800006c:	08000189 	stmdaeq	r0, {r0, r3, r7, r8}
 8000070:	08000189 	stmdaeq	r0, {r0, r3, r7, r8}
 8000074:	08000189 	stmdaeq	r0, {r0, r3, r7, r8}
 8000078:	08000189 	stmdaeq	r0, {r0, r3, r7, r8}
 800007c:	08000189 	stmdaeq	r0, {r0, r3, r7, r8}
 8000080:	08000189 	stmdaeq	r0, {r0, r3, r7, r8}
 8000084:	08000189 	stmdaeq	r0, {r0, r3, r7, r8}
 8000088:	08000189 	stmdaeq	r0, {r0, r3, r7, r8}
 800008c:	08000189 	stmdaeq	r0, {r0, r3, r7, r8}
 8000090:	08000189 	stmdaeq	r0, {r0, r3, r7, r8}
 8000094:	08000189 	stmdaeq	r0, {r0, r3, r7, r8}
 8000098:	08000189 	stmdaeq	r0, {r0, r3, r7, r8}
 800009c:	08002485 	stmdaeq	r0, {r0, r2, r7, sl, sp}
 80000a0:	08000189 	stmdaeq	r0, {r0, r3, r7, r8}
 80000a4:	08000189 	stmdaeq	r0, {r0, r3, r7, r8}
 80000a8:	08000189 	stmdaeq	r0, {r0, r3, r7, r8}
 80000ac:	08000189 	stmdaeq	r0, {r0, r3, r7, r8}
 80000b0:	08002ab5 	stmdaeq	r0, {r0, r2, r4, r5, r7, r9, fp, sp}
 80000b4:	08000189 	stmdaeq	r0, {r0, r3, r7, r8}
 80000b8:	08000189 	stmdaeq	r0, {r0, r3, r7, r8}
 80000bc:	08000189 	stmdaeq	r0, {r0, r3, r7, r8}
 80000c0:	08000189 	stmdaeq	r0, {r0, r3, r7, r8}
 80000c4:	08000189 	stmdaeq	r0, {r0, r3, r7, r8}
 80000c8:	08000189 	stmdaeq	r0, {r0, r3, r7, r8}
 80000cc:	08000189 	stmdaeq	r0, {r0, r3, r7, r8}
 80000d0:	08000189 	stmdaeq	r0, {r0, r3, r7, r8}
 80000d4:	08000189 	stmdaeq	r0, {r0, r3, r7, r8}
 80000d8:	08000189 	stmdaeq	r0, {r0, r3, r7, r8}
 80000dc:	08000189 	stmdaeq	r0, {r0, r3, r7, r8}
 80000e0:	080024b5 	stmdaeq	r0, {r0, r2, r4, r5, r7, sl, sp}
 80000e4:	08000189 	stmdaeq	r0, {r0, r3, r7, r8}
 80000e8:	08000189 	stmdaeq	r0, {r0, r3, r7, r8}
 80000ec:	08000189 	stmdaeq	r0, {r0, r3, r7, r8}
 80000f0:	08000189 	stmdaeq	r0, {r0, r3, r7, r8}
 80000f4:	08000189 	stmdaeq	r0, {r0, r3, r7, r8}
 80000f8:	08000189 	stmdaeq	r0, {r0, r3, r7, r8}
 80000fc:	08000189 	stmdaeq	r0, {r0, r3, r7, r8}
 8000100:	00000000 	andeq	r0, r0, r0
 8000104:	00000000 	andeq	r0, r0, r0
 8000108:	00000000 	andeq	r0, r0, r0
 800010c:	08000189 	stmdaeq	r0, {r0, r3, r7, r8}
 8000110:	08000189 	stmdaeq	r0, {r0, r3, r7, r8}
 8000114:	08000189 	stmdaeq	r0, {r0, r3, r7, r8}
 8000118:	08000189 	stmdaeq	r0, {r0, r3, r7, r8}
 800011c:	08000189 	stmdaeq	r0, {r0, r3, r7, r8}
 8000120:	08000189 	stmdaeq	r0, {r0, r3, r7, r8}
 8000124:	08000189 	stmdaeq	r0, {r0, r3, r7, r8}
 8000128:	08000189 	stmdaeq	r0, {r0, r3, r7, r8}
 800012c:	08000189 	stmdaeq	r0, {r0, r3, r7, r8}
 8000130:	08000189 	stmdaeq	r0, {r0, r3, r7, r8}
 8000134:	08000189 	stmdaeq	r0, {r0, r3, r7, r8}
 8000138:	00000000 	andeq	r0, r0, r0
 800013c:	00000000 	andeq	r0, r0, r0
 8000140:	08000189 	stmdaeq	r0, {r0, r3, r7, r8}
 8000144:	08000189 	stmdaeq	r0, {r0, r3, r7, r8}
 8000148:	08000189 	stmdaeq	r0, {r0, r3, r7, r8}
 800014c:	00000000 	andeq	r0, r0, r0
 8000150:	00000000 	andeq	r0, r0, r0
 8000154:	00000000 	andeq	r0, r0, r0
 8000158:	00000000 	andeq	r0, r0, r0
 800015c:	00000000 	andeq	r0, r0, r0
 8000160:	00000000 	andeq	r0, r0, r0
 8000164:	00000000 	andeq	r0, r0, r0
 8000168:	08000189 	stmdaeq	r0, {r0, r3, r7, r8}
 800016c:	08000189 	stmdaeq	r0, {r0, r3, r7, r8}
 8000170:	08000189 	stmdaeq	r0, {r0, r3, r7, r8}
 8000174:	00000000 	andeq	r0, r0, r0
 8000178:	00000000 	andeq	r0, r0, r0
 800017c:	00000000 	andeq	r0, r0, r0
 8000180:	00000000 	andeq	r0, r0, r0
 8000184:	08000189 	stmdaeq	r0, {r0, r3, r7, r8}

Disassembly of section .text:

08000188 <Default_Handler>:
 8000188:	4668      	mov	r0, sp
 800018a:	f020 0107 	bic.w	r1, r0, #7
 800018e:	468d      	mov	sp, r1
 8000190:	e7fe      	b.n	8000190 <Default_Handler+0x8>

08000192 <HardFault_Handler>:
 8000192:	4668      	mov	r0, sp
 8000194:	f020 0107 	bic.w	r1, r0, #7
 8000198:	468d      	mov	sp, r1
 800019a:	e7fe      	b.n	800019a <HardFault_Handler+0x8>

0800019c <Reset_Handler>:
 800019c:	4915      	ldr	r1, [pc, #84]	; (80001f4 <Reset_Handler+0x58>)
 800019e:	4a16      	ldr	r2, [pc, #88]	; (80001f8 <Reset_Handler+0x5c>)
 80001a0:	4816      	ldr	r0, [pc, #88]	; (80001fc <Reset_Handler+0x60>)
 80001a2:	1a52      	subs	r2, r2, r1
 80001a4:	1092      	asrs	r2, r2, #2
 80001a6:	2300      	movs	r3, #0
 80001a8:	429a      	cmp	r2, r3
 80001aa:	d117      	bne.n	80001dc <Reset_Handler+0x40>
 80001ac:	4a14      	ldr	r2, [pc, #80]	; (8000200 <Reset_Handler+0x64>)
 80001ae:	4e15      	ldr	r6, [pc, #84]	; (8000204 <Reset_Handler+0x68>)
 80001b0:	f8d2 3088 	ldr.w	r3, [r2, #136]	; 0x88
 80001b4:	4c14      	ldr	r4, [pc, #80]	; (8000208 <Reset_Handler+0x6c>)
 80001b6:	f443 0370 	orr.w	r3, r3, #15728640	; 0xf00000
 80001ba:	f8c2 3088 	str.w	r3, [r2, #136]	; 0x88
 80001be:	f8d2 3234 	ldr.w	r3, [r2, #564]	; 0x234
 80001c2:	1ba4      	subs	r4, r4, r6
 80001c4:	f043 4340 	orr.w	r3, r3, #3221225472	; 0xc0000000
 80001c8:	f8c2 3234 	str.w	r3, [r2, #564]	; 0x234
 80001cc:	10a4      	asrs	r4, r4, #2
 80001ce:	2500      	movs	r5, #0
 80001d0:	42a5      	cmp	r5, r4
 80001d2:	d109      	bne.n	80001e8 <Reset_Handler+0x4c>
 80001d4:	f000 f81a 	bl	800020c <SystemInit>
 80001d8:	f001 b9c2 	b.w	8001560 <main>
 80001dc:	f850 4023 	ldr.w	r4, [r0, r3, lsl #2]
 80001e0:	f841 4023 	str.w	r4, [r1, r3, lsl #2]
 80001e4:	3301      	adds	r3, #1
 80001e6:	e7df      	b.n	80001a8 <Reset_Handler+0xc>
 80001e8:	f856 3025 	ldr.w	r3, [r6, r5, lsl #2]
 80001ec:	4798      	blx	r3
 80001ee:	3501      	adds	r5, #1
 80001f0:	e7ee      	b.n	80001d0 <Reset_Handler+0x34>
 80001f2:	bf00      	nop
 80001f4:	20000000 	andcs	r0, r0, r0
 80001f8:	20000000 	andcs	r0, r0, r0
 80001fc:	080048b8 	stmdaeq	r0, {r3, r4, r5, r7, fp, lr}
 8000200:	e000ed00 	and	lr, r0, r0, lsl #26
 8000204:	080048b8 	stmdaeq	r0, {r3, r4, r5, r7, fp, lr}
 8000208:	080048bc 	stmdaeq	r0, {r2, r3, r4, r5, r7, fp, lr}

0800020c <SystemInit>:
 800020c:	4a39      	ldr	r2, [pc, #228]	; (80002f4 <SystemInit+0xe8>)
 800020e:	f8d2 3088 	ldr.w	r3, [r2, #136]	; 0x88
 8000212:	f443 0370 	orr.w	r3, r3, #15728640	; 0xf00000
 8000216:	f8c2 3088 	str.w	r3, [r2, #136]	; 0x88
 800021a:	4b37      	ldr	r3, [pc, #220]	; (80002f8 <SystemInit+0xec>)
 800021c:	681a      	ldr	r2, [r3, #0]
 800021e:	f042 0201 	orr.w	r2, r2, #1
 8000222:	601a      	str	r2, [r3, #0]
 8000224:	6859      	ldr	r1, [r3, #4]
 8000226:	4a35      	ldr	r2, [pc, #212]	; (80002fc <SystemInit+0xf0>)
 8000228:	400a      	ands	r2, r1
 800022a:	605a      	str	r2, [r3, #4]
 800022c:	681a      	ldr	r2, [r3, #0]
 800022e:	f022 7284 	bic.w	r2, r2, #17301504	; 0x1080000
 8000232:	f422 3280 	bic.w	r2, r2, #65536	; 0x10000
 8000236:	601a      	str	r2, [r3, #0]
 8000238:	681a      	ldr	r2, [r3, #0]
 800023a:	f422 2280 	bic.w	r2, r2, #262144	; 0x40000
 800023e:	601a      	str	r2, [r3, #0]
 8000240:	685a      	ldr	r2, [r3, #4]
 8000242:	f422 02fe 	bic.w	r2, r2, #8323072	; 0x7f0000
 8000246:	605a      	str	r2, [r3, #4]
 8000248:	6ada      	ldr	r2, [r3, #44]	; 0x2c
 800024a:	f022 020f 	bic.w	r2, r2, #15
 800024e:	62da      	str	r2, [r3, #44]	; 0x2c
 8000250:	6b19      	ldr	r1, [r3, #48]	; 0x30
 8000252:	4a2b      	ldr	r2, [pc, #172]	; (8000300 <SystemInit+0xf4>)
 8000254:	b082      	sub	sp, #8
 8000256:	400a      	ands	r2, r1
 8000258:	631a      	str	r2, [r3, #48]	; 0x30
 800025a:	2200      	movs	r2, #0
 800025c:	609a      	str	r2, [r3, #8]
 800025e:	9200      	str	r2, [sp, #0]
 8000260:	9201      	str	r2, [sp, #4]
 8000262:	681a      	ldr	r2, [r3, #0]
 8000264:	f442 3280 	orr.w	r2, r2, #65536	; 0x10000
 8000268:	601a      	str	r2, [r3, #0]
 800026a:	681a      	ldr	r2, [r3, #0]
 800026c:	f402 3200 	and.w	r2, r2, #131072	; 0x20000
 8000270:	9201      	str	r2, [sp, #4]
 8000272:	9a00      	ldr	r2, [sp, #0]
 8000274:	3201      	adds	r2, #1
 8000276:	9200      	str	r2, [sp, #0]
 8000278:	9a01      	ldr	r2, [sp, #4]
 800027a:	b91a      	cbnz	r2, 8000284 <SystemInit+0x78>
 800027c:	9a00      	ldr	r2, [sp, #0]
 800027e:	f5b2 6fa0 	cmp.w	r2, #1280	; 0x500
 8000282:	d1f2      	bne.n	800026a <SystemInit+0x5e>
 8000284:	681a      	ldr	r2, [r3, #0]
 8000286:	f412 3200 	ands.w	r2, r2, #131072	; 0x20000
 800028a:	bf18      	it	ne
 800028c:	2201      	movne	r2, #1
 800028e:	9201      	str	r2, [sp, #4]
 8000290:	9a01      	ldr	r2, [sp, #4]
 8000292:	2a01      	cmp	r2, #1
 8000294:	d005      	beq.n	80002a2 <SystemInit+0x96>
 8000296:	4b17      	ldr	r3, [pc, #92]	; (80002f4 <SystemInit+0xe8>)
 8000298:	f04f 6200 	mov.w	r2, #134217728	; 0x8000000
 800029c:	609a      	str	r2, [r3, #8]
 800029e:	b002      	add	sp, #8
 80002a0:	4770      	bx	lr
 80002a2:	4a18      	ldr	r2, [pc, #96]	; (8000304 <SystemInit+0xf8>)
 80002a4:	2112      	movs	r1, #18
 80002a6:	6011      	str	r1, [r2, #0]
 80002a8:	685a      	ldr	r2, [r3, #4]
 80002aa:	605a      	str	r2, [r3, #4]
 80002ac:	685a      	ldr	r2, [r3, #4]
 80002ae:	605a      	str	r2, [r3, #4]
 80002b0:	685a      	ldr	r2, [r3, #4]
 80002b2:	f442 6280 	orr.w	r2, r2, #1024	; 0x400
 80002b6:	605a      	str	r2, [r3, #4]
 80002b8:	685a      	ldr	r2, [r3, #4]
 80002ba:	f422 127c 	bic.w	r2, r2, #4128768	; 0x3f0000
 80002be:	605a      	str	r2, [r3, #4]
 80002c0:	685a      	ldr	r2, [r3, #4]
 80002c2:	f442 12e8 	orr.w	r2, r2, #1900544	; 0x1d0000
 80002c6:	605a      	str	r2, [r3, #4]
 80002c8:	681a      	ldr	r2, [r3, #0]
 80002ca:	f042 7280 	orr.w	r2, r2, #16777216	; 0x1000000
 80002ce:	601a      	str	r2, [r3, #0]
 80002d0:	681a      	ldr	r2, [r3, #0]
 80002d2:	0192      	lsls	r2, r2, #6
 80002d4:	d5fc      	bpl.n	80002d0 <SystemInit+0xc4>
 80002d6:	685a      	ldr	r2, [r3, #4]
 80002d8:	f022 0203 	bic.w	r2, r2, #3
 80002dc:	605a      	str	r2, [r3, #4]
 80002de:	685a      	ldr	r2, [r3, #4]
 80002e0:	f042 0202 	orr.w	r2, r2, #2
 80002e4:	605a      	str	r2, [r3, #4]
 80002e6:	685a      	ldr	r2, [r3, #4]
 80002e8:	f002 020c 	and.w	r2, r2, #12
 80002ec:	2a08      	cmp	r2, #8
 80002ee:	d1fa      	bne.n	80002e6 <SystemInit+0xda>
 80002f0:	e7d1      	b.n	8000296 <SystemInit+0x8a>
 80002f2:	bf00      	nop
 80002f4:	e000ed00 	and	lr, r0, r0, lsl #26
 80002f8:	40021000 	andmi	r1, r2, r0
 80002fc:	f87fc00c 			; <UNDEFINED> instruction: 0xf87fc00c
 8000300:	ff00fccc 			; <UNDEFINED> instruction: 0xff00fccc
 8000304:	40022000 	andmi	r2, r2, r0

08000308 <_Z9nvic_initmmm>:
 8000308:	4b0e      	ldr	r3, [pc, #56]	; (8000344 <_Z9nvic_initmmm+0x3c>)
 800030a:	68db      	ldr	r3, [r3, #12]
 800030c:	43db      	mvns	r3, r3
 800030e:	b510      	push	{r4, lr}
 8000310:	f3c3 2402 	ubfx	r4, r3, #8, #3
 8000314:	f1c4 0304 	rsb	r3, r4, #4
 8000318:	b2db      	uxtb	r3, r3
 800031a:	4099      	lsls	r1, r3
 800031c:	230f      	movs	r3, #15
 800031e:	4123      	asrs	r3, r4
 8000320:	4013      	ands	r3, r2
 8000322:	4a09      	ldr	r2, [pc, #36]	; (8000348 <_Z9nvic_initmmm+0x40>)
 8000324:	430b      	orrs	r3, r1
 8000326:	011b      	lsls	r3, r3, #4
 8000328:	1811      	adds	r1, r2, r0
 800032a:	f003 03f0 	and.w	r3, r3, #240	; 0xf0
 800032e:	f881 3300 	strb.w	r3, [r1, #768]	; 0x300
 8000332:	0941      	lsrs	r1, r0, #5
 8000334:	2301      	movs	r3, #1
 8000336:	f000 001f 	and.w	r0, r0, #31
 800033a:	fa03 f000 	lsl.w	r0, r3, r0
 800033e:	f842 0021 	str.w	r0, [r2, r1, lsl #2]
 8000342:	bd10      	pop	{r4, pc}
 8000344:	e000ed00 	and	lr, r0, r0, lsl #26
 8000348:	e000e100 	and	lr, r0, r0, lsl #2

0800034c <_Z10timer_initP11TIM_TypeDefmmmm>:
 800034c:	b530      	push	{r4, r5, lr}
 800034e:	8805      	ldrh	r5, [r0, #0]
 8000350:	b2ac      	uxth	r4, r5
 8000352:	4d24      	ldr	r5, [pc, #144]	; (80003e4 <_Z10timer_initP11TIM_TypeDefmmmm+0x98>)
 8000354:	42a8      	cmp	r0, r5
 8000356:	d00e      	beq.n	8000376 <_Z10timer_initP11TIM_TypeDefmmmm+0x2a>
 8000358:	f505 6500 	add.w	r5, r5, #2048	; 0x800
 800035c:	42a8      	cmp	r0, r5
 800035e:	d00a      	beq.n	8000376 <_Z10timer_initP11TIM_TypeDefmmmm+0x2a>
 8000360:	f1b0 4f80 	cmp.w	r0, #1073741824	; 0x40000000
 8000364:	d007      	beq.n	8000376 <_Z10timer_initP11TIM_TypeDefmmmm+0x2a>
 8000366:	f5a5 3598 	sub.w	r5, r5, #77824	; 0x13000
 800036a:	42a8      	cmp	r0, r5
 800036c:	d003      	beq.n	8000376 <_Z10timer_initP11TIM_TypeDefmmmm+0x2a>
 800036e:	f505 6580 	add.w	r5, r5, #1024	; 0x400
 8000372:	42a8      	cmp	r0, r5
 8000374:	d103      	bne.n	800037e <_Z10timer_initP11TIM_TypeDefmmmm+0x32>
 8000376:	f024 0470 	bic.w	r4, r4, #112	; 0x70
 800037a:	430c      	orrs	r4, r1
 800037c:	b2a4      	uxth	r4, r4
 800037e:	491a      	ldr	r1, [pc, #104]	; (80003e8 <_Z10timer_initP11TIM_TypeDefmmmm+0x9c>)
 8000380:	4288      	cmp	r0, r1
 8000382:	d008      	beq.n	8000396 <_Z10timer_initP11TIM_TypeDefmmmm+0x4a>
 8000384:	f501 6180 	add.w	r1, r1, #1024	; 0x400
 8000388:	4288      	cmp	r0, r1
 800038a:	bf1f      	itttt	ne
 800038c:	f424 7440 	bicne.w	r4, r4, #768	; 0x300
 8000390:	b2a4      	uxthne	r4, r4
 8000392:	4314      	orrne	r4, r2
 8000394:	b2a4      	uxthne	r4, r4
 8000396:	8004      	strh	r4, [r0, #0]
 8000398:	62c3      	str	r3, [r0, #44]	; 0x2c
 800039a:	f8bd 300c 	ldrh.w	r3, [sp, #12]
 800039e:	8503      	strh	r3, [r0, #40]	; 0x28
 80003a0:	4b10      	ldr	r3, [pc, #64]	; (80003e4 <_Z10timer_initP11TIM_TypeDefmmmm+0x98>)
 80003a2:	4298      	cmp	r0, r3
 80003a4:	d00f      	beq.n	80003c6 <_Z10timer_initP11TIM_TypeDefmmmm+0x7a>
 80003a6:	f503 6300 	add.w	r3, r3, #2048	; 0x800
 80003aa:	4298      	cmp	r0, r3
 80003ac:	d00b      	beq.n	80003c6 <_Z10timer_initP11TIM_TypeDefmmmm+0x7a>
 80003ae:	f503 6340 	add.w	r3, r3, #3072	; 0xc00
 80003b2:	4298      	cmp	r0, r3
 80003b4:	d007      	beq.n	80003c6 <_Z10timer_initP11TIM_TypeDefmmmm+0x7a>
 80003b6:	f503 6380 	add.w	r3, r3, #1024	; 0x400
 80003ba:	4298      	cmp	r0, r3
 80003bc:	d003      	beq.n	80003c6 <_Z10timer_initP11TIM_TypeDefmmmm+0x7a>
 80003be:	f503 6380 	add.w	r3, r3, #1024	; 0x400
 80003c2:	4298      	cmp	r0, r3
 80003c4:	d101      	bne.n	80003ca <_Z10timer_initP11TIM_TypeDefmmmm+0x7e>
 80003c6:	2300      	movs	r3, #0
 80003c8:	8603      	strh	r3, [r0, #48]	; 0x30
 80003ca:	2301      	movs	r3, #1
 80003cc:	6143      	str	r3, [r0, #20]
 80003ce:	8803      	ldrh	r3, [r0, #0]
 80003d0:	b29b      	uxth	r3, r3
 80003d2:	f043 0301 	orr.w	r3, r3, #1
 80003d6:	8003      	strh	r3, [r0, #0]
 80003d8:	68c3      	ldr	r3, [r0, #12]
 80003da:	f043 0301 	orr.w	r3, r3, #1
 80003de:	60c3      	str	r3, [r0, #12]
 80003e0:	bd30      	pop	{r4, r5, pc}
 80003e2:	bf00      	nop
 80003e4:	40012c00 	andmi	r2, r1, r0, lsl #24
 80003e8:	40001000 	andmi	r1, r0, r0

080003ec <_Z22exti_clear_pending_bitm>:
 80003ec:	f020 021f 	bic.w	r2, r0, #31
 80003f0:	2301      	movs	r3, #1
 80003f2:	f000 001f 	and.w	r0, r0, #31
 80003f6:	fa03 f000 	lsl.w	r0, r3, r0
 80003fa:	4b01      	ldr	r3, [pc, #4]	; (8000400 <_Z22exti_clear_pending_bitm+0x14>)
 80003fc:	50d0      	str	r0, [r2, r3]
 80003fe:	4770      	bx	lr
 8000400:	40010414 	andmi	r0, r1, r4, lsl r4

08000404 <_Z16exti_line_confighh>:
 8000404:	f001 0303 	and.w	r3, r1, #3
 8000408:	f001 01fc 	and.w	r1, r1, #252	; 0xfc
 800040c:	f101 4180 	add.w	r1, r1, #1073741824	; 0x40000000
 8000410:	f501 3180 	add.w	r1, r1, #65536	; 0x10000
 8000414:	b510      	push	{r4, lr}
 8000416:	688a      	ldr	r2, [r1, #8]
 8000418:	009b      	lsls	r3, r3, #2
 800041a:	240f      	movs	r4, #15
 800041c:	409c      	lsls	r4, r3
 800041e:	ea22 0204 	bic.w	r2, r2, r4
 8000422:	608a      	str	r2, [r1, #8]
 8000424:	688a      	ldr	r2, [r1, #8]
 8000426:	4098      	lsls	r0, r3
 8000428:	4310      	orrs	r0, r2
 800042a:	6088      	str	r0, [r1, #8]
 800042c:	bd10      	pop	{r4, pc}

0800042e <_Z14configure_extimm>:
 800042e:	f020 031f 	bic.w	r3, r0, #31
 8000432:	f103 4380 	add.w	r3, r3, #1073741824	; 0x40000000
 8000436:	f503 3382 	add.w	r3, r3, #66560	; 0x10400
 800043a:	2201      	movs	r2, #1
 800043c:	f000 001f 	and.w	r0, r0, #31
 8000440:	b530      	push	{r4, r5, lr}
 8000442:	fa02 f000 	lsl.w	r0, r2, r0
 8000446:	681c      	ldr	r4, [r3, #0]
 8000448:	43c2      	mvns	r2, r0
 800044a:	4014      	ands	r4, r2
 800044c:	601c      	str	r4, [r3, #0]
 800044e:	685d      	ldr	r5, [r3, #4]
 8000450:	4015      	ands	r5, r2
 8000452:	605d      	str	r5, [r3, #4]
 8000454:	681d      	ldr	r5, [r3, #0]
 8000456:	4305      	orrs	r5, r0
 8000458:	601d      	str	r5, [r3, #0]
 800045a:	689d      	ldr	r5, [r3, #8]
 800045c:	4015      	ands	r5, r2
 800045e:	609d      	str	r5, [r3, #8]
 8000460:	68dd      	ldr	r5, [r3, #12]
 8000462:	f103 4440 	add.w	r4, r3, #3221225472	; 0xc0000000
 8000466:	402a      	ands	r2, r5
 8000468:	2910      	cmp	r1, #16
 800046a:	f5a4 3482 	sub.w	r4, r4, #66560	; 0x10400
 800046e:	60da      	str	r2, [r3, #12]
 8000470:	d106      	bne.n	8000480 <_Z14configure_extimm+0x52>
 8000472:	689a      	ldr	r2, [r3, #8]
 8000474:	4302      	orrs	r2, r0
 8000476:	609a      	str	r2, [r3, #8]
 8000478:	68da      	ldr	r2, [r3, #12]
 800047a:	4310      	orrs	r0, r2
 800047c:	60d8      	str	r0, [r3, #12]
 800047e:	bd30      	pop	{r4, r5, pc}
 8000480:	f101 4180 	add.w	r1, r1, #1073741824	; 0x40000000
 8000484:	f501 3182 	add.w	r1, r1, #66560	; 0x10400
 8000488:	590b      	ldr	r3, [r1, r4]
 800048a:	4318      	orrs	r0, r3
 800048c:	5108      	str	r0, [r1, r4]
 800048e:	bd30      	pop	{r4, r5, pc}

08000490 <_ZN9SpeedRampIfED1Ev>:
 8000490:	4770      	bx	lr

08000492 <_ZN9SpeedRampIfED0Ev>:
 8000492:	b510      	push	{r4, lr}
 8000494:	210c      	movs	r1, #12
 8000496:	4604      	mov	r4, r0
 8000498:	f000 ffe2 	bl	8001460 <_ZdlPvj>
 800049c:	4620      	mov	r0, r4
 800049e:	bd10      	pop	{r4, pc}

080004a0 <_ZN5RobotC1Ev>:
 80004a0:	e92d 41f3 	stmdb	sp!, {r0, r1, r4, r5, r6, r7, r8, lr}
 80004a4:	4606      	mov	r6, r0
 80004a6:	4b1e      	ldr	r3, [pc, #120]	; (8000520 <_ZN5RobotC1Ev+0x80>)
 80004a8:	f846 3b04 	str.w	r3, [r6], #4
 80004ac:	4604      	mov	r4, r0
 80004ae:	2500      	movs	r5, #0
 80004b0:	f04f 537e 	mov.w	r3, #1065353216	; 0x3f800000
 80004b4:	462a      	mov	r2, r5
 80004b6:	4629      	mov	r1, r5
 80004b8:	9300      	str	r3, [sp, #0]
 80004ba:	f104 0830 	add.w	r8, r4, #48	; 0x30
 80004be:	462b      	mov	r3, r5
 80004c0:	4630      	mov	r0, r6
 80004c2:	f000 fff9 	bl	80014b8 <_ZN3PIDC1Effff>
 80004c6:	f104 07e0 	add.w	r7, r4, #224	; 0xe0
 80004ca:	4640      	mov	r0, r8
 80004cc:	f003 faa8 	bl	8003a20 <_ZN11LineNetworkC1Ev>
 80004d0:	4638      	mov	r0, r7
 80004d2:	f003 f863 	bl	800359c <_ZN13LinePredictorC1Ev>
 80004d6:	f504 7098 	add.w	r0, r4, #304	; 0x130
 80004da:	f002 fed1 	bl	8003280 <_ZN10LineSearchC1Ev>
 80004de:	f504 70c6 	add.w	r0, r4, #396	; 0x18c
 80004e2:	f003 fc3b 	bl	8003d5c <_ZN10BrickAvoidC1Ev>
 80004e6:	4b0f      	ldr	r3, [pc, #60]	; (8000524 <_ZN5RobotC1Ev+0x84>)
 80004e8:	f8c4 31e4 	str.w	r3, [r4, #484]	; 0x1e4
 80004ec:	4b0e      	ldr	r3, [pc, #56]	; (8000528 <_ZN5RobotC1Ev+0x88>)
 80004ee:	9300      	str	r3, [sp, #0]
 80004f0:	462a      	mov	r2, r5
 80004f2:	4630      	mov	r0, r6
 80004f4:	f8c4 51e8 	str.w	r5, [r4, #488]	; 0x1e8
 80004f8:	f8c4 51ec 	str.w	r5, [r4, #492]	; 0x1ec
 80004fc:	4b0b      	ldr	r3, [pc, #44]	; (800052c <_ZN5RobotC1Ev+0x8c>)
 80004fe:	490c      	ldr	r1, [pc, #48]	; (8000530 <_ZN5RobotC1Ev+0x90>)
 8000500:	f000 ffc3 	bl	800148a <_ZN3PID4initEffff>
 8000504:	4b0b      	ldr	r3, [pc, #44]	; (8000534 <_ZN5RobotC1Ev+0x94>)
 8000506:	f8c4 51e8 	str.w	r5, [r4, #488]	; 0x1e8
 800050a:	4638      	mov	r0, r7
 800050c:	f8c4 31ec 	str.w	r3, [r4, #492]	; 0x1ec
 8000510:	4641      	mov	r1, r8
 8000512:	f003 f86d 	bl	80035f0 <_ZN13LinePredictor4initER13NeuralNetwork>
 8000516:	4620      	mov	r0, r4
 8000518:	b002      	add	sp, #8
 800051a:	e8bd 81f0 	ldmia.w	sp!, {r4, r5, r6, r7, r8, pc}
 800051e:	bf00      	nop
 8000520:	08003f18 	stmdaeq	r0, {r3, r4, r8, r9, sl, fp, ip, sp}
 8000524:	08003f08 	stmdaeq	r0, {r3, r8, r9, sl, fp, ip, sp}
 8000528:	41200000 			; <UNDEFINED> instruction: 0x41200000
 800052c:	3fe66666 	svccc	0x00e66666
 8000530:	3ecccccd 	cdpcc	12, 12, cr12, cr12, cr13, {6}
 8000534:	3b03126f 	blcc	80c4ef8 <_sidata+0xc063c>

08000538 <_ZN5Robot14line_followingEv>:
 8000538:	b510      	push	{r4, lr}
 800053a:	4604      	mov	r4, r0
 800053c:	ed2d 8b04 	vpush	{d8-d9}
 8000540:	482d      	ldr	r0, [pc, #180]	; (80005f8 <_ZN5Robot14line_followingEv+0xc0>)
 8000542:	f001 ff7d 	bl	8002440 <_ZN13EncoderSensor12get_distanceEv>
 8000546:	492d      	ldr	r1, [pc, #180]	; (80005fc <_ZN5Robot14line_followingEv+0xc4>)
 8000548:	4602      	mov	r2, r0
 800054a:	230a      	movs	r3, #10
 800054c:	f104 00e0 	add.w	r0, r4, #224	; 0xe0
 8000550:	f003 f85e 	bl	8003610 <_ZN13LinePredictor7processER5ArrayIiLj8EEli>
 8000554:	f8d4 3128 	ldr.w	r3, [r4, #296]	; 0x128
 8000558:	ed9f 7a29 	vldr	s14, [pc, #164]	; 8000600 <_ZN5Robot14line_followingEv+0xc8>
 800055c:	eddf 7a29 	vldr	s15, [pc, #164]	; 8000604 <_ZN5Robot14line_followingEv+0xcc>
 8000560:	4829      	ldr	r0, [pc, #164]	; (8000608 <_ZN5Robot14line_followingEv+0xd0>)
 8000562:	2b02      	cmp	r3, #2
 8000564:	4b29      	ldr	r3, [pc, #164]	; (800060c <_ZN5Robot14line_followingEv+0xd4>)
 8000566:	7c1b      	ldrb	r3, [r3, #16]
 8000568:	bf18      	it	ne
 800056a:	eef0 7a47 	vmovne.f32	s15, s14
 800056e:	2b00      	cmp	r3, #0
 8000570:	bf18      	it	ne
 8000572:	eef0 7a47 	vmovne.f32	s15, s14
 8000576:	ed94 7a7a 	vldr	s14, [r4, #488]	; 0x1e8
 800057a:	eef4 7ac7 	vcmpe.f32	s15, s14
 800057e:	eef1 fa10 	vmrs	APSR_nzcv, fpscr
 8000582:	bfc4      	itt	gt
 8000584:	edd4 7a7b 	vldrgt	s15, [r4, #492]	; 0x1ec
 8000588:	ee77 7a87 	vaddgt.f32	s15, s15, s14
 800058c:	edc4 7a7a 	vstr	s15, [r4, #488]	; 0x1e8
 8000590:	edd0 7a32 	vldr	s15, [r0, #200]	; 0xc8
 8000594:	ed94 9a7a 	vldr	s18, [r4, #488]	; 0x1e8
 8000598:	eef8 8ae7 	vcvt.f32.s32	s17, s15
 800059c:	f001 fcd0 	bl	8001f40 <_ZN10LineSensor7get_maxEv>
 80005a0:	ee07 0a90 	vmov	s15, r0
 80005a4:	eef8 7ae7 	vcvt.f32.s32	s15, s15
 80005a8:	1d20      	adds	r0, r4, #4
 80005aa:	ee88 8aa7 	vdiv.f32	s16, s17, s15
 80005ae:	eddf 7a18 	vldr	s15, [pc, #96]	; 8000610 <_ZN5Robot14line_followingEv+0xd8>
 80005b2:	ee77 7ac8 	vsub.f32	s15, s15, s16
 80005b6:	ee18 2a10 	vmov	r2, s16
 80005ba:	ee17 1a90 	vmov	r1, s15
 80005be:	f000 ff87 	bl	80014d0 <_ZN3PID7processEff>
 80005c2:	ee07 0a90 	vmov	s15, r0
 80005c6:	ee79 8a67 	vsub.f32	s17, s18, s15
 80005ca:	ee77 7a89 	vadd.f32	s15, s15, s18
 80005ce:	4811      	ldr	r0, [pc, #68]	; (8000614 <_ZN5Robot14line_followingEv+0xdc>)
 80005d0:	ee17 1a90 	vmov	r1, s15
 80005d4:	f002 f854 	bl	8002680 <_ZN13MotorControll14set_left_speedEf>
 80005d8:	ee18 1a90 	vmov	r1, s17
 80005dc:	480d      	ldr	r0, [pc, #52]	; (8000614 <_ZN5Robot14line_followingEv+0xdc>)
 80005de:	f002 f851 	bl	8002684 <_ZN13MotorControll15set_right_speedEf>
 80005e2:	ee18 1a10 	vmov	r1, s16
 80005e6:	ecbd 8b04 	vpop	{d8-d9}
 80005ea:	f504 7098 	add.w	r0, r4, #304	; 0x130
 80005ee:	e8bd 4010 	ldmia.w	sp!, {r4, lr}
 80005f2:	f002 be59 	b.w	80032a8 <_ZN10LineSearch22set_last_line_positionEf>
 80005f6:	bf00      	nop
 80005f8:	200001a4 	andcs	r0, r0, r4, lsr #3
 80005fc:	200002a0 	andcs	r0, r0, r0, lsr #5
 8000600:	3ecccccd 	cdpcc	12, 12, cr12, cr12, cr13, {6}
 8000604:	3f4ccccd 	svccc	0x004ccccd
 8000608:	20000224 	andcs	r0, r0, r4, lsr #4
 800060c:	20000158 	andcs	r0, r0, r8, asr r1
 8000610:	00000000 	andeq	r0, r0, r0
 8000614:	200002f0 	strdcs	r0, [r0], -r0	; <UNPREDICTABLE>

08000618 <_ZN5Robot4mainEv>:
 8000618:	b5f8      	push	{r3, r4, r5, r6, r7, lr}
 800061a:	ed2d 8b02 	vpush	{d8}
 800061e:	4f1e      	ldr	r7, [pc, #120]	; (8000698 <_ZN5Robot4mainEv+0x80>)
 8000620:	4d1e      	ldr	r5, [pc, #120]	; (800069c <_ZN5Robot4mainEv+0x84>)
 8000622:	4604      	mov	r4, r0
 8000624:	2600      	movs	r6, #0
 8000626:	481c      	ldr	r0, [pc, #112]	; (8000698 <_ZN5Robot4mainEv+0x80>)
 8000628:	f002 f9b2 	bl	8002990 <_ZN14DistanceSensor5readyEv>
 800062c:	b108      	cbz	r0, 8000632 <_ZN5Robot4mainEv+0x1a>
 800062e:	7c7b      	ldrb	r3, [r7, #17]
 8000630:	bb63      	cbnz	r3, 800068c <_ZN5Robot4mainEv+0x74>
 8000632:	4628      	mov	r0, r5
 8000634:	f001 fc7c 	bl	8001f30 <_ZN10LineSensor5readyEv>
 8000638:	2800      	cmp	r0, #0
 800063a:	d0f4      	beq.n	8000626 <_ZN5Robot4mainEv+0xe>
 800063c:	f895 30c0 	ldrb.w	r3, [r5, #192]	; 0xc0
 8000640:	b11b      	cbz	r3, 800064a <_ZN5Robot4mainEv+0x32>
 8000642:	4620      	mov	r0, r4
 8000644:	f7ff ff78 	bl	8000538 <_ZN5Robot14line_followingEv>
 8000648:	e7ed      	b.n	8000626 <_ZN5Robot4mainEv+0xe>
 800064a:	f504 7098 	add.w	r0, r4, #304	; 0x130
 800064e:	f002 fe61 	bl	8003314 <_ZN10LineSearch4mainEv>
 8000652:	2100      	movs	r1, #0
 8000654:	4812      	ldr	r0, [pc, #72]	; (80006a0 <_ZN5Robot4mainEv+0x88>)
 8000656:	f002 f813 	bl	8002680 <_ZN13MotorControll14set_left_speedEf>
 800065a:	2100      	movs	r1, #0
 800065c:	4810      	ldr	r0, [pc, #64]	; (80006a0 <_ZN5Robot4mainEv+0x88>)
 800065e:	f002 f811 	bl	8002684 <_ZN13MotorControll15set_right_speedEf>
 8000662:	edd5 7a32 	vldr	s15, [r5, #200]	; 0xc8
 8000666:	f8c4 61e8 	str.w	r6, [r4, #488]	; 0x1e8
 800066a:	4628      	mov	r0, r5
 800066c:	eeb8 8ae7 	vcvt.f32.s32	s16, s15
 8000670:	f001 fc66 	bl	8001f40 <_ZN10LineSensor7get_maxEv>
 8000674:	ee07 0a90 	vmov	s15, r0
 8000678:	eef8 7ae7 	vcvt.f32.s32	s15, s15
 800067c:	1d20      	adds	r0, r4, #4
 800067e:	ee88 7a27 	vdiv.f32	s14, s16, s15
 8000682:	ee17 1a10 	vmov	r1, s14
 8000686:	f000 ff63 	bl	8001550 <_ZN3PID5resetEf>
 800068a:	e7cc      	b.n	8000626 <_ZN5Robot4mainEv+0xe>
 800068c:	2101      	movs	r1, #1
 800068e:	f504 70c6 	add.w	r0, r4, #396	; 0x18c
 8000692:	f003 fba9 	bl	8003de8 <_ZN10BrickAvoid5avoidEj>
 8000696:	e7dc      	b.n	8000652 <_ZN5Robot4mainEv+0x3a>
 8000698:	20000158 	andcs	r0, r0, r8, asr r1
 800069c:	20000224 	andcs	r0, r0, r4, lsr #4
 80006a0:	200002f0 	strdcs	r0, [r0], -r0	; <UNPREDICTABLE>

080006a4 <_ZN5RobotD1Ev>:
 80006a4:	4b0c      	ldr	r3, [pc, #48]	; (80006d8 <_ZN5RobotD1Ev+0x34>)
 80006a6:	b510      	push	{r4, lr}
 80006a8:	4604      	mov	r4, r0
 80006aa:	6003      	str	r3, [r0, #0]
 80006ac:	f500 70c6 	add.w	r0, r0, #396	; 0x18c
 80006b0:	f003 fb84 	bl	8003dbc <_ZN10BrickAvoidD1Ev>
 80006b4:	f504 7098 	add.w	r0, r4, #304	; 0x130
 80006b8:	f002 fe9c 	bl	80033f4 <_ZN10LineSearchD1Ev>
 80006bc:	f104 00e0 	add.w	r0, r4, #224	; 0xe0
 80006c0:	f002 ff64 	bl	800358c <_ZN13LinePredictorD1Ev>
 80006c4:	f104 0030 	add.w	r0, r4, #48	; 0x30
 80006c8:	f003 f984 	bl	80039d4 <_ZN11LineNetworkD1Ev>
 80006cc:	1d20      	adds	r0, r4, #4
 80006ce:	f000 fed4 	bl	800147a <_ZN3PIDD1Ev>
 80006d2:	4620      	mov	r0, r4
 80006d4:	bd10      	pop	{r4, pc}
 80006d6:	bf00      	nop
 80006d8:	08003f18 	stmdaeq	r0, {r3, r4, r8, r9, sl, fp, ip, sp}

080006dc <_ZN5RobotD0Ev>:
 80006dc:	b510      	push	{r4, lr}
 80006de:	4604      	mov	r4, r0
 80006e0:	f7ff ffe0 	bl	80006a4 <_ZN5RobotD1Ev>
 80006e4:	4620      	mov	r0, r4
 80006e6:	f44f 71f8 	mov.w	r1, #496	; 0x1f0
 80006ea:	f000 feb9 	bl	8001460 <_ZdlPvj>
 80006ee:	4620      	mov	r0, r4
 80006f0:	bd10      	pop	{r4, pc}

080006f2 <_ZN13I2C_Interface5startEv>:
 80006f2:	4770      	bx	lr

080006f4 <_ZN13I2C_Interface4stopEv>:
 80006f4:	4770      	bx	lr

080006f6 <_ZN13I2C_Interface4initEv>:
 80006f6:	2314      	movs	r3, #20
 80006f8:	6043      	str	r3, [r0, #4]
 80006fa:	4770      	bx	lr

080006fc <_ZN13I2C_Interface5writeEh>:
 80006fc:	2000      	movs	r0, #0
 80006fe:	4770      	bx	lr

08000700 <_ZN13I2C_Interface4readEh>:
 8000700:	2000      	movs	r0, #0
 8000702:	4770      	bx	lr

08000704 <_ZN13I2C_InterfaceC1Ev>:
 8000704:	4b01      	ldr	r3, [pc, #4]	; (800070c <_ZN13I2C_InterfaceC1Ev+0x8>)
 8000706:	6003      	str	r3, [r0, #0]
 8000708:	4770      	bx	lr
 800070a:	bf00      	nop
 800070c:	08003f28 	stmdaeq	r0, {r3, r5, r8, r9, sl, fp, ip, sp}

08000710 <_ZN13I2C_InterfaceD1Ev>:
 8000710:	4770      	bx	lr

08000712 <_ZN13I2C_Interface9write_regEhhh>:
 8000712:	e92d 41f0 	stmdb	sp!, {r4, r5, r6, r7, r8, lr}
 8000716:	461d      	mov	r5, r3
 8000718:	6803      	ldr	r3, [r0, #0]
 800071a:	4604      	mov	r4, r0
 800071c:	681b      	ldr	r3, [r3, #0]
 800071e:	4616      	mov	r6, r2
 8000720:	460f      	mov	r7, r1
 8000722:	4798      	blx	r3
 8000724:	6823      	ldr	r3, [r4, #0]
 8000726:	4639      	mov	r1, r7
 8000728:	68db      	ldr	r3, [r3, #12]
 800072a:	4620      	mov	r0, r4
 800072c:	4798      	blx	r3
 800072e:	6823      	ldr	r3, [r4, #0]
 8000730:	4631      	mov	r1, r6
 8000732:	68db      	ldr	r3, [r3, #12]
 8000734:	4620      	mov	r0, r4
 8000736:	4798      	blx	r3
 8000738:	6823      	ldr	r3, [r4, #0]
 800073a:	4629      	mov	r1, r5
 800073c:	68da      	ldr	r2, [r3, #12]
 800073e:	4620      	mov	r0, r4
 8000740:	4790      	blx	r2
 8000742:	6823      	ldr	r3, [r4, #0]
 8000744:	4620      	mov	r0, r4
 8000746:	685b      	ldr	r3, [r3, #4]
 8000748:	e8bd 41f0 	ldmia.w	sp!, {r4, r5, r6, r7, r8, lr}
 800074c:	4718      	bx	r3

0800074e <_ZN13I2C_Interface8read_regEhh>:
 800074e:	6803      	ldr	r3, [r0, #0]
 8000750:	b570      	push	{r4, r5, r6, lr}
 8000752:	4604      	mov	r4, r0
 8000754:	681b      	ldr	r3, [r3, #0]
 8000756:	4616      	mov	r6, r2
 8000758:	460d      	mov	r5, r1
 800075a:	4798      	blx	r3
 800075c:	6823      	ldr	r3, [r4, #0]
 800075e:	4629      	mov	r1, r5
 8000760:	68db      	ldr	r3, [r3, #12]
 8000762:	4620      	mov	r0, r4
 8000764:	4798      	blx	r3
 8000766:	6823      	ldr	r3, [r4, #0]
 8000768:	4631      	mov	r1, r6
 800076a:	68db      	ldr	r3, [r3, #12]
 800076c:	4620      	mov	r0, r4
 800076e:	4798      	blx	r3
 8000770:	6823      	ldr	r3, [r4, #0]
 8000772:	4620      	mov	r0, r4
 8000774:	681b      	ldr	r3, [r3, #0]
 8000776:	4798      	blx	r3
 8000778:	6823      	ldr	r3, [r4, #0]
 800077a:	f045 0101 	orr.w	r1, r5, #1
 800077e:	68db      	ldr	r3, [r3, #12]
 8000780:	4620      	mov	r0, r4
 8000782:	4798      	blx	r3
 8000784:	6823      	ldr	r3, [r4, #0]
 8000786:	2100      	movs	r1, #0
 8000788:	691b      	ldr	r3, [r3, #16]
 800078a:	4620      	mov	r0, r4
 800078c:	4798      	blx	r3
 800078e:	6823      	ldr	r3, [r4, #0]
 8000790:	4605      	mov	r5, r0
 8000792:	685b      	ldr	r3, [r3, #4]
 8000794:	4620      	mov	r0, r4
 8000796:	4798      	blx	r3
 8000798:	4628      	mov	r0, r5
 800079a:	bd70      	pop	{r4, r5, r6, pc}

0800079c <_ZN13I2C_Interface5delayEv>:
 800079c:	6842      	ldr	r2, [r0, #4]
 800079e:	2300      	movs	r3, #0
 80007a0:	4293      	cmp	r3, r2
 80007a2:	d002      	beq.n	80007aa <_ZN13I2C_Interface5delayEv+0xe>
 80007a4:	bf00      	nop
 80007a6:	3301      	adds	r3, #1
 80007a8:	e7fa      	b.n	80007a0 <_ZN13I2C_Interface5delayEv+0x4>
 80007aa:	4770      	bx	lr

080007ac <_ZN10NetFcLayerD1Ev>:
 80007ac:	b510      	push	{r4, lr}
 80007ae:	4b03      	ldr	r3, [pc, #12]	; (80007bc <_ZN10NetFcLayerD1Ev+0x10>)
 80007b0:	6003      	str	r3, [r0, #0]
 80007b2:	4604      	mov	r4, r0
 80007b4:	f000 fdd3 	bl	800135e <_ZN12NetworkLayerD1Ev>
 80007b8:	4620      	mov	r0, r4
 80007ba:	bd10      	pop	{r4, pc}
 80007bc:	08003f44 	stmdaeq	r0, {r2, r6, r8, r9, sl, fp, ip, sp}

080007c0 <_ZN10NetFcLayerD0Ev>:
 80007c0:	b510      	push	{r4, lr}
 80007c2:	4604      	mov	r4, r0
 80007c4:	f7ff fff2 	bl	80007ac <_ZN10NetFcLayerD1Ev>
 80007c8:	4620      	mov	r0, r4
 80007ca:	2140      	movs	r1, #64	; 0x40
 80007cc:	f000 fe48 	bl	8001460 <_ZdlPvj>
 80007d0:	4620      	mov	r0, r4
 80007d2:	bd10      	pop	{r4, pc}

080007d4 <_ZN10NetFcLayer7forwardEPaS0_>:
 80007d4:	e92d 4ff8 	stmdb	sp!, {r3, r4, r5, r6, r7, r8, r9, sl, fp, lr}
 80007d8:	4604      	mov	r4, r0
 80007da:	460e      	mov	r6, r1
 80007dc:	4692      	mov	sl, r2
 80007de:	460d      	mov	r5, r1
 80007e0:	f04f 0980 	mov.w	r9, #128	; 0x80
 80007e4:	f44f 6880 	mov.w	r8, #1024	; 0x400
 80007e8:	f06f 077e 	mvn.w	r7, #126	; 0x7e
 80007ec:	6ba3      	ldr	r3, [r4, #56]	; 0x38
 80007ee:	eba5 0b06 	sub.w	fp, r5, r6
 80007f2:	455b      	cmp	r3, fp
 80007f4:	d91b      	bls.n	800082e <_ZN10NetFcLayer7forwardEPaS0_+0x5a>
 80007f6:	6be2      	ldr	r2, [r4, #60]	; 0x3c
 80007f8:	6aa0      	ldr	r0, [r4, #40]	; 0x28
 80007fa:	4651      	mov	r1, sl
 80007fc:	fb0b 0002 	mla	r0, fp, r2, r0
 8000800:	f000 fda0 	bl	8001344 <_Z18network_dot_kernelPaS_j>
 8000804:	6b23      	ldr	r3, [r4, #48]	; 0x30
 8000806:	6b62      	ldr	r2, [r4, #52]	; 0x34
 8000808:	4358      	muls	r0, r3
 800080a:	6ae3      	ldr	r3, [r4, #44]	; 0x2c
 800080c:	fb90 f0f9 	sdiv	r0, r0, r9
 8000810:	f913 300b 	ldrsb.w	r3, [r3, fp]
 8000814:	fb02 0003 	mla	r0, r2, r3, r0
 8000818:	fb90 f0f8 	sdiv	r0, r0, r8
 800081c:	42b8      	cmp	r0, r7
 800081e:	bfb8      	it	lt
 8000820:	4638      	movlt	r0, r7
 8000822:	287f      	cmp	r0, #127	; 0x7f
 8000824:	bfa8      	it	ge
 8000826:	207f      	movge	r0, #127	; 0x7f
 8000828:	f805 0b01 	strb.w	r0, [r5], #1
 800082c:	e7de      	b.n	80007ec <_ZN10NetFcLayer7forwardEPaS0_+0x18>
 800082e:	e8bd 8ff8 	ldmia.w	sp!, {r3, r4, r5, r6, r7, r8, r9, sl, fp, pc}
 8000832:	0000      	movs	r0, r0

08000834 <_ZN10NetFcLayerC1E14sLayerGeometryS0_S0_PKaS2_ii>:
 8000834:	b530      	push	{r4, r5, lr}
 8000836:	b085      	sub	sp, #20
 8000838:	4604      	mov	r4, r0
 800083a:	ad01      	add	r5, sp, #4
 800083c:	e885 000e 	stmia.w	r5, {r1, r2, r3}
 8000840:	f000 fd96 	bl	8001370 <_ZN12NetworkLayerC1Ev>
 8000844:	4623      	mov	r3, r4
 8000846:	4a14      	ldr	r2, [pc, #80]	; (8000898 <_ZN10NetFcLayerC1E14sLayerGeometryS0_S0_PKaS2_ii+0x64>)
 8000848:	f843 2b1c 	str.w	r2, [r3], #28
 800084c:	e895 0007 	ldmia.w	r5, {r0, r1, r2}
 8000850:	e883 0007 	stmia.w	r3, {r0, r1, r2}
 8000854:	aa08      	add	r2, sp, #32
 8000856:	ca07      	ldmia	r2, {r0, r1, r2}
 8000858:	1d23      	adds	r3, r4, #4
 800085a:	e883 0007 	stmia.w	r3, {r0, r1, r2}
 800085e:	aa0b      	add	r2, sp, #44	; 0x2c
 8000860:	ca07      	ldmia	r2, {r0, r1, r2}
 8000862:	f104 0310 	add.w	r3, r4, #16
 8000866:	e883 0007 	stmia.w	r3, {r0, r1, r2}
 800086a:	9b0e      	ldr	r3, [sp, #56]	; 0x38
 800086c:	62a3      	str	r3, [r4, #40]	; 0x28
 800086e:	9b0f      	ldr	r3, [sp, #60]	; 0x3c
 8000870:	62e3      	str	r3, [r4, #44]	; 0x2c
 8000872:	9b10      	ldr	r3, [sp, #64]	; 0x40
 8000874:	6323      	str	r3, [r4, #48]	; 0x30
 8000876:	9b11      	ldr	r3, [sp, #68]	; 0x44
 8000878:	6363      	str	r3, [r4, #52]	; 0x34
 800087a:	6862      	ldr	r2, [r4, #4]
 800087c:	68a3      	ldr	r3, [r4, #8]
 800087e:	435a      	muls	r2, r3
 8000880:	68e3      	ldr	r3, [r4, #12]
 8000882:	4353      	muls	r3, r2
 8000884:	63e3      	str	r3, [r4, #60]	; 0x3c
 8000886:	6963      	ldr	r3, [r4, #20]
 8000888:	4602      	mov	r2, r0
 800088a:	435a      	muls	r2, r3
 800088c:	69a3      	ldr	r3, [r4, #24]
 800088e:	4620      	mov	r0, r4
 8000890:	4353      	muls	r3, r2
 8000892:	63a3      	str	r3, [r4, #56]	; 0x38
 8000894:	b005      	add	sp, #20
 8000896:	bd30      	pop	{r4, r5, pc}
 8000898:	08003f44 	stmdaeq	r0, {r2, r6, r8, r9, sl, fp, ip, sp}

0800089c <_ZN12NetReluLayer7forwardEPaS0_>:
 800089c:	b570      	push	{r4, r5, r6, lr}
 800089e:	3a01      	subs	r2, #1
 80008a0:	460b      	mov	r3, r1
 80008a2:	2500      	movs	r5, #0
 80008a4:	6a86      	ldr	r6, [r0, #40]	; 0x28
 80008a6:	1a5c      	subs	r4, r3, r1
 80008a8:	42a6      	cmp	r6, r4
 80008aa:	d907      	bls.n	80008bc <_ZN12NetReluLayer7forwardEPaS0_+0x20>
 80008ac:	f912 4f01 	ldrsb.w	r4, [r2, #1]!
 80008b0:	2c00      	cmp	r4, #0
 80008b2:	bfb4      	ite	lt
 80008b4:	701d      	strblt	r5, [r3, #0]
 80008b6:	701c      	strbge	r4, [r3, #0]
 80008b8:	3301      	adds	r3, #1
 80008ba:	e7f3      	b.n	80008a4 <_ZN12NetReluLayer7forwardEPaS0_+0x8>
 80008bc:	bd70      	pop	{r4, r5, r6, pc}
 80008be:	0000      	movs	r0, r0

080008c0 <_ZN12NetReluLayerD1Ev>:
 80008c0:	b510      	push	{r4, lr}
 80008c2:	4b03      	ldr	r3, [pc, #12]	; (80008d0 <_ZN12NetReluLayerD1Ev+0x10>)
 80008c4:	6003      	str	r3, [r0, #0]
 80008c6:	4604      	mov	r4, r0
 80008c8:	f000 fd49 	bl	800135e <_ZN12NetworkLayerD1Ev>
 80008cc:	4620      	mov	r0, r4
 80008ce:	bd10      	pop	{r4, pc}
 80008d0:	08003f58 	stmdaeq	r0, {r3, r4, r6, r8, r9, sl, fp, ip, sp}

080008d4 <_ZN12NetReluLayerD0Ev>:
 80008d4:	b510      	push	{r4, lr}
 80008d6:	4604      	mov	r4, r0
 80008d8:	f7ff fff2 	bl	80008c0 <_ZN12NetReluLayerD1Ev>
 80008dc:	4620      	mov	r0, r4
 80008de:	212c      	movs	r1, #44	; 0x2c
 80008e0:	f000 fdbe 	bl	8001460 <_ZdlPvj>
 80008e4:	4620      	mov	r0, r4
 80008e6:	bd10      	pop	{r4, pc}

080008e8 <_ZN12NetReluLayerC1E14sLayerGeometryS0_S0_>:
 80008e8:	b530      	push	{r4, r5, lr}
 80008ea:	b085      	sub	sp, #20
 80008ec:	4604      	mov	r4, r0
 80008ee:	ad01      	add	r5, sp, #4
 80008f0:	e885 000e 	stmia.w	r5, {r1, r2, r3}
 80008f4:	f000 fd3c 	bl	8001370 <_ZN12NetworkLayerC1Ev>
 80008f8:	4623      	mov	r3, r4
 80008fa:	4a0d      	ldr	r2, [pc, #52]	; (8000930 <_ZN12NetReluLayerC1E14sLayerGeometryS0_S0_+0x48>)
 80008fc:	f843 2b1c 	str.w	r2, [r3], #28
 8000900:	e895 0007 	ldmia.w	r5, {r0, r1, r2}
 8000904:	e883 0007 	stmia.w	r3, {r0, r1, r2}
 8000908:	aa08      	add	r2, sp, #32
 800090a:	ca07      	ldmia	r2, {r0, r1, r2}
 800090c:	1d23      	adds	r3, r4, #4
 800090e:	e883 0007 	stmia.w	r3, {r0, r1, r2}
 8000912:	aa0b      	add	r2, sp, #44	; 0x2c
 8000914:	ca07      	ldmia	r2, {r0, r1, r2}
 8000916:	f104 0310 	add.w	r3, r4, #16
 800091a:	e883 0007 	stmia.w	r3, {r0, r1, r2}
 800091e:	68a3      	ldr	r3, [r4, #8]
 8000920:	6862      	ldr	r2, [r4, #4]
 8000922:	435a      	muls	r2, r3
 8000924:	68e3      	ldr	r3, [r4, #12]
 8000926:	4620      	mov	r0, r4
 8000928:	4353      	muls	r3, r2
 800092a:	62a3      	str	r3, [r4, #40]	; 0x28
 800092c:	b005      	add	sp, #20
 800092e:	bd30      	pop	{r4, r5, pc}
 8000930:	08003f58 	stmdaeq	r0, {r3, r4, r6, r8, r9, sl, fp, ip, sp}

08000934 <_Z28t_network_convolution_kernelILj3EEvPaS0_S0_S0_iijjjj>:
 8000934:	e92d 4ff0 	stmdb	sp!, {r4, r5, r6, r7, r8, r9, sl, fp, lr}
 8000938:	b08d      	sub	sp, #52	; 0x34
 800093a:	9c18      	ldr	r4, [sp, #96]	; 0x60
 800093c:	910a      	str	r1, [sp, #40]	; 0x28
 800093e:	9919      	ldr	r1, [sp, #100]	; 0x64
 8000940:	9009      	str	r0, [sp, #36]	; 0x24
 8000942:	1e8d      	subs	r5, r1, #2
 8000944:	4361      	muls	r1, r4
 8000946:	9103      	str	r1, [sp, #12]
 8000948:	991b      	ldr	r1, [sp, #108]	; 0x6c
 800094a:	981a      	ldr	r0, [sp, #104]	; 0x68
 800094c:	9505      	str	r5, [sp, #20]
 800094e:	1859      	adds	r1, r3, r1
 8000950:	eb00 00c0 	add.w	r0, r0, r0, lsl #3
 8000954:	9107      	str	r1, [sp, #28]
 8000956:	0061      	lsls	r1, r4, #1
 8000958:	9104      	str	r1, [sp, #16]
 800095a:	4601      	mov	r1, r0
 800095c:	1ea5      	subs	r5, r4, #2
 800095e:	3109      	adds	r1, #9
 8000960:	9506      	str	r5, [sp, #24]
 8000962:	9002      	str	r0, [sp, #8]
 8000964:	9201      	str	r2, [sp, #4]
 8000966:	46a4      	mov	ip, r4
 8000968:	910b      	str	r1, [sp, #44]	; 0x2c
 800096a:	9907      	ldr	r1, [sp, #28]
 800096c:	428b      	cmp	r3, r1
 800096e:	d07b      	beq.n	8000a68 <_Z28t_network_convolution_kernelILj3EEvPaS0_S0_S0_iijjjj+0x134>
 8000970:	990b      	ldr	r1, [sp, #44]	; 0x2c
 8000972:	9a01      	ldr	r2, [sp, #4]
 8000974:	2500      	movs	r5, #0
 8000976:	4411      	add	r1, r2
 8000978:	9108      	str	r1, [sp, #32]
 800097a:	46a8      	mov	r8, r5
 800097c:	9909      	ldr	r1, [sp, #36]	; 0x24
 800097e:	eb05 0e0c 	add.w	lr, r5, ip
 8000982:	448e      	add	lr, r1
 8000984:	2700      	movs	r7, #0
 8000986:	990a      	ldr	r1, [sp, #40]	; 0x28
 8000988:	1978      	adds	r0, r7, r5
 800098a:	4408      	add	r0, r1
 800098c:	9901      	ldr	r1, [sp, #4]
 800098e:	2600      	movs	r6, #0
 8000990:	9a08      	ldr	r2, [sp, #32]
 8000992:	3109      	adds	r1, #9
 8000994:	4291      	cmp	r1, r2
 8000996:	d03c      	beq.n	8000a12 <_Z28t_network_convolution_kernelILj3EEvPaS0_S0_S0_iijjjj+0xde>
 8000998:	f990 b000 	ldrsb.w	fp, [r0]
 800099c:	f911 ac09 	ldrsb.w	sl, [r1, #-9]
 80009a0:	f911 9c07 	ldrsb.w	r9, [r1, #-7]
 80009a4:	9a04      	ldr	r2, [sp, #16]
 80009a6:	fb1a 660b 	smlabb	r6, sl, fp, r6
 80009aa:	f990 b001 	ldrsb.w	fp, [r0, #1]
 80009ae:	f911 ac08 	ldrsb.w	sl, [r1, #-8]
 80009b2:	fb1a 660b 	smlabb	r6, sl, fp, r6
 80009b6:	f990 b002 	ldrsb.w	fp, [r0, #2]
 80009ba:	fb19 6b0b 	smlabb	fp, r9, fp, r6
 80009be:	f911 9c06 	ldrsb.w	r9, [r1, #-6]
 80009c2:	5706      	ldrsb	r6, [r0, r4]
 80009c4:	fb19 b606 	smlabb	r6, r9, r6, fp
 80009c8:	eb00 0904 	add.w	r9, r0, r4
 80009cc:	f911 bc05 	ldrsb.w	fp, [r1, #-5]
 80009d0:	f999 a001 	ldrsb.w	sl, [r9, #1]
 80009d4:	fb1b 660a 	smlabb	r6, fp, sl, r6
 80009d8:	f999 b002 	ldrsb.w	fp, [r9, #2]
 80009dc:	f911 ac04 	ldrsb.w	sl, [r1, #-4]
 80009e0:	f911 9c03 	ldrsb.w	r9, [r1, #-3]
 80009e4:	fb1a 6a0b 	smlabb	sl, sl, fp, r6
 80009e8:	f910 6014 	ldrsb.w	r6, [r0, r4, lsl #1]
 80009ec:	f911 bc02 	ldrsb.w	fp, [r1, #-2]
 80009f0:	fb19 a606 	smlabb	r6, r9, r6, sl
 80009f4:	eb00 0902 	add.w	r9, r0, r2
 80009f8:	9a03      	ldr	r2, [sp, #12]
 80009fa:	f999 a001 	ldrsb.w	sl, [r9, #1]
 80009fe:	fb1b 660a 	smlabb	r6, fp, sl, r6
 8000a02:	f911 ac01 	ldrsb.w	sl, [r1, #-1]
 8000a06:	f999 b002 	ldrsb.w	fp, [r9, #2]
 8000a0a:	4410      	add	r0, r2
 8000a0c:	fb1a 660b 	smlabb	r6, sl, fp, r6
 8000a10:	e7be      	b.n	8000990 <_Z28t_network_convolution_kernelILj3EEvPaS0_S0_S0_iijjjj+0x5c>
 8000a12:	9a16      	ldr	r2, [sp, #88]	; 0x58
 8000a14:	f993 1000 	ldrsb.w	r1, [r3]
 8000a18:	4356      	muls	r6, r2
 8000a1a:	2280      	movs	r2, #128	; 0x80
 8000a1c:	fb96 f6f2 	sdiv	r6, r6, r2
 8000a20:	9a17      	ldr	r2, [sp, #92]	; 0x5c
 8000a22:	fb02 6101 	mla	r1, r2, r1, r6
 8000a26:	f44f 6280 	mov.w	r2, #1024	; 0x400
 8000a2a:	fb91 f1f2 	sdiv	r1, r1, r2
 8000a2e:	f06f 027e 	mvn.w	r2, #126	; 0x7e
 8000a32:	4291      	cmp	r1, r2
 8000a34:	bfb8      	it	lt
 8000a36:	4611      	movlt	r1, r2
 8000a38:	9a06      	ldr	r2, [sp, #24]
 8000a3a:	297f      	cmp	r1, #127	; 0x7f
 8000a3c:	f107 0701 	add.w	r7, r7, #1
 8000a40:	bfa8      	it	ge
 8000a42:	217f      	movge	r1, #127	; 0x7f
 8000a44:	42ba      	cmp	r2, r7
 8000a46:	f80e 1f01 	strb.w	r1, [lr, #1]!
 8000a4a:	d29c      	bcs.n	8000986 <_Z28t_network_convolution_kernelILj3EEvPaS0_S0_S0_iijjjj+0x52>
 8000a4c:	9a05      	ldr	r2, [sp, #20]
 8000a4e:	f108 0801 	add.w	r8, r8, #1
 8000a52:	4542      	cmp	r2, r8
 8000a54:	4425      	add	r5, r4
 8000a56:	d291      	bcs.n	800097c <_Z28t_network_convolution_kernelILj3EEvPaS0_S0_S0_iijjjj+0x48>
 8000a58:	9a02      	ldr	r2, [sp, #8]
 8000a5a:	9901      	ldr	r1, [sp, #4]
 8000a5c:	4411      	add	r1, r2
 8000a5e:	9a03      	ldr	r2, [sp, #12]
 8000a60:	9101      	str	r1, [sp, #4]
 8000a62:	3301      	adds	r3, #1
 8000a64:	4494      	add	ip, r2
 8000a66:	e780      	b.n	800096a <_Z28t_network_convolution_kernelILj3EEvPaS0_S0_S0_iijjjj+0x36>
 8000a68:	b00d      	add	sp, #52	; 0x34
 8000a6a:	e8bd 8ff0 	ldmia.w	sp!, {r4, r5, r6, r7, r8, r9, sl, fp, pc}

08000a6e <_Z28t_network_convolution_kernelILj5EEvPaS0_S0_S0_iijjjj>:
 8000a6e:	e92d 4ff0 	stmdb	sp!, {r4, r5, r6, r7, r8, r9, sl, fp, lr}
 8000a72:	b093      	sub	sp, #76	; 0x4c
 8000a74:	2519      	movs	r5, #25
 8000a76:	9c1f      	ldr	r4, [sp, #124]	; 0x7c
 8000a78:	900f      	str	r0, [sp, #60]	; 0x3c
 8000a7a:	1f20      	subs	r0, r4, #4
 8000a7c:	9009      	str	r0, [sp, #36]	; 0x24
 8000a7e:	981e      	ldr	r0, [sp, #120]	; 0x78
 8000a80:	9200      	str	r2, [sp, #0]
 8000a82:	9a21      	ldr	r2, [sp, #132]	; 0x84
 8000a84:	3804      	subs	r0, #4
 8000a86:	189a      	adds	r2, r3, r2
 8000a88:	900a      	str	r0, [sp, #40]	; 0x28
 8000a8a:	9820      	ldr	r0, [sp, #128]	; 0x80
 8000a8c:	920d      	str	r2, [sp, #52]	; 0x34
 8000a8e:	9a1e      	ldr	r2, [sp, #120]	; 0x78
 8000a90:	4368      	muls	r0, r5
 8000a92:	9005      	str	r0, [sp, #20]
 8000a94:	0092      	lsls	r2, r2, #2
 8000a96:	981e      	ldr	r0, [sp, #120]	; 0x78
 8000a98:	920b      	str	r2, [sp, #44]	; 0x2c
 8000a9a:	9a05      	ldr	r2, [sp, #20]
 8000a9c:	4344      	muls	r4, r0
 8000a9e:	442a      	add	r2, r5
 8000aa0:	0040      	lsls	r0, r0, #1
 8000aa2:	9008      	str	r0, [sp, #32]
 8000aa4:	9004      	str	r0, [sp, #16]
 8000aa6:	9211      	str	r2, [sp, #68]	; 0x44
 8000aa8:	9a0d      	ldr	r2, [sp, #52]	; 0x34
 8000aaa:	4293      	cmp	r3, r2
 8000aac:	f000 8105 	beq.w	8000cba <_Z28t_network_convolution_kernelILj5EEvPaS0_S0_S0_iijjjj+0x24c>
 8000ab0:	9a11      	ldr	r2, [sp, #68]	; 0x44
 8000ab2:	9800      	ldr	r0, [sp, #0]
 8000ab4:	4402      	add	r2, r0
 8000ab6:	920e      	str	r2, [sp, #56]	; 0x38
 8000ab8:	f04f 0900 	mov.w	r9, #0
 8000abc:	9a08      	ldr	r2, [sp, #32]
 8000abe:	9202      	str	r2, [sp, #8]
 8000ac0:	f8cd 900c 	str.w	r9, [sp, #12]
 8000ac4:	9a0b      	ldr	r2, [sp, #44]	; 0x2c
 8000ac6:	9802      	ldr	r0, [sp, #8]
 8000ac8:	444a      	add	r2, r9
 8000aca:	920c      	str	r2, [sp, #48]	; 0x30
 8000acc:	9a1e      	ldr	r2, [sp, #120]	; 0x78
 8000ace:	444a      	add	r2, r9
 8000ad0:	9206      	str	r2, [sp, #24]
 8000ad2:	9a1e      	ldr	r2, [sp, #120]	; 0x78
 8000ad4:	4402      	add	r2, r0
 8000ad6:	9207      	str	r2, [sp, #28]
 8000ad8:	9a04      	ldr	r2, [sp, #16]
 8000ada:	444a      	add	r2, r9
 8000adc:	2500      	movs	r5, #0
 8000ade:	9210      	str	r2, [sp, #64]	; 0x40
 8000ae0:	9a06      	ldr	r2, [sp, #24]
 8000ae2:	9800      	ldr	r0, [sp, #0]
 8000ae4:	eb05 0c02 	add.w	ip, r5, r2
 8000ae8:	9a02      	ldr	r2, [sp, #8]
 8000aea:	eb05 0e02 	add.w	lr, r5, r2
 8000aee:	9a07      	ldr	r2, [sp, #28]
 8000af0:	18af      	adds	r7, r5, r2
 8000af2:	9a0c      	ldr	r2, [sp, #48]	; 0x30
 8000af4:	eb05 0809 	add.w	r8, r5, r9
 8000af8:	18ae      	adds	r6, r5, r2
 8000afa:	2200      	movs	r2, #0
 8000afc:	4488      	add	r8, r1
 8000afe:	448c      	add	ip, r1
 8000b00:	448e      	add	lr, r1
 8000b02:	440f      	add	r7, r1
 8000b04:	440e      	add	r6, r1
 8000b06:	9201      	str	r2, [sp, #4]
 8000b08:	9a0e      	ldr	r2, [sp, #56]	; 0x38
 8000b0a:	3019      	adds	r0, #25
 8000b0c:	4290      	cmp	r0, r2
 8000b0e:	f000 809e 	beq.w	8000c4e <_Z28t_network_convolution_kernelILj5EEvPaS0_S0_S0_iijjjj+0x1e0>
 8000b12:	f998 a000 	ldrsb.w	sl, [r8]
 8000b16:	f910 bc19 	ldrsb.w	fp, [r0, #-25]
 8000b1a:	9a01      	ldr	r2, [sp, #4]
 8000b1c:	fb1b 220a 	smlabb	r2, fp, sl, r2
 8000b20:	f998 a001 	ldrsb.w	sl, [r8, #1]
 8000b24:	f910 bc18 	ldrsb.w	fp, [r0, #-24]
 8000b28:	fb1b 220a 	smlabb	r2, fp, sl, r2
 8000b2c:	f998 a002 	ldrsb.w	sl, [r8, #2]
 8000b30:	f910 bc17 	ldrsb.w	fp, [r0, #-23]
 8000b34:	fb1b 220a 	smlabb	r2, fp, sl, r2
 8000b38:	f998 a003 	ldrsb.w	sl, [r8, #3]
 8000b3c:	f910 bc16 	ldrsb.w	fp, [r0, #-22]
 8000b40:	fb1b 220a 	smlabb	r2, fp, sl, r2
 8000b44:	f998 a004 	ldrsb.w	sl, [r8, #4]
 8000b48:	f910 bc15 	ldrsb.w	fp, [r0, #-21]
 8000b4c:	fb1b 220a 	smlabb	r2, fp, sl, r2
 8000b50:	f99c a000 	ldrsb.w	sl, [ip]
 8000b54:	f910 bc14 	ldrsb.w	fp, [r0, #-20]
 8000b58:	fb1b 220a 	smlabb	r2, fp, sl, r2
 8000b5c:	f99c a001 	ldrsb.w	sl, [ip, #1]
 8000b60:	f910 bc13 	ldrsb.w	fp, [r0, #-19]
 8000b64:	fb1b 220a 	smlabb	r2, fp, sl, r2
 8000b68:	f99c a002 	ldrsb.w	sl, [ip, #2]
 8000b6c:	f910 bc12 	ldrsb.w	fp, [r0, #-18]
 8000b70:	fb1b 220a 	smlabb	r2, fp, sl, r2
 8000b74:	f99c a003 	ldrsb.w	sl, [ip, #3]
 8000b78:	f910 bc11 	ldrsb.w	fp, [r0, #-17]
 8000b7c:	fb1b 220a 	smlabb	r2, fp, sl, r2
 8000b80:	f99c a004 	ldrsb.w	sl, [ip, #4]
 8000b84:	f910 bc10 	ldrsb.w	fp, [r0, #-16]
 8000b88:	fb1b 220a 	smlabb	r2, fp, sl, r2
 8000b8c:	f99e a000 	ldrsb.w	sl, [lr]
 8000b90:	f910 bc0f 	ldrsb.w	fp, [r0, #-15]
 8000b94:	fb1b 220a 	smlabb	r2, fp, sl, r2
 8000b98:	f99e a001 	ldrsb.w	sl, [lr, #1]
 8000b9c:	f910 bc0e 	ldrsb.w	fp, [r0, #-14]
 8000ba0:	fb1b 220a 	smlabb	r2, fp, sl, r2
 8000ba4:	f99e a002 	ldrsb.w	sl, [lr, #2]
 8000ba8:	f910 bc0d 	ldrsb.w	fp, [r0, #-13]
 8000bac:	fb1b 220a 	smlabb	r2, fp, sl, r2
 8000bb0:	f99e a003 	ldrsb.w	sl, [lr, #3]
 8000bb4:	f910 bc0c 	ldrsb.w	fp, [r0, #-12]
 8000bb8:	fb1b 220a 	smlabb	r2, fp, sl, r2
 8000bbc:	f910 bc0b 	ldrsb.w	fp, [r0, #-11]
 8000bc0:	f99e a004 	ldrsb.w	sl, [lr, #4]
 8000bc4:	fb1b 220a 	smlabb	r2, fp, sl, r2
 8000bc8:	f910 bc0a 	ldrsb.w	fp, [r0, #-10]
 8000bcc:	f997 a000 	ldrsb.w	sl, [r7]
 8000bd0:	fb1b 220a 	smlabb	r2, fp, sl, r2
 8000bd4:	f997 a001 	ldrsb.w	sl, [r7, #1]
 8000bd8:	f910 bc09 	ldrsb.w	fp, [r0, #-9]
 8000bdc:	fb1b 220a 	smlabb	r2, fp, sl, r2
 8000be0:	f997 a002 	ldrsb.w	sl, [r7, #2]
 8000be4:	f910 bc08 	ldrsb.w	fp, [r0, #-8]
 8000be8:	fb1b 220a 	smlabb	r2, fp, sl, r2
 8000bec:	f997 a003 	ldrsb.w	sl, [r7, #3]
 8000bf0:	f910 bc07 	ldrsb.w	fp, [r0, #-7]
 8000bf4:	fb1b 220a 	smlabb	r2, fp, sl, r2
 8000bf8:	f997 a004 	ldrsb.w	sl, [r7, #4]
 8000bfc:	f910 bc06 	ldrsb.w	fp, [r0, #-6]
 8000c00:	fb1b 220a 	smlabb	r2, fp, sl, r2
 8000c04:	f996 a000 	ldrsb.w	sl, [r6]
 8000c08:	f910 bc05 	ldrsb.w	fp, [r0, #-5]
 8000c0c:	fb1b 220a 	smlabb	r2, fp, sl, r2
 8000c10:	f996 a001 	ldrsb.w	sl, [r6, #1]
 8000c14:	f910 bc04 	ldrsb.w	fp, [r0, #-4]
 8000c18:	fb1b 220a 	smlabb	r2, fp, sl, r2
 8000c1c:	f996 a002 	ldrsb.w	sl, [r6, #2]
 8000c20:	f910 bc03 	ldrsb.w	fp, [r0, #-3]
 8000c24:	fb1b 220a 	smlabb	r2, fp, sl, r2
 8000c28:	f996 a003 	ldrsb.w	sl, [r6, #3]
 8000c2c:	f910 bc02 	ldrsb.w	fp, [r0, #-2]
 8000c30:	fb1b 220a 	smlabb	r2, fp, sl, r2
 8000c34:	f996 a004 	ldrsb.w	sl, [r6, #4]
 8000c38:	f910 bc01 	ldrsb.w	fp, [r0, #-1]
 8000c3c:	fb1b 220a 	smlabb	r2, fp, sl, r2
 8000c40:	9201      	str	r2, [sp, #4]
 8000c42:	44a0      	add	r8, r4
 8000c44:	44a4      	add	ip, r4
 8000c46:	44a6      	add	lr, r4
 8000c48:	4427      	add	r7, r4
 8000c4a:	4426      	add	r6, r4
 8000c4c:	e75c      	b.n	8000b08 <_Z28t_network_convolution_kernelILj5EEvPaS0_S0_S0_iijjjj+0x9a>
 8000c4e:	9801      	ldr	r0, [sp, #4]
 8000c50:	9a1c      	ldr	r2, [sp, #112]	; 0x70
 8000c52:	2680      	movs	r6, #128	; 0x80
 8000c54:	4342      	muls	r2, r0
 8000c56:	f993 0000 	ldrsb.w	r0, [r3]
 8000c5a:	fb92 f2f6 	sdiv	r2, r2, r6
 8000c5e:	9e1d      	ldr	r6, [sp, #116]	; 0x74
 8000c60:	fb06 2200 	mla	r2, r6, r0, r2
 8000c64:	f44f 6080 	mov.w	r0, #1024	; 0x400
 8000c68:	fb92 f2f0 	sdiv	r2, r2, r0
 8000c6c:	f06f 007e 	mvn.w	r0, #126	; 0x7e
 8000c70:	4282      	cmp	r2, r0
 8000c72:	bfb8      	it	lt
 8000c74:	4602      	movlt	r2, r0
 8000c76:	9810      	ldr	r0, [sp, #64]	; 0x40
 8000c78:	9e0f      	ldr	r6, [sp, #60]	; 0x3c
 8000c7a:	4428      	add	r0, r5
 8000c7c:	2a7f      	cmp	r2, #127	; 0x7f
 8000c7e:	4430      	add	r0, r6
 8000c80:	bfa8      	it	ge
 8000c82:	227f      	movge	r2, #127	; 0x7f
 8000c84:	7082      	strb	r2, [r0, #2]
 8000c86:	9a0a      	ldr	r2, [sp, #40]	; 0x28
 8000c88:	3501      	adds	r5, #1
 8000c8a:	42aa      	cmp	r2, r5
 8000c8c:	f4bf af28 	bcs.w	8000ae0 <_Z28t_network_convolution_kernelILj5EEvPaS0_S0_S0_iijjjj+0x72>
 8000c90:	9a03      	ldr	r2, [sp, #12]
 8000c92:	f8dd 9018 	ldr.w	r9, [sp, #24]
 8000c96:	3201      	adds	r2, #1
 8000c98:	9203      	str	r2, [sp, #12]
 8000c9a:	9a07      	ldr	r2, [sp, #28]
 8000c9c:	9202      	str	r2, [sp, #8]
 8000c9e:	9803      	ldr	r0, [sp, #12]
 8000ca0:	9a09      	ldr	r2, [sp, #36]	; 0x24
 8000ca2:	4282      	cmp	r2, r0
 8000ca4:	f4bf af0e 	bcs.w	8000ac4 <_Z28t_network_convolution_kernelILj5EEvPaS0_S0_S0_iijjjj+0x56>
 8000ca8:	9a04      	ldr	r2, [sp, #16]
 8000caa:	9805      	ldr	r0, [sp, #20]
 8000cac:	4422      	add	r2, r4
 8000cae:	9204      	str	r2, [sp, #16]
 8000cb0:	9a00      	ldr	r2, [sp, #0]
 8000cb2:	4402      	add	r2, r0
 8000cb4:	3301      	adds	r3, #1
 8000cb6:	9200      	str	r2, [sp, #0]
 8000cb8:	e6f6      	b.n	8000aa8 <_Z28t_network_convolution_kernelILj5EEvPaS0_S0_S0_iijjjj+0x3a>
 8000cba:	b013      	add	sp, #76	; 0x4c
 8000cbc:	e8bd 8ff0 	ldmia.w	sp!, {r4, r5, r6, r7, r8, r9, sl, fp, pc}

08000cc0 <_Z26network_convolution_kernelPaS_S_S_ii14sLayerGeometryS0_>:
 8000cc0:	e92d 4ff0 	stmdb	sp!, {r4, r5, r6, r7, r8, r9, sl, fp, lr}
 8000cc4:	b08d      	sub	sp, #52	; 0x34
 8000cc6:	4617      	mov	r7, r2
 8000cc8:	f8dd c06c 	ldr.w	ip, [sp, #108]	; 0x6c
 8000ccc:	9009      	str	r0, [sp, #36]	; 0x24
 8000cce:	f1bc 0f03 	cmp.w	ip, #3
 8000cd2:	910a      	str	r1, [sp, #40]	; 0x28
 8000cd4:	9c18      	ldr	r4, [sp, #96]	; 0x60
 8000cd6:	f8dd e064 	ldr.w	lr, [sp, #100]	; 0x64
 8000cda:	9d1a      	ldr	r5, [sp, #104]	; 0x68
 8000cdc:	9e1d      	ldr	r6, [sp, #116]	; 0x74
 8000cde:	d056      	beq.n	8000d8e <_Z26network_convolution_kernelPaS_S_S_ii14sLayerGeometryS0_+0xce>
 8000ce0:	f1bc 0f05 	cmp.w	ip, #5
 8000ce4:	d061      	beq.n	8000daa <_Z26network_convolution_kernelPaS_S_S_ii14sLayerGeometryS0_+0xea>
 8000ce6:	f1bc 0f01 	cmp.w	ip, #1
 8000cea:	d15b      	bne.n	8000da4 <_Z26network_convolution_kernelPaS_S_S_ii14sLayerGeometryS0_+0xe4>
 8000cec:	fb0e f204 	mul.w	r2, lr, r4
 8000cf0:	1999      	adds	r1, r3, r6
 8000cf2:	9207      	str	r2, [sp, #28]
 8000cf4:	9706      	str	r7, [sp, #24]
 8000cf6:	f1c7 0c00 	rsb	ip, r7, #0
 8000cfa:	9108      	str	r1, [sp, #32]
 8000cfc:	f04f 0b00 	mov.w	fp, #0
 8000d00:	9908      	ldr	r1, [sp, #32]
 8000d02:	428b      	cmp	r3, r1
 8000d04:	d04e      	beq.n	8000da4 <_Z26network_convolution_kernelPaS_S_S_ii14sLayerGeometryS0_+0xe4>
 8000d06:	2000      	movs	r0, #0
 8000d08:	4680      	mov	r8, r0
 8000d0a:	9f09      	ldr	r7, [sp, #36]	; 0x24
 8000d0c:	eb0b 0100 	add.w	r1, fp, r0
 8000d10:	1879      	adds	r1, r7, r1
 8000d12:	2600      	movs	r6, #0
 8000d14:	910b      	str	r1, [sp, #44]	; 0x2c
 8000d16:	990a      	ldr	r1, [sp, #40]	; 0x28
 8000d18:	f8dd 9018 	ldr.w	r9, [sp, #24]
 8000d1c:	1987      	adds	r7, r0, r6
 8000d1e:	440f      	add	r7, r1
 8000d20:	2100      	movs	r1, #0
 8000d22:	eb0c 0a09 	add.w	sl, ip, r9
 8000d26:	4555      	cmp	r5, sl
 8000d28:	d908      	bls.n	8000d3c <_Z26network_convolution_kernelPaS_S_S_ii14sLayerGeometryS0_+0x7c>
 8000d2a:	f919 2b01 	ldrsb.w	r2, [r9], #1
 8000d2e:	f997 a000 	ldrsb.w	sl, [r7]
 8000d32:	fb12 110a 	smlabb	r1, r2, sl, r1
 8000d36:	9a07      	ldr	r2, [sp, #28]
 8000d38:	4417      	add	r7, r2
 8000d3a:	e7f2      	b.n	8000d22 <_Z26network_convolution_kernelPaS_S_S_ii14sLayerGeometryS0_+0x62>
 8000d3c:	9a16      	ldr	r2, [sp, #88]	; 0x58
 8000d3e:	f993 7000 	ldrsb.w	r7, [r3]
 8000d42:	4351      	muls	r1, r2
 8000d44:	2280      	movs	r2, #128	; 0x80
 8000d46:	fb91 f1f2 	sdiv	r1, r1, r2
 8000d4a:	9a17      	ldr	r2, [sp, #92]	; 0x5c
 8000d4c:	fb02 1707 	mla	r7, r2, r7, r1
 8000d50:	f44f 6280 	mov.w	r2, #1024	; 0x400
 8000d54:	fb97 f7f2 	sdiv	r7, r7, r2
 8000d58:	f06f 027e 	mvn.w	r2, #126	; 0x7e
 8000d5c:	4297      	cmp	r7, r2
 8000d5e:	bfb8      	it	lt
 8000d60:	4617      	movlt	r7, r2
 8000d62:	2f7f      	cmp	r7, #127	; 0x7f
 8000d64:	9a0b      	ldr	r2, [sp, #44]	; 0x2c
 8000d66:	bfa8      	it	ge
 8000d68:	277f      	movge	r7, #127	; 0x7f
 8000d6a:	5597      	strb	r7, [r2, r6]
 8000d6c:	3601      	adds	r6, #1
 8000d6e:	42b4      	cmp	r4, r6
 8000d70:	d2d1      	bcs.n	8000d16 <_Z26network_convolution_kernelPaS_S_S_ii14sLayerGeometryS0_+0x56>
 8000d72:	f108 0801 	add.w	r8, r8, #1
 8000d76:	45c6      	cmp	lr, r8
 8000d78:	4420      	add	r0, r4
 8000d7a:	d2c6      	bcs.n	8000d0a <_Z26network_convolution_kernelPaS_S_S_ii14sLayerGeometryS0_+0x4a>
 8000d7c:	9a07      	ldr	r2, [sp, #28]
 8000d7e:	4493      	add	fp, r2
 8000d80:	9a06      	ldr	r2, [sp, #24]
 8000d82:	442a      	add	r2, r5
 8000d84:	3301      	adds	r3, #1
 8000d86:	9206      	str	r2, [sp, #24]
 8000d88:	ebac 0c05 	sub.w	ip, ip, r5
 8000d8c:	e7b8      	b.n	8000d00 <_Z26network_convolution_kernelPaS_S_S_ii14sLayerGeometryS0_+0x40>
 8000d8e:	9402      	str	r4, [sp, #8]
 8000d90:	9c17      	ldr	r4, [sp, #92]	; 0x5c
 8000d92:	9401      	str	r4, [sp, #4]
 8000d94:	9c16      	ldr	r4, [sp, #88]	; 0x58
 8000d96:	9605      	str	r6, [sp, #20]
 8000d98:	9504      	str	r5, [sp, #16]
 8000d9a:	f8cd e00c 	str.w	lr, [sp, #12]
 8000d9e:	9400      	str	r4, [sp, #0]
 8000da0:	f7ff fdc8 	bl	8000934 <_Z28t_network_convolution_kernelILj3EEvPaS0_S0_S0_iijjjj>
 8000da4:	b00d      	add	sp, #52	; 0x34
 8000da6:	e8bd 8ff0 	ldmia.w	sp!, {r4, r5, r6, r7, r8, r9, sl, fp, pc}
 8000daa:	9402      	str	r4, [sp, #8]
 8000dac:	9c17      	ldr	r4, [sp, #92]	; 0x5c
 8000dae:	9401      	str	r4, [sp, #4]
 8000db0:	9c16      	ldr	r4, [sp, #88]	; 0x58
 8000db2:	9605      	str	r6, [sp, #20]
 8000db4:	9504      	str	r5, [sp, #16]
 8000db6:	f8cd e00c 	str.w	lr, [sp, #12]
 8000dba:	9400      	str	r4, [sp, #0]
 8000dbc:	f7ff fe57 	bl	8000a6e <_Z28t_network_convolution_kernelILj5EEvPaS0_S0_S0_iijjjj>
 8000dc0:	e7f0      	b.n	8000da4 <_Z26network_convolution_kernelPaS_S_S_ii14sLayerGeometryS0_+0xe4>
 8000dc2:	0000      	movs	r0, r0

08000dc4 <_ZN24NetDenseConvolutionLayerD1Ev>:
 8000dc4:	b510      	push	{r4, lr}
 8000dc6:	4b03      	ldr	r3, [pc, #12]	; (8000dd4 <_ZN24NetDenseConvolutionLayerD1Ev+0x10>)
 8000dc8:	6003      	str	r3, [r0, #0]
 8000dca:	4604      	mov	r4, r0
 8000dcc:	f000 fac7 	bl	800135e <_ZN12NetworkLayerD1Ev>
 8000dd0:	4620      	mov	r0, r4
 8000dd2:	bd10      	pop	{r4, pc}
 8000dd4:	08003f6c 	stmdaeq	r0, {r2, r3, r5, r6, r8, r9, sl, fp, ip, sp}

08000dd8 <_ZN24NetDenseConvolutionLayerD0Ev>:
 8000dd8:	b510      	push	{r4, lr}
 8000dda:	4604      	mov	r4, r0
 8000ddc:	f7ff fff2 	bl	8000dc4 <_ZN24NetDenseConvolutionLayerD1Ev>
 8000de0:	4620      	mov	r0, r4
 8000de2:	2138      	movs	r1, #56	; 0x38
 8000de4:	f000 fb3c 	bl	8001460 <_ZdlPvj>
 8000de8:	4620      	mov	r0, r4
 8000dea:	bd10      	pop	{r4, pc}

08000dec <_ZN24NetDenseConvolutionLayer7forwardEPaS0_>:
 8000dec:	b570      	push	{r4, r5, r6, lr}
 8000dee:	4615      	mov	r5, r2
 8000df0:	f100 021c 	add.w	r2, r0, #28
 8000df4:	4604      	mov	r4, r0
 8000df6:	460e      	mov	r6, r1
 8000df8:	ca07      	ldmia	r2, {r0, r1, r2}
 8000dfa:	b088      	sub	sp, #32
 8000dfc:	ab05      	add	r3, sp, #20
 8000dfe:	e883 0007 	stmia.w	r3, {r0, r1, r2}
 8000e02:	1d22      	adds	r2, r4, #4
 8000e04:	ca07      	ldmia	r2, {r0, r1, r2}
 8000e06:	ab02      	add	r3, sp, #8
 8000e08:	e883 0007 	stmia.w	r3, {r0, r1, r2}
 8000e0c:	6b63      	ldr	r3, [r4, #52]	; 0x34
 8000e0e:	9301      	str	r3, [sp, #4]
 8000e10:	6b23      	ldr	r3, [r4, #48]	; 0x30
 8000e12:	9300      	str	r3, [sp, #0]
 8000e14:	4629      	mov	r1, r5
 8000e16:	6ae3      	ldr	r3, [r4, #44]	; 0x2c
 8000e18:	6aa2      	ldr	r2, [r4, #40]	; 0x28
 8000e1a:	4630      	mov	r0, r6
 8000e1c:	f7ff ff50 	bl	8000cc0 <_Z26network_convolution_kernelPaS_S_S_ii14sLayerGeometryS0_>
 8000e20:	6863      	ldr	r3, [r4, #4]
 8000e22:	68a1      	ldr	r1, [r4, #8]
 8000e24:	4359      	muls	r1, r3
 8000e26:	6a63      	ldr	r3, [r4, #36]	; 0x24
 8000e28:	fb03 6101 	mla	r1, r3, r1, r6
 8000e2c:	462b      	mov	r3, r5
 8000e2e:	68a2      	ldr	r2, [r4, #8]
 8000e30:	6860      	ldr	r0, [r4, #4]
 8000e32:	4350      	muls	r0, r2
 8000e34:	68e2      	ldr	r2, [r4, #12]
 8000e36:	4342      	muls	r2, r0
 8000e38:	1b58      	subs	r0, r3, r5
 8000e3a:	4282      	cmp	r2, r0
 8000e3c:	d904      	bls.n	8000e48 <_ZN24NetDenseConvolutionLayer7forwardEPaS0_+0x5c>
 8000e3e:	f913 2b01 	ldrsb.w	r2, [r3], #1
 8000e42:	f801 2b01 	strb.w	r2, [r1], #1
 8000e46:	e7f2      	b.n	8000e2e <_ZN24NetDenseConvolutionLayer7forwardEPaS0_+0x42>
 8000e48:	b008      	add	sp, #32
 8000e4a:	bd70      	pop	{r4, r5, r6, pc}

08000e4c <_ZN24NetDenseConvolutionLayerC1E14sLayerGeometryS0_S0_PKaS2_ii>:
 8000e4c:	b530      	push	{r4, r5, lr}
 8000e4e:	b085      	sub	sp, #20
 8000e50:	4604      	mov	r4, r0
 8000e52:	ad01      	add	r5, sp, #4
 8000e54:	e885 000e 	stmia.w	r5, {r1, r2, r3}
 8000e58:	f000 fa8a 	bl	8001370 <_ZN12NetworkLayerC1Ev>
 8000e5c:	4623      	mov	r3, r4
 8000e5e:	4a0e      	ldr	r2, [pc, #56]	; (8000e98 <_ZN24NetDenseConvolutionLayerC1E14sLayerGeometryS0_S0_PKaS2_ii+0x4c>)
 8000e60:	f843 2b1c 	str.w	r2, [r3], #28
 8000e64:	e895 0007 	ldmia.w	r5, {r0, r1, r2}
 8000e68:	e883 0007 	stmia.w	r3, {r0, r1, r2}
 8000e6c:	aa08      	add	r2, sp, #32
 8000e6e:	ca07      	ldmia	r2, {r0, r1, r2}
 8000e70:	1d23      	adds	r3, r4, #4
 8000e72:	e883 0007 	stmia.w	r3, {r0, r1, r2}
 8000e76:	aa0b      	add	r2, sp, #44	; 0x2c
 8000e78:	ca07      	ldmia	r2, {r0, r1, r2}
 8000e7a:	f104 0310 	add.w	r3, r4, #16
 8000e7e:	e883 0007 	stmia.w	r3, {r0, r1, r2}
 8000e82:	9b0e      	ldr	r3, [sp, #56]	; 0x38
 8000e84:	62a3      	str	r3, [r4, #40]	; 0x28
 8000e86:	9b0f      	ldr	r3, [sp, #60]	; 0x3c
 8000e88:	62e3      	str	r3, [r4, #44]	; 0x2c
 8000e8a:	9b10      	ldr	r3, [sp, #64]	; 0x40
 8000e8c:	6323      	str	r3, [r4, #48]	; 0x30
 8000e8e:	9b11      	ldr	r3, [sp, #68]	; 0x44
 8000e90:	6363      	str	r3, [r4, #52]	; 0x34
 8000e92:	4620      	mov	r0, r4
 8000e94:	b005      	add	sp, #20
 8000e96:	bd30      	pop	{r4, r5, pc}
 8000e98:	08003f6c 	stmdaeq	r0, {r2, r3, r5, r6, r8, r9, sl, fp, ip, sp}

08000e9c <_ZN18NetMaxPoolingLayerD1Ev>:
 8000e9c:	b510      	push	{r4, lr}
 8000e9e:	4b03      	ldr	r3, [pc, #12]	; (8000eac <_ZN18NetMaxPoolingLayerD1Ev+0x10>)
 8000ea0:	6003      	str	r3, [r0, #0]
 8000ea2:	4604      	mov	r4, r0
 8000ea4:	f000 fa5b 	bl	800135e <_ZN12NetworkLayerD1Ev>
 8000ea8:	4620      	mov	r0, r4
 8000eaa:	bd10      	pop	{r4, pc}
 8000eac:	08003f80 	stmdaeq	r0, {r7, r8, r9, sl, fp, ip, sp}

08000eb0 <_ZN18NetMaxPoolingLayerD0Ev>:
 8000eb0:	b510      	push	{r4, lr}
 8000eb2:	4604      	mov	r4, r0
 8000eb4:	f7ff fff2 	bl	8000e9c <_ZN18NetMaxPoolingLayerD1Ev>
 8000eb8:	4620      	mov	r0, r4
 8000eba:	2128      	movs	r1, #40	; 0x28
 8000ebc:	f000 fad0 	bl	8001460 <_ZdlPvj>
 8000ec0:	4620      	mov	r0, r4
 8000ec2:	bd10      	pop	{r4, pc}

08000ec4 <_ZN18NetMaxPoolingLayer7forwardEPaS0_>:
 8000ec4:	e92d 4ff0 	stmdb	sp!, {r4, r5, r6, r7, r8, r9, sl, fp, lr}
 8000ec8:	69c3      	ldr	r3, [r0, #28]
 8000eca:	b089      	sub	sp, #36	; 0x24
 8000ecc:	9301      	str	r3, [sp, #4]
 8000ece:	3b02      	subs	r3, #2
 8000ed0:	9200      	str	r2, [sp, #0]
 8000ed2:	2b03      	cmp	r3, #3
 8000ed4:	f200 8133 	bhi.w	800113e <_ZN18NetMaxPoolingLayer7forwardEPaS0_+0x27a>
 8000ed8:	e8df f013 	tbh	[pc, r3, lsl #1]
 8000edc:	00550004 	subseq	r0, r5, r4
 8000ee0:	00e900a1 	rsceq	r0, r9, r1, lsr #1
 8000ee4:	6903      	ldr	r3, [r0, #16]
 8000ee6:	f8d0 e014 	ldr.w	lr, [r0, #20]
 8000eea:	6982      	ldr	r2, [r0, #24]
 8000eec:	9203      	str	r2, [sp, #12]
 8000eee:	ea4f 0943 	mov.w	r9, r3, lsl #1
 8000ef2:	ea4f 024e 	mov.w	r2, lr, lsl #1
 8000ef6:	fb09 f202 	mul.w	r2, r9, r2
 8000efa:	9202      	str	r2, [sp, #8]
 8000efc:	fb0e f203 	mul.w	r2, lr, r3
 8000f00:	9201      	str	r2, [sp, #4]
 8000f02:	2600      	movs	r6, #0
 8000f04:	009a      	lsls	r2, r3, #2
 8000f06:	9204      	str	r2, [sp, #16]
 8000f08:	4637      	mov	r7, r6
 8000f0a:	9a03      	ldr	r2, [sp, #12]
 8000f0c:	4297      	cmp	r7, r2
 8000f0e:	f000 8116 	beq.w	800113e <_ZN18NetMaxPoolingLayer7forwardEPaS0_+0x27a>
 8000f12:	468c      	mov	ip, r1
 8000f14:	4632      	mov	r2, r6
 8000f16:	f04f 0800 	mov.w	r8, #0
 8000f1a:	45f0      	cmp	r8, lr
 8000f1c:	d02d      	beq.n	8000f7a <_ZN18NetMaxPoolingLayer7forwardEPaS0_+0xb6>
 8000f1e:	9c00      	ldr	r4, [sp, #0]
 8000f20:	9800      	ldr	r0, [sp, #0]
 8000f22:	eb09 0a02 	add.w	sl, r9, r2
 8000f26:	4454      	add	r4, sl
 8000f28:	1885      	adds	r5, r0, r2
 8000f2a:	9406      	str	r4, [sp, #24]
 8000f2c:	2000      	movs	r0, #0
 8000f2e:	4298      	cmp	r0, r3
 8000f30:	f105 0502 	add.w	r5, r5, #2
 8000f34:	d01b      	beq.n	8000f6e <_ZN18NetMaxPoolingLayer7forwardEPaS0_+0xaa>
 8000f36:	f915 bc01 	ldrsb.w	fp, [r5, #-1]
 8000f3a:	f915 4c02 	ldrsb.w	r4, [r5, #-2]
 8000f3e:	45a3      	cmp	fp, r4
 8000f40:	bfb8      	it	lt
 8000f42:	46a3      	movlt	fp, r4
 8000f44:	1aac      	subs	r4, r5, r2
 8000f46:	4454      	add	r4, sl
 8000f48:	ea2b 7beb 	bic.w	fp, fp, fp, asr #31
 8000f4c:	f914 4c01 	ldrsb.w	r4, [r4, #-1]
 8000f50:	455c      	cmp	r4, fp
 8000f52:	bfb8      	it	lt
 8000f54:	465c      	movlt	r4, fp
 8000f56:	9405      	str	r4, [sp, #20]
 8000f58:	9c06      	ldr	r4, [sp, #24]
 8000f5a:	f914 b010 	ldrsb.w	fp, [r4, r0, lsl #1]
 8000f5e:	9c05      	ldr	r4, [sp, #20]
 8000f60:	455c      	cmp	r4, fp
 8000f62:	bfb8      	it	lt
 8000f64:	465c      	movlt	r4, fp
 8000f66:	f80c 4000 	strb.w	r4, [ip, r0]
 8000f6a:	3001      	adds	r0, #1
 8000f6c:	e7df      	b.n	8000f2e <_ZN18NetMaxPoolingLayer7forwardEPaS0_+0x6a>
 8000f6e:	9804      	ldr	r0, [sp, #16]
 8000f70:	f108 0801 	add.w	r8, r8, #1
 8000f74:	4402      	add	r2, r0
 8000f76:	449c      	add	ip, r3
 8000f78:	e7cf      	b.n	8000f1a <_ZN18NetMaxPoolingLayer7forwardEPaS0_+0x56>
 8000f7a:	9a02      	ldr	r2, [sp, #8]
 8000f7c:	4416      	add	r6, r2
 8000f7e:	9a01      	ldr	r2, [sp, #4]
 8000f80:	3701      	adds	r7, #1
 8000f82:	4411      	add	r1, r2
 8000f84:	e7c1      	b.n	8000f0a <_ZN18NetMaxPoolingLayer7forwardEPaS0_+0x46>
 8000f86:	6945      	ldr	r5, [r0, #20]
 8000f88:	6904      	ldr	r4, [r0, #16]
 8000f8a:	6983      	ldr	r3, [r0, #24]
 8000f8c:	9307      	str	r3, [sp, #28]
 8000f8e:	fb05 f304 	mul.w	r3, r5, r4
 8000f92:	eb04 0044 	add.w	r0, r4, r4, lsl #1
 8000f96:	9304      	str	r3, [sp, #16]
 8000f98:	eb05 0345 	add.w	r3, r5, r5, lsl #1
 8000f9c:	4343      	muls	r3, r0
 8000f9e:	468a      	mov	sl, r1
 8000fa0:	9303      	str	r3, [sp, #12]
 8000fa2:	2100      	movs	r1, #0
 8000fa4:	eb00 0340 	add.w	r3, r0, r0, lsl #1
 8000fa8:	9305      	str	r3, [sp, #20]
 8000faa:	468b      	mov	fp, r1
 8000fac:	9b07      	ldr	r3, [sp, #28]
 8000fae:	459b      	cmp	fp, r3
 8000fb0:	f000 80c5 	beq.w	800113e <_ZN18NetMaxPoolingLayer7forwardEPaS0_+0x27a>
 8000fb4:	9102      	str	r1, [sp, #8]
 8000fb6:	4657      	mov	r7, sl
 8000fb8:	f04f 0e00 	mov.w	lr, #0
 8000fbc:	45ae      	cmp	lr, r5
 8000fbe:	d027      	beq.n	8001010 <_ZN18NetMaxPoolingLayer7forwardEPaS0_+0x14c>
 8000fc0:	2200      	movs	r2, #0
 8000fc2:	42a2      	cmp	r2, r4
 8000fc4:	d01c      	beq.n	8001000 <_ZN18NetMaxPoolingLayer7forwardEPaS0_+0x13c>
 8000fc6:	9e02      	ldr	r6, [sp, #8]
 8000fc8:	f8dd 8004 	ldr.w	r8, [sp, #4]
 8000fcc:	eb02 0342 	add.w	r3, r2, r2, lsl #1
 8000fd0:	4433      	add	r3, r6
 8000fd2:	9e00      	ldr	r6, [sp, #0]
 8000fd4:	f04f 0c00 	mov.w	ip, #0
 8000fd8:	4433      	add	r3, r6
 8000fda:	1cde      	adds	r6, r3, #3
 8000fdc:	9606      	str	r6, [sp, #24]
 8000fde:	4699      	mov	r9, r3
 8000fe0:	f919 6b01 	ldrsb.w	r6, [r9], #1
 8000fe4:	45b4      	cmp	ip, r6
 8000fe6:	bfb8      	it	lt
 8000fe8:	46b4      	movlt	ip, r6
 8000fea:	9e06      	ldr	r6, [sp, #24]
 8000fec:	454e      	cmp	r6, r9
 8000fee:	d1f7      	bne.n	8000fe0 <_ZN18NetMaxPoolingLayer7forwardEPaS0_+0x11c>
 8000ff0:	f1b8 0801 	subs.w	r8, r8, #1
 8000ff4:	4403      	add	r3, r0
 8000ff6:	d1f0      	bne.n	8000fda <_ZN18NetMaxPoolingLayer7forwardEPaS0_+0x116>
 8000ff8:	f807 c002 	strb.w	ip, [r7, r2]
 8000ffc:	3201      	adds	r2, #1
 8000ffe:	e7e0      	b.n	8000fc2 <_ZN18NetMaxPoolingLayer7forwardEPaS0_+0xfe>
 8001000:	9a02      	ldr	r2, [sp, #8]
 8001002:	9b05      	ldr	r3, [sp, #20]
 8001004:	441a      	add	r2, r3
 8001006:	f10e 0e01 	add.w	lr, lr, #1
 800100a:	4427      	add	r7, r4
 800100c:	9202      	str	r2, [sp, #8]
 800100e:	e7d5      	b.n	8000fbc <_ZN18NetMaxPoolingLayer7forwardEPaS0_+0xf8>
 8001010:	9b04      	ldr	r3, [sp, #16]
 8001012:	449a      	add	sl, r3
 8001014:	9b03      	ldr	r3, [sp, #12]
 8001016:	f10b 0b01 	add.w	fp, fp, #1
 800101a:	4419      	add	r1, r3
 800101c:	e7c6      	b.n	8000fac <_ZN18NetMaxPoolingLayer7forwardEPaS0_+0xe8>
 800101e:	6902      	ldr	r2, [r0, #16]
 8001020:	6945      	ldr	r5, [r0, #20]
 8001022:	6983      	ldr	r3, [r0, #24]
 8001024:	9303      	str	r3, [sp, #12]
 8001026:	fb05 f302 	mul.w	r3, r5, r2
 800102a:	ea4f 0b82 	mov.w	fp, r2, lsl #2
 800102e:	9306      	str	r3, [sp, #24]
 8001030:	00ab      	lsls	r3, r5, #2
 8001032:	fb0b f303 	mul.w	r3, fp, r3
 8001036:	9307      	str	r3, [sp, #28]
 8001038:	2000      	movs	r0, #0
 800103a:	0113      	lsls	r3, r2, #4
 800103c:	468a      	mov	sl, r1
 800103e:	9305      	str	r3, [sp, #20]
 8001040:	9002      	str	r0, [sp, #8]
 8001042:	9b03      	ldr	r3, [sp, #12]
 8001044:	9902      	ldr	r1, [sp, #8]
 8001046:	428b      	cmp	r3, r1
 8001048:	d079      	beq.n	800113e <_ZN18NetMaxPoolingLayer7forwardEPaS0_+0x27a>
 800104a:	4606      	mov	r6, r0
 800104c:	4657      	mov	r7, sl
 800104e:	f04f 0e00 	mov.w	lr, #0
 8001052:	45ae      	cmp	lr, r5
 8001054:	d023      	beq.n	800109e <_ZN18NetMaxPoolingLayer7forwardEPaS0_+0x1da>
 8001056:	2100      	movs	r1, #0
 8001058:	4291      	cmp	r1, r2
 800105a:	d01a      	beq.n	8001092 <_ZN18NetMaxPoolingLayer7forwardEPaS0_+0x1ce>
 800105c:	9c00      	ldr	r4, [sp, #0]
 800105e:	f8dd 8004 	ldr.w	r8, [sp, #4]
 8001062:	eb06 0381 	add.w	r3, r6, r1, lsl #2
 8001066:	4423      	add	r3, r4
 8001068:	f04f 0c00 	mov.w	ip, #0
 800106c:	1d1c      	adds	r4, r3, #4
 800106e:	9404      	str	r4, [sp, #16]
 8001070:	4699      	mov	r9, r3
 8001072:	f919 4b01 	ldrsb.w	r4, [r9], #1
 8001076:	45a4      	cmp	ip, r4
 8001078:	bfb8      	it	lt
 800107a:	46a4      	movlt	ip, r4
 800107c:	9c04      	ldr	r4, [sp, #16]
 800107e:	45a1      	cmp	r9, r4
 8001080:	d1f7      	bne.n	8001072 <_ZN18NetMaxPoolingLayer7forwardEPaS0_+0x1ae>
 8001082:	f1b8 0801 	subs.w	r8, r8, #1
 8001086:	445b      	add	r3, fp
 8001088:	d1f0      	bne.n	800106c <_ZN18NetMaxPoolingLayer7forwardEPaS0_+0x1a8>
 800108a:	f807 c001 	strb.w	ip, [r7, r1]
 800108e:	3101      	adds	r1, #1
 8001090:	e7e2      	b.n	8001058 <_ZN18NetMaxPoolingLayer7forwardEPaS0_+0x194>
 8001092:	9b05      	ldr	r3, [sp, #20]
 8001094:	f10e 0e01 	add.w	lr, lr, #1
 8001098:	4417      	add	r7, r2
 800109a:	441e      	add	r6, r3
 800109c:	e7d9      	b.n	8001052 <_ZN18NetMaxPoolingLayer7forwardEPaS0_+0x18e>
 800109e:	9b02      	ldr	r3, [sp, #8]
 80010a0:	3301      	adds	r3, #1
 80010a2:	9302      	str	r3, [sp, #8]
 80010a4:	9b06      	ldr	r3, [sp, #24]
 80010a6:	449a      	add	sl, r3
 80010a8:	9b07      	ldr	r3, [sp, #28]
 80010aa:	4418      	add	r0, r3
 80010ac:	e7c9      	b.n	8001042 <_ZN18NetMaxPoolingLayer7forwardEPaS0_+0x17e>
 80010ae:	6945      	ldr	r5, [r0, #20]
 80010b0:	6904      	ldr	r4, [r0, #16]
 80010b2:	6983      	ldr	r3, [r0, #24]
 80010b4:	9303      	str	r3, [sp, #12]
 80010b6:	fb04 f305 	mul.w	r3, r4, r5
 80010ba:	eb04 0084 	add.w	r0, r4, r4, lsl #2
 80010be:	9305      	str	r3, [sp, #20]
 80010c0:	eb05 0385 	add.w	r3, r5, r5, lsl #2
 80010c4:	4343      	muls	r3, r0
 80010c6:	468b      	mov	fp, r1
 80010c8:	9306      	str	r3, [sp, #24]
 80010ca:	2100      	movs	r1, #0
 80010cc:	eb00 0380 	add.w	r3, r0, r0, lsl #2
 80010d0:	9304      	str	r3, [sp, #16]
 80010d2:	460f      	mov	r7, r1
 80010d4:	9b03      	ldr	r3, [sp, #12]
 80010d6:	42bb      	cmp	r3, r7
 80010d8:	d031      	beq.n	800113e <_ZN18NetMaxPoolingLayer7forwardEPaS0_+0x27a>
 80010da:	468e      	mov	lr, r1
 80010dc:	46dc      	mov	ip, fp
 80010de:	f04f 0800 	mov.w	r8, #0
 80010e2:	4545      	cmp	r5, r8
 80010e4:	d025      	beq.n	8001132 <_ZN18NetMaxPoolingLayer7forwardEPaS0_+0x26e>
 80010e6:	2200      	movs	r2, #0
 80010e8:	4294      	cmp	r4, r2
 80010ea:	d01c      	beq.n	8001126 <_ZN18NetMaxPoolingLayer7forwardEPaS0_+0x262>
 80010ec:	eb02 0382 	add.w	r3, r2, r2, lsl #2
 80010f0:	9e00      	ldr	r6, [sp, #0]
 80010f2:	f8dd a004 	ldr.w	sl, [sp, #4]
 80010f6:	4473      	add	r3, lr
 80010f8:	4433      	add	r3, r6
 80010fa:	9302      	str	r3, [sp, #8]
 80010fc:	f04f 0900 	mov.w	r9, #0
 8001100:	2600      	movs	r6, #0
 8001102:	9b02      	ldr	r3, [sp, #8]
 8001104:	579b      	ldrsb	r3, [r3, r6]
 8001106:	3601      	adds	r6, #1
 8001108:	4599      	cmp	r9, r3
 800110a:	bfb8      	it	lt
 800110c:	4699      	movlt	r9, r3
 800110e:	2e05      	cmp	r6, #5
 8001110:	d1f7      	bne.n	8001102 <_ZN18NetMaxPoolingLayer7forwardEPaS0_+0x23e>
 8001112:	9b02      	ldr	r3, [sp, #8]
 8001114:	f1ba 0a01 	subs.w	sl, sl, #1
 8001118:	4403      	add	r3, r0
 800111a:	9302      	str	r3, [sp, #8]
 800111c:	d1f0      	bne.n	8001100 <_ZN18NetMaxPoolingLayer7forwardEPaS0_+0x23c>
 800111e:	f80c 9002 	strb.w	r9, [ip, r2]
 8001122:	3201      	adds	r2, #1
 8001124:	e7e0      	b.n	80010e8 <_ZN18NetMaxPoolingLayer7forwardEPaS0_+0x224>
 8001126:	9b04      	ldr	r3, [sp, #16]
 8001128:	f108 0801 	add.w	r8, r8, #1
 800112c:	44a4      	add	ip, r4
 800112e:	449e      	add	lr, r3
 8001130:	e7d7      	b.n	80010e2 <_ZN18NetMaxPoolingLayer7forwardEPaS0_+0x21e>
 8001132:	9b05      	ldr	r3, [sp, #20]
 8001134:	449b      	add	fp, r3
 8001136:	9b06      	ldr	r3, [sp, #24]
 8001138:	3701      	adds	r7, #1
 800113a:	4419      	add	r1, r3
 800113c:	e7ca      	b.n	80010d4 <_ZN18NetMaxPoolingLayer7forwardEPaS0_+0x210>
 800113e:	b009      	add	sp, #36	; 0x24
 8001140:	e8bd 8ff0 	ldmia.w	sp!, {r4, r5, r6, r7, r8, r9, sl, fp, pc}

08001144 <_ZN18NetMaxPoolingLayerC1E14sLayerGeometryS0_S0_>:
 8001144:	b530      	push	{r4, r5, lr}
 8001146:	b085      	sub	sp, #20
 8001148:	4605      	mov	r5, r0
 800114a:	ac01      	add	r4, sp, #4
 800114c:	e884 000e 	stmia.w	r4, {r1, r2, r3}
 8001150:	f000 f90e 	bl	8001370 <_ZN12NetworkLayerC1Ev>
 8001154:	462b      	mov	r3, r5
 8001156:	4a0a      	ldr	r2, [pc, #40]	; (8001180 <_ZN18NetMaxPoolingLayerC1E14sLayerGeometryS0_S0_+0x3c>)
 8001158:	f843 2b1c 	str.w	r2, [r3], #28
 800115c:	e894 0007 	ldmia.w	r4, {r0, r1, r2}
 8001160:	e883 0007 	stmia.w	r3, {r0, r1, r2}
 8001164:	aa08      	add	r2, sp, #32
 8001166:	ca07      	ldmia	r2, {r0, r1, r2}
 8001168:	1d2b      	adds	r3, r5, #4
 800116a:	e883 0007 	stmia.w	r3, {r0, r1, r2}
 800116e:	aa0b      	add	r2, sp, #44	; 0x2c
 8001170:	ca07      	ldmia	r2, {r0, r1, r2}
 8001172:	f105 0310 	add.w	r3, r5, #16
 8001176:	e883 0007 	stmia.w	r3, {r0, r1, r2}
 800117a:	4628      	mov	r0, r5
 800117c:	b005      	add	sp, #20
 800117e:	bd30      	pop	{r4, r5, pc}
 8001180:	08003f80 	stmdaeq	r0, {r7, r8, r9, sl, fp, ip, sp}

08001184 <_ZN13NeuralNetwork9set_inputEPa>:
 8001184:	f8d0 308c 	ldr.w	r3, [r0, #140]	; 0x8c
 8001188:	f8d0 2088 	ldr.w	r2, [r0, #136]	; 0x88
 800118c:	b530      	push	{r4, r5, lr}
 800118e:	435a      	muls	r2, r3
 8001190:	f8d0 3090 	ldr.w	r3, [r0, #144]	; 0x90
 8001194:	435a      	muls	r2, r3
 8001196:	2300      	movs	r3, #0
 8001198:	4293      	cmp	r3, r2
 800119a:	d005      	beq.n	80011a8 <_ZN13NeuralNetwork9set_inputEPa+0x24>
 800119c:	f8d0 40a8 	ldr.w	r4, [r0, #168]	; 0xa8
 80011a0:	56cd      	ldrsb	r5, [r1, r3]
 80011a2:	54e5      	strb	r5, [r4, r3]
 80011a4:	3301      	adds	r3, #1
 80011a6:	e7f7      	b.n	8001198 <_ZN13NeuralNetwork9set_inputEPa+0x14>
 80011a8:	bd30      	pop	{r4, r5, pc}
 80011aa:	0000      	movs	r0, r0

080011ac <_ZN13NeuralNetworkD1Ev>:
 80011ac:	4b07      	ldr	r3, [pc, #28]	; (80011cc <_ZN13NeuralNetworkD1Ev+0x20>)
 80011ae:	b510      	push	{r4, lr}
 80011b0:	4604      	mov	r4, r0
 80011b2:	6003      	str	r3, [r0, #0]
 80011b4:	f8d0 00a0 	ldr.w	r0, [r0, #160]	; 0xa0
 80011b8:	b108      	cbz	r0, 80011be <_ZN13NeuralNetworkD1Ev+0x12>
 80011ba:	f000 f95b 	bl	8001474 <_ZdaPv>
 80011be:	f8d4 00a4 	ldr.w	r0, [r4, #164]	; 0xa4
 80011c2:	b108      	cbz	r0, 80011c8 <_ZN13NeuralNetworkD1Ev+0x1c>
 80011c4:	f000 f956 	bl	8001474 <_ZdaPv>
 80011c8:	4620      	mov	r0, r4
 80011ca:	bd10      	pop	{r4, pc}
 80011cc:	08003f94 	stmdaeq	r0, {r2, r4, r7, r8, r9, sl, fp, ip, sp}

080011d0 <_ZN13NeuralNetworkD0Ev>:
 80011d0:	b510      	push	{r4, lr}
 80011d2:	4604      	mov	r4, r0
 80011d4:	f7ff ffea 	bl	80011ac <_ZN13NeuralNetworkD1Ev>
 80011d8:	4620      	mov	r0, r4
 80011da:	21b0      	movs	r1, #176	; 0xb0
 80011dc:	f000 f940 	bl	8001460 <_ZdlPvj>
 80011e0:	4620      	mov	r0, r4
 80011e2:	bd10      	pop	{r4, pc}

080011e4 <_ZN13NeuralNetworkC1Ev>:
 80011e4:	4b0e      	ldr	r3, [pc, #56]	; (8001220 <_ZN13NeuralNetworkC1Ev+0x3c>)
 80011e6:	6003      	str	r3, [r0, #0]
 80011e8:	2300      	movs	r3, #0
 80011ea:	f8c0 3088 	str.w	r3, [r0, #136]	; 0x88
 80011ee:	f8c0 308c 	str.w	r3, [r0, #140]	; 0x8c
 80011f2:	f8c0 3090 	str.w	r3, [r0, #144]	; 0x90
 80011f6:	f8c0 3094 	str.w	r3, [r0, #148]	; 0x94
 80011fa:	f8c0 3098 	str.w	r3, [r0, #152]	; 0x98
 80011fe:	f8c0 309c 	str.w	r3, [r0, #156]	; 0x9c
 8001202:	f100 0208 	add.w	r2, r0, #8
 8001206:	f100 0188 	add.w	r1, r0, #136	; 0x88
 800120a:	f842 3b04 	str.w	r3, [r2], #4
 800120e:	428a      	cmp	r2, r1
 8001210:	d1fb      	bne.n	800120a <_ZN13NeuralNetworkC1Ev+0x26>
 8001212:	6043      	str	r3, [r0, #4]
 8001214:	f8c0 30a0 	str.w	r3, [r0, #160]	; 0xa0
 8001218:	f8c0 30a4 	str.w	r3, [r0, #164]	; 0xa4
 800121c:	4770      	bx	lr
 800121e:	bf00      	nop
 8001220:	08003f94 	stmdaeq	r0, {r2, r4, r7, r8, r9, sl, fp, ip, sp}

08001224 <_ZN13NeuralNetwork7forwardEv>:
 8001224:	b5f8      	push	{r3, r4, r5, r6, r7, lr}
 8001226:	2500      	movs	r5, #0
 8001228:	4604      	mov	r4, r0
 800122a:	f100 0608 	add.w	r6, r0, #8
 800122e:	462f      	mov	r7, r5
 8001230:	6863      	ldr	r3, [r4, #4]
 8001232:	429d      	cmp	r5, r3
 8001234:	d21f      	bcs.n	8001276 <_ZN13NeuralNetwork7forwardEv+0x52>
 8001236:	2300      	movs	r3, #0
 8001238:	6830      	ldr	r0, [r6, #0]
 800123a:	6942      	ldr	r2, [r0, #20]
 800123c:	6901      	ldr	r1, [r0, #16]
 800123e:	4351      	muls	r1, r2
 8001240:	6982      	ldr	r2, [r0, #24]
 8001242:	434a      	muls	r2, r1
 8001244:	4293      	cmp	r3, r2
 8001246:	d204      	bcs.n	8001252 <_ZN13NeuralNetwork7forwardEv+0x2e>
 8001248:	f8d4 20ac 	ldr.w	r2, [r4, #172]	; 0xac
 800124c:	54d7      	strb	r7, [r2, r3]
 800124e:	3301      	adds	r3, #1
 8001250:	e7f2      	b.n	8001238 <_ZN13NeuralNetwork7forwardEv+0x14>
 8001252:	6803      	ldr	r3, [r0, #0]
 8001254:	f8d4 20a8 	ldr.w	r2, [r4, #168]	; 0xa8
 8001258:	689b      	ldr	r3, [r3, #8]
 800125a:	f8d4 10ac 	ldr.w	r1, [r4, #172]	; 0xac
 800125e:	4798      	blx	r3
 8001260:	f8d4 30a8 	ldr.w	r3, [r4, #168]	; 0xa8
 8001264:	f8d4 20ac 	ldr.w	r2, [r4, #172]	; 0xac
 8001268:	f8c4 20a8 	str.w	r2, [r4, #168]	; 0xa8
 800126c:	f8c4 30ac 	str.w	r3, [r4, #172]	; 0xac
 8001270:	3501      	adds	r5, #1
 8001272:	3604      	adds	r6, #4
 8001274:	e7dc      	b.n	8001230 <_ZN13NeuralNetwork7forwardEv+0xc>
 8001276:	f8d4 30a8 	ldr.w	r3, [r4, #168]	; 0xa8
 800127a:	f8d4 20ac 	ldr.w	r2, [r4, #172]	; 0xac
 800127e:	f8c4 20a8 	str.w	r2, [r4, #168]	; 0xa8
 8001282:	f8c4 30ac 	str.w	r3, [r4, #172]	; 0xac
 8001286:	bdf8      	pop	{r3, r4, r5, r6, r7, pc}

08001288 <_ZN13NeuralNetwork12class_resultEv>:
 8001288:	b530      	push	{r4, r5, lr}
 800128a:	f8d0 2098 	ldr.w	r2, [r0, #152]	; 0x98
 800128e:	f8d0 3094 	ldr.w	r3, [r0, #148]	; 0x94
 8001292:	f8d0 40ac 	ldr.w	r4, [r0, #172]	; 0xac
 8001296:	4353      	muls	r3, r2
 8001298:	f8d0 209c 	ldr.w	r2, [r0, #156]	; 0x9c
 800129c:	f994 1000 	ldrsb.w	r1, [r4]
 80012a0:	435a      	muls	r2, r3
 80012a2:	2300      	movs	r3, #0
 80012a4:	4618      	mov	r0, r3
 80012a6:	4293      	cmp	r3, r2
 80012a8:	d006      	beq.n	80012b8 <_ZN13NeuralNetwork12class_resultEv+0x30>
 80012aa:	56e5      	ldrsb	r5, [r4, r3]
 80012ac:	42a9      	cmp	r1, r5
 80012ae:	bfbc      	itt	lt
 80012b0:	4618      	movlt	r0, r3
 80012b2:	4629      	movlt	r1, r5
 80012b4:	3301      	adds	r3, #1
 80012b6:	e7f6      	b.n	80012a6 <_ZN13NeuralNetwork12class_resultEv+0x1e>
 80012b8:	bd30      	pop	{r4, r5, pc}

080012ba <_ZN13NeuralNetwork24get_required_buffer_sizeEv>:
 80012ba:	b570      	push	{r4, r5, r6, lr}
 80012bc:	6844      	ldr	r4, [r0, #4]
 80012be:	3402      	adds	r4, #2
 80012c0:	f100 0508 	add.w	r5, r0, #8
 80012c4:	eb00 0484 	add.w	r4, r0, r4, lsl #2
 80012c8:	2000      	movs	r0, #0
 80012ca:	42a5      	cmp	r5, r4
 80012cc:	d012      	beq.n	80012f4 <_ZN13NeuralNetwork24get_required_buffer_sizeEv+0x3a>
 80012ce:	f855 3b04 	ldr.w	r3, [r5], #4
 80012d2:	689a      	ldr	r2, [r3, #8]
 80012d4:	6859      	ldr	r1, [r3, #4]
 80012d6:	691e      	ldr	r6, [r3, #16]
 80012d8:	4351      	muls	r1, r2
 80012da:	68da      	ldr	r2, [r3, #12]
 80012dc:	434a      	muls	r2, r1
 80012de:	6959      	ldr	r1, [r3, #20]
 80012e0:	699b      	ldr	r3, [r3, #24]
 80012e2:	4371      	muls	r1, r6
 80012e4:	434b      	muls	r3, r1
 80012e6:	429a      	cmp	r2, r3
 80012e8:	bf38      	it	cc
 80012ea:	461a      	movcc	r2, r3
 80012ec:	4290      	cmp	r0, r2
 80012ee:	bf38      	it	cc
 80012f0:	4610      	movcc	r0, r2
 80012f2:	e7ea      	b.n	80012ca <_ZN13NeuralNetwork24get_required_buffer_sizeEv+0x10>
 80012f4:	bd70      	pop	{r4, r5, r6, pc}

080012f6 <_ZN13NeuralNetwork15allocate_bufferEv>:
 80012f6:	f8d0 30a0 	ldr.w	r3, [r0, #160]	; 0xa0
 80012fa:	b570      	push	{r4, r5, r6, lr}
 80012fc:	4605      	mov	r5, r0
 80012fe:	bb03      	cbnz	r3, 8001342 <_ZN13NeuralNetwork15allocate_bufferEv+0x4c>
 8001300:	f8d0 40a4 	ldr.w	r4, [r0, #164]	; 0xa4
 8001304:	b9ec      	cbnz	r4, 8001342 <_ZN13NeuralNetwork15allocate_bufferEv+0x4c>
 8001306:	f7ff ffd8 	bl	80012ba <_ZN13NeuralNetwork24get_required_buffer_sizeEv>
 800130a:	4606      	mov	r6, r0
 800130c:	f000 f8aa 	bl	8001464 <_Znaj>
 8001310:	f8c5 00a0 	str.w	r0, [r5, #160]	; 0xa0
 8001314:	4630      	mov	r0, r6
 8001316:	f000 f8a5 	bl	8001464 <_Znaj>
 800131a:	f8d5 30a0 	ldr.w	r3, [r5, #160]	; 0xa0
 800131e:	f8c5 30a8 	str.w	r3, [r5, #168]	; 0xa8
 8001322:	f8c5 00a4 	str.w	r0, [r5, #164]	; 0xa4
 8001326:	f8c5 00ac 	str.w	r0, [r5, #172]	; 0xac
 800132a:	4623      	mov	r3, r4
 800132c:	4622      	mov	r2, r4
 800132e:	429e      	cmp	r6, r3
 8001330:	d007      	beq.n	8001342 <_ZN13NeuralNetwork15allocate_bufferEv+0x4c>
 8001332:	f8d5 10a0 	ldr.w	r1, [r5, #160]	; 0xa0
 8001336:	54ca      	strb	r2, [r1, r3]
 8001338:	f8d5 10a4 	ldr.w	r1, [r5, #164]	; 0xa4
 800133c:	54ca      	strb	r2, [r1, r3]
 800133e:	3301      	adds	r3, #1
 8001340:	e7f5      	b.n	800132e <_ZN13NeuralNetwork15allocate_bufferEv+0x38>
 8001342:	bd70      	pop	{r4, r5, r6, pc}

08001344 <_Z18network_dot_kernelPaS_j>:
 8001344:	2300      	movs	r3, #0
 8001346:	b570      	push	{r4, r5, r6, lr}
 8001348:	4606      	mov	r6, r0
 800134a:	4618      	mov	r0, r3
 800134c:	4293      	cmp	r3, r2
 800134e:	d005      	beq.n	800135c <_Z18network_dot_kernelPaS_j+0x18>
 8001350:	56f5      	ldrsb	r5, [r6, r3]
 8001352:	56cc      	ldrsb	r4, [r1, r3]
 8001354:	3301      	adds	r3, #1
 8001356:	fb15 0004 	smlabb	r0, r5, r4, r0
 800135a:	e7f7      	b.n	800134c <_Z18network_dot_kernelPaS_j+0x8>
 800135c:	bd70      	pop	{r4, r5, r6, pc}

0800135e <_ZN12NetworkLayerD1Ev>:
 800135e:	4770      	bx	lr

08001360 <_ZN12NetworkLayer7forwardEPaS0_>:
 8001360:	4770      	bx	lr

08001362 <_ZN12NetworkLayerD0Ev>:
 8001362:	b510      	push	{r4, lr}
 8001364:	2128      	movs	r1, #40	; 0x28
 8001366:	4604      	mov	r4, r0
 8001368:	f000 f87a 	bl	8001460 <_ZdlPvj>
 800136c:	4620      	mov	r0, r4
 800136e:	bd10      	pop	{r4, pc}

08001370 <_ZN12NetworkLayerC1Ev>:
 8001370:	4a06      	ldr	r2, [pc, #24]	; (800138c <_ZN12NetworkLayerC1Ev+0x1c>)
 8001372:	6002      	str	r2, [r0, #0]
 8001374:	2200      	movs	r2, #0
 8001376:	6042      	str	r2, [r0, #4]
 8001378:	6082      	str	r2, [r0, #8]
 800137a:	60c2      	str	r2, [r0, #12]
 800137c:	6102      	str	r2, [r0, #16]
 800137e:	6142      	str	r2, [r0, #20]
 8001380:	6182      	str	r2, [r0, #24]
 8001382:	61c2      	str	r2, [r0, #28]
 8001384:	6202      	str	r2, [r0, #32]
 8001386:	6242      	str	r2, [r0, #36]	; 0x24
 8001388:	4770      	bx	lr
 800138a:	bf00      	nop
 800138c:	08003fac 	stmdaeq	r0, {r2, r3, r5, r7, r8, r9, sl, fp, ip, sp}

08001390 <_ZN19NetConvolutionLayerD1Ev>:
 8001390:	b510      	push	{r4, lr}
 8001392:	4b03      	ldr	r3, [pc, #12]	; (80013a0 <_ZN19NetConvolutionLayerD1Ev+0x10>)
 8001394:	6003      	str	r3, [r0, #0]
 8001396:	4604      	mov	r4, r0
 8001398:	f7ff ffe1 	bl	800135e <_ZN12NetworkLayerD1Ev>
 800139c:	4620      	mov	r0, r4
 800139e:	bd10      	pop	{r4, pc}
 80013a0:	08003fc0 	stmdaeq	r0, {r6, r7, r8, r9, sl, fp, ip, sp}

080013a4 <_ZN19NetConvolutionLayerD0Ev>:
 80013a4:	b510      	push	{r4, lr}
 80013a6:	4604      	mov	r4, r0
 80013a8:	f7ff fff2 	bl	8001390 <_ZN19NetConvolutionLayerD1Ev>
 80013ac:	4620      	mov	r0, r4
 80013ae:	2138      	movs	r1, #56	; 0x38
 80013b0:	f000 f856 	bl	8001460 <_ZdlPvj>
 80013b4:	4620      	mov	r0, r4
 80013b6:	bd10      	pop	{r4, pc}

080013b8 <_ZN19NetConvolutionLayer7forwardEPaS0_>:
 80013b8:	b570      	push	{r4, r5, r6, lr}
 80013ba:	4616      	mov	r6, r2
 80013bc:	f100 021c 	add.w	r2, r0, #28
 80013c0:	4604      	mov	r4, r0
 80013c2:	460d      	mov	r5, r1
 80013c4:	ca07      	ldmia	r2, {r0, r1, r2}
 80013c6:	b088      	sub	sp, #32
 80013c8:	ab05      	add	r3, sp, #20
 80013ca:	e883 0007 	stmia.w	r3, {r0, r1, r2}
 80013ce:	1d22      	adds	r2, r4, #4
 80013d0:	ca07      	ldmia	r2, {r0, r1, r2}
 80013d2:	ab02      	add	r3, sp, #8
 80013d4:	e883 0007 	stmia.w	r3, {r0, r1, r2}
 80013d8:	6b63      	ldr	r3, [r4, #52]	; 0x34
 80013da:	9301      	str	r3, [sp, #4]
 80013dc:	6b23      	ldr	r3, [r4, #48]	; 0x30
 80013de:	9300      	str	r3, [sp, #0]
 80013e0:	6aa2      	ldr	r2, [r4, #40]	; 0x28
 80013e2:	6ae3      	ldr	r3, [r4, #44]	; 0x2c
 80013e4:	4631      	mov	r1, r6
 80013e6:	4628      	mov	r0, r5
 80013e8:	f7ff fc6a 	bl	8000cc0 <_Z26network_convolution_kernelPaS_S_S_ii14sLayerGeometryS0_>
 80013ec:	b008      	add	sp, #32
 80013ee:	bd70      	pop	{r4, r5, r6, pc}

080013f0 <_ZN19NetConvolutionLayerC1E14sLayerGeometryS0_S0_PKaS2_ii>:
 80013f0:	b530      	push	{r4, r5, lr}
 80013f2:	b085      	sub	sp, #20
 80013f4:	4604      	mov	r4, r0
 80013f6:	ad01      	add	r5, sp, #4
 80013f8:	e885 000e 	stmia.w	r5, {r1, r2, r3}
 80013fc:	f7ff ffb8 	bl	8001370 <_ZN12NetworkLayerC1Ev>
 8001400:	4623      	mov	r3, r4
 8001402:	4a0e      	ldr	r2, [pc, #56]	; (800143c <_ZN19NetConvolutionLayerC1E14sLayerGeometryS0_S0_PKaS2_ii+0x4c>)
 8001404:	f843 2b1c 	str.w	r2, [r3], #28
 8001408:	e895 0007 	ldmia.w	r5, {r0, r1, r2}
 800140c:	e883 0007 	stmia.w	r3, {r0, r1, r2}
 8001410:	aa08      	add	r2, sp, #32
 8001412:	ca07      	ldmia	r2, {r0, r1, r2}
 8001414:	1d23      	adds	r3, r4, #4
 8001416:	e883 0007 	stmia.w	r3, {r0, r1, r2}
 800141a:	aa0b      	add	r2, sp, #44	; 0x2c
 800141c:	ca07      	ldmia	r2, {r0, r1, r2}
 800141e:	f104 0310 	add.w	r3, r4, #16
 8001422:	e883 0007 	stmia.w	r3, {r0, r1, r2}
 8001426:	9b0e      	ldr	r3, [sp, #56]	; 0x38
 8001428:	62a3      	str	r3, [r4, #40]	; 0x28
 800142a:	9b0f      	ldr	r3, [sp, #60]	; 0x3c
 800142c:	62e3      	str	r3, [r4, #44]	; 0x2c
 800142e:	9b10      	ldr	r3, [sp, #64]	; 0x40
 8001430:	6323      	str	r3, [r4, #48]	; 0x30
 8001432:	9b11      	ldr	r3, [sp, #68]	; 0x44
 8001434:	6363      	str	r3, [r4, #52]	; 0x34
 8001436:	4620      	mov	r0, r4
 8001438:	b005      	add	sp, #20
 800143a:	bd30      	pop	{r4, r5, pc}
 800143c:	08003fc0 	stmdaeq	r0, {r6, r7, r8, r9, sl, fp, ip, sp}

08001440 <_Z8mem_initv>:
 8001440:	4b01      	ldr	r3, [pc, #4]	; (8001448 <_Z8mem_initv+0x8>)
 8001442:	4802      	ldr	r0, [pc, #8]	; (800144c <_Z8mem_initv+0xc>)
 8001444:	6018      	str	r0, [r3, #0]
 8001446:	4770      	bx	lr
 8001448:	20000000 	andcs	r0, r0, r0
 800144c:	2000038c 	andcs	r0, r0, ip, lsl #7

08001450 <_Znwj>:
 8001450:	4a02      	ldr	r2, [pc, #8]	; (800145c <_Znwj+0xc>)
 8001452:	6813      	ldr	r3, [r2, #0]
 8001454:	4418      	add	r0, r3
 8001456:	6010      	str	r0, [r2, #0]
 8001458:	4618      	mov	r0, r3
 800145a:	4770      	bx	lr
 800145c:	20000000 	andcs	r0, r0, r0

08001460 <_ZdlPvj>:
 8001460:	4770      	bx	lr
 8001462:	0000      	movs	r0, r0

08001464 <_Znaj>:
 8001464:	4a02      	ldr	r2, [pc, #8]	; (8001470 <_Znaj+0xc>)
 8001466:	6813      	ldr	r3, [r2, #0]
 8001468:	4418      	add	r0, r3
 800146a:	6010      	str	r0, [r2, #0]
 800146c:	4618      	mov	r0, r3
 800146e:	4770      	bx	lr
 8001470:	20000000 	andcs	r0, r0, r0

08001474 <_ZdaPv>:
 8001474:	4770      	bx	lr

08001476 <__aeabi_atexit>:
 8001476:	2000      	movs	r0, #0
 8001478:	4770      	bx	lr

0800147a <_ZN3PIDD1Ev>:
 800147a:	4770      	bx	lr

0800147c <_ZN3PIDD0Ev>:
 800147c:	b510      	push	{r4, lr}
 800147e:	212c      	movs	r1, #44	; 0x2c
 8001480:	4604      	mov	r4, r0
 8001482:	f7ff ffed 	bl	8001460 <_ZdlPvj>
 8001486:	4620      	mov	r0, r4
 8001488:	bd10      	pop	{r4, pc}

0800148a <_ZN3PID4initEffff>:
 800148a:	ee07 1a90 	vmov	s15, r1
 800148e:	ee07 2a10 	vmov	s14, r2
 8001492:	ee37 7a87 	vadd.f32	s14, s15, s14
 8001496:	2100      	movs	r1, #0
 8001498:	eef1 7a67 	vneg.f32	s15, s15
 800149c:	6203      	str	r3, [r0, #32]
 800149e:	9b00      	ldr	r3, [sp, #0]
 80014a0:	6041      	str	r1, [r0, #4]
 80014a2:	6081      	str	r1, [r0, #8]
 80014a4:	60c1      	str	r1, [r0, #12]
 80014a6:	6101      	str	r1, [r0, #16]
 80014a8:	6141      	str	r1, [r0, #20]
 80014aa:	6281      	str	r1, [r0, #40]	; 0x28
 80014ac:	ed80 7a06 	vstr	s14, [r0, #24]
 80014b0:	edc0 7a07 	vstr	s15, [r0, #28]
 80014b4:	6243      	str	r3, [r0, #36]	; 0x24
 80014b6:	4770      	bx	lr

080014b8 <_ZN3PIDC1Effff>:
 80014b8:	b537      	push	{r0, r1, r2, r4, r5, lr}
 80014ba:	4d04      	ldr	r5, [pc, #16]	; (80014cc <_ZN3PIDC1Effff+0x14>)
 80014bc:	6005      	str	r5, [r0, #0]
 80014be:	9d06      	ldr	r5, [sp, #24]
 80014c0:	9500      	str	r5, [sp, #0]
 80014c2:	f7ff ffe2 	bl	800148a <_ZN3PID4initEffff>
 80014c6:	b003      	add	sp, #12
 80014c8:	bd30      	pop	{r4, r5, pc}
 80014ca:	bf00      	nop
 80014cc:	08003fd4 	stmdaeq	r0, {r2, r4, r6, r7, r8, r9, sl, fp, ip, sp}

080014d0 <_ZN3PID7processEff>:
 80014d0:	edd0 6a03 	vldr	s13, [r0, #12]
 80014d4:	edd0 7a01 	vldr	s15, [r0, #4]
 80014d8:	ed90 6a04 	vldr	s12, [r0, #16]
 80014dc:	edd0 4a07 	vldr	s9, [r0, #28]
 80014e0:	edc0 6a04 	vstr	s13, [r0, #16]
 80014e4:	ee07 2a10 	vmov	s14, r2
 80014e8:	ee76 6aa6 	vadd.f32	s13, s13, s13
 80014ec:	ed90 5a06 	vldr	s10, [r0, #24]
 80014f0:	edc0 7a02 	vstr	s15, [r0, #8]
 80014f4:	ee05 1a90 	vmov	s11, r1
 80014f8:	ee67 7aa4 	vmul.f32	s15, s15, s9
 80014fc:	ee37 7a66 	vsub.f32	s14, s14, s13
 8001500:	ee45 7a85 	vmla.f32	s15, s11, s10
 8001504:	6041      	str	r1, [r0, #4]
 8001506:	60c2      	str	r2, [r0, #12]
 8001508:	ee37 7a06 	vadd.f32	s14, s14, s12
 800150c:	edd0 6a08 	vldr	s13, [r0, #32]
 8001510:	ed80 6a05 	vstr	s12, [r0, #20]
 8001514:	ee47 7a66 	vmls.f32	s15, s14, s13
 8001518:	ed90 7a0a 	vldr	s14, [r0, #40]	; 0x28
 800151c:	ee77 7a87 	vadd.f32	s15, s15, s14
 8001520:	ed90 7a09 	vldr	s14, [r0, #36]	; 0x24
 8001524:	edc0 7a0a 	vstr	s15, [r0, #40]	; 0x28
 8001528:	eef4 7ac7 	vcmpe.f32	s15, s14
 800152c:	eef1 fa10 	vmrs	APSR_nzcv, fpscr
 8001530:	bfc8      	it	gt
 8001532:	ed80 7a0a 	vstrgt	s14, [r0, #40]	; 0x28
 8001536:	edd0 7a0a 	vldr	s15, [r0, #40]	; 0x28
 800153a:	eeb1 7a47 	vneg.f32	s14, s14
 800153e:	eef4 7ac7 	vcmpe.f32	s15, s14
 8001542:	eef1 fa10 	vmrs	APSR_nzcv, fpscr
 8001546:	bf48      	it	mi
 8001548:	ed80 7a0a 	vstrmi	s14, [r0, #40]	; 0x28
 800154c:	6a80      	ldr	r0, [r0, #40]	; 0x28
 800154e:	4770      	bx	lr

08001550 <_ZN3PID5resetEf>:
 8001550:	2300      	movs	r3, #0
 8001552:	6043      	str	r3, [r0, #4]
 8001554:	6083      	str	r3, [r0, #8]
 8001556:	60c1      	str	r1, [r0, #12]
 8001558:	6101      	str	r1, [r0, #16]
 800155a:	6141      	str	r1, [r0, #20]
 800155c:	6283      	str	r3, [r0, #40]	; 0x28
 800155e:	4770      	bx	lr

08001560 <main>:
 8001560:	b500      	push	{lr}
 8001562:	480b      	ldr	r0, [pc, #44]	; (8001590 <main+0x30>)
 8001564:	b0fd      	sub	sp, #500	; 0x1f4
 8001566:	f001 fc3f 	bl	8002de8 <_ZN7Drivers4initEv>
 800156a:	480a      	ldr	r0, [pc, #40]	; (8001594 <main+0x34>)
 800156c:	f000 faa6 	bl	8001abc <_ZN3Key4readEv>
 8001570:	f001 ff56 	bl	8003420 <_Z10diagnosticv>
 8001574:	4668      	mov	r0, sp
 8001576:	f7fe ff93 	bl	80004a0 <_ZN5RobotC1Ev>
 800157a:	4668      	mov	r0, sp
 800157c:	f7ff f84c 	bl	8000618 <_ZN5Robot4mainEv>
 8001580:	4668      	mov	r0, sp
 8001582:	f7ff f88f 	bl	80006a4 <_ZN5RobotD1Ev>
 8001586:	2000      	movs	r0, #0
 8001588:	b07d      	add	sp, #500	; 0x1f4
 800158a:	f85d fb04 	ldr.w	pc, [sp], #4
 800158e:	bf00      	nop
 8001590:	2000019c 	mulcs	r0, ip, r1
 8001594:	2000020c 	andcs	r0, r0, ip, lsl #4

08001598 <_ZN8TerminalD1Ev>:
 8001598:	b510      	push	{r4, lr}
 800159a:	4b03      	ldr	r3, [pc, #12]	; (80015a8 <_ZN8TerminalD1Ev+0x10>)
 800159c:	6003      	str	r3, [r0, #0]
 800159e:	4604      	mov	r4, r0
 80015a0:	f001 f894 	bl	80026cc <_ZN5UsartD1Ev>
 80015a4:	4620      	mov	r0, r4
 80015a6:	bd10      	pop	{r4, pc}
 80015a8:	08003fe4 	stmdaeq	r0, {r2, r5, r6, r7, r8, r9, sl, fp, ip, sp}

080015ac <_ZN8TerminalD0Ev>:
 80015ac:	b510      	push	{r4, lr}
 80015ae:	4604      	mov	r4, r0
 80015b0:	f7ff fff2 	bl	8001598 <_ZN8TerminalD1Ev>
 80015b4:	4620      	mov	r0, r4
 80015b6:	2104      	movs	r1, #4
 80015b8:	f7ff ff52 	bl	8001460 <_ZdlPvj>
 80015bc:	4620      	mov	r0, r4
 80015be:	bd10      	pop	{r4, pc}

080015c0 <_ZN8TerminalC1Ev>:
 80015c0:	b510      	push	{r4, lr}
 80015c2:	4604      	mov	r4, r0
 80015c4:	f001 f88a 	bl	80026dc <_ZN5UsartC1Ev>
 80015c8:	4b01      	ldr	r3, [pc, #4]	; (80015d0 <_ZN8TerminalC1Ev+0x10>)
 80015ca:	6023      	str	r3, [r4, #0]
 80015cc:	4620      	mov	r0, r4
 80015ce:	bd10      	pop	{r4, pc}
 80015d0:	08003fe4 	stmdaeq	r0, {r2, r5, r6, r7, r8, r9, sl, fp, ip, sp}

080015d4 <_ZN8Terminal4putsEPc>:
 80015d4:	b538      	push	{r3, r4, r5, lr}
 80015d6:	4605      	mov	r5, r0
 80015d8:	1e4c      	subs	r4, r1, #1
 80015da:	f814 1f01 	ldrb.w	r1, [r4, #1]!
 80015de:	b119      	cbz	r1, 80015e8 <_ZN8Terminal4putsEPc+0x14>
 80015e0:	4628      	mov	r0, r5
 80015e2:	f001 f8d7 	bl	8002794 <_ZN5Usart8put_charEc>
 80015e6:	e7f8      	b.n	80015da <_ZN8Terminal4putsEPc+0x6>
 80015e8:	bd38      	pop	{r3, r4, r5, pc}

080015ea <_ZN8Terminal4putsEPKc>:
 80015ea:	f7ff bff3 	b.w	80015d4 <_ZN8Terminal4putsEPc>

080015ee <_ZN8Terminal4putiEl>:
 80015ee:	b57f      	push	{r0, r1, r2, r3, r4, r5, r6, lr}
 80015f0:	1e0b      	subs	r3, r1, #0
 80015f2:	f04f 0200 	mov.w	r2, #0
 80015f6:	f04f 010a 	mov.w	r1, #10
 80015fa:	bfba      	itte	lt
 80015fc:	425b      	neglt	r3, r3
 80015fe:	2401      	movlt	r4, #1
 8001600:	4614      	movge	r4, r2
 8001602:	f88d 200f 	strb.w	r2, [sp, #15]
 8001606:	460e      	mov	r6, r1
 8001608:	aa04      	add	r2, sp, #16
 800160a:	fb93 f5f6 	sdiv	r5, r3, r6
 800160e:	440a      	add	r2, r1
 8001610:	fb06 3315 	mls	r3, r6, r5, r3
 8001614:	3330      	adds	r3, #48	; 0x30
 8001616:	f802 3c0c 	strb.w	r3, [r2, #-12]
 800161a:	1e4a      	subs	r2, r1, #1
 800161c:	b2d2      	uxtb	r2, r2
 800161e:	462b      	mov	r3, r5
 8001620:	b965      	cbnz	r5, 800163c <_ZN8Terminal4putiEl+0x4e>
 8001622:	b12c      	cbz	r4, 8001630 <_ZN8Terminal4putiEl+0x42>
 8001624:	ab04      	add	r3, sp, #16
 8001626:	4413      	add	r3, r2
 8001628:	212d      	movs	r1, #45	; 0x2d
 800162a:	f803 1c0c 	strb.w	r1, [r3, #-12]
 800162e:	4611      	mov	r1, r2
 8001630:	ab01      	add	r3, sp, #4
 8001632:	4419      	add	r1, r3
 8001634:	f7ff ffce 	bl	80015d4 <_ZN8Terminal4putsEPc>
 8001638:	b004      	add	sp, #16
 800163a:	bd70      	pop	{r4, r5, r6, pc}
 800163c:	4611      	mov	r1, r2
 800163e:	e7e3      	b.n	8001608 <_ZN8Terminal4putiEl+0x1a>

08001640 <_ZN8Terminal5putuiEm>:
 8001640:	b530      	push	{r4, r5, lr}
 8001642:	b085      	sub	sp, #20
 8001644:	2300      	movs	r3, #0
 8001646:	220a      	movs	r2, #10
 8001648:	f88d 300f 	strb.w	r3, [sp, #15]
 800164c:	4615      	mov	r5, r2
 800164e:	fbb1 f4f5 	udiv	r4, r1, r5
 8001652:	fb05 1314 	mls	r3, r5, r4, r1
 8001656:	a904      	add	r1, sp, #16
 8001658:	4411      	add	r1, r2
 800165a:	3330      	adds	r3, #48	; 0x30
 800165c:	f801 3c0c 	strb.w	r3, [r1, #-12]
 8001660:	1e53      	subs	r3, r2, #1
 8001662:	b2db      	uxtb	r3, r3
 8001664:	4621      	mov	r1, r4
 8001666:	b92c      	cbnz	r4, 8001674 <_ZN8Terminal5putuiEm+0x34>
 8001668:	ab01      	add	r3, sp, #4
 800166a:	1899      	adds	r1, r3, r2
 800166c:	f7ff ffb2 	bl	80015d4 <_ZN8Terminal4putsEPc>
 8001670:	b005      	add	sp, #20
 8001672:	bd30      	pop	{r4, r5, pc}
 8001674:	461a      	mov	r2, r3
 8001676:	e7ea      	b.n	800164e <_ZN8Terminal5putuiEm+0xe>

08001678 <_ZN8Terminal4putfEfh>:
 8001678:	b5f8      	push	{r3, r4, r5, r6, r7, lr}
 800167a:	ee07 1a90 	vmov	s15, r1
 800167e:	ed2d 8b02 	vpush	{d8}
 8001682:	eef5 7ac0 	vcmpe.f32	s15, #0.0
 8001686:	eef1 fa10 	vmrs	APSR_nzcv, fpscr
 800168a:	4606      	mov	r6, r0
 800168c:	4615      	mov	r5, r2
 800168e:	bf46      	itte	mi
 8001690:	eef1 7a67 	vnegmi.f32	s15, s15
 8001694:	212d      	movmi	r1, #45	; 0x2d
 8001696:	2120      	movpl	r1, #32
 8001698:	2301      	movs	r3, #1
 800169a:	2200      	movs	r2, #0
 800169c:	200a      	movs	r0, #10
 800169e:	42aa      	cmp	r2, r5
 80016a0:	d202      	bcs.n	80016a8 <_ZN8Terminal4putfEfh+0x30>
 80016a2:	4343      	muls	r3, r0
 80016a4:	3201      	adds	r2, #1
 80016a6:	e7fa      	b.n	800169e <_ZN8Terminal4putfEfh+0x26>
 80016a8:	eebd 8ae7 	vcvt.s32.f32	s16, s15
 80016ac:	4630      	mov	r0, r6
 80016ae:	eeb8 7ac8 	vcvt.f32.s32	s14, s16
 80016b2:	ee77 7ac7 	vsub.f32	s15, s15, s14
 80016b6:	ee07 3a10 	vmov	s14, r3
 80016ba:	eeb8 7a47 	vcvt.f32.u32	s14, s14
 80016be:	ee67 7a87 	vmul.f32	s15, s15, s14
 80016c2:	eefd 7ae7 	vcvt.s32.f32	s15, s15
 80016c6:	ee17 4a90 	vmov	r4, s15
 80016ca:	2c00      	cmp	r4, #0
 80016cc:	bfb8      	it	lt
 80016ce:	4264      	neglt	r4, r4
 80016d0:	f001 f860 	bl	8002794 <_ZN5Usart8put_charEc>
 80016d4:	ee18 1a10 	vmov	r1, s16
 80016d8:	4630      	mov	r0, r6
 80016da:	f7ff ff88 	bl	80015ee <_ZN8Terminal4putiEl>
 80016de:	212e      	movs	r1, #46	; 0x2e
 80016e0:	4630      	mov	r0, r6
 80016e2:	f001 f857 	bl	8002794 <_ZN5Usart8put_charEc>
 80016e6:	2200      	movs	r2, #0
 80016e8:	2301      	movs	r3, #1
 80016ea:	210a      	movs	r1, #10
 80016ec:	434b      	muls	r3, r1
 80016ee:	3201      	adds	r2, #1
 80016f0:	42a3      	cmp	r3, r4
 80016f2:	b2d2      	uxtb	r2, r2
 80016f4:	dbfa      	blt.n	80016ec <_ZN8Terminal4putfEfh+0x74>
 80016f6:	1aad      	subs	r5, r5, r2
 80016f8:	b2ed      	uxtb	r5, r5
 80016fa:	2700      	movs	r7, #0
 80016fc:	42af      	cmp	r7, r5
 80016fe:	d205      	bcs.n	800170c <_ZN8Terminal4putfEfh+0x94>
 8001700:	2130      	movs	r1, #48	; 0x30
 8001702:	4630      	mov	r0, r6
 8001704:	f001 f846 	bl	8002794 <_ZN5Usart8put_charEc>
 8001708:	3701      	adds	r7, #1
 800170a:	e7f7      	b.n	80016fc <_ZN8Terminal4putfEfh+0x84>
 800170c:	ecbd 8b02 	vpop	{d8}
 8001710:	4621      	mov	r1, r4
 8001712:	4630      	mov	r0, r6
 8001714:	e8bd 40f8 	ldmia.w	sp!, {r3, r4, r5, r6, r7, lr}
 8001718:	f7ff bf69 	b.w	80015ee <_ZN8Terminal4putiEl>

0800171c <_ZN5MotorD1Ev>:
 800171c:	4770      	bx	lr

0800171e <_ZN5MotorD0Ev>:
 800171e:	b510      	push	{r4, lr}
 8001720:	2118      	movs	r1, #24
 8001722:	4604      	mov	r4, r0
 8001724:	f7ff fe9c 	bl	8001460 <_ZdlPvj>
 8001728:	4620      	mov	r0, r4
 800172a:	bd10      	pop	{r4, pc}

0800172c <_ZN5MotorC1Ev>:
 800172c:	494d      	ldr	r1, [pc, #308]	; (8001864 <_ZN5MotorC1Ev+0x138>)
 800172e:	4b4e      	ldr	r3, [pc, #312]	; (8001868 <_ZN5MotorC1Ev+0x13c>)
 8001730:	6003      	str	r3, [r0, #0]
 8001732:	694b      	ldr	r3, [r1, #20]
 8001734:	f443 03fc 	orr.w	r3, r3, #8257536	; 0x7e0000
 8001738:	b530      	push	{r4, r5, lr}
 800173a:	614b      	str	r3, [r1, #20]
 800173c:	4b4b      	ldr	r3, [pc, #300]	; (800186c <_ZN5MotorC1Ev+0x140>)
 800173e:	6043      	str	r3, [r0, #4]
 8001740:	689a      	ldr	r2, [r3, #8]
 8001742:	f422 7240 	bic.w	r2, r2, #768	; 0x300
 8001746:	609a      	str	r2, [r3, #8]
 8001748:	689a      	ldr	r2, [r3, #8]
 800174a:	f442 7240 	orr.w	r2, r2, #768	; 0x300
 800174e:	609a      	str	r2, [r3, #8]
 8001750:	889a      	ldrh	r2, [r3, #4]
 8001752:	f022 0210 	bic.w	r2, r2, #16
 8001756:	0412      	lsls	r2, r2, #16
 8001758:	0c12      	lsrs	r2, r2, #16
 800175a:	809a      	strh	r2, [r3, #4]
 800175c:	889a      	ldrh	r2, [r3, #4]
 800175e:	b292      	uxth	r2, r2
 8001760:	809a      	strh	r2, [r3, #4]
 8001762:	681a      	ldr	r2, [r3, #0]
 8001764:	f422 7240 	bic.w	r2, r2, #768	; 0x300
 8001768:	601a      	str	r2, [r3, #0]
 800176a:	681a      	ldr	r2, [r3, #0]
 800176c:	f442 7280 	orr.w	r2, r2, #256	; 0x100
 8001770:	601a      	str	r2, [r3, #0]
 8001772:	694a      	ldr	r2, [r1, #20]
 8001774:	f442 02fc 	orr.w	r2, r2, #8257536	; 0x7e0000
 8001778:	614a      	str	r2, [r1, #20]
 800177a:	689a      	ldr	r2, [r3, #8]
 800177c:	6083      	str	r3, [r0, #8]
 800177e:	f422 6240 	bic.w	r2, r2, #3072	; 0xc00
 8001782:	609a      	str	r2, [r3, #8]
 8001784:	689a      	ldr	r2, [r3, #8]
 8001786:	f442 6240 	orr.w	r2, r2, #3072	; 0xc00
 800178a:	609a      	str	r2, [r3, #8]
 800178c:	889a      	ldrh	r2, [r3, #4]
 800178e:	f022 0220 	bic.w	r2, r2, #32
 8001792:	0412      	lsls	r2, r2, #16
 8001794:	0c12      	lsrs	r2, r2, #16
 8001796:	809a      	strh	r2, [r3, #4]
 8001798:	889a      	ldrh	r2, [r3, #4]
 800179a:	b292      	uxth	r2, r2
 800179c:	809a      	strh	r2, [r3, #4]
 800179e:	681a      	ldr	r2, [r3, #0]
 80017a0:	f422 6240 	bic.w	r2, r2, #3072	; 0xc00
 80017a4:	601a      	str	r2, [r3, #0]
 80017a6:	681a      	ldr	r2, [r3, #0]
 80017a8:	f442 6280 	orr.w	r2, r2, #1024	; 0x400
 80017ac:	601a      	str	r2, [r3, #0]
 80017ae:	694a      	ldr	r2, [r1, #20]
 80017b0:	f442 02fc 	orr.w	r2, r2, #8257536	; 0x7e0000
 80017b4:	614a      	str	r2, [r1, #20]
 80017b6:	f04f 4290 	mov.w	r2, #1207959552	; 0x48000000
 80017ba:	60c2      	str	r2, [r0, #12]
 80017bc:	6895      	ldr	r5, [r2, #8]
 80017be:	f025 4540 	bic.w	r5, r5, #3221225472	; 0xc0000000
 80017c2:	6095      	str	r5, [r2, #8]
 80017c4:	6895      	ldr	r5, [r2, #8]
 80017c6:	f045 4540 	orr.w	r5, r5, #3221225472	; 0xc0000000
 80017ca:	6095      	str	r5, [r2, #8]
 80017cc:	8895      	ldrh	r5, [r2, #4]
 80017ce:	f3c5 050e 	ubfx	r5, r5, #0, #15
 80017d2:	8095      	strh	r5, [r2, #4]
 80017d4:	8895      	ldrh	r5, [r2, #4]
 80017d6:	b2ad      	uxth	r5, r5
 80017d8:	8095      	strh	r5, [r2, #4]
 80017da:	6815      	ldr	r5, [r2, #0]
 80017dc:	f025 4540 	bic.w	r5, r5, #3221225472	; 0xc0000000
 80017e0:	6015      	str	r5, [r2, #0]
 80017e2:	6815      	ldr	r5, [r2, #0]
 80017e4:	f045 4580 	orr.w	r5, r5, #1073741824	; 0x40000000
 80017e8:	6015      	str	r5, [r2, #0]
 80017ea:	694a      	ldr	r2, [r1, #20]
 80017ec:	f442 02fc 	orr.w	r2, r2, #8257536	; 0x7e0000
 80017f0:	614a      	str	r2, [r1, #20]
 80017f2:	689a      	ldr	r2, [r3, #8]
 80017f4:	6103      	str	r3, [r0, #16]
 80017f6:	f022 6240 	bic.w	r2, r2, #201326592	; 0xc000000
 80017fa:	609a      	str	r2, [r3, #8]
 80017fc:	689a      	ldr	r2, [r3, #8]
 80017fe:	f042 6240 	orr.w	r2, r2, #201326592	; 0xc000000
 8001802:	609a      	str	r2, [r3, #8]
 8001804:	889a      	ldrh	r2, [r3, #4]
 8001806:	f422 5200 	bic.w	r2, r2, #8192	; 0x2000
 800180a:	0412      	lsls	r2, r2, #16
 800180c:	0c12      	lsrs	r2, r2, #16
 800180e:	809a      	strh	r2, [r3, #4]
 8001810:	889a      	ldrh	r2, [r3, #4]
 8001812:	b292      	uxth	r2, r2
 8001814:	809a      	strh	r2, [r3, #4]
 8001816:	681a      	ldr	r2, [r3, #0]
 8001818:	f022 6240 	bic.w	r2, r2, #201326592	; 0xc000000
 800181c:	601a      	str	r2, [r3, #0]
 800181e:	681a      	ldr	r2, [r3, #0]
 8001820:	f042 6280 	orr.w	r2, r2, #67108864	; 0x4000000
 8001824:	601a      	str	r2, [r3, #0]
 8001826:	694a      	ldr	r2, [r1, #20]
 8001828:	f442 02fc 	orr.w	r2, r2, #8257536	; 0x7e0000
 800182c:	614a      	str	r2, [r1, #20]
 800182e:	6143      	str	r3, [r0, #20]
 8001830:	689a      	ldr	r2, [r3, #8]
 8001832:	f022 5240 	bic.w	r2, r2, #805306368	; 0x30000000
 8001836:	609a      	str	r2, [r3, #8]
 8001838:	689a      	ldr	r2, [r3, #8]
 800183a:	f042 5240 	orr.w	r2, r2, #805306368	; 0x30000000
 800183e:	609a      	str	r2, [r3, #8]
 8001840:	889a      	ldrh	r2, [r3, #4]
 8001842:	f422 4280 	bic.w	r2, r2, #16384	; 0x4000
 8001846:	0412      	lsls	r2, r2, #16
 8001848:	0c12      	lsrs	r2, r2, #16
 800184a:	809a      	strh	r2, [r3, #4]
 800184c:	889a      	ldrh	r2, [r3, #4]
 800184e:	b292      	uxth	r2, r2
 8001850:	809a      	strh	r2, [r3, #4]
 8001852:	681a      	ldr	r2, [r3, #0]
 8001854:	f022 5240 	bic.w	r2, r2, #805306368	; 0x30000000
 8001858:	601a      	str	r2, [r3, #0]
 800185a:	681a      	ldr	r2, [r3, #0]
 800185c:	f042 5280 	orr.w	r2, r2, #268435456	; 0x10000000
 8001860:	601a      	str	r2, [r3, #0]
 8001862:	bd30      	pop	{r4, r5, pc}
 8001864:	40021000 	andmi	r1, r2, r0
 8001868:	08003ff4 	stmdaeq	r0, {r2, r4, r5, r6, r7, r8, r9, sl, fp, ip, sp}
 800186c:	48000400 	stmdami	r0, {sl}

08001870 <_ZN5Motor8run_leftEi>:
 8001870:	2900      	cmp	r1, #0
 8001872:	68c2      	ldr	r2, [r0, #12]
 8001874:	da14      	bge.n	80018a0 <_ZN5Motor8run_leftEi+0x30>
 8001876:	8d13      	ldrh	r3, [r2, #40]	; 0x28
 8001878:	ea6f 4343 	mvn.w	r3, r3, lsl #17
 800187c:	ea6f 4353 	mvn.w	r3, r3, lsr #17
 8001880:	b29b      	uxth	r3, r3
 8001882:	8513      	strh	r3, [r2, #40]	; 0x28
 8001884:	4249      	negs	r1, r1
 8001886:	29ff      	cmp	r1, #255	; 0xff
 8001888:	460b      	mov	r3, r1
 800188a:	bfa8      	it	ge
 800188c:	23ff      	movge	r3, #255	; 0xff
 800188e:	f241 21be 	movw	r1, #4798	; 0x12be
 8001892:	4359      	muls	r1, r3
 8001894:	23ff      	movs	r3, #255	; 0xff
 8001896:	fbb1 f1f3 	udiv	r1, r1, r3
 800189a:	4b04      	ldr	r3, [pc, #16]	; (80018ac <_ZN5Motor8run_leftEi+0x3c>)
 800189c:	6399      	str	r1, [r3, #56]	; 0x38
 800189e:	4770      	bx	lr
 80018a0:	6993      	ldr	r3, [r2, #24]
 80018a2:	f443 4300 	orr.w	r3, r3, #32768	; 0x8000
 80018a6:	6193      	str	r3, [r2, #24]
 80018a8:	e7ed      	b.n	8001886 <_ZN5Motor8run_leftEi+0x16>
 80018aa:	bf00      	nop
 80018ac:	40012c00 	andmi	r2, r1, r0, lsl #24

080018b0 <_ZN5Motor9run_rightEi>:
 80018b0:	6882      	ldr	r2, [r0, #8]
 80018b2:	2900      	cmp	r1, #0
 80018b4:	bfab      	itete	ge
 80018b6:	8d13      	ldrhge	r3, [r2, #40]	; 0x28
 80018b8:	6993      	ldrlt	r3, [r2, #24]
 80018ba:	b29b      	uxthge	r3, r3
 80018bc:	f043 0320 	orrlt.w	r3, r3, #32
 80018c0:	bfb5      	itete	lt
 80018c2:	4249      	neglt	r1, r1
 80018c4:	f043 0320 	orrge.w	r3, r3, #32
 80018c8:	6193      	strlt	r3, [r2, #24]
 80018ca:	8513      	strhge	r3, [r2, #40]	; 0x28
 80018cc:	29ff      	cmp	r1, #255	; 0xff
 80018ce:	460b      	mov	r3, r1
 80018d0:	bfa8      	it	ge
 80018d2:	23ff      	movge	r3, #255	; 0xff
 80018d4:	f241 21be 	movw	r1, #4798	; 0x12be
 80018d8:	4359      	muls	r1, r3
 80018da:	23ff      	movs	r3, #255	; 0xff
 80018dc:	fbb1 f1f3 	udiv	r1, r1, r3
 80018e0:	4b01      	ldr	r3, [pc, #4]	; (80018e8 <_ZN5Motor9run_rightEi+0x38>)
 80018e2:	6359      	str	r1, [r3, #52]	; 0x34
 80018e4:	4770      	bx	lr
 80018e6:	bf00      	nop
 80018e8:	40012c00 	andmi	r2, r1, r0, lsl #24

080018ec <_ZN5Motor8pwm_initEv>:
 80018ec:	6902      	ldr	r2, [r0, #16]
 80018ee:	6893      	ldr	r3, [r2, #8]
 80018f0:	f023 6340 	bic.w	r3, r3, #201326592	; 0xc000000
 80018f4:	6093      	str	r3, [r2, #8]
 80018f6:	6893      	ldr	r3, [r2, #8]
 80018f8:	f043 6340 	orr.w	r3, r3, #201326592	; 0xc000000
 80018fc:	6093      	str	r3, [r2, #8]
 80018fe:	6813      	ldr	r3, [r2, #0]
 8001900:	f023 6340 	bic.w	r3, r3, #201326592	; 0xc000000
 8001904:	6013      	str	r3, [r2, #0]
 8001906:	6813      	ldr	r3, [r2, #0]
 8001908:	f043 6300 	orr.w	r3, r3, #134217728	; 0x8000000
 800190c:	6013      	str	r3, [r2, #0]
 800190e:	6943      	ldr	r3, [r0, #20]
 8001910:	6899      	ldr	r1, [r3, #8]
 8001912:	f021 5140 	bic.w	r1, r1, #805306368	; 0x30000000
 8001916:	6099      	str	r1, [r3, #8]
 8001918:	6899      	ldr	r1, [r3, #8]
 800191a:	f041 5140 	orr.w	r1, r1, #805306368	; 0x30000000
 800191e:	6099      	str	r1, [r3, #8]
 8001920:	6819      	ldr	r1, [r3, #0]
 8001922:	f021 5140 	bic.w	r1, r1, #805306368	; 0x30000000
 8001926:	6019      	str	r1, [r3, #0]
 8001928:	6819      	ldr	r1, [r3, #0]
 800192a:	f041 5100 	orr.w	r1, r1, #536870912	; 0x20000000
 800192e:	6019      	str	r1, [r3, #0]
 8001930:	6a51      	ldr	r1, [r2, #36]	; 0x24
 8001932:	f421 0170 	bic.w	r1, r1, #15728640	; 0xf00000
 8001936:	6251      	str	r1, [r2, #36]	; 0x24
 8001938:	6a51      	ldr	r1, [r2, #36]	; 0x24
 800193a:	f441 01c0 	orr.w	r1, r1, #6291456	; 0x600000
 800193e:	6251      	str	r1, [r2, #36]	; 0x24
 8001940:	6a5a      	ldr	r2, [r3, #36]	; 0x24
 8001942:	f022 6270 	bic.w	r2, r2, #251658240	; 0xf000000
 8001946:	625a      	str	r2, [r3, #36]	; 0x24
 8001948:	6a5a      	ldr	r2, [r3, #36]	; 0x24
 800194a:	f042 62c0 	orr.w	r2, r2, #100663296	; 0x6000000
 800194e:	625a      	str	r2, [r3, #36]	; 0x24
 8001950:	4a10      	ldr	r2, [pc, #64]	; (8001994 <_ZN5Motor8pwm_initEv+0xa8>)
 8001952:	6993      	ldr	r3, [r2, #24]
 8001954:	f443 6300 	orr.w	r3, r3, #2048	; 0x800
 8001958:	6193      	str	r3, [r2, #24]
 800195a:	4b0f      	ldr	r3, [pc, #60]	; (8001998 <_ZN5Motor8pwm_initEv+0xac>)
 800195c:	2200      	movs	r2, #0
 800195e:	f241 21bf 	movw	r1, #4799	; 0x12bf
 8001962:	801a      	strh	r2, [r3, #0]
 8001964:	62d9      	str	r1, [r3, #44]	; 0x2c
 8001966:	2101      	movs	r1, #1
 8001968:	851a      	strh	r2, [r3, #40]	; 0x28
 800196a:	861a      	strh	r2, [r3, #48]	; 0x30
 800196c:	6159      	str	r1, [r3, #20]
 800196e:	635a      	str	r2, [r3, #52]	; 0x34
 8001970:	639a      	str	r2, [r3, #56]	; 0x38
 8001972:	f44f 7280 	mov.w	r2, #256	; 0x100
 8001976:	605a      	str	r2, [r3, #4]
 8001978:	f247 0270 	movw	r2, #28784	; 0x7070
 800197c:	619a      	str	r2, [r3, #24]
 800197e:	2277      	movs	r2, #119	; 0x77
 8001980:	621a      	str	r2, [r3, #32]
 8001982:	881a      	ldrh	r2, [r3, #0]
 8001984:	b292      	uxth	r2, r2
 8001986:	430a      	orrs	r2, r1
 8001988:	801a      	strh	r2, [r3, #0]
 800198a:	6c5a      	ldr	r2, [r3, #68]	; 0x44
 800198c:	f442 4200 	orr.w	r2, r2, #32768	; 0x8000
 8001990:	645a      	str	r2, [r3, #68]	; 0x44
 8001992:	4770      	bx	lr
 8001994:	40021000 	andmi	r1, r2, r0
 8001998:	40012c00 	andmi	r2, r1, r0, lsl #24

0800199c <_ZN5Motor4initEv>:
 800199c:	6841      	ldr	r1, [r0, #4]
 800199e:	6942      	ldr	r2, [r0, #20]
 80019a0:	8d0b      	ldrh	r3, [r1, #40]	; 0x28
 80019a2:	b29b      	uxth	r3, r3
 80019a4:	f043 0310 	orr.w	r3, r3, #16
 80019a8:	850b      	strh	r3, [r1, #40]	; 0x28
 80019aa:	6881      	ldr	r1, [r0, #8]
 80019ac:	8d0b      	ldrh	r3, [r1, #40]	; 0x28
 80019ae:	b29b      	uxth	r3, r3
 80019b0:	f043 0320 	orr.w	r3, r3, #32
 80019b4:	850b      	strh	r3, [r1, #40]	; 0x28
 80019b6:	68c1      	ldr	r1, [r0, #12]
 80019b8:	8d0b      	ldrh	r3, [r1, #40]	; 0x28
 80019ba:	ea6f 4343 	mvn.w	r3, r3, lsl #17
 80019be:	ea6f 4353 	mvn.w	r3, r3, lsr #17
 80019c2:	b29b      	uxth	r3, r3
 80019c4:	850b      	strh	r3, [r1, #40]	; 0x28
 80019c6:	6901      	ldr	r1, [r0, #16]
 80019c8:	8d0b      	ldrh	r3, [r1, #40]	; 0x28
 80019ca:	b29b      	uxth	r3, r3
 80019cc:	f443 5300 	orr.w	r3, r3, #8192	; 0x2000
 80019d0:	850b      	strh	r3, [r1, #40]	; 0x28
 80019d2:	8d13      	ldrh	r3, [r2, #40]	; 0x28
 80019d4:	b29b      	uxth	r3, r3
 80019d6:	f443 4380 	orr.w	r3, r3, #16384	; 0x4000
 80019da:	8513      	strh	r3, [r2, #40]	; 0x28
 80019dc:	f7ff bf86 	b.w	80018ec <_ZN5Motor8pwm_initEv>

080019e0 <_ZN3KeyD1Ev>:
 80019e0:	4770      	bx	lr

080019e2 <_ZN3KeyD0Ev>:
 80019e2:	b510      	push	{r4, lr}
 80019e4:	2118      	movs	r1, #24
 80019e6:	4604      	mov	r4, r0
 80019e8:	f7ff fd3a 	bl	8001460 <_ZdlPvj>
 80019ec:	4620      	mov	r0, r4
 80019ee:	bd10      	pop	{r4, pc}

080019f0 <_ZN3Key4mainEv>:
 80019f0:	7b03      	ldrb	r3, [r0, #12]
 80019f2:	6882      	ldr	r2, [r0, #8]
 80019f4:	b133      	cbz	r3, 8001a04 <_ZN3Key4mainEv+0x14>
 80019f6:	2300      	movs	r3, #0
 80019f8:	7303      	strb	r3, [r0, #12]
 80019fa:	6993      	ldr	r3, [r2, #24]
 80019fc:	f443 4300 	orr.w	r3, r3, #32768	; 0x8000
 8001a00:	6193      	str	r3, [r2, #24]
 8001a02:	4770      	bx	lr
 8001a04:	2301      	movs	r3, #1
 8001a06:	7303      	strb	r3, [r0, #12]
 8001a08:	8d13      	ldrh	r3, [r2, #40]	; 0x28
 8001a0a:	ea6f 4343 	mvn.w	r3, r3, lsl #17
 8001a0e:	ea6f 4353 	mvn.w	r3, r3, lsr #17
 8001a12:	b29b      	uxth	r3, r3
 8001a14:	8513      	strh	r3, [r2, #40]	; 0x28
 8001a16:	4770      	bx	lr

08001a18 <_ZN3KeyC1Ev>:
 8001a18:	4a1c      	ldr	r2, [pc, #112]	; (8001a8c <_ZN3KeyC1Ev+0x74>)
 8001a1a:	4b1d      	ldr	r3, [pc, #116]	; (8001a90 <_ZN3KeyC1Ev+0x78>)
 8001a1c:	6003      	str	r3, [r0, #0]
 8001a1e:	6953      	ldr	r3, [r2, #20]
 8001a20:	f443 03fc 	orr.w	r3, r3, #8257536	; 0x7e0000
 8001a24:	b510      	push	{r4, lr}
 8001a26:	6153      	str	r3, [r2, #20]
 8001a28:	4b1a      	ldr	r3, [pc, #104]	; (8001a94 <_ZN3KeyC1Ev+0x7c>)
 8001a2a:	6043      	str	r3, [r0, #4]
 8001a2c:	689c      	ldr	r4, [r3, #8]
 8001a2e:	f024 7440 	bic.w	r4, r4, #50331648	; 0x3000000
 8001a32:	609c      	str	r4, [r3, #8]
 8001a34:	689c      	ldr	r4, [r3, #8]
 8001a36:	f044 7440 	orr.w	r4, r4, #50331648	; 0x3000000
 8001a3a:	609c      	str	r4, [r3, #8]
 8001a3c:	681c      	ldr	r4, [r3, #0]
 8001a3e:	f024 7440 	bic.w	r4, r4, #50331648	; 0x3000000
 8001a42:	601c      	str	r4, [r3, #0]
 8001a44:	681c      	ldr	r4, [r3, #0]
 8001a46:	601c      	str	r4, [r3, #0]
 8001a48:	68dc      	ldr	r4, [r3, #12]
 8001a4a:	f044 7480 	orr.w	r4, r4, #16777216	; 0x1000000
 8001a4e:	60dc      	str	r4, [r3, #12]
 8001a50:	6954      	ldr	r4, [r2, #20]
 8001a52:	f444 04fc 	orr.w	r4, r4, #8257536	; 0x7e0000
 8001a56:	6154      	str	r4, [r2, #20]
 8001a58:	689a      	ldr	r2, [r3, #8]
 8001a5a:	6083      	str	r3, [r0, #8]
 8001a5c:	f022 4240 	bic.w	r2, r2, #3221225472	; 0xc0000000
 8001a60:	609a      	str	r2, [r3, #8]
 8001a62:	689a      	ldr	r2, [r3, #8]
 8001a64:	f042 4240 	orr.w	r2, r2, #3221225472	; 0xc0000000
 8001a68:	609a      	str	r2, [r3, #8]
 8001a6a:	889a      	ldrh	r2, [r3, #4]
 8001a6c:	f3c2 020e 	ubfx	r2, r2, #0, #15
 8001a70:	809a      	strh	r2, [r3, #4]
 8001a72:	889a      	ldrh	r2, [r3, #4]
 8001a74:	b292      	uxth	r2, r2
 8001a76:	809a      	strh	r2, [r3, #4]
 8001a78:	681a      	ldr	r2, [r3, #0]
 8001a7a:	f022 4240 	bic.w	r2, r2, #3221225472	; 0xc0000000
 8001a7e:	601a      	str	r2, [r3, #0]
 8001a80:	681a      	ldr	r2, [r3, #0]
 8001a82:	f042 4280 	orr.w	r2, r2, #1073741824	; 0x40000000
 8001a86:	601a      	str	r2, [r3, #0]
 8001a88:	bd10      	pop	{r4, pc}
 8001a8a:	bf00      	nop
 8001a8c:	40021000 	andmi	r1, r2, r0
 8001a90:	08004004 	stmdaeq	r0, {r2, lr}
 8001a94:	48000400 	stmdami	r0, {sl}

08001a98 <_ZN3Key4initEv>:
 8001a98:	f04f 33ff 	mov.w	r3, #4294967295	; 0xffffffff
 8001a9c:	b510      	push	{r4, lr}
 8001a9e:	6143      	str	r3, [r0, #20]
 8001aa0:	2300      	movs	r3, #0
 8001aa2:	4604      	mov	r4, r0
 8001aa4:	7303      	strb	r3, [r0, #12]
 8001aa6:	4601      	mov	r1, r0
 8001aa8:	f44f 72fa 	mov.w	r2, #500	; 0x1f4
 8001aac:	4802      	ldr	r0, [pc, #8]	; (8001ab8 <_ZN3Key4initEv+0x20>)
 8001aae:	f000 ffaf 	bl	8002a10 <_ZN5Timer8add_taskEP6Threadjb>
 8001ab2:	6120      	str	r0, [r4, #16]
 8001ab4:	bd10      	pop	{r4, pc}
 8001ab6:	bf00      	nop
 8001ab8:	20000388 	andcs	r0, r0, r8, lsl #7

08001abc <_ZN3Key4readEv>:
 8001abc:	6843      	ldr	r3, [r0, #4]
 8001abe:	b570      	push	{r4, r5, r6, lr}
 8001ac0:	4604      	mov	r4, r0
 8001ac2:	8a1a      	ldrh	r2, [r3, #16]
 8001ac4:	04d2      	lsls	r2, r2, #19
 8001ac6:	d501      	bpl.n	8001acc <_ZN3Key4readEv+0x10>
 8001ac8:	bf00      	nop
 8001aca:	e7fa      	b.n	8001ac2 <_ZN3Key4readEv+0x6>
 8001acc:	2301      	movs	r3, #1
 8001ace:	6163      	str	r3, [r4, #20]
 8001ad0:	2264      	movs	r2, #100	; 0x64
 8001ad2:	7c21      	ldrb	r1, [r4, #16]
 8001ad4:	480f      	ldr	r0, [pc, #60]	; (8001b14 <_ZN3Key4readEv+0x58>)
 8001ad6:	4d0f      	ldr	r5, [pc, #60]	; (8001b14 <_ZN3Key4readEv+0x58>)
 8001ad8:	f000 ffc2 	bl	8002a60 <_ZN5Timer10set_periodEhj>
 8001adc:	480d      	ldr	r0, [pc, #52]	; (8001b14 <_ZN3Key4readEv+0x58>)
 8001ade:	f000 ffcb 	bl	8002a78 <_ZN5Timer8get_timeEv>
 8001ae2:	f500 66fa 	add.w	r6, r0, #2000	; 0x7d0
 8001ae6:	6863      	ldr	r3, [r4, #4]
 8001ae8:	8a1b      	ldrh	r3, [r3, #16]
 8001aea:	04db      	lsls	r3, r3, #19
 8001aec:	d40f      	bmi.n	8001b0e <_ZN3Key4readEv+0x52>
 8001aee:	4809      	ldr	r0, [pc, #36]	; (8001b14 <_ZN3Key4readEv+0x58>)
 8001af0:	f000 ffc2 	bl	8002a78 <_ZN5Timer8get_timeEv>
 8001af4:	42b0      	cmp	r0, r6
 8001af6:	d9f6      	bls.n	8001ae6 <_ZN3Key4readEv+0x2a>
 8001af8:	6963      	ldr	r3, [r4, #20]
 8001afa:	2b01      	cmp	r3, #1
 8001afc:	d1f3      	bne.n	8001ae6 <_ZN3Key4readEv+0x2a>
 8001afe:	2232      	movs	r2, #50	; 0x32
 8001b00:	7c21      	ldrb	r1, [r4, #16]
 8001b02:	4628      	mov	r0, r5
 8001b04:	f000 ffac 	bl	8002a60 <_ZN5Timer10set_periodEhj>
 8001b08:	2302      	movs	r3, #2
 8001b0a:	6163      	str	r3, [r4, #20]
 8001b0c:	e7eb      	b.n	8001ae6 <_ZN3Key4readEv+0x2a>
 8001b0e:	6960      	ldr	r0, [r4, #20]
 8001b10:	bd70      	pop	{r4, r5, r6, pc}
 8001b12:	bf00      	nop
 8001b14:	20000388 	andcs	r0, r0, r8, lsl #7

08001b18 <_ZN3ADCD1Ev>:
 8001b18:	4770      	bx	lr

08001b1a <_ZN3ADCD0Ev>:
 8001b1a:	b510      	push	{r4, lr}
 8001b1c:	2104      	movs	r1, #4
 8001b1e:	4604      	mov	r4, r0
 8001b20:	f7ff fc9e 	bl	8001460 <_ZdlPvj>
 8001b24:	4620      	mov	r0, r4
 8001b26:	bd10      	pop	{r4, pc}

08001b28 <_ZN3ADCC1Ev>:
 8001b28:	4b01      	ldr	r3, [pc, #4]	; (8001b30 <_ZN3ADCC1Ev+0x8>)
 8001b2a:	6003      	str	r3, [r0, #0]
 8001b2c:	4770      	bx	lr
 8001b2e:	bf00      	nop
 8001b30:	0800404c 	stmdaeq	r0, {r2, r3, r6, lr}

08001b34 <_ZN3ADC16RCC_ADCCLKConfigEm>:
 8001b34:	0f0b      	lsrs	r3, r1, #28
 8001b36:	4b06      	ldr	r3, [pc, #24]	; (8001b50 <_ZN3ADC16RCC_ADCCLKConfigEm+0x1c>)
 8001b38:	6ada      	ldr	r2, [r3, #44]	; 0x2c
 8001b3a:	bf14      	ite	ne
 8001b3c:	f422 5278 	bicne.w	r2, r2, #15872	; 0x3e00
 8001b40:	f422 72f8 	biceq.w	r2, r2, #496	; 0x1f0
 8001b44:	62da      	str	r2, [r3, #44]	; 0x2c
 8001b46:	6ada      	ldr	r2, [r3, #44]	; 0x2c
 8001b48:	4311      	orrs	r1, r2
 8001b4a:	62d9      	str	r1, [r3, #44]	; 0x2c
 8001b4c:	4770      	bx	lr
 8001b4e:	bf00      	nop
 8001b50:	40021000 	andmi	r1, r2, r0

08001b54 <_ZN3ADC24ADC_RegularChannelConfigEP11ADC_TypeDefhhh>:
 8001b54:	b530      	push	{r4, r5, lr}
 8001b56:	2b04      	cmp	r3, #4
 8001b58:	f89d 400c 	ldrb.w	r4, [sp, #12]
 8001b5c:	dc1c      	bgt.n	8001b98 <_ZN3ADC24ADC_RegularChannelConfigEP11ADC_TypeDefhhh+0x44>
 8001b5e:	eb03 0343 	add.w	r3, r3, r3, lsl #1
 8001b62:	6b08      	ldr	r0, [r1, #48]	; 0x30
 8001b64:	005b      	lsls	r3, r3, #1
 8001b66:	251f      	movs	r5, #31
 8001b68:	409d      	lsls	r5, r3
 8001b6a:	ea20 0005 	bic.w	r0, r0, r5
 8001b6e:	fa02 f303 	lsl.w	r3, r2, r3
 8001b72:	4303      	orrs	r3, r0
 8001b74:	630b      	str	r3, [r1, #48]	; 0x30
 8001b76:	2a09      	cmp	r2, #9
 8001b78:	dd39      	ble.n	8001bee <_ZN3ADC24ADC_RegularChannelConfigEP11ADC_TypeDefhhh+0x9a>
 8001b7a:	3a0a      	subs	r2, #10
 8001b7c:	698b      	ldr	r3, [r1, #24]
 8001b7e:	698b      	ldr	r3, [r1, #24]
 8001b80:	eb02 0242 	add.w	r2, r2, r2, lsl #1
 8001b84:	2007      	movs	r0, #7
 8001b86:	4090      	lsls	r0, r2
 8001b88:	ea23 0300 	bic.w	r3, r3, r0
 8001b8c:	618b      	str	r3, [r1, #24]
 8001b8e:	698b      	ldr	r3, [r1, #24]
 8001b90:	4094      	lsls	r4, r2
 8001b92:	431c      	orrs	r4, r3
 8001b94:	618c      	str	r4, [r1, #24]
 8001b96:	bd30      	pop	{r4, r5, pc}
 8001b98:	2b09      	cmp	r3, #9
 8001b9a:	dc0c      	bgt.n	8001bb6 <_ZN3ADC24ADC_RegularChannelConfigEP11ADC_TypeDefhhh+0x62>
 8001b9c:	2006      	movs	r0, #6
 8001b9e:	3b05      	subs	r3, #5
 8001ba0:	4343      	muls	r3, r0
 8001ba2:	6b4d      	ldr	r5, [r1, #52]	; 0x34
 8001ba4:	201f      	movs	r0, #31
 8001ba6:	4098      	lsls	r0, r3
 8001ba8:	ea25 0000 	bic.w	r0, r5, r0
 8001bac:	fa02 f303 	lsl.w	r3, r2, r3
 8001bb0:	4303      	orrs	r3, r0
 8001bb2:	634b      	str	r3, [r1, #52]	; 0x34
 8001bb4:	e7df      	b.n	8001b76 <_ZN3ADC24ADC_RegularChannelConfigEP11ADC_TypeDefhhh+0x22>
 8001bb6:	2b0e      	cmp	r3, #14
 8001bb8:	f04f 0006 	mov.w	r0, #6
 8001bbc:	dc0b      	bgt.n	8001bd6 <_ZN3ADC24ADC_RegularChannelConfigEP11ADC_TypeDefhhh+0x82>
 8001bbe:	3b0a      	subs	r3, #10
 8001bc0:	4343      	muls	r3, r0
 8001bc2:	6b8d      	ldr	r5, [r1, #56]	; 0x38
 8001bc4:	201f      	movs	r0, #31
 8001bc6:	4098      	lsls	r0, r3
 8001bc8:	ea25 0000 	bic.w	r0, r5, r0
 8001bcc:	fa02 f303 	lsl.w	r3, r2, r3
 8001bd0:	4303      	orrs	r3, r0
 8001bd2:	638b      	str	r3, [r1, #56]	; 0x38
 8001bd4:	e7cf      	b.n	8001b76 <_ZN3ADC24ADC_RegularChannelConfigEP11ADC_TypeDefhhh+0x22>
 8001bd6:	3b0f      	subs	r3, #15
 8001bd8:	4343      	muls	r3, r0
 8001bda:	6bcd      	ldr	r5, [r1, #60]	; 0x3c
 8001bdc:	201f      	movs	r0, #31
 8001bde:	4098      	lsls	r0, r3
 8001be0:	ea25 0000 	bic.w	r0, r5, r0
 8001be4:	fa02 f303 	lsl.w	r3, r2, r3
 8001be8:	4303      	orrs	r3, r0
 8001bea:	63cb      	str	r3, [r1, #60]	; 0x3c
 8001bec:	e7c3      	b.n	8001b76 <_ZN3ADC24ADC_RegularChannelConfigEP11ADC_TypeDefhhh+0x22>
 8001bee:	3a01      	subs	r2, #1
 8001bf0:	694b      	ldr	r3, [r1, #20]
 8001bf2:	694b      	ldr	r3, [r1, #20]
 8001bf4:	eb02 0242 	add.w	r2, r2, r2, lsl #1
 8001bf8:	2038      	movs	r0, #56	; 0x38
 8001bfa:	4090      	lsls	r0, r2
 8001bfc:	ea23 0300 	bic.w	r3, r3, r0
 8001c00:	614b      	str	r3, [r1, #20]
 8001c02:	694b      	ldr	r3, [r1, #20]
 8001c04:	3203      	adds	r2, #3
 8001c06:	fa04 f202 	lsl.w	r2, r4, r2
 8001c0a:	431a      	orrs	r2, r3
 8001c0c:	614a      	str	r2, [r1, #20]
 8001c0e:	bd30      	pop	{r4, r5, pc}

08001c10 <_ZN3ADC4readEj>:
 8001c10:	b513      	push	{r0, r1, r4, lr}
 8001c12:	3901      	subs	r1, #1
 8001c14:	2909      	cmp	r1, #9
 8001c16:	bf9d      	ittte	ls
 8001c18:	4b0d      	ldrls	r3, [pc, #52]	; (8001c50 <_ZN3ADC4readEj+0x40>)
 8001c1a:	f853 4021 	ldrls.w	r4, [r3, r1, lsl #2]
 8001c1e:	4b0d      	ldrls	r3, [pc, #52]	; (8001c54 <_ZN3ADC4readEj+0x44>)
 8001c20:	f04f 44a0 	movhi.w	r4, #1342177280	; 0x50000000
 8001c24:	bf98      	it	ls
 8001c26:	5c5a      	ldrbls	r2, [r3, r1]
 8001c28:	f04f 0301 	mov.w	r3, #1
 8001c2c:	9300      	str	r3, [sp, #0]
 8001c2e:	bf88      	it	hi
 8001c30:	2201      	movhi	r2, #1
 8001c32:	4621      	mov	r1, r4
 8001c34:	f7ff ff8e 	bl	8001b54 <_ZN3ADC24ADC_RegularChannelConfigEP11ADC_TypeDefhhh>
 8001c38:	68a3      	ldr	r3, [r4, #8]
 8001c3a:	f043 0304 	orr.w	r3, r3, #4
 8001c3e:	60a3      	str	r3, [r4, #8]
 8001c40:	6823      	ldr	r3, [r4, #0]
 8001c42:	075b      	lsls	r3, r3, #29
 8001c44:	d401      	bmi.n	8001c4a <_ZN3ADC4readEj+0x3a>
 8001c46:	bf00      	nop
 8001c48:	e7fa      	b.n	8001c40 <_ZN3ADC4readEj+0x30>
 8001c4a:	6c20      	ldr	r0, [r4, #64]	; 0x40
 8001c4c:	b002      	add	sp, #8
 8001c4e:	bd10      	pop	{r4, pc}
 8001c50:	0800401c 	stmdaeq	r0, {r2, r3, r4, lr}
 8001c54:	08004010 	stmdaeq	r0, {r4, lr}

08001c58 <_ZN3ADC4initEv>:
 8001c58:	e92d 43f7 	stmdb	sp!, {r0, r1, r2, r4, r5, r6, r7, r8, r9, lr}
 8001c5c:	4c25      	ldr	r4, [pc, #148]	; (8001cf4 <_ZN3ADC4initEv+0x9c>)
 8001c5e:	4f26      	ldr	r7, [pc, #152]	; (8001cf8 <_ZN3ADC4initEv+0xa0>)
 8001c60:	4e26      	ldr	r6, [pc, #152]	; (8001cfc <_ZN3ADC4initEv+0xa4>)
 8001c62:	f44f 7188 	mov.w	r1, #272	; 0x110
 8001c66:	4605      	mov	r5, r0
 8001c68:	f7ff ff64 	bl	8001b34 <_ZN3ADC16RCC_ADCCLKConfigEm>
 8001c6c:	6963      	ldr	r3, [r4, #20]
 8001c6e:	4924      	ldr	r1, [pc, #144]	; (8001d00 <_ZN3ADC4initEv+0xa8>)
 8001c70:	f043 5380 	orr.w	r3, r3, #268435456	; 0x10000000
 8001c74:	6163      	str	r3, [r4, #20]
 8001c76:	f7ff ff5d 	bl	8001b34 <_ZN3ADC16RCC_ADCCLKConfigEm>
 8001c7a:	6963      	ldr	r3, [r4, #20]
 8001c7c:	f04f 48a0 	mov.w	r8, #1342177280	; 0x50000000
 8001c80:	f043 5300 	orr.w	r3, r3, #536870912	; 0x20000000
 8001c84:	6163      	str	r3, [r4, #20]
 8001c86:	f04f 0902 	mov.w	r9, #2
 8001c8a:	2400      	movs	r4, #0
 8001c8c:	2301      	movs	r3, #1
 8001c8e:	f8c8 400c 	str.w	r4, [r8, #12]
 8001c92:	461a      	mov	r2, r3
 8001c94:	60fc      	str	r4, [r7, #12]
 8001c96:	4641      	mov	r1, r8
 8001c98:	60f4      	str	r4, [r6, #12]
 8001c9a:	f8cd 9000 	str.w	r9, [sp]
 8001c9e:	f7ff ff59 	bl	8001b54 <_ZN3ADC24ADC_RegularChannelConfigEP11ADC_TypeDefhhh>
 8001ca2:	2301      	movs	r3, #1
 8001ca4:	461a      	mov	r2, r3
 8001ca6:	4639      	mov	r1, r7
 8001ca8:	4628      	mov	r0, r5
 8001caa:	f8cd 9000 	str.w	r9, [sp]
 8001cae:	f7ff ff51 	bl	8001b54 <_ZN3ADC24ADC_RegularChannelConfigEP11ADC_TypeDefhhh>
 8001cb2:	2301      	movs	r3, #1
 8001cb4:	f8cd 9000 	str.w	r9, [sp]
 8001cb8:	220c      	movs	r2, #12
 8001cba:	4631      	mov	r1, r6
 8001cbc:	4628      	mov	r0, r5
 8001cbe:	f7ff ff49 	bl	8001b54 <_ZN3ADC24ADC_RegularChannelConfigEP11ADC_TypeDefhhh>
 8001cc2:	f8d8 3008 	ldr.w	r3, [r8, #8]
 8001cc6:	f043 0301 	orr.w	r3, r3, #1
 8001cca:	f8c8 3008 	str.w	r3, [r8, #8]
 8001cce:	68bb      	ldr	r3, [r7, #8]
 8001cd0:	f043 0301 	orr.w	r3, r3, #1
 8001cd4:	60bb      	str	r3, [r7, #8]
 8001cd6:	68b3      	ldr	r3, [r6, #8]
 8001cd8:	f043 0301 	orr.w	r3, r3, #1
 8001cdc:	60b3      	str	r3, [r6, #8]
 8001cde:	4621      	mov	r1, r4
 8001ce0:	4628      	mov	r0, r5
 8001ce2:	3401      	adds	r4, #1
 8001ce4:	f7ff ff94 	bl	8001c10 <_ZN3ADC4readEj>
 8001ce8:	2c0b      	cmp	r4, #11
 8001cea:	d1f8      	bne.n	8001cde <_ZN3ADC4initEv+0x86>
 8001cec:	b003      	add	sp, #12
 8001cee:	e8bd 83f0 	ldmia.w	sp!, {r4, r5, r6, r7, r8, r9, pc}
 8001cf2:	bf00      	nop
 8001cf4:	40021000 	andmi	r1, r2, r0
 8001cf8:	50000100 	andpl	r0, r0, r0, lsl #2
 8001cfc:	50000400 	andpl	r0, r0, r0, lsl #8
 8001d00:	10002200 	andne	r2, r0, r0, lsl #4

08001d04 <_ZN10LineSensorD1Ev>:
 8001d04:	4770      	bx	lr

08001d06 <_ZN5ArrayIiLj8EED1Ev>:
 8001d06:	4770      	bx	lr

08001d08 <_ZN5ArrayIiLj8EED0Ev>:
 8001d08:	b510      	push	{r4, lr}
 8001d0a:	2124      	movs	r1, #36	; 0x24
 8001d0c:	4604      	mov	r4, r0
 8001d0e:	f7ff fba7 	bl	8001460 <_ZdlPvj>
 8001d12:	4620      	mov	r0, r4
 8001d14:	bd10      	pop	{r4, pc}

08001d16 <_ZN10LineSensorD0Ev>:
 8001d16:	b510      	push	{r4, lr}
 8001d18:	21cc      	movs	r1, #204	; 0xcc
 8001d1a:	4604      	mov	r4, r0
 8001d1c:	f7ff fba0 	bl	8001460 <_ZdlPvj>
 8001d20:	4620      	mov	r0, r4
 8001d22:	bd10      	pop	{r4, pc}

08001d24 <_ZN10LineSensorC1Ev>:
 8001d24:	4a4c      	ldr	r2, [pc, #304]	; (8001e58 <_ZN10LineSensorC1Ev+0x134>)
 8001d26:	4b4d      	ldr	r3, [pc, #308]	; (8001e5c <_ZN10LineSensorC1Ev+0x138>)
 8001d28:	6003      	str	r3, [r0, #0]
 8001d2a:	6953      	ldr	r3, [r2, #20]
 8001d2c:	f443 03fc 	orr.w	r3, r3, #8257536	; 0x7e0000
 8001d30:	b510      	push	{r4, lr}
 8001d32:	6153      	str	r3, [r2, #20]
 8001d34:	f04f 4390 	mov.w	r3, #1207959552	; 0x48000000
 8001d38:	6043      	str	r3, [r0, #4]
 8001d3a:	689c      	ldr	r4, [r3, #8]
 8001d3c:	f424 3440 	bic.w	r4, r4, #196608	; 0x30000
 8001d40:	609c      	str	r4, [r3, #8]
 8001d42:	689c      	ldr	r4, [r3, #8]
 8001d44:	f444 3440 	orr.w	r4, r4, #196608	; 0x30000
 8001d48:	609c      	str	r4, [r3, #8]
 8001d4a:	889c      	ldrh	r4, [r3, #4]
 8001d4c:	f424 7480 	bic.w	r4, r4, #256	; 0x100
 8001d50:	0424      	lsls	r4, r4, #16
 8001d52:	0c24      	lsrs	r4, r4, #16
 8001d54:	809c      	strh	r4, [r3, #4]
 8001d56:	889c      	ldrh	r4, [r3, #4]
 8001d58:	b2a4      	uxth	r4, r4
 8001d5a:	809c      	strh	r4, [r3, #4]
 8001d5c:	681c      	ldr	r4, [r3, #0]
 8001d5e:	f424 3440 	bic.w	r4, r4, #196608	; 0x30000
 8001d62:	601c      	str	r4, [r3, #0]
 8001d64:	681c      	ldr	r4, [r3, #0]
 8001d66:	f444 3480 	orr.w	r4, r4, #65536	; 0x10000
 8001d6a:	601c      	str	r4, [r3, #0]
 8001d6c:	4c3c      	ldr	r4, [pc, #240]	; (8001e60 <_ZN10LineSensorC1Ev+0x13c>)
 8001d6e:	6104      	str	r4, [r0, #16]
 8001d70:	6344      	str	r4, [r0, #52]	; 0x34
 8001d72:	6584      	str	r4, [r0, #88]	; 0x58
 8001d74:	67c4      	str	r4, [r0, #124]	; 0x7c
 8001d76:	6954      	ldr	r4, [r2, #20]
 8001d78:	f444 04fc 	orr.w	r4, r4, #8257536	; 0x7e0000
 8001d7c:	6154      	str	r4, [r2, #20]
 8001d7e:	681c      	ldr	r4, [r3, #0]
 8001d80:	f8c0 30a0 	str.w	r3, [r0, #160]	; 0xa0
 8001d84:	f024 0403 	bic.w	r4, r4, #3
 8001d88:	601c      	str	r4, [r3, #0]
 8001d8a:	681c      	ldr	r4, [r3, #0]
 8001d8c:	f044 0403 	orr.w	r4, r4, #3
 8001d90:	601c      	str	r4, [r3, #0]
 8001d92:	6954      	ldr	r4, [r2, #20]
 8001d94:	f444 04fc 	orr.w	r4, r4, #8257536	; 0x7e0000
 8001d98:	6154      	str	r4, [r2, #20]
 8001d9a:	681c      	ldr	r4, [r3, #0]
 8001d9c:	f8c0 30a4 	str.w	r3, [r0, #164]	; 0xa4
 8001da0:	f024 040c 	bic.w	r4, r4, #12
 8001da4:	601c      	str	r4, [r3, #0]
 8001da6:	681c      	ldr	r4, [r3, #0]
 8001da8:	f044 040c 	orr.w	r4, r4, #12
 8001dac:	601c      	str	r4, [r3, #0]
 8001dae:	6954      	ldr	r4, [r2, #20]
 8001db0:	f444 04fc 	orr.w	r4, r4, #8257536	; 0x7e0000
 8001db4:	6154      	str	r4, [r2, #20]
 8001db6:	681c      	ldr	r4, [r3, #0]
 8001db8:	f8c0 30a8 	str.w	r3, [r0, #168]	; 0xa8
 8001dbc:	f024 0430 	bic.w	r4, r4, #48	; 0x30
 8001dc0:	601c      	str	r4, [r3, #0]
 8001dc2:	681c      	ldr	r4, [r3, #0]
 8001dc4:	f044 0430 	orr.w	r4, r4, #48	; 0x30
 8001dc8:	601c      	str	r4, [r3, #0]
 8001dca:	6954      	ldr	r4, [r2, #20]
 8001dcc:	f444 04fc 	orr.w	r4, r4, #8257536	; 0x7e0000
 8001dd0:	6154      	str	r4, [r2, #20]
 8001dd2:	681c      	ldr	r4, [r3, #0]
 8001dd4:	f8c0 30ac 	str.w	r3, [r0, #172]	; 0xac
 8001dd8:	f024 04c0 	bic.w	r4, r4, #192	; 0xc0
 8001ddc:	601c      	str	r4, [r3, #0]
 8001dde:	681c      	ldr	r4, [r3, #0]
 8001de0:	f044 04c0 	orr.w	r4, r4, #192	; 0xc0
 8001de4:	601c      	str	r4, [r3, #0]
 8001de6:	6954      	ldr	r4, [r2, #20]
 8001de8:	f444 04fc 	orr.w	r4, r4, #8257536	; 0x7e0000
 8001dec:	6154      	str	r4, [r2, #20]
 8001dee:	681c      	ldr	r4, [r3, #0]
 8001df0:	f8c0 30b0 	str.w	r3, [r0, #176]	; 0xb0
 8001df4:	f424 7440 	bic.w	r4, r4, #768	; 0x300
 8001df8:	601c      	str	r4, [r3, #0]
 8001dfa:	681c      	ldr	r4, [r3, #0]
 8001dfc:	f444 7440 	orr.w	r4, r4, #768	; 0x300
 8001e00:	601c      	str	r4, [r3, #0]
 8001e02:	6954      	ldr	r4, [r2, #20]
 8001e04:	f444 04fc 	orr.w	r4, r4, #8257536	; 0x7e0000
 8001e08:	6154      	str	r4, [r2, #20]
 8001e0a:	681c      	ldr	r4, [r3, #0]
 8001e0c:	f8c0 30b4 	str.w	r3, [r0, #180]	; 0xb4
 8001e10:	f424 6440 	bic.w	r4, r4, #3072	; 0xc00
 8001e14:	601c      	str	r4, [r3, #0]
 8001e16:	681c      	ldr	r4, [r3, #0]
 8001e18:	f444 6440 	orr.w	r4, r4, #3072	; 0xc00
 8001e1c:	601c      	str	r4, [r3, #0]
 8001e1e:	6954      	ldr	r4, [r2, #20]
 8001e20:	f444 04fc 	orr.w	r4, r4, #8257536	; 0x7e0000
 8001e24:	6154      	str	r4, [r2, #20]
 8001e26:	f8c0 30b8 	str.w	r3, [r0, #184]	; 0xb8
 8001e2a:	681c      	ldr	r4, [r3, #0]
 8001e2c:	f424 5440 	bic.w	r4, r4, #12288	; 0x3000
 8001e30:	601c      	str	r4, [r3, #0]
 8001e32:	681c      	ldr	r4, [r3, #0]
 8001e34:	f444 5440 	orr.w	r4, r4, #12288	; 0x3000
 8001e38:	601c      	str	r4, [r3, #0]
 8001e3a:	6954      	ldr	r4, [r2, #20]
 8001e3c:	f444 04fc 	orr.w	r4, r4, #8257536	; 0x7e0000
 8001e40:	6154      	str	r4, [r2, #20]
 8001e42:	681a      	ldr	r2, [r3, #0]
 8001e44:	f8c0 30bc 	str.w	r3, [r0, #188]	; 0xbc
 8001e48:	f422 4240 	bic.w	r2, r2, #49152	; 0xc000
 8001e4c:	601a      	str	r2, [r3, #0]
 8001e4e:	681a      	ldr	r2, [r3, #0]
 8001e50:	f442 4240 	orr.w	r2, r2, #49152	; 0xc000
 8001e54:	601a      	str	r2, [r3, #0]
 8001e56:	bd10      	pop	{r4, pc}
 8001e58:	40021000 	andmi	r1, r2, r0
 8001e5c:	0800406c 	stmdaeq	r0, {r2, r3, r5, r6, lr}
 8001e60:	0800405c 	stmdaeq	r0, {r2, r3, r4, r6, lr}

08001e64 <_ZN10LineSensor4initEv>:
 8001e64:	6842      	ldr	r2, [r0, #4]
 8001e66:	8d13      	ldrh	r3, [r2, #40]	; 0x28
 8001e68:	b29b      	uxth	r3, r3
 8001e6a:	f443 7380 	orr.w	r3, r3, #256	; 0x100
 8001e6e:	e92d 41f0 	stmdb	sp!, {r4, r5, r6, r7, r8, lr}
 8001e72:	2164      	movs	r1, #100	; 0x64
 8001e74:	4604      	mov	r4, r0
 8001e76:	8513      	strh	r3, [r2, #40]	; 0x28
 8001e78:	482b      	ldr	r0, [pc, #172]	; (8001f28 <_ZN10LineSensor4initEv+0xc4>)
 8001e7a:	f8df 80b0 	ldr.w	r8, [pc, #176]	; 8001f2c <_ZN10LineSensor4initEv+0xc8>
 8001e7e:	f000 fe07 	bl	8002a90 <_ZN5Timer8delay_msEj>
 8001e82:	2164      	movs	r1, #100	; 0x64
 8001e84:	4828      	ldr	r0, [pc, #160]	; (8001f28 <_ZN10LineSensor4initEv+0xc4>)
 8001e86:	f000 fe03 	bl	8002a90 <_ZN5Timer8delay_msEj>
 8001e8a:	f104 0638 	add.w	r6, r4, #56	; 0x38
 8001e8e:	4637      	mov	r7, r6
 8001e90:	2500      	movs	r5, #0
 8001e92:	4629      	mov	r1, r5
 8001e94:	4640      	mov	r0, r8
 8001e96:	f7ff febb 	bl	8001c10 <_ZN3ADC4readEj>
 8001e9a:	3501      	adds	r5, #1
 8001e9c:	2d08      	cmp	r5, #8
 8001e9e:	f847 0b04 	str.w	r0, [r7], #4
 8001ea2:	d1f6      	bne.n	8001e92 <_ZN10LineSensor4initEv+0x2e>
 8001ea4:	6862      	ldr	r2, [r4, #4]
 8001ea6:	4820      	ldr	r0, [pc, #128]	; (8001f28 <_ZN10LineSensor4initEv+0xc4>)
 8001ea8:	6993      	ldr	r3, [r2, #24]
 8001eaa:	4f20      	ldr	r7, [pc, #128]	; (8001f2c <_ZN10LineSensor4initEv+0xc8>)
 8001eac:	f443 7380 	orr.w	r3, r3, #256	; 0x100
 8001eb0:	6193      	str	r3, [r2, #24]
 8001eb2:	2164      	movs	r1, #100	; 0x64
 8001eb4:	f000 fdec 	bl	8002a90 <_ZN5Timer8delay_msEj>
 8001eb8:	2500      	movs	r5, #0
 8001eba:	4629      	mov	r1, r5
 8001ebc:	4638      	mov	r0, r7
 8001ebe:	f7ff fea7 	bl	8001c10 <_ZN3ADC4readEj>
 8001ec2:	f856 3b04 	ldr.w	r3, [r6], #4
 8001ec6:	3501      	adds	r5, #1
 8001ec8:	1ac0      	subs	r0, r0, r3
 8001eca:	2d08      	cmp	r5, #8
 8001ecc:	6230      	str	r0, [r6, #32]
 8001ece:	d1f4      	bne.n	8001eba <_ZN10LineSensor4initEv+0x56>
 8001ed0:	f104 0380 	add.w	r3, r4, #128	; 0x80
 8001ed4:	f104 01a0 	add.w	r1, r4, #160	; 0xa0
 8001ed8:	2200      	movs	r2, #0
 8001eda:	f843 2b04 	str.w	r2, [r3], #4
 8001ede:	4299      	cmp	r1, r3
 8001ee0:	d1fb      	bne.n	8001eda <_ZN10LineSensor4initEv+0x76>
 8001ee2:	f06f 03ff 	mvn.w	r3, #255	; 0xff
 8001ee6:	6163      	str	r3, [r4, #20]
 8001ee8:	f06f 03bf 	mvn.w	r3, #191	; 0xbf
 8001eec:	61a3      	str	r3, [r4, #24]
 8001eee:	f06f 037f 	mvn.w	r3, #127	; 0x7f
 8001ef2:	61e3      	str	r3, [r4, #28]
 8001ef4:	f06f 033f 	mvn.w	r3, #63	; 0x3f
 8001ef8:	6223      	str	r3, [r4, #32]
 8001efa:	2340      	movs	r3, #64	; 0x40
 8001efc:	6263      	str	r3, [r4, #36]	; 0x24
 8001efe:	2380      	movs	r3, #128	; 0x80
 8001f00:	62a3      	str	r3, [r4, #40]	; 0x28
 8001f02:	23c0      	movs	r3, #192	; 0xc0
 8001f04:	62e3      	str	r3, [r4, #44]	; 0x2c
 8001f06:	f44f 7380 	mov.w	r3, #256	; 0x100
 8001f0a:	6323      	str	r3, [r4, #48]	; 0x30
 8001f0c:	f44f 73c8 	mov.w	r3, #400	; 0x190
 8001f10:	60a3      	str	r3, [r4, #8]
 8001f12:	7322      	strb	r2, [r4, #12]
 8001f14:	2300      	movs	r3, #0
 8001f16:	2204      	movs	r2, #4
 8001f18:	4621      	mov	r1, r4
 8001f1a:	4803      	ldr	r0, [pc, #12]	; (8001f28 <_ZN10LineSensor4initEv+0xc4>)
 8001f1c:	f000 fd78 	bl	8002a10 <_ZN5Timer8add_taskEP6Threadjb>
 8001f20:	2000      	movs	r0, #0
 8001f22:	e8bd 81f0 	ldmia.w	sp!, {r4, r5, r6, r7, r8, pc}
 8001f26:	bf00      	nop
 8001f28:	20000388 	andcs	r0, r0, r8, lsl #7
 8001f2c:	20000154 	andcs	r0, r0, r4, asr r1

08001f30 <_ZN10LineSensor5readyEv>:
 8001f30:	7b03      	ldrb	r3, [r0, #12]
 8001f32:	b672      	cpsid	i
 8001f34:	b10b      	cbz	r3, 8001f3a <_ZN10LineSensor5readyEv+0xa>
 8001f36:	2200      	movs	r2, #0
 8001f38:	7302      	strb	r2, [r0, #12]
 8001f3a:	b662      	cpsie	i
 8001f3c:	4618      	mov	r0, r3
 8001f3e:	4770      	bx	lr

08001f40 <_ZN10LineSensor7get_maxEv>:
 8001f40:	f44f 7080 	mov.w	r0, #256	; 0x100
 8001f44:	4770      	bx	lr

08001f46 <_ZN10LineSensor9integrateEj>:
 8001f46:	eb00 0081 	add.w	r0, r0, r1, lsl #2
 8001f4a:	b530      	push	{r4, r5, lr}
 8001f4c:	6942      	ldr	r2, [r0, #20]
 8001f4e:	f8d0 5080 	ldr.w	r5, [r0, #128]	; 0x80
 8001f52:	fb02 f405 	mul.w	r4, r2, r5
 8001f56:	b179      	cbz	r1, 8001f78 <_ZN10LineSensor9integrateEj+0x32>
 8001f58:	6fc3      	ldr	r3, [r0, #124]	; 0x7c
 8001f5a:	6902      	ldr	r2, [r0, #16]
 8001f5c:	2906      	cmp	r1, #6
 8001f5e:	fb02 4203 	mla	r2, r2, r3, r4
 8001f62:	442b      	add	r3, r5
 8001f64:	d80b      	bhi.n	8001f7e <_ZN10LineSensor9integrateEj+0x38>
 8001f66:	f8d0 1084 	ldr.w	r1, [r0, #132]	; 0x84
 8001f6a:	6980      	ldr	r0, [r0, #24]
 8001f6c:	440b      	add	r3, r1
 8001f6e:	fb00 2201 	mla	r2, r0, r1, r2
 8001f72:	fb92 f0f3 	sdiv	r0, r2, r3
 8001f76:	bd30      	pop	{r4, r5, pc}
 8001f78:	0062      	lsls	r2, r4, #1
 8001f7a:	006b      	lsls	r3, r5, #1
 8001f7c:	e7f3      	b.n	8001f66 <_ZN10LineSensor9integrateEj+0x20>
 8001f7e:	4422      	add	r2, r4
 8001f80:	442b      	add	r3, r5
 8001f82:	e7f6      	b.n	8001f72 <_ZN10LineSensor9integrateEj+0x2c>

08001f84 <_ZN10LineSensor20find_center_line_posEv>:
 8001f84:	6882      	ldr	r2, [r0, #8]
 8001f86:	f100 0380 	add.w	r3, r0, #128	; 0x80
 8001f8a:	2000      	movs	r0, #0
 8001f8c:	f853 1b04 	ldr.w	r1, [r3], #4
 8001f90:	428a      	cmp	r2, r1
 8001f92:	db04      	blt.n	8001f9e <_ZN10LineSensor20find_center_line_posEv+0x1a>
 8001f94:	3001      	adds	r0, #1
 8001f96:	2808      	cmp	r0, #8
 8001f98:	d1f8      	bne.n	8001f8c <_ZN10LineSensor20find_center_line_posEv+0x8>
 8001f9a:	f04f 30ff 	mov.w	r0, #4294967295	; 0xffffffff
 8001f9e:	4770      	bx	lr

08001fa0 <_ZN10LineSensor4mainEv>:
 8001fa0:	e92d 4ff8 	stmdb	sp!, {r3, r4, r5, r6, r7, r8, r9, sl, fp, lr}
 8001fa4:	2500      	movs	r5, #0
 8001fa6:	f8df a06c 	ldr.w	sl, [pc, #108]	; 8002014 <_ZN10LineSensor4mainEv+0x74>
 8001faa:	f8df 906c 	ldr.w	r9, [pc, #108]	; 8002018 <_ZN10LineSensor4mainEv+0x78>
 8001fae:	4604      	mov	r4, r0
 8001fb0:	f100 0638 	add.w	r6, r0, #56	; 0x38
 8001fb4:	46ab      	mov	fp, r5
 8001fb6:	4629      	mov	r1, r5
 8001fb8:	4650      	mov	r0, sl
 8001fba:	f7ff fe29 	bl	8001c10 <_ZN3ADC4readEj>
 8001fbe:	f856 3b04 	ldr.w	r3, [r6], #4
 8001fc2:	1ac0      	subs	r0, r0, r3
 8001fc4:	fb09 f000 	mul.w	r0, r9, r0
 8001fc8:	6a33      	ldr	r3, [r6, #32]
 8001fca:	fb90 f0f3 	sdiv	r0, r0, r3
 8001fce:	3501      	adds	r5, #1
 8001fd0:	f510 707a 	adds.w	r0, r0, #1000	; 0x3e8
 8001fd4:	bf54      	ite	pl
 8001fd6:	6470      	strpl	r0, [r6, #68]	; 0x44
 8001fd8:	f8c6 b044 	strmi.w	fp, [r6, #68]	; 0x44
 8001fdc:	2d08      	cmp	r5, #8
 8001fde:	d1ea      	bne.n	8001fb6 <_ZN10LineSensor4mainEv+0x16>
 8001fe0:	4620      	mov	r0, r4
 8001fe2:	f7ff ffcf 	bl	8001f84 <_ZN10LineSensor20find_center_line_posEv>
 8001fe6:	1c43      	adds	r3, r0, #1
 8001fe8:	4601      	mov	r1, r0
 8001fea:	d011      	beq.n	8002010 <_ZN10LineSensor4mainEv+0x70>
 8001fec:	4620      	mov	r0, r4
 8001fee:	f7ff ffaa 	bl	8001f46 <_ZN10LineSensor9integrateEj>
 8001ff2:	2301      	movs	r3, #1
 8001ff4:	4607      	mov	r7, r0
 8001ff6:	4680      	mov	r8, r0
 8001ff8:	f884 30c0 	strb.w	r3, [r4, #192]	; 0xc0
 8001ffc:	2301      	movs	r3, #1
 8001ffe:	f884 30c1 	strb.w	r3, [r4, #193]	; 0xc1
 8002002:	f8c4 70c4 	str.w	r7, [r4, #196]	; 0xc4
 8002006:	f8c4 80c8 	str.w	r8, [r4, #200]	; 0xc8
 800200a:	7323      	strb	r3, [r4, #12]
 800200c:	e8bd 8ff8 	ldmia.w	sp!, {r3, r4, r5, r6, r7, r8, r9, sl, fp, pc}
 8002010:	2300      	movs	r3, #0
 8002012:	e7f1      	b.n	8001ff8 <_ZN10LineSensor4mainEv+0x58>
 8002014:	20000154 	andcs	r0, r0, r4, asr r1
 8002018:	fffffc18 			; <UNDEFINED> instruction: 0xfffffc18

0800201c <_ZN3IMUD1Ev>:
 800201c:	4770      	bx	lr

0800201e <_ZN3IMUD0Ev>:
 800201e:	b510      	push	{r4, lr}
 8002020:	2144      	movs	r1, #68	; 0x44
 8002022:	4604      	mov	r4, r0
 8002024:	f7ff fa1c 	bl	8001460 <_ZdlPvj>
 8002028:	4620      	mov	r0, r4
 800202a:	bd10      	pop	{r4, pc}

0800202c <_ZN3IMUC1Ev>:
 800202c:	4b01      	ldr	r3, [pc, #4]	; (8002034 <_ZN3IMUC1Ev+0x8>)
 800202e:	6003      	str	r3, [r0, #0]
 8002030:	4770      	bx	lr
 8002032:	bf00      	nop
 8002034:	08004080 	stmdaeq	r0, {r7, lr}

08002038 <_ZN3IMU4readEb>:
 8002038:	e92d 41f0 	stmdb	sp!, {r4, r5, r6, r7, r8, lr}
 800203c:	4604      	mov	r4, r0
 800203e:	6c00      	ldr	r0, [r0, #64]	; 0x40
 8002040:	6803      	ldr	r3, [r0, #0]
 8002042:	681b      	ldr	r3, [r3, #0]
 8002044:	4688      	mov	r8, r1
 8002046:	4798      	blx	r3
 8002048:	6c20      	ldr	r0, [r4, #64]	; 0x40
 800204a:	6803      	ldr	r3, [r0, #0]
 800204c:	21d4      	movs	r1, #212	; 0xd4
 800204e:	68db      	ldr	r3, [r3, #12]
 8002050:	4798      	blx	r3
 8002052:	6c20      	ldr	r0, [r4, #64]	; 0x40
 8002054:	6803      	ldr	r3, [r0, #0]
 8002056:	2119      	movs	r1, #25
 8002058:	68db      	ldr	r3, [r3, #12]
 800205a:	4798      	blx	r3
 800205c:	6c20      	ldr	r0, [r4, #64]	; 0x40
 800205e:	6803      	ldr	r3, [r0, #0]
 8002060:	681b      	ldr	r3, [r3, #0]
 8002062:	4798      	blx	r3
 8002064:	6c20      	ldr	r0, [r4, #64]	; 0x40
 8002066:	6803      	ldr	r3, [r0, #0]
 8002068:	21d5      	movs	r1, #213	; 0xd5
 800206a:	68db      	ldr	r3, [r3, #12]
 800206c:	4798      	blx	r3
 800206e:	6c20      	ldr	r0, [r4, #64]	; 0x40
 8002070:	6803      	ldr	r3, [r0, #0]
 8002072:	2101      	movs	r1, #1
 8002074:	691b      	ldr	r3, [r3, #16]
 8002076:	4798      	blx	r3
 8002078:	0200      	lsls	r0, r0, #8
 800207a:	b207      	sxth	r7, r0
 800207c:	6c20      	ldr	r0, [r4, #64]	; 0x40
 800207e:	6803      	ldr	r3, [r0, #0]
 8002080:	2101      	movs	r1, #1
 8002082:	691b      	ldr	r3, [r3, #16]
 8002084:	4798      	blx	r3
 8002086:	4307      	orrs	r7, r0
 8002088:	6c20      	ldr	r0, [r4, #64]	; 0x40
 800208a:	6803      	ldr	r3, [r0, #0]
 800208c:	2101      	movs	r1, #1
 800208e:	691b      	ldr	r3, [r3, #16]
 8002090:	4798      	blx	r3
 8002092:	0200      	lsls	r0, r0, #8
 8002094:	b206      	sxth	r6, r0
 8002096:	6c20      	ldr	r0, [r4, #64]	; 0x40
 8002098:	6803      	ldr	r3, [r0, #0]
 800209a:	2101      	movs	r1, #1
 800209c:	691b      	ldr	r3, [r3, #16]
 800209e:	4798      	blx	r3
 80020a0:	4306      	orrs	r6, r0
 80020a2:	6c20      	ldr	r0, [r4, #64]	; 0x40
 80020a4:	6803      	ldr	r3, [r0, #0]
 80020a6:	2101      	movs	r1, #1
 80020a8:	691b      	ldr	r3, [r3, #16]
 80020aa:	4798      	blx	r3
 80020ac:	0200      	lsls	r0, r0, #8
 80020ae:	b205      	sxth	r5, r0
 80020b0:	6c20      	ldr	r0, [r4, #64]	; 0x40
 80020b2:	6803      	ldr	r3, [r0, #0]
 80020b4:	2100      	movs	r1, #0
 80020b6:	691b      	ldr	r3, [r3, #16]
 80020b8:	4798      	blx	r3
 80020ba:	4305      	orrs	r5, r0
 80020bc:	6c20      	ldr	r0, [r4, #64]	; 0x40
 80020be:	6803      	ldr	r3, [r0, #0]
 80020c0:	685b      	ldr	r3, [r3, #4]
 80020c2:	b23f      	sxth	r7, r7
 80020c4:	b236      	sxth	r6, r6
 80020c6:	b22d      	sxth	r5, r5
 80020c8:	4798      	blx	r3
 80020ca:	f1b8 0f00 	cmp.w	r8, #0
 80020ce:	d008      	beq.n	80020e2 <_ZN3IMU4readEb+0xaa>
 80020d0:	6aa3      	ldr	r3, [r4, #40]	; 0x28
 80020d2:	443b      	add	r3, r7
 80020d4:	62a3      	str	r3, [r4, #40]	; 0x28
 80020d6:	6ae3      	ldr	r3, [r4, #44]	; 0x2c
 80020d8:	4433      	add	r3, r6
 80020da:	62e3      	str	r3, [r4, #44]	; 0x2c
 80020dc:	6b23      	ldr	r3, [r4, #48]	; 0x30
 80020de:	442b      	add	r3, r5
 80020e0:	6323      	str	r3, [r4, #48]	; 0x30
 80020e2:	6aa3      	ldr	r3, [r4, #40]	; 0x28
 80020e4:	69e1      	ldr	r1, [r4, #28]
 80020e6:	6b22      	ldr	r2, [r4, #48]	; 0x30
 80020e8:	6ae0      	ldr	r0, [r4, #44]	; 0x2c
 80020ea:	1afb      	subs	r3, r7, r3
 80020ec:	1aad      	subs	r5, r5, r2
 80020ee:	6123      	str	r3, [r4, #16]
 80020f0:	2219      	movs	r2, #25
 80020f2:	fb93 f3f2 	sdiv	r3, r3, r2
 80020f6:	eb01 0343 	add.w	r3, r1, r3, lsl #1
 80020fa:	61e3      	str	r3, [r4, #28]
 80020fc:	6a23      	ldr	r3, [r4, #32]
 80020fe:	61a5      	str	r5, [r4, #24]
 8002100:	1a30      	subs	r0, r6, r0
 8002102:	6160      	str	r0, [r4, #20]
 8002104:	fb90 f0f2 	sdiv	r0, r0, r2
 8002108:	eb03 0040 	add.w	r0, r3, r0, lsl #1
 800210c:	6220      	str	r0, [r4, #32]
 800210e:	6a63      	ldr	r3, [r4, #36]	; 0x24
 8002110:	6c20      	ldr	r0, [r4, #64]	; 0x40
 8002112:	fb95 f5f2 	sdiv	r5, r5, r2
 8002116:	eb03 0545 	add.w	r5, r3, r5, lsl #1
 800211a:	6803      	ldr	r3, [r0, #0]
 800211c:	6265      	str	r5, [r4, #36]	; 0x24
 800211e:	681b      	ldr	r3, [r3, #0]
 8002120:	4798      	blx	r3
 8002122:	6c20      	ldr	r0, [r4, #64]	; 0x40
 8002124:	6803      	ldr	r3, [r0, #0]
 8002126:	21d4      	movs	r1, #212	; 0xd4
 8002128:	68db      	ldr	r3, [r3, #12]
 800212a:	4798      	blx	r3
 800212c:	6c20      	ldr	r0, [r4, #64]	; 0x40
 800212e:	6803      	ldr	r3, [r0, #0]
 8002130:	2129      	movs	r1, #41	; 0x29
 8002132:	68db      	ldr	r3, [r3, #12]
 8002134:	4798      	blx	r3
 8002136:	6c20      	ldr	r0, [r4, #64]	; 0x40
 8002138:	6803      	ldr	r3, [r0, #0]
 800213a:	681b      	ldr	r3, [r3, #0]
 800213c:	4798      	blx	r3
 800213e:	6c20      	ldr	r0, [r4, #64]	; 0x40
 8002140:	6803      	ldr	r3, [r0, #0]
 8002142:	21d5      	movs	r1, #213	; 0xd5
 8002144:	68db      	ldr	r3, [r3, #12]
 8002146:	4798      	blx	r3
 8002148:	6c20      	ldr	r0, [r4, #64]	; 0x40
 800214a:	6803      	ldr	r3, [r0, #0]
 800214c:	2101      	movs	r1, #1
 800214e:	691b      	ldr	r3, [r3, #16]
 8002150:	4798      	blx	r3
 8002152:	0200      	lsls	r0, r0, #8
 8002154:	b207      	sxth	r7, r0
 8002156:	6c20      	ldr	r0, [r4, #64]	; 0x40
 8002158:	6803      	ldr	r3, [r0, #0]
 800215a:	2101      	movs	r1, #1
 800215c:	691b      	ldr	r3, [r3, #16]
 800215e:	4798      	blx	r3
 8002160:	4307      	orrs	r7, r0
 8002162:	6c20      	ldr	r0, [r4, #64]	; 0x40
 8002164:	6803      	ldr	r3, [r0, #0]
 8002166:	2101      	movs	r1, #1
 8002168:	691b      	ldr	r3, [r3, #16]
 800216a:	4798      	blx	r3
 800216c:	0200      	lsls	r0, r0, #8
 800216e:	b206      	sxth	r6, r0
 8002170:	6c20      	ldr	r0, [r4, #64]	; 0x40
 8002172:	6803      	ldr	r3, [r0, #0]
 8002174:	2101      	movs	r1, #1
 8002176:	691b      	ldr	r3, [r3, #16]
 8002178:	4798      	blx	r3
 800217a:	4306      	orrs	r6, r0
 800217c:	6c20      	ldr	r0, [r4, #64]	; 0x40
 800217e:	6803      	ldr	r3, [r0, #0]
 8002180:	2101      	movs	r1, #1
 8002182:	691b      	ldr	r3, [r3, #16]
 8002184:	4798      	blx	r3
 8002186:	0200      	lsls	r0, r0, #8
 8002188:	b205      	sxth	r5, r0
 800218a:	6c20      	ldr	r0, [r4, #64]	; 0x40
 800218c:	6803      	ldr	r3, [r0, #0]
 800218e:	2100      	movs	r1, #0
 8002190:	691b      	ldr	r3, [r3, #16]
 8002192:	4798      	blx	r3
 8002194:	4305      	orrs	r5, r0
 8002196:	6c20      	ldr	r0, [r4, #64]	; 0x40
 8002198:	6803      	ldr	r3, [r0, #0]
 800219a:	685b      	ldr	r3, [r3, #4]
 800219c:	4798      	blx	r3
 800219e:	b23f      	sxth	r7, r7
 80021a0:	b236      	sxth	r6, r6
 80021a2:	b22d      	sxth	r5, r5
 80021a4:	2301      	movs	r3, #1
 80021a6:	6067      	str	r7, [r4, #4]
 80021a8:	60a6      	str	r6, [r4, #8]
 80021aa:	60e5      	str	r5, [r4, #12]
 80021ac:	f884 303c 	strb.w	r3, [r4, #60]	; 0x3c
 80021b0:	e8bd 81f0 	ldmia.w	sp!, {r4, r5, r6, r7, r8, pc}

080021b4 <_ZN3IMU4mainEv>:
 80021b4:	2100      	movs	r1, #0
 80021b6:	f7ff bf3f 	b.w	8002038 <_ZN3IMU4readEb>

080021ba <_ZN3IMU7presentEv>:
 80021ba:	6b40      	ldr	r0, [r0, #52]	; 0x34
 80021bc:	3000      	adds	r0, #0
 80021be:	bf18      	it	ne
 80021c0:	2001      	movne	r0, #1
 80021c2:	4770      	bx	lr

080021c4 <_ZN3IMU11delay_loopsEm>:
 80021c4:	f111 31ff 	adds.w	r1, r1, #4294967295	; 0xffffffff
 80021c8:	d301      	bcc.n	80021ce <_ZN3IMU11delay_loopsEm+0xa>
 80021ca:	bf00      	nop
 80021cc:	e7fa      	b.n	80021c4 <_ZN3IMU11delay_loopsEm>
 80021ce:	4770      	bx	lr

080021d0 <_ZN3IMU4initER13I2C_Interface>:
 80021d0:	b538      	push	{r3, r4, r5, lr}
 80021d2:	4604      	mov	r4, r0
 80021d4:	2210      	movs	r2, #16
 80021d6:	4608      	mov	r0, r1
 80021d8:	6421      	str	r1, [r4, #64]	; 0x40
 80021da:	23a8      	movs	r3, #168	; 0xa8
 80021dc:	21d4      	movs	r1, #212	; 0xd4
 80021de:	f7fe fa98 	bl	8000712 <_ZN13I2C_Interface9write_regEhhh>
 80021e2:	2300      	movs	r3, #0
 80021e4:	6123      	str	r3, [r4, #16]
 80021e6:	6163      	str	r3, [r4, #20]
 80021e8:	61a3      	str	r3, [r4, #24]
 80021ea:	62a3      	str	r3, [r4, #40]	; 0x28
 80021ec:	62e3      	str	r3, [r4, #44]	; 0x2c
 80021ee:	6323      	str	r3, [r4, #48]	; 0x30
 80021f0:	61e3      	str	r3, [r4, #28]
 80021f2:	6223      	str	r3, [r4, #32]
 80021f4:	6263      	str	r3, [r4, #36]	; 0x24
 80021f6:	f242 7110 	movw	r1, #10000	; 0x2710
 80021fa:	4620      	mov	r0, r4
 80021fc:	f7ff ffe2 	bl	80021c4 <_ZN3IMU11delay_loopsEm>
 8002200:	220f      	movs	r2, #15
 8002202:	6363      	str	r3, [r4, #52]	; 0x34
 8002204:	21d4      	movs	r1, #212	; 0xd4
 8002206:	6c20      	ldr	r0, [r4, #64]	; 0x40
 8002208:	f7fe faa1 	bl	800074e <_ZN13I2C_Interface8read_regEhh>
 800220c:	2868      	cmp	r0, #104	; 0x68
 800220e:	bf04      	itt	eq
 8002210:	2301      	moveq	r3, #1
 8002212:	6363      	streq	r3, [r4, #52]	; 0x34
 8002214:	2210      	movs	r2, #16
 8002216:	23a8      	movs	r3, #168	; 0xa8
 8002218:	21d4      	movs	r1, #212	; 0xd4
 800221a:	6c20      	ldr	r0, [r4, #64]	; 0x40
 800221c:	f7fe fa79 	bl	8000712 <_ZN13I2C_Interface9write_regEhhh>
 8002220:	2338      	movs	r3, #56	; 0x38
 8002222:	221e      	movs	r2, #30
 8002224:	21d4      	movs	r1, #212	; 0xd4
 8002226:	6c20      	ldr	r0, [r4, #64]	; 0x40
 8002228:	f7fe fa73 	bl	8000712 <_ZN13I2C_Interface9write_regEhhh>
 800222c:	2300      	movs	r3, #0
 800222e:	222e      	movs	r2, #46	; 0x2e
 8002230:	21d4      	movs	r1, #212	; 0xd4
 8002232:	6c20      	ldr	r0, [r4, #64]	; 0x40
 8002234:	f7fe fa6d 	bl	8000712 <_ZN13I2C_Interface9write_regEhhh>
 8002238:	2300      	movs	r3, #0
 800223a:	2212      	movs	r2, #18
 800223c:	21d4      	movs	r1, #212	; 0xd4
 800223e:	6c20      	ldr	r0, [r4, #64]	; 0x40
 8002240:	f7fe fa67 	bl	8000712 <_ZN13I2C_Interface9write_regEhhh>
 8002244:	2360      	movs	r3, #96	; 0x60
 8002246:	2220      	movs	r2, #32
 8002248:	21d4      	movs	r1, #212	; 0xd4
 800224a:	6c20      	ldr	r0, [r4, #64]	; 0x40
 800224c:	f7fe fa61 	bl	8000712 <_ZN13I2C_Interface9write_regEhhh>
 8002250:	2338      	movs	r3, #56	; 0x38
 8002252:	221f      	movs	r2, #31
 8002254:	21d4      	movs	r1, #212	; 0xd4
 8002256:	6c20      	ldr	r0, [r4, #64]	; 0x40
 8002258:	f7fe fa5b 	bl	8000712 <_ZN13I2C_Interface9write_regEhhh>
 800225c:	f242 7110 	movw	r1, #10000	; 0x2710
 8002260:	4620      	mov	r0, r4
 8002262:	f7ff ffaf 	bl	80021c4 <_ZN3IMU11delay_loopsEm>
 8002266:	2100      	movs	r1, #0
 8002268:	4620      	mov	r0, r4
 800226a:	f7ff fee5 	bl	8002038 <_ZN3IMU4readEb>
 800226e:	2300      	movs	r3, #0
 8002270:	63a3      	str	r3, [r4, #56]	; 0x38
 8002272:	f44f 757a 	mov.w	r5, #1000	; 0x3e8
 8002276:	2101      	movs	r1, #1
 8002278:	4620      	mov	r0, r4
 800227a:	f7ff fedd 	bl	8002038 <_ZN3IMU4readEb>
 800227e:	2164      	movs	r1, #100	; 0x64
 8002280:	4620      	mov	r0, r4
 8002282:	f7ff ff9f 	bl	80021c4 <_ZN3IMU11delay_loopsEm>
 8002286:	3d01      	subs	r5, #1
 8002288:	d1f5      	bne.n	8002276 <_ZN3IMU4initER13I2C_Interface+0xa6>
 800228a:	f44f 727a 	mov.w	r2, #1000	; 0x3e8
 800228e:	6aa3      	ldr	r3, [r4, #40]	; 0x28
 8002290:	61e5      	str	r5, [r4, #28]
 8002292:	fb93 f3f2 	sdiv	r3, r3, r2
 8002296:	6225      	str	r5, [r4, #32]
 8002298:	62a3      	str	r3, [r4, #40]	; 0x28
 800229a:	6265      	str	r5, [r4, #36]	; 0x24
 800229c:	6ae3      	ldr	r3, [r4, #44]	; 0x2c
 800229e:	6065      	str	r5, [r4, #4]
 80022a0:	fb93 f3f2 	sdiv	r3, r3, r2
 80022a4:	60a5      	str	r5, [r4, #8]
 80022a6:	62e3      	str	r3, [r4, #44]	; 0x2c
 80022a8:	60e5      	str	r5, [r4, #12]
 80022aa:	6b23      	ldr	r3, [r4, #48]	; 0x30
 80022ac:	4805      	ldr	r0, [pc, #20]	; (80022c4 <_ZN3IMU4initER13I2C_Interface+0xf4>)
 80022ae:	fb93 f3f2 	sdiv	r3, r3, r2
 80022b2:	4621      	mov	r1, r4
 80022b4:	6323      	str	r3, [r4, #48]	; 0x30
 80022b6:	220a      	movs	r2, #10
 80022b8:	462b      	mov	r3, r5
 80022ba:	f000 fba9 	bl	8002a10 <_ZN5Timer8add_taskEP6Threadjb>
 80022be:	f884 503c 	strb.w	r5, [r4, #60]	; 0x3c
 80022c2:	bd38      	pop	{r3, r4, r5, pc}
 80022c4:	20000388 	andcs	r0, r0, r8, lsl #7

080022c8 <_ZN13EncoderSensorD1Ev>:
 80022c8:	4770      	bx	lr

080022ca <_ZN13EncoderSensorD0Ev>:
 80022ca:	b510      	push	{r4, lr}
 80022cc:	2114      	movs	r1, #20
 80022ce:	4604      	mov	r4, r0
 80022d0:	f7ff f8c6 	bl	8001460 <_ZdlPvj>
 80022d4:	4620      	mov	r0, r4
 80022d6:	bd10      	pop	{r4, pc}

080022d8 <_ZN13EncoderSensorC1Ev>:
 80022d8:	4a30      	ldr	r2, [pc, #192]	; (800239c <_ZN13EncoderSensorC1Ev+0xc4>)
 80022da:	4b31      	ldr	r3, [pc, #196]	; (80023a0 <_ZN13EncoderSensorC1Ev+0xc8>)
 80022dc:	6003      	str	r3, [r0, #0]
 80022de:	6953      	ldr	r3, [r2, #20]
 80022e0:	f443 03fc 	orr.w	r3, r3, #8257536	; 0x7e0000
 80022e4:	b510      	push	{r4, lr}
 80022e6:	6153      	str	r3, [r2, #20]
 80022e8:	4b2e      	ldr	r3, [pc, #184]	; (80023a4 <_ZN13EncoderSensorC1Ev+0xcc>)
 80022ea:	6043      	str	r3, [r0, #4]
 80022ec:	689c      	ldr	r4, [r3, #8]
 80022ee:	f424 5440 	bic.w	r4, r4, #12288	; 0x3000
 80022f2:	609c      	str	r4, [r3, #8]
 80022f4:	689c      	ldr	r4, [r3, #8]
 80022f6:	f444 5440 	orr.w	r4, r4, #12288	; 0x3000
 80022fa:	609c      	str	r4, [r3, #8]
 80022fc:	681c      	ldr	r4, [r3, #0]
 80022fe:	f424 5440 	bic.w	r4, r4, #12288	; 0x3000
 8002302:	601c      	str	r4, [r3, #0]
 8002304:	681c      	ldr	r4, [r3, #0]
 8002306:	601c      	str	r4, [r3, #0]
 8002308:	68dc      	ldr	r4, [r3, #12]
 800230a:	f444 5480 	orr.w	r4, r4, #4096	; 0x1000
 800230e:	60dc      	str	r4, [r3, #12]
 8002310:	6954      	ldr	r4, [r2, #20]
 8002312:	f444 04fc 	orr.w	r4, r4, #8257536	; 0x7e0000
 8002316:	6154      	str	r4, [r2, #20]
 8002318:	689c      	ldr	r4, [r3, #8]
 800231a:	6083      	str	r3, [r0, #8]
 800231c:	f424 4440 	bic.w	r4, r4, #49152	; 0xc000
 8002320:	609c      	str	r4, [r3, #8]
 8002322:	689c      	ldr	r4, [r3, #8]
 8002324:	f444 4440 	orr.w	r4, r4, #49152	; 0xc000
 8002328:	609c      	str	r4, [r3, #8]
 800232a:	681c      	ldr	r4, [r3, #0]
 800232c:	f424 4440 	bic.w	r4, r4, #49152	; 0xc000
 8002330:	601c      	str	r4, [r3, #0]
 8002332:	681c      	ldr	r4, [r3, #0]
 8002334:	601c      	str	r4, [r3, #0]
 8002336:	68dc      	ldr	r4, [r3, #12]
 8002338:	f444 4480 	orr.w	r4, r4, #16384	; 0x4000
 800233c:	60dc      	str	r4, [r3, #12]
 800233e:	6954      	ldr	r4, [r2, #20]
 8002340:	f444 04fc 	orr.w	r4, r4, #8257536	; 0x7e0000
 8002344:	6154      	str	r4, [r2, #20]
 8002346:	689c      	ldr	r4, [r3, #8]
 8002348:	60c3      	str	r3, [r0, #12]
 800234a:	f024 7440 	bic.w	r4, r4, #50331648	; 0x3000000
 800234e:	609c      	str	r4, [r3, #8]
 8002350:	689c      	ldr	r4, [r3, #8]
 8002352:	f044 7440 	orr.w	r4, r4, #50331648	; 0x3000000
 8002356:	609c      	str	r4, [r3, #8]
 8002358:	681c      	ldr	r4, [r3, #0]
 800235a:	f024 7440 	bic.w	r4, r4, #50331648	; 0x3000000
 800235e:	601c      	str	r4, [r3, #0]
 8002360:	681c      	ldr	r4, [r3, #0]
 8002362:	601c      	str	r4, [r3, #0]
 8002364:	68dc      	ldr	r4, [r3, #12]
 8002366:	f044 7480 	orr.w	r4, r4, #16777216	; 0x1000000
 800236a:	60dc      	str	r4, [r3, #12]
 800236c:	6954      	ldr	r4, [r2, #20]
 800236e:	f444 04fc 	orr.w	r4, r4, #8257536	; 0x7e0000
 8002372:	6154      	str	r4, [r2, #20]
 8002374:	689a      	ldr	r2, [r3, #8]
 8002376:	6103      	str	r3, [r0, #16]
 8002378:	f422 0240 	bic.w	r2, r2, #12582912	; 0xc00000
 800237c:	609a      	str	r2, [r3, #8]
 800237e:	689a      	ldr	r2, [r3, #8]
 8002380:	f442 0240 	orr.w	r2, r2, #12582912	; 0xc00000
 8002384:	609a      	str	r2, [r3, #8]
 8002386:	681a      	ldr	r2, [r3, #0]
 8002388:	f422 0240 	bic.w	r2, r2, #12582912	; 0xc00000
 800238c:	601a      	str	r2, [r3, #0]
 800238e:	681a      	ldr	r2, [r3, #0]
 8002390:	601a      	str	r2, [r3, #0]
 8002392:	68da      	ldr	r2, [r3, #12]
 8002394:	f442 0280 	orr.w	r2, r2, #4194304	; 0x400000
 8002398:	60da      	str	r2, [r3, #12]
 800239a:	bd10      	pop	{r4, pc}
 800239c:	40021000 	andmi	r1, r2, r0
 80023a0:	08004094 	stmdaeq	r0, {r2, r4, r7, lr}
 80023a4:	48000800 	stmdami	r0, {fp}

080023a8 <_ZN13EncoderSensor4initEv>:
 80023a8:	4b16      	ldr	r3, [pc, #88]	; (8002404 <_ZN13EncoderSensor4initEv+0x5c>)
 80023aa:	4a17      	ldr	r2, [pc, #92]	; (8002408 <_ZN13EncoderSensor4initEv+0x60>)
 80023ac:	b510      	push	{r4, lr}
 80023ae:	2400      	movs	r4, #0
 80023b0:	601c      	str	r4, [r3, #0]
 80023b2:	4b16      	ldr	r3, [pc, #88]	; (800240c <_ZN13EncoderSensor4initEv+0x64>)
 80023b4:	601c      	str	r4, [r3, #0]
 80023b6:	6993      	ldr	r3, [r2, #24]
 80023b8:	f043 0301 	orr.w	r3, r3, #1
 80023bc:	6193      	str	r3, [r2, #24]
 80023be:	2106      	movs	r1, #6
 80023c0:	2002      	movs	r0, #2
 80023c2:	f7fe f81f 	bl	8000404 <_Z16exti_line_confighh>
 80023c6:	210c      	movs	r1, #12
 80023c8:	2002      	movs	r0, #2
 80023ca:	f7fe f81b 	bl	8000404 <_Z16exti_line_confighh>
 80023ce:	2110      	movs	r1, #16
 80023d0:	2006      	movs	r0, #6
 80023d2:	f7fe f82c 	bl	800042e <_Z14configure_extimm>
 80023d6:	2110      	movs	r1, #16
 80023d8:	200c      	movs	r0, #12
 80023da:	f7fe f828 	bl	800042e <_Z14configure_extimm>
 80023de:	4622      	mov	r2, r4
 80023e0:	4621      	mov	r1, r4
 80023e2:	2017      	movs	r0, #23
 80023e4:	f7fd ff90 	bl	8000308 <_Z9nvic_initmmm>
 80023e8:	4622      	mov	r2, r4
 80023ea:	4621      	mov	r1, r4
 80023ec:	2028      	movs	r0, #40	; 0x28
 80023ee:	f7fd ff8b 	bl	8000308 <_Z9nvic_initmmm>
 80023f2:	2006      	movs	r0, #6
 80023f4:	f7fd fffa 	bl	80003ec <_Z22exti_clear_pending_bitm>
 80023f8:	200c      	movs	r0, #12
 80023fa:	e8bd 4010 	ldmia.w	sp!, {r4, lr}
 80023fe:	f7fd bff5 	b.w	80003ec <_Z22exti_clear_pending_bitm>
 8002402:	bf00      	nop
 8002404:	20000008 	andcs	r0, r0, r8
 8002408:	40021000 	andmi	r1, r2, r0
 800240c:	2000000c 	andcs	r0, r0, ip

08002410 <_ZN13EncoderSensor8get_leftEv>:
 8002410:	b672      	cpsid	i
 8002412:	4b04      	ldr	r3, [pc, #16]	; (8002424 <_ZN13EncoderSensor8get_leftEv+0x14>)
 8002414:	6818      	ldr	r0, [r3, #0]
 8002416:	b662      	cpsie	i
 8002418:	2358      	movs	r3, #88	; 0x58
 800241a:	4343      	muls	r3, r0
 800241c:	20b4      	movs	r0, #180	; 0xb4
 800241e:	fb93 f0f0 	sdiv	r0, r3, r0
 8002422:	4770      	bx	lr
 8002424:	20000008 	andcs	r0, r0, r8

08002428 <_ZN13EncoderSensor9get_rightEv>:
 8002428:	b672      	cpsid	i
 800242a:	4b04      	ldr	r3, [pc, #16]	; (800243c <_ZN13EncoderSensor9get_rightEv+0x14>)
 800242c:	6818      	ldr	r0, [r3, #0]
 800242e:	b662      	cpsie	i
 8002430:	2358      	movs	r3, #88	; 0x58
 8002432:	4343      	muls	r3, r0
 8002434:	20b4      	movs	r0, #180	; 0xb4
 8002436:	fb93 f0f0 	sdiv	r0, r3, r0
 800243a:	4770      	bx	lr
 800243c:	2000000c 	andcs	r0, r0, ip

08002440 <_ZN13EncoderSensor12get_distanceEv>:
 8002440:	b508      	push	{r3, lr}
 8002442:	4601      	mov	r1, r0
 8002444:	f7ff ffe4 	bl	8002410 <_ZN13EncoderSensor8get_leftEv>
 8002448:	4602      	mov	r2, r0
 800244a:	4608      	mov	r0, r1
 800244c:	f7ff ffec 	bl	8002428 <_ZN13EncoderSensor9get_rightEv>
 8002450:	2302      	movs	r3, #2
 8002452:	4410      	add	r0, r2
 8002454:	fb90 f0f3 	sdiv	r0, r0, r3
 8002458:	bd08      	pop	{r3, pc}
 800245a:	0000      	movs	r0, r0

0800245c <_ZN13EncoderSensor18get_left_no_atomicEv>:
 800245c:	4b03      	ldr	r3, [pc, #12]	; (800246c <_ZN13EncoderSensor18get_left_no_atomicEv+0x10>)
 800245e:	6818      	ldr	r0, [r3, #0]
 8002460:	2358      	movs	r3, #88	; 0x58
 8002462:	4343      	muls	r3, r0
 8002464:	20b4      	movs	r0, #180	; 0xb4
 8002466:	fb93 f0f0 	sdiv	r0, r3, r0
 800246a:	4770      	bx	lr
 800246c:	20000008 	andcs	r0, r0, r8

08002470 <_ZN13EncoderSensor19get_right_no_atomicEv>:
 8002470:	4b03      	ldr	r3, [pc, #12]	; (8002480 <_ZN13EncoderSensor19get_right_no_atomicEv+0x10>)
 8002472:	6818      	ldr	r0, [r3, #0]
 8002474:	2358      	movs	r3, #88	; 0x58
 8002476:	4343      	muls	r3, r0
 8002478:	20b4      	movs	r0, #180	; 0xb4
 800247a:	fb93 f0f0 	sdiv	r0, r3, r0
 800247e:	4770      	bx	lr
 8002480:	2000000c 	andcs	r0, r0, ip

08002484 <EXTI9_5_IRQHandler>:
 8002484:	4b09      	ldr	r3, [pc, #36]	; (80024ac <EXTI9_5_IRQHandler+0x28>)
 8002486:	8a1b      	ldrh	r3, [r3, #16]
 8002488:	f013 03c0 	ands.w	r3, r3, #192	; 0xc0
 800248c:	d00b      	beq.n	80024a6 <EXTI9_5_IRQHandler+0x22>
 800248e:	2bc0      	cmp	r3, #192	; 0xc0
 8002490:	bf0c      	ite	eq
 8002492:	2301      	moveq	r3, #1
 8002494:	f04f 33ff 	movne.w	r3, #4294967295	; 0xffffffff
 8002498:	4a05      	ldr	r2, [pc, #20]	; (80024b0 <EXTI9_5_IRQHandler+0x2c>)
 800249a:	6811      	ldr	r1, [r2, #0]
 800249c:	2006      	movs	r0, #6
 800249e:	440b      	add	r3, r1
 80024a0:	6013      	str	r3, [r2, #0]
 80024a2:	f7fd bfa3 	b.w	80003ec <_Z22exti_clear_pending_bitm>
 80024a6:	2301      	movs	r3, #1
 80024a8:	e7f6      	b.n	8002498 <EXTI9_5_IRQHandler+0x14>
 80024aa:	bf00      	nop
 80024ac:	48000800 	stmdami	r0, {fp}
 80024b0:	20000008 	andcs	r0, r0, r8

080024b4 <EXTI15_10_IRQHandler>:
 80024b4:	4b0a      	ldr	r3, [pc, #40]	; (80024e0 <EXTI15_10_IRQHandler+0x2c>)
 80024b6:	8a1b      	ldrh	r3, [r3, #16]
 80024b8:	f413 53c0 	ands.w	r3, r3, #6144	; 0x1800
 80024bc:	d00c      	beq.n	80024d8 <EXTI15_10_IRQHandler+0x24>
 80024be:	f5b3 5fc0 	cmp.w	r3, #6144	; 0x1800
 80024c2:	bf0c      	ite	eq
 80024c4:	f04f 33ff 	moveq.w	r3, #4294967295	; 0xffffffff
 80024c8:	2301      	movne	r3, #1
 80024ca:	4a06      	ldr	r2, [pc, #24]	; (80024e4 <EXTI15_10_IRQHandler+0x30>)
 80024cc:	6811      	ldr	r1, [r2, #0]
 80024ce:	200c      	movs	r0, #12
 80024d0:	440b      	add	r3, r1
 80024d2:	6013      	str	r3, [r2, #0]
 80024d4:	f7fd bf8a 	b.w	80003ec <_Z22exti_clear_pending_bitm>
 80024d8:	f04f 33ff 	mov.w	r3, #4294967295	; 0xffffffff
 80024dc:	e7f5      	b.n	80024ca <EXTI15_10_IRQHandler+0x16>
 80024de:	bf00      	nop
 80024e0:	48000800 	stmdami	r0, {fp}
 80024e4:	2000000c 	andcs	r0, r0, ip

080024e8 <_ZN13MotorControll4mainEv>:
 80024e8:	b538      	push	{r3, r4, r5, lr}
 80024ea:	68c3      	ldr	r3, [r0, #12]
 80024ec:	4d36      	ldr	r5, [pc, #216]	; (80025c8 <_ZN13MotorControll4mainEv+0xe0>)
 80024ee:	ed2d 8b04 	vpush	{d8-d9}
 80024f2:	6043      	str	r3, [r0, #4]
 80024f4:	6903      	ldr	r3, [r0, #16]
 80024f6:	6083      	str	r3, [r0, #8]
 80024f8:	4604      	mov	r4, r0
 80024fa:	4628      	mov	r0, r5
 80024fc:	f7ff ffae 	bl	800245c <_ZN13EncoderSensor18get_left_no_atomicEv>
 8002500:	60e0      	str	r0, [r4, #12]
 8002502:	4628      	mov	r0, r5
 8002504:	f7ff ffb4 	bl	8002470 <_ZN13EncoderSensor19get_right_no_atomicEv>
 8002508:	6862      	ldr	r2, [r4, #4]
 800250a:	68e3      	ldr	r3, [r4, #12]
 800250c:	ed9f 5a2f 	vldr	s10, [pc, #188]	; 80025cc <_ZN13MotorControll4mainEv+0xe4>
 8002510:	edd4 6a05 	vldr	s13, [r4, #20]
 8002514:	eddf 5a2e 	vldr	s11, [pc, #184]	; 80025d0 <_ZN13MotorControll4mainEv+0xe8>
 8002518:	ed9f 6a2e 	vldr	s12, [pc, #184]	; 80025d4 <_ZN13MotorControll4mainEv+0xec>
 800251c:	6120      	str	r0, [r4, #16]
 800251e:	1a9b      	subs	r3, r3, r2
 8002520:	ee07 3a10 	vmov	s14, r3
 8002524:	eeb8 7ac7 	vcvt.f32.s32	s14, s14
 8002528:	68a3      	ldr	r3, [r4, #8]
 800252a:	ed9f 9a2b 	vldr	s18, [pc, #172]	; 80025d8 <_ZN13MotorControll4mainEv+0xf0>
 800252e:	ee27 7a05 	vmul.f32	s14, s14, s10
 8002532:	ee66 6aa5 	vmul.f32	s13, s13, s11
 8002536:	ee47 6a06 	vmla.f32	s13, s14, s12
 800253a:	1ac3      	subs	r3, r0, r3
 800253c:	f104 003c 	add.w	r0, r4, #60	; 0x3c
 8002540:	ee07 3a90 	vmov	s15, r3
 8002544:	eef8 7ae7 	vcvt.f32.s32	s15, s15
 8002548:	edc4 6a05 	vstr	s13, [r4, #20]
 800254c:	eeb0 7a66 	vmov.f32	s14, s13
 8002550:	edd4 6a06 	vldr	s13, [r4, #24]
 8002554:	ee67 7a85 	vmul.f32	s15, s15, s10
 8002558:	ee66 6aa5 	vmul.f32	s13, s13, s11
 800255c:	ee47 6a86 	vmla.f32	s13, s15, s12
 8002560:	edd4 7a07 	vldr	s15, [r4, #28]
 8002564:	edc4 6a06 	vstr	s13, [r4, #24]
 8002568:	ee77 7ac7 	vsub.f32	s15, s15, s14
 800256c:	ee17 2a10 	vmov	r2, s14
 8002570:	ee17 1a90 	vmov	r1, s15
 8002574:	f7fe ffac 	bl	80014d0 <_ZN3PID7processEff>
 8002578:	69a2      	ldr	r2, [r4, #24]
 800257a:	edd4 7a08 	vldr	s15, [r4, #32]
 800257e:	ee07 2a10 	vmov	s14, r2
 8002582:	ee77 7ac7 	vsub.f32	s15, s15, s14
 8002586:	ee08 0a90 	vmov	s17, r0
 800258a:	ee17 1a90 	vmov	r1, s15
 800258e:	f104 0068 	add.w	r0, r4, #104	; 0x68
 8002592:	f7fe ff9d 	bl	80014d0 <_ZN3PID7processEff>
 8002596:	ee68 8a89 	vmul.f32	s17, s17, s18
 800259a:	3424      	adds	r4, #36	; 0x24
 800259c:	eefd 7ae8 	vcvt.s32.f32	s15, s17
 80025a0:	ee08 0a10 	vmov	s16, r0
 80025a4:	ee17 1a90 	vmov	r1, s15
 80025a8:	4620      	mov	r0, r4
 80025aa:	f7ff f961 	bl	8001870 <_ZN5Motor8run_leftEi>
 80025ae:	ee28 8a09 	vmul.f32	s16, s16, s18
 80025b2:	4620      	mov	r0, r4
 80025b4:	eefd 7ac8 	vcvt.s32.f32	s15, s16
 80025b8:	ecbd 8b04 	vpop	{d8-d9}
 80025bc:	ee17 1a90 	vmov	r1, s15
 80025c0:	e8bd 4038 	ldmia.w	sp!, {r3, r4, r5, lr}
 80025c4:	f7ff b974 	b.w	80018b0 <_ZN5Motor9run_rightEi>
 80025c8:	200001a4 	andcs	r0, r0, r4, lsr #3
 80025cc:	3dcccccd 	stclcc	12, cr12, [ip, #820]	; 0x334
 80025d0:	3f666666 	svccc	0x00666666
 80025d4:	3e000000 	cdpcc	0, 0, cr0, cr0, cr0, {0}
 80025d8:	437f0000 	cmnmi	pc, #0

080025dc <_ZN13MotorControllC1Ev>:
 80025dc:	b573      	push	{r0, r1, r4, r5, r6, lr}
 80025de:	4b0e      	ldr	r3, [pc, #56]	; (8002618 <_ZN13MotorControllC1Ev+0x3c>)
 80025e0:	2500      	movs	r5, #0
 80025e2:	4604      	mov	r4, r0
 80025e4:	f04f 567e 	mov.w	r6, #1065353216	; 0x3f800000
 80025e8:	f840 3b24 	str.w	r3, [r0], #36
 80025ec:	f7ff f89e 	bl	800172c <_ZN5MotorC1Ev>
 80025f0:	462b      	mov	r3, r5
 80025f2:	462a      	mov	r2, r5
 80025f4:	4629      	mov	r1, r5
 80025f6:	9600      	str	r6, [sp, #0]
 80025f8:	f104 003c 	add.w	r0, r4, #60	; 0x3c
 80025fc:	f7fe ff5c 	bl	80014b8 <_ZN3PIDC1Effff>
 8002600:	9600      	str	r6, [sp, #0]
 8002602:	462b      	mov	r3, r5
 8002604:	462a      	mov	r2, r5
 8002606:	4629      	mov	r1, r5
 8002608:	f104 0068 	add.w	r0, r4, #104	; 0x68
 800260c:	f7fe ff54 	bl	80014b8 <_ZN3PIDC1Effff>
 8002610:	4620      	mov	r0, r4
 8002612:	b002      	add	sp, #8
 8002614:	bd70      	pop	{r4, r5, r6, pc}
 8002616:	bf00      	nop
 8002618:	080040a4 	stmdaeq	r0, {r2, r5, r7, lr}

0800261c <_ZN13MotorControll4initEv>:
 800261c:	b5f7      	push	{r0, r1, r2, r4, r5, r6, r7, lr}
 800261e:	4f15      	ldr	r7, [pc, #84]	; (8002674 <_ZN13MotorControll4initEv+0x58>)
 8002620:	4e15      	ldr	r6, [pc, #84]	; (8002678 <_ZN13MotorControll4initEv+0x5c>)
 8002622:	4604      	mov	r4, r0
 8002624:	f04f 557e 	mov.w	r5, #1065353216	; 0x3f800000
 8002628:	3024      	adds	r0, #36	; 0x24
 800262a:	f7ff f9b7 	bl	800199c <_ZN5Motor4initEv>
 800262e:	9500      	str	r5, [sp, #0]
 8002630:	462b      	mov	r3, r5
 8002632:	463a      	mov	r2, r7
 8002634:	4631      	mov	r1, r6
 8002636:	f104 003c 	add.w	r0, r4, #60	; 0x3c
 800263a:	f7fe ff26 	bl	800148a <_ZN3PID4initEffff>
 800263e:	9500      	str	r5, [sp, #0]
 8002640:	462b      	mov	r3, r5
 8002642:	463a      	mov	r2, r7
 8002644:	4631      	mov	r1, r6
 8002646:	f104 0068 	add.w	r0, r4, #104	; 0x68
 800264a:	f7fe ff1e 	bl	800148a <_ZN3PID4initEffff>
 800264e:	2500      	movs	r5, #0
 8002650:	2300      	movs	r3, #0
 8002652:	6163      	str	r3, [r4, #20]
 8002654:	61a3      	str	r3, [r4, #24]
 8002656:	61e3      	str	r3, [r4, #28]
 8002658:	6223      	str	r3, [r4, #32]
 800265a:	6065      	str	r5, [r4, #4]
 800265c:	60a5      	str	r5, [r4, #8]
 800265e:	60e5      	str	r5, [r4, #12]
 8002660:	6125      	str	r5, [r4, #16]
 8002662:	462b      	mov	r3, r5
 8002664:	2204      	movs	r2, #4
 8002666:	4621      	mov	r1, r4
 8002668:	4804      	ldr	r0, [pc, #16]	; (800267c <_ZN13MotorControll4initEv+0x60>)
 800266a:	f000 f9d1 	bl	8002a10 <_ZN5Timer8add_taskEP6Threadjb>
 800266e:	4628      	mov	r0, r5
 8002670:	b003      	add	sp, #12
 8002672:	bdf0      	pop	{r4, r5, r6, r7, pc}
 8002674:	3db851ec 	ldfccs	f5, [r8, #944]!	; 0x3b0
 8002678:	3f4ccccd 	svccc	0x004ccccd
 800267c:	20000388 	andcs	r0, r0, r8, lsl #7

08002680 <_ZN13MotorControll14set_left_speedEf>:
 8002680:	61c1      	str	r1, [r0, #28]
 8002682:	4770      	bx	lr

08002684 <_ZN13MotorControll15set_right_speedEf>:
 8002684:	6201      	str	r1, [r0, #32]
 8002686:	4770      	bx	lr

08002688 <_ZN13MotorControll14get_speed_leftEv>:
 8002688:	6940      	ldr	r0, [r0, #20]
 800268a:	4770      	bx	lr

0800268c <_ZN13MotorControll15get_speed_rightEv>:
 800268c:	6980      	ldr	r0, [r0, #24]
 800268e:	4770      	bx	lr

08002690 <_ZN13MotorControllD1Ev>:
 8002690:	b510      	push	{r4, lr}
 8002692:	4b08      	ldr	r3, [pc, #32]	; (80026b4 <_ZN13MotorControllD1Ev+0x24>)
 8002694:	4604      	mov	r4, r0
 8002696:	f840 3b68 	str.w	r3, [r0], #104
 800269a:	f7fe feee 	bl	800147a <_ZN3PIDD1Ev>
 800269e:	f104 003c 	add.w	r0, r4, #60	; 0x3c
 80026a2:	f7fe feea 	bl	800147a <_ZN3PIDD1Ev>
 80026a6:	f104 0024 	add.w	r0, r4, #36	; 0x24
 80026aa:	f7ff f837 	bl	800171c <_ZN5MotorD1Ev>
 80026ae:	4620      	mov	r0, r4
 80026b0:	bd10      	pop	{r4, pc}
 80026b2:	bf00      	nop
 80026b4:	080040a4 	stmdaeq	r0, {r2, r5, r7, lr}

080026b8 <_ZN13MotorControllD0Ev>:
 80026b8:	b510      	push	{r4, lr}
 80026ba:	4604      	mov	r4, r0
 80026bc:	f7ff ffe8 	bl	8002690 <_ZN13MotorControllD1Ev>
 80026c0:	4620      	mov	r0, r4
 80026c2:	2194      	movs	r1, #148	; 0x94
 80026c4:	f7fe fecc 	bl	8001460 <_ZdlPvj>
 80026c8:	4620      	mov	r0, r4
 80026ca:	bd10      	pop	{r4, pc}

080026cc <_ZN5UsartD1Ev>:
 80026cc:	4770      	bx	lr

080026ce <_ZN5UsartD0Ev>:
 80026ce:	b510      	push	{r4, lr}
 80026d0:	2104      	movs	r1, #4
 80026d2:	4604      	mov	r4, r0
 80026d4:	f7fe fec4 	bl	8001460 <_ZdlPvj>
 80026d8:	4620      	mov	r0, r4
 80026da:	bd10      	pop	{r4, pc}

080026dc <_ZN5UsartC1Ev>:
 80026dc:	4b01      	ldr	r3, [pc, #4]	; (80026e4 <_ZN5UsartC1Ev+0x8>)
 80026de:	6003      	str	r3, [r0, #0]
 80026e0:	4770      	bx	lr
 80026e2:	bf00      	nop
 80026e4:	080040b8 	stmdaeq	r0, {r3, r4, r5, r7, lr}

080026e8 <_ZN5Usart4initEj>:
 80026e8:	4a27      	ldr	r2, [pc, #156]	; (8002788 <_ZN5Usart4initEj+0xa0>)
 80026ea:	6953      	ldr	r3, [r2, #20]
 80026ec:	f443 03fc 	orr.w	r3, r3, #8257536	; 0x7e0000
 80026f0:	6153      	str	r3, [r2, #20]
 80026f2:	f04f 4390 	mov.w	r3, #1207959552	; 0x48000000
 80026f6:	6898      	ldr	r0, [r3, #8]
 80026f8:	f420 2040 	bic.w	r0, r0, #786432	; 0xc0000
 80026fc:	6098      	str	r0, [r3, #8]
 80026fe:	6898      	ldr	r0, [r3, #8]
 8002700:	f440 2040 	orr.w	r0, r0, #786432	; 0xc0000
 8002704:	6098      	str	r0, [r3, #8]
 8002706:	6818      	ldr	r0, [r3, #0]
 8002708:	f420 2040 	bic.w	r0, r0, #786432	; 0xc0000
 800270c:	6018      	str	r0, [r3, #0]
 800270e:	6818      	ldr	r0, [r3, #0]
 8002710:	f440 2000 	orr.w	r0, r0, #524288	; 0x80000
 8002714:	6018      	str	r0, [r3, #0]
 8002716:	6950      	ldr	r0, [r2, #20]
 8002718:	f440 00fc 	orr.w	r0, r0, #8257536	; 0x7e0000
 800271c:	6150      	str	r0, [r2, #20]
 800271e:	6898      	ldr	r0, [r3, #8]
 8002720:	f420 1040 	bic.w	r0, r0, #3145728	; 0x300000
 8002724:	6098      	str	r0, [r3, #8]
 8002726:	6898      	ldr	r0, [r3, #8]
 8002728:	f440 1040 	orr.w	r0, r0, #3145728	; 0x300000
 800272c:	6098      	str	r0, [r3, #8]
 800272e:	6818      	ldr	r0, [r3, #0]
 8002730:	f420 1040 	bic.w	r0, r0, #3145728	; 0x300000
 8002734:	6018      	str	r0, [r3, #0]
 8002736:	6818      	ldr	r0, [r3, #0]
 8002738:	f440 1000 	orr.w	r0, r0, #2097152	; 0x200000
 800273c:	6018      	str	r0, [r3, #0]
 800273e:	6a58      	ldr	r0, [r3, #36]	; 0x24
 8002740:	f020 00f0 	bic.w	r0, r0, #240	; 0xf0
 8002744:	6258      	str	r0, [r3, #36]	; 0x24
 8002746:	6a58      	ldr	r0, [r3, #36]	; 0x24
 8002748:	f040 0070 	orr.w	r0, r0, #112	; 0x70
 800274c:	6258      	str	r0, [r3, #36]	; 0x24
 800274e:	6a58      	ldr	r0, [r3, #36]	; 0x24
 8002750:	f420 6070 	bic.w	r0, r0, #3840	; 0xf00
 8002754:	6258      	str	r0, [r3, #36]	; 0x24
 8002756:	6a58      	ldr	r0, [r3, #36]	; 0x24
 8002758:	f440 60e0 	orr.w	r0, r0, #1792	; 0x700
 800275c:	6258      	str	r0, [r3, #36]	; 0x24
 800275e:	6993      	ldr	r3, [r2, #24]
 8002760:	f443 4380 	orr.w	r3, r3, #16384	; 0x4000
 8002764:	6193      	str	r3, [r2, #24]
 8002766:	4b09      	ldr	r3, [pc, #36]	; (800278c <_ZN5Usart4initEj+0xa4>)
 8002768:	2200      	movs	r2, #0
 800276a:	200c      	movs	r0, #12
 800276c:	605a      	str	r2, [r3, #4]
 800276e:	6018      	str	r0, [r3, #0]
 8002770:	609a      	str	r2, [r3, #8]
 8002772:	4a07      	ldr	r2, [pc, #28]	; (8002790 <_ZN5Usart4initEj+0xa8>)
 8002774:	fbb2 f1f1 	udiv	r1, r2, r1
 8002778:	b289      	uxth	r1, r1
 800277a:	8199      	strh	r1, [r3, #12]
 800277c:	681a      	ldr	r2, [r3, #0]
 800277e:	f042 0201 	orr.w	r2, r2, #1
 8002782:	601a      	str	r2, [r3, #0]
 8002784:	4770      	bx	lr
 8002786:	bf00      	nop
 8002788:	40021000 	andmi	r1, r2, r0
 800278c:	40013800 	andmi	r3, r1, r0, lsl #16
 8002790:	044aa200 	strbeq	sl, [sl], #-512	; 0xfffffe00

08002794 <_ZN5Usart8put_charEc>:
 8002794:	4b04      	ldr	r3, [pc, #16]	; (80027a8 <_ZN5Usart8put_charEc+0x14>)
 8002796:	69da      	ldr	r2, [r3, #28]
 8002798:	0612      	lsls	r2, r2, #24
 800279a:	d401      	bmi.n	80027a0 <_ZN5Usart8put_charEc+0xc>
 800279c:	bf00      	nop
 800279e:	e7fa      	b.n	8002796 <_ZN5Usart8put_charEc+0x2>
 80027a0:	b289      	uxth	r1, r1
 80027a2:	8519      	strh	r1, [r3, #40]	; 0x28
 80027a4:	4770      	bx	lr
 80027a6:	bf00      	nop
 80027a8:	40013800 	andmi	r3, r1, r0, lsl #16

080027ac <_ZN14DistanceSensorD1Ev>:
 80027ac:	4770      	bx	lr

080027ae <_ZN14DistanceSensorD0Ev>:
 80027ae:	b510      	push	{r4, lr}
 80027b0:	2144      	movs	r1, #68	; 0x44
 80027b2:	4604      	mov	r4, r0
 80027b4:	f7fe fe54 	bl	8001460 <_ZdlPvj>
 80027b8:	4620      	mov	r0, r4
 80027ba:	bd10      	pop	{r4, pc}

080027bc <_ZN14DistanceSensorC1Ev>:
 80027bc:	4928      	ldr	r1, [pc, #160]	; (8002860 <_ZN14DistanceSensorC1Ev+0xa4>)
 80027be:	4b29      	ldr	r3, [pc, #164]	; (8002864 <_ZN14DistanceSensorC1Ev+0xa8>)
 80027c0:	6003      	str	r3, [r0, #0]
 80027c2:	694b      	ldr	r3, [r1, #20]
 80027c4:	f443 03fc 	orr.w	r3, r3, #8257536	; 0x7e0000
 80027c8:	b530      	push	{r4, r5, lr}
 80027ca:	614b      	str	r3, [r1, #20]
 80027cc:	4b26      	ldr	r3, [pc, #152]	; (8002868 <_ZN14DistanceSensorC1Ev+0xac>)
 80027ce:	6183      	str	r3, [r0, #24]
 80027d0:	689a      	ldr	r2, [r3, #8]
 80027d2:	f022 6240 	bic.w	r2, r2, #201326592	; 0xc000000
 80027d6:	609a      	str	r2, [r3, #8]
 80027d8:	689a      	ldr	r2, [r3, #8]
 80027da:	f042 6240 	orr.w	r2, r2, #201326592	; 0xc000000
 80027de:	609a      	str	r2, [r3, #8]
 80027e0:	889a      	ldrh	r2, [r3, #4]
 80027e2:	f422 5200 	bic.w	r2, r2, #8192	; 0x2000
 80027e6:	0412      	lsls	r2, r2, #16
 80027e8:	0c12      	lsrs	r2, r2, #16
 80027ea:	809a      	strh	r2, [r3, #4]
 80027ec:	889a      	ldrh	r2, [r3, #4]
 80027ee:	b292      	uxth	r2, r2
 80027f0:	809a      	strh	r2, [r3, #4]
 80027f2:	681a      	ldr	r2, [r3, #0]
 80027f4:	f022 6240 	bic.w	r2, r2, #201326592	; 0xc000000
 80027f8:	601a      	str	r2, [r3, #0]
 80027fa:	681a      	ldr	r2, [r3, #0]
 80027fc:	f042 6280 	orr.w	r2, r2, #67108864	; 0x4000000
 8002800:	601a      	str	r2, [r3, #0]
 8002802:	694a      	ldr	r2, [r1, #20]
 8002804:	f442 02fc 	orr.w	r2, r2, #8257536	; 0x7e0000
 8002808:	614a      	str	r2, [r1, #20]
 800280a:	4a18      	ldr	r2, [pc, #96]	; (800286c <_ZN14DistanceSensorC1Ev+0xb0>)
 800280c:	61c2      	str	r2, [r0, #28]
 800280e:	6815      	ldr	r5, [r2, #0]
 8002810:	f025 0503 	bic.w	r5, r5, #3
 8002814:	6015      	str	r5, [r2, #0]
 8002816:	6815      	ldr	r5, [r2, #0]
 8002818:	f045 0503 	orr.w	r5, r5, #3
 800281c:	6015      	str	r5, [r2, #0]
 800281e:	694d      	ldr	r5, [r1, #20]
 8002820:	f445 05fc 	orr.w	r5, r5, #8257536	; 0x7e0000
 8002824:	614d      	str	r5, [r1, #20]
 8002826:	6815      	ldr	r5, [r2, #0]
 8002828:	6202      	str	r2, [r0, #32]
 800282a:	f025 050c 	bic.w	r5, r5, #12
 800282e:	6015      	str	r5, [r2, #0]
 8002830:	6815      	ldr	r5, [r2, #0]
 8002832:	f045 050c 	orr.w	r5, r5, #12
 8002836:	6015      	str	r5, [r2, #0]
 8002838:	694a      	ldr	r2, [r1, #20]
 800283a:	f442 02fc 	orr.w	r2, r2, #8257536	; 0x7e0000
 800283e:	614a      	str	r2, [r1, #20]
 8002840:	681a      	ldr	r2, [r3, #0]
 8002842:	6243      	str	r3, [r0, #36]	; 0x24
 8002844:	f022 0203 	bic.w	r2, r2, #3
 8002848:	601a      	str	r2, [r3, #0]
 800284a:	681a      	ldr	r2, [r3, #0]
 800284c:	f042 0203 	orr.w	r2, r2, #3
 8002850:	601a      	str	r2, [r3, #0]
 8002852:	8d1a      	ldrh	r2, [r3, #40]	; 0x28
 8002854:	b292      	uxth	r2, r2
 8002856:	f442 5200 	orr.w	r2, r2, #8192	; 0x2000
 800285a:	851a      	strh	r2, [r3, #40]	; 0x28
 800285c:	bd30      	pop	{r4, r5, pc}
 800285e:	bf00      	nop
 8002860:	40021000 	andmi	r1, r2, r0
 8002864:	080040c8 	stmdaeq	r0, {r3, r6, r7, lr}
 8002868:	48000800 	stmdami	r0, {fp}
 800286c:	48000400 	stmdami	r0, {sl}

08002870 <_ZN14DistanceSensor4initEv>:
 8002870:	6982      	ldr	r2, [r0, #24]
 8002872:	b538      	push	{r3, r4, r5, lr}
 8002874:	8d13      	ldrh	r3, [r2, #40]	; 0x28
 8002876:	b29b      	uxth	r3, r3
 8002878:	2500      	movs	r5, #0
 800287a:	f443 5300 	orr.w	r3, r3, #8192	; 0x2000
 800287e:	6285      	str	r5, [r0, #40]	; 0x28
 8002880:	4604      	mov	r4, r0
 8002882:	8513      	strh	r3, [r2, #40]	; 0x28
 8002884:	f44f 7380 	mov.w	r3, #256	; 0x100
 8002888:	62c5      	str	r5, [r0, #44]	; 0x2c
 800288a:	6305      	str	r5, [r0, #48]	; 0x30
 800288c:	6345      	str	r5, [r0, #52]	; 0x34
 800288e:	6385      	str	r5, [r0, #56]	; 0x38
 8002890:	63c5      	str	r5, [r0, #60]	; 0x3c
 8002892:	6405      	str	r5, [r0, #64]	; 0x40
 8002894:	6043      	str	r3, [r0, #4]
 8002896:	6083      	str	r3, [r0, #8]
 8002898:	60c3      	str	r3, [r0, #12]
 800289a:	7405      	strb	r5, [r0, #16]
 800289c:	7445      	strb	r5, [r0, #17]
 800289e:	4601      	mov	r1, r0
 80028a0:	462b      	mov	r3, r5
 80028a2:	2214      	movs	r2, #20
 80028a4:	4802      	ldr	r0, [pc, #8]	; (80028b0 <_ZN14DistanceSensor4initEv+0x40>)
 80028a6:	f000 f8b3 	bl	8002a10 <_ZN5Timer8add_taskEP6Threadjb>
 80028aa:	7525      	strb	r5, [r4, #20]
 80028ac:	4628      	mov	r0, r5
 80028ae:	bd38      	pop	{r3, r4, r5, pc}
 80028b0:	20000388 	andcs	r0, r0, r8, lsl #7

080028b4 <_ZN14DistanceSensor6filterEPij>:
 80028b4:	eb00 0282 	add.w	r2, r0, r2, lsl #2
 80028b8:	6b93      	ldr	r3, [r2, #56]	; 0x38
 80028ba:	6ad2      	ldr	r2, [r2, #44]	; 0x2c
 80028bc:	1a9b      	subs	r3, r3, r2
 80028be:	ea23 73e3 	bic.w	r3, r3, r3, asr #31
 80028c2:	2210      	movs	r2, #16
 80028c4:	f5c3 5380 	rsb	r3, r3, #4096	; 0x1000
 80028c8:	fb93 f3f2 	sdiv	r3, r3, r2
 80028cc:	680a      	ldr	r2, [r1, #0]
 80028ce:	eb02 0242 	add.w	r2, r2, r2, lsl #1
 80028d2:	4413      	add	r3, r2
 80028d4:	2204      	movs	r2, #4
 80028d6:	fb93 f3f2 	sdiv	r3, r3, r2
 80028da:	600b      	str	r3, [r1, #0]
 80028dc:	4770      	bx	lr
 80028de:	0000      	movs	r0, r0

080028e0 <_ZN14DistanceSensor4mainEv>:
 80028e0:	b538      	push	{r3, r4, r5, lr}
 80028e2:	6a85      	ldr	r5, [r0, #40]	; 0x28
 80028e4:	4604      	mov	r4, r0
 80028e6:	b115      	cbz	r5, 80028ee <_ZN14DistanceSensor4mainEv+0xe>
 80028e8:	2d01      	cmp	r5, #1
 80028ea:	d017      	beq.n	800291c <_ZN14DistanceSensor4mainEv+0x3c>
 80028ec:	bd38      	pop	{r3, r4, r5, pc}
 80028ee:	2108      	movs	r1, #8
 80028f0:	4826      	ldr	r0, [pc, #152]	; (800298c <_ZN14DistanceSensor4mainEv+0xac>)
 80028f2:	f7ff f98d 	bl	8001c10 <_ZN3ADC4readEj>
 80028f6:	2109      	movs	r1, #9
 80028f8:	63a0      	str	r0, [r4, #56]	; 0x38
 80028fa:	4824      	ldr	r0, [pc, #144]	; (800298c <_ZN14DistanceSensor4mainEv+0xac>)
 80028fc:	f7ff f988 	bl	8001c10 <_ZN3ADC4readEj>
 8002900:	210a      	movs	r1, #10
 8002902:	63e0      	str	r0, [r4, #60]	; 0x3c
 8002904:	4821      	ldr	r0, [pc, #132]	; (800298c <_ZN14DistanceSensor4mainEv+0xac>)
 8002906:	f7ff f983 	bl	8001c10 <_ZN3ADC4readEj>
 800290a:	69a2      	ldr	r2, [r4, #24]
 800290c:	6420      	str	r0, [r4, #64]	; 0x40
 800290e:	6993      	ldr	r3, [r2, #24]
 8002910:	f443 5300 	orr.w	r3, r3, #8192	; 0x2000
 8002914:	6193      	str	r3, [r2, #24]
 8002916:	2301      	movs	r3, #1
 8002918:	62a3      	str	r3, [r4, #40]	; 0x28
 800291a:	bd38      	pop	{r3, r4, r5, pc}
 800291c:	2108      	movs	r1, #8
 800291e:	481b      	ldr	r0, [pc, #108]	; (800298c <_ZN14DistanceSensor4mainEv+0xac>)
 8002920:	f7ff f976 	bl	8001c10 <_ZN3ADC4readEj>
 8002924:	2109      	movs	r1, #9
 8002926:	62e0      	str	r0, [r4, #44]	; 0x2c
 8002928:	4818      	ldr	r0, [pc, #96]	; (800298c <_ZN14DistanceSensor4mainEv+0xac>)
 800292a:	f7ff f971 	bl	8001c10 <_ZN3ADC4readEj>
 800292e:	210a      	movs	r1, #10
 8002930:	6320      	str	r0, [r4, #48]	; 0x30
 8002932:	4816      	ldr	r0, [pc, #88]	; (800298c <_ZN14DistanceSensor4mainEv+0xac>)
 8002934:	f7ff f96c 	bl	8001c10 <_ZN3ADC4readEj>
 8002938:	69a2      	ldr	r2, [r4, #24]
 800293a:	6360      	str	r0, [r4, #52]	; 0x34
 800293c:	8d13      	ldrh	r3, [r2, #40]	; 0x28
 800293e:	b29b      	uxth	r3, r3
 8002940:	f443 5300 	orr.w	r3, r3, #8192	; 0x2000
 8002944:	8513      	strh	r3, [r2, #40]	; 0x28
 8002946:	f104 0108 	add.w	r1, r4, #8
 800294a:	2200      	movs	r2, #0
 800294c:	4620      	mov	r0, r4
 800294e:	f7ff ffb1 	bl	80028b4 <_ZN14DistanceSensor6filterEPij>
 8002952:	462a      	mov	r2, r5
 8002954:	1d21      	adds	r1, r4, #4
 8002956:	4620      	mov	r0, r4
 8002958:	f7ff ffac 	bl	80028b4 <_ZN14DistanceSensor6filterEPij>
 800295c:	2202      	movs	r2, #2
 800295e:	f104 010c 	add.w	r1, r4, #12
 8002962:	4620      	mov	r0, r4
 8002964:	f7ff ffa6 	bl	80028b4 <_ZN14DistanceSensor6filterEPij>
 8002968:	68a2      	ldr	r2, [r4, #8]
 800296a:	2abd      	cmp	r2, #189	; 0xbd
 800296c:	f04f 0300 	mov.w	r3, #0
 8002970:	dc04      	bgt.n	800297c <_ZN14DistanceSensor4mainEv+0x9c>
 8002972:	2ab3      	cmp	r2, #179	; 0xb3
 8002974:	7425      	strb	r5, [r4, #16]
 8002976:	dd03      	ble.n	8002980 <_ZN14DistanceSensor4mainEv+0xa0>
 8002978:	7463      	strb	r3, [r4, #17]
 800297a:	e002      	b.n	8002982 <_ZN14DistanceSensor4mainEv+0xa2>
 800297c:	7423      	strb	r3, [r4, #16]
 800297e:	e7fb      	b.n	8002978 <_ZN14DistanceSensor4mainEv+0x98>
 8002980:	7465      	strb	r5, [r4, #17]
 8002982:	2300      	movs	r3, #0
 8002984:	62a3      	str	r3, [r4, #40]	; 0x28
 8002986:	2301      	movs	r3, #1
 8002988:	7523      	strb	r3, [r4, #20]
 800298a:	bd38      	pop	{r3, r4, r5, pc}
 800298c:	20000154 	andcs	r0, r0, r4, asr r1

08002990 <_ZN14DistanceSensor5readyEv>:
 8002990:	7d03      	ldrb	r3, [r0, #20]
 8002992:	b672      	cpsid	i
 8002994:	b10b      	cbz	r3, 800299a <_ZN14DistanceSensor5readyEv+0xa>
 8002996:	2200      	movs	r2, #0
 8002998:	7502      	strb	r2, [r0, #20]
 800299a:	b662      	cpsie	i
 800299c:	4618      	mov	r0, r3
 800299e:	4770      	bx	lr

080029a0 <_ZN5TimerC1Ev>:
 80029a0:	4770      	bx	lr
 80029a2:	0000      	movs	r0, r0

080029a4 <_ZN5Timer4initEv>:
 80029a4:	b5f7      	push	{r0, r1, r2, r4, r5, r6, r7, lr}
 80029a6:	2200      	movs	r2, #0
 80029a8:	4d15      	ldr	r5, [pc, #84]	; (8002a00 <_ZN5Timer4initEv+0x5c>)
 80029aa:	2714      	movs	r7, #20
 80029ac:	4613      	mov	r3, r2
 80029ae:	f44f 767a 	mov.w	r6, #1000	; 0x3e8
 80029b2:	fb07 f402 	mul.w	r4, r7, r2
 80029b6:	1929      	adds	r1, r5, r4
 80029b8:	3201      	adds	r2, #1
 80029ba:	2a10      	cmp	r2, #16
 80029bc:	512b      	str	r3, [r5, r4]
 80029be:	604b      	str	r3, [r1, #4]
 80029c0:	608e      	str	r6, [r1, #8]
 80029c2:	60cb      	str	r3, [r1, #12]
 80029c4:	740b      	strb	r3, [r1, #16]
 80029c6:	744b      	strb	r3, [r1, #17]
 80029c8:	d1f3      	bne.n	80029b2 <_ZN5Timer4initEv+0xe>
 80029ca:	4a0e      	ldr	r2, [pc, #56]	; (8002a04 <_ZN5Timer4initEv+0x60>)
 80029cc:	6013      	str	r3, [r2, #0]
 80029ce:	4a0e      	ldr	r2, [pc, #56]	; (8002a08 <_ZN5Timer4initEv+0x64>)
 80029d0:	6003      	str	r3, [r0, #0]
 80029d2:	69d3      	ldr	r3, [r2, #28]
 80029d4:	f043 0301 	orr.w	r3, r3, #1
 80029d8:	61d3      	str	r3, [r2, #28]
 80029da:	2200      	movs	r2, #0
 80029dc:	2364      	movs	r3, #100	; 0x64
 80029de:	9300      	str	r3, [sp, #0]
 80029e0:	4611      	mov	r1, r2
 80029e2:	f240 23cf 	movw	r3, #719	; 0x2cf
 80029e6:	f04f 4080 	mov.w	r0, #1073741824	; 0x40000000
 80029ea:	f7fd fcaf 	bl	800034c <_Z10timer_initP11TIM_TypeDefmmmm>
 80029ee:	2201      	movs	r2, #1
 80029f0:	2100      	movs	r1, #0
 80029f2:	201c      	movs	r0, #28
 80029f4:	f7fd fc88 	bl	8000308 <_Z9nvic_initmmm>
 80029f8:	b662      	cpsie	i
 80029fa:	b003      	add	sp, #12
 80029fc:	bdf0      	pop	{r4, r5, r6, r7, pc}
 80029fe:	bf00      	nop
 8002a00:	20000014 	andcs	r0, r0, r4, lsl r0
 8002a04:	20000010 	andcs	r0, r0, r0, lsl r0
 8002a08:	40021000 	andmi	r1, r2, r0

08002a0c <_ZN5TimerD1Ev>:
 8002a0c:	4770      	bx	lr
 8002a0e:	0000      	movs	r0, r0

08002a10 <_ZN5Timer8add_taskEP6Threadjb>:
 8002a10:	b5f0      	push	{r4, r5, r6, r7, lr}
 8002a12:	b672      	cpsid	i
 8002a14:	4d11      	ldr	r5, [pc, #68]	; (8002a5c <_ZN5Timer8add_taskEP6Threadjb+0x4c>)
 8002a16:	2400      	movs	r4, #0
 8002a18:	f04f 30ff 	mov.w	r0, #4294967295	; 0xffffffff
 8002a1c:	f04f 0e14 	mov.w	lr, #20
 8002a20:	462f      	mov	r7, r5
 8002a22:	fb0e f604 	mul.w	r6, lr, r4
 8002a26:	eb05 0c06 	add.w	ip, r5, r6
 8002a2a:	59ae      	ldr	r6, [r5, r6]
 8002a2c:	b926      	cbnz	r6, 8002a38 <_ZN5Timer8add_taskEP6Threadjb+0x28>
 8002a2e:	f8dc 6004 	ldr.w	r6, [ip, #4]
 8002a32:	2e00      	cmp	r6, #0
 8002a34:	bf08      	it	eq
 8002a36:	4620      	moveq	r0, r4
 8002a38:	3401      	adds	r4, #1
 8002a3a:	2c10      	cmp	r4, #16
 8002a3c:	d1f1      	bne.n	8002a22 <_ZN5Timer8add_taskEP6Threadjb+0x12>
 8002a3e:	1c44      	adds	r4, r0, #1
 8002a40:	d00a      	beq.n	8002a58 <_ZN5Timer8add_taskEP6Threadjb+0x48>
 8002a42:	b2c4      	uxtb	r4, r0
 8002a44:	2514      	movs	r5, #20
 8002a46:	4365      	muls	r5, r4
 8002a48:	197c      	adds	r4, r7, r5
 8002a4a:	2600      	movs	r6, #0
 8002a4c:	517e      	str	r6, [r7, r5]
 8002a4e:	6061      	str	r1, [r4, #4]
 8002a50:	60a2      	str	r2, [r4, #8]
 8002a52:	60e2      	str	r2, [r4, #12]
 8002a54:	7426      	strb	r6, [r4, #16]
 8002a56:	7463      	strb	r3, [r4, #17]
 8002a58:	b662      	cpsie	i
 8002a5a:	bdf0      	pop	{r4, r5, r6, r7, pc}
 8002a5c:	20000014 	andcs	r0, r0, r4, lsl r0

08002a60 <_ZN5Timer10set_periodEhj>:
 8002a60:	4804      	ldr	r0, [pc, #16]	; (8002a74 <_ZN5Timer10set_periodEhj+0x14>)
 8002a62:	2314      	movs	r3, #20
 8002a64:	fb03 0101 	mla	r1, r3, r1, r0
 8002a68:	2300      	movs	r3, #0
 8002a6a:	60ca      	str	r2, [r1, #12]
 8002a6c:	608a      	str	r2, [r1, #8]
 8002a6e:	740b      	strb	r3, [r1, #16]
 8002a70:	4770      	bx	lr
 8002a72:	bf00      	nop
 8002a74:	20000014 	andcs	r0, r0, r4, lsl r0

08002a78 <_ZN5Timer8get_timeEv>:
 8002a78:	b082      	sub	sp, #8
 8002a7a:	b672      	cpsid	i
 8002a7c:	4b03      	ldr	r3, [pc, #12]	; (8002a8c <_ZN5Timer8get_timeEv+0x14>)
 8002a7e:	681b      	ldr	r3, [r3, #0]
 8002a80:	9301      	str	r3, [sp, #4]
 8002a82:	b662      	cpsie	i
 8002a84:	9801      	ldr	r0, [sp, #4]
 8002a86:	b002      	add	sp, #8
 8002a88:	4770      	bx	lr
 8002a8a:	bf00      	nop
 8002a8c:	20000010 	andcs	r0, r0, r0, lsl r0

08002a90 <_ZN5Timer8delay_msEj>:
 8002a90:	b507      	push	{r0, r1, r2, lr}
 8002a92:	4602      	mov	r2, r0
 8002a94:	f7ff fff0 	bl	8002a78 <_ZN5Timer8get_timeEv>
 8002a98:	4401      	add	r1, r0
 8002a9a:	9101      	str	r1, [sp, #4]
 8002a9c:	4610      	mov	r0, r2
 8002a9e:	f7ff ffeb 	bl	8002a78 <_ZN5Timer8get_timeEv>
 8002aa2:	9b01      	ldr	r3, [sp, #4]
 8002aa4:	4298      	cmp	r0, r3
 8002aa6:	d201      	bcs.n	8002aac <_ZN5Timer8delay_msEj+0x1c>
 8002aa8:	bf00      	nop
 8002aaa:	e7f7      	b.n	8002a9c <_ZN5Timer8delay_msEj+0xc>
 8002aac:	b003      	add	sp, #12
 8002aae:	f85d fb04 	ldr.w	pc, [sp], #4
 8002ab2:	0000      	movs	r0, r0

08002ab4 <TIM2_IRQHandler>:
 8002ab4:	b5f8      	push	{r3, r4, r5, r6, r7, lr}
 8002ab6:	f04f 4380 	mov.w	r3, #1073741824	; 0x40000000
 8002aba:	691a      	ldr	r2, [r3, #16]
 8002abc:	07d2      	lsls	r2, r2, #31
 8002abe:	d514      	bpl.n	8002aea <TIM2_IRQHandler+0x36>
 8002ac0:	4f19      	ldr	r7, [pc, #100]	; (8002b28 <TIM2_IRQHandler+0x74>)
 8002ac2:	f64f 72fe 	movw	r2, #65534	; 0xfffe
 8002ac6:	611a      	str	r2, [r3, #16]
 8002ac8:	2400      	movs	r4, #0
 8002aca:	2614      	movs	r6, #20
 8002acc:	463d      	mov	r5, r7
 8002ace:	fb06 7304 	mla	r3, r6, r4, r7
 8002ad2:	68da      	ldr	r2, [r3, #12]
 8002ad4:	b152      	cbz	r2, 8002aec <TIM2_IRQHandler+0x38>
 8002ad6:	68da      	ldr	r2, [r3, #12]
 8002ad8:	3a01      	subs	r2, #1
 8002ada:	60da      	str	r2, [r3, #12]
 8002adc:	3401      	adds	r4, #1
 8002ade:	2c10      	cmp	r4, #16
 8002ae0:	d1f5      	bne.n	8002ace <TIM2_IRQHandler+0x1a>
 8002ae2:	4a12      	ldr	r2, [pc, #72]	; (8002b2c <TIM2_IRQHandler+0x78>)
 8002ae4:	6813      	ldr	r3, [r2, #0]
 8002ae6:	3301      	adds	r3, #1
 8002ae8:	6013      	str	r3, [r2, #0]
 8002aea:	bdf8      	pop	{r3, r4, r5, r6, r7, pc}
 8002aec:	689a      	ldr	r2, [r3, #8]
 8002aee:	60da      	str	r2, [r3, #12]
 8002af0:	7c1a      	ldrb	r2, [r3, #16]
 8002af2:	2aff      	cmp	r2, #255	; 0xff
 8002af4:	bf1f      	itttt	ne
 8002af6:	7c1a      	ldrbne	r2, [r3, #16]
 8002af8:	3201      	addne	r2, #1
 8002afa:	b2d2      	uxtbne	r2, r2
 8002afc:	741a      	strbne	r2, [r3, #16]
 8002afe:	fb06 f304 	mul.w	r3, r6, r4
 8002b02:	18ea      	adds	r2, r5, r3
 8002b04:	7c52      	ldrb	r2, [r2, #17]
 8002b06:	2a00      	cmp	r2, #0
 8002b08:	d1e8      	bne.n	8002adc <TIM2_IRQHandler+0x28>
 8002b0a:	58ea      	ldr	r2, [r5, r3]
 8002b0c:	b10a      	cbz	r2, 8002b12 <TIM2_IRQHandler+0x5e>
 8002b0e:	58eb      	ldr	r3, [r5, r3]
 8002b10:	4798      	blx	r3
 8002b12:	fb06 5304 	mla	r3, r6, r4, r5
 8002b16:	685a      	ldr	r2, [r3, #4]
 8002b18:	2a00      	cmp	r2, #0
 8002b1a:	d0df      	beq.n	8002adc <TIM2_IRQHandler+0x28>
 8002b1c:	6858      	ldr	r0, [r3, #4]
 8002b1e:	6803      	ldr	r3, [r0, #0]
 8002b20:	689b      	ldr	r3, [r3, #8]
 8002b22:	4798      	blx	r3
 8002b24:	e7da      	b.n	8002adc <TIM2_IRQHandler+0x28>
 8002b26:	bf00      	nop
 8002b28:	20000014 	andcs	r0, r0, r4, lsl r0
 8002b2c:	20000010 	andcs	r0, r0, r0, lsl r0

08002b30 <_ZN7DriversD1Ev>:
 8002b30:	4770      	bx	lr

08002b32 <_ZN7DriversD0Ev>:
 8002b32:	b510      	push	{r4, lr}
 8002b34:	2108      	movs	r1, #8
 8002b36:	4604      	mov	r4, r0
 8002b38:	f7fe fc92 	bl	8001460 <_ZdlPvj>
 8002b3c:	4620      	mov	r0, r4
 8002b3e:	bd10      	pop	{r4, pc}

08002b40 <_ZN4TI2CILh1ELh7ELh6ELh10ELh1EED1Ev>:
 8002b40:	b510      	push	{r4, lr}
 8002b42:	4b03      	ldr	r3, [pc, #12]	; (8002b50 <_ZN4TI2CILh1ELh7ELh6ELh10ELh1EED1Ev+0x10>)
 8002b44:	6003      	str	r3, [r0, #0]
 8002b46:	4604      	mov	r4, r0
 8002b48:	f7fd fde2 	bl	8000710 <_ZN13I2C_InterfaceD1Ev>
 8002b4c:	4620      	mov	r0, r4
 8002b4e:	bd10      	pop	{r4, pc}
 8002b50:	080040dc 	stmdaeq	r0, {r2, r3, r4, r6, r7, lr}

08002b54 <_ZN4TI2CILh1ELh7ELh6ELh10ELh1EED0Ev>:
 8002b54:	b510      	push	{r4, lr}
 8002b56:	4604      	mov	r4, r0
 8002b58:	f7ff fff2 	bl	8002b40 <_ZN4TI2CILh1ELh7ELh6ELh10ELh1EED1Ev>
 8002b5c:	4620      	mov	r0, r4
 8002b5e:	2110      	movs	r1, #16
 8002b60:	f7fe fc7e 	bl	8001460 <_ZdlPvj>
 8002b64:	4620      	mov	r0, r4
 8002b66:	bd10      	pop	{r4, pc}

08002b68 <_ZN8TerminallsEb>:
 8002b68:	b510      	push	{r4, lr}
 8002b6a:	4604      	mov	r4, r0
 8002b6c:	b121      	cbz	r1, 8002b78 <_ZN8TerminallsEb+0x10>
 8002b6e:	4903      	ldr	r1, [pc, #12]	; (8002b7c <_ZN8TerminallsEb+0x14>)
 8002b70:	f7fe fd3b 	bl	80015ea <_ZN8Terminal4putsEPKc>
 8002b74:	4620      	mov	r0, r4
 8002b76:	bd10      	pop	{r4, pc}
 8002b78:	4901      	ldr	r1, [pc, #4]	; (8002b80 <_ZN8TerminallsEb+0x18>)
 8002b7a:	e7f9      	b.n	8002b70 <_ZN8TerminallsEb+0x8>
 8002b7c:	08004223 	stmdaeq	r0, {r0, r1, r5, r9, lr}
 8002b80:	08004228 	stmdaeq	r0, {r3, r5, r9, lr}

08002b84 <_ZN7DriversC1Ev>:
 8002b84:	4910      	ldr	r1, [pc, #64]	; (8002bc8 <_ZN7DriversC1Ev+0x44>)
 8002b86:	4b11      	ldr	r3, [pc, #68]	; (8002bcc <_ZN7DriversC1Ev+0x48>)
 8002b88:	6003      	str	r3, [r0, #0]
 8002b8a:	694b      	ldr	r3, [r1, #20]
 8002b8c:	f443 03fc 	orr.w	r3, r3, #8257536	; 0x7e0000
 8002b90:	614b      	str	r3, [r1, #20]
 8002b92:	4b0f      	ldr	r3, [pc, #60]	; (8002bd0 <_ZN7DriversC1Ev+0x4c>)
 8002b94:	6043      	str	r3, [r0, #4]
 8002b96:	689a      	ldr	r2, [r3, #8]
 8002b98:	f022 4240 	bic.w	r2, r2, #3221225472	; 0xc0000000
 8002b9c:	609a      	str	r2, [r3, #8]
 8002b9e:	689a      	ldr	r2, [r3, #8]
 8002ba0:	f042 4240 	orr.w	r2, r2, #3221225472	; 0xc0000000
 8002ba4:	609a      	str	r2, [r3, #8]
 8002ba6:	889a      	ldrh	r2, [r3, #4]
 8002ba8:	f3c2 020e 	ubfx	r2, r2, #0, #15
 8002bac:	809a      	strh	r2, [r3, #4]
 8002bae:	889a      	ldrh	r2, [r3, #4]
 8002bb0:	b292      	uxth	r2, r2
 8002bb2:	809a      	strh	r2, [r3, #4]
 8002bb4:	681a      	ldr	r2, [r3, #0]
 8002bb6:	f022 4240 	bic.w	r2, r2, #3221225472	; 0xc0000000
 8002bba:	601a      	str	r2, [r3, #0]
 8002bbc:	681a      	ldr	r2, [r3, #0]
 8002bbe:	f042 4280 	orr.w	r2, r2, #1073741824	; 0x40000000
 8002bc2:	601a      	str	r2, [r3, #0]
 8002bc4:	4770      	bx	lr
 8002bc6:	bf00      	nop
 8002bc8:	40021000 	andmi	r1, r2, r0
 8002bcc:	08004238 	stmdaeq	r0, {r3, r4, r5, r9, lr}
 8002bd0:	48000400 	stmdami	r0, {sl}

08002bd4 <_ZN4GpioILh1ELh15ELh0EE5writeEi>:
 8002bd4:	6802      	ldr	r2, [r0, #0]
 8002bd6:	b121      	cbz	r1, 8002be2 <_ZN4GpioILh1ELh15ELh0EE5writeEi+0xe>
 8002bd8:	6993      	ldr	r3, [r2, #24]
 8002bda:	f443 4300 	orr.w	r3, r3, #32768	; 0x8000
 8002bde:	6193      	str	r3, [r2, #24]
 8002be0:	4770      	bx	lr
 8002be2:	8d13      	ldrh	r3, [r2, #40]	; 0x28
 8002be4:	ea6f 4343 	mvn.w	r3, r3, lsl #17
 8002be8:	ea6f 4353 	mvn.w	r3, r3, lsr #17
 8002bec:	b29b      	uxth	r3, r3
 8002bee:	8513      	strh	r3, [r2, #40]	; 0x28
 8002bf0:	4770      	bx	lr

08002bf2 <_ZN4GpioILh1ELh7ELh1EE8set_modeEh>:
 8002bf2:	b9d1      	cbnz	r1, 8002c2a <_ZN4GpioILh1ELh7ELh1EE8set_modeEh+0x38>
 8002bf4:	6803      	ldr	r3, [r0, #0]
 8002bf6:	689a      	ldr	r2, [r3, #8]
 8002bf8:	f422 4240 	bic.w	r2, r2, #49152	; 0xc000
 8002bfc:	609a      	str	r2, [r3, #8]
 8002bfe:	689a      	ldr	r2, [r3, #8]
 8002c00:	f442 4240 	orr.w	r2, r2, #49152	; 0xc000
 8002c04:	609a      	str	r2, [r3, #8]
 8002c06:	889a      	ldrh	r2, [r3, #4]
 8002c08:	f022 0280 	bic.w	r2, r2, #128	; 0x80
 8002c0c:	0412      	lsls	r2, r2, #16
 8002c0e:	0c12      	lsrs	r2, r2, #16
 8002c10:	809a      	strh	r2, [r3, #4]
 8002c12:	889a      	ldrh	r2, [r3, #4]
 8002c14:	b292      	uxth	r2, r2
 8002c16:	809a      	strh	r2, [r3, #4]
 8002c18:	681a      	ldr	r2, [r3, #0]
 8002c1a:	f422 4240 	bic.w	r2, r2, #49152	; 0xc000
 8002c1e:	601a      	str	r2, [r3, #0]
 8002c20:	681a      	ldr	r2, [r3, #0]
 8002c22:	f442 4280 	orr.w	r2, r2, #16384	; 0x4000
 8002c26:	601a      	str	r2, [r3, #0]
 8002c28:	4770      	bx	lr
 8002c2a:	2901      	cmp	r1, #1
 8002c2c:	d10e      	bne.n	8002c4c <_ZN4GpioILh1ELh7ELh1EE8set_modeEh+0x5a>
 8002c2e:	6803      	ldr	r3, [r0, #0]
 8002c30:	689a      	ldr	r2, [r3, #8]
 8002c32:	f422 4240 	bic.w	r2, r2, #49152	; 0xc000
 8002c36:	609a      	str	r2, [r3, #8]
 8002c38:	689a      	ldr	r2, [r3, #8]
 8002c3a:	f442 4240 	orr.w	r2, r2, #49152	; 0xc000
 8002c3e:	609a      	str	r2, [r3, #8]
 8002c40:	681a      	ldr	r2, [r3, #0]
 8002c42:	f422 4240 	bic.w	r2, r2, #49152	; 0xc000
 8002c46:	601a      	str	r2, [r3, #0]
 8002c48:	681a      	ldr	r2, [r3, #0]
 8002c4a:	e7ec      	b.n	8002c26 <_ZN4GpioILh1ELh7ELh1EE8set_modeEh+0x34>
 8002c4c:	2902      	cmp	r1, #2
 8002c4e:	d113      	bne.n	8002c78 <_ZN4GpioILh1ELh7ELh1EE8set_modeEh+0x86>
 8002c50:	6803      	ldr	r3, [r0, #0]
 8002c52:	689a      	ldr	r2, [r3, #8]
 8002c54:	f422 4240 	bic.w	r2, r2, #49152	; 0xc000
 8002c58:	609a      	str	r2, [r3, #8]
 8002c5a:	689a      	ldr	r2, [r3, #8]
 8002c5c:	f442 4240 	orr.w	r2, r2, #49152	; 0xc000
 8002c60:	609a      	str	r2, [r3, #8]
 8002c62:	681a      	ldr	r2, [r3, #0]
 8002c64:	f422 4240 	bic.w	r2, r2, #49152	; 0xc000
 8002c68:	601a      	str	r2, [r3, #0]
 8002c6a:	681a      	ldr	r2, [r3, #0]
 8002c6c:	601a      	str	r2, [r3, #0]
 8002c6e:	68da      	ldr	r2, [r3, #12]
 8002c70:	f442 4280 	orr.w	r2, r2, #16384	; 0x4000
 8002c74:	60da      	str	r2, [r3, #12]
 8002c76:	4770      	bx	lr
 8002c78:	2905      	cmp	r1, #5
 8002c7a:	d110      	bne.n	8002c9e <_ZN4GpioILh1ELh7ELh1EE8set_modeEh+0xac>
 8002c7c:	6803      	ldr	r3, [r0, #0]
 8002c7e:	689a      	ldr	r2, [r3, #8]
 8002c80:	f422 4240 	bic.w	r2, r2, #49152	; 0xc000
 8002c84:	609a      	str	r2, [r3, #8]
 8002c86:	689a      	ldr	r2, [r3, #8]
 8002c88:	f442 4240 	orr.w	r2, r2, #49152	; 0xc000
 8002c8c:	609a      	str	r2, [r3, #8]
 8002c8e:	681a      	ldr	r2, [r3, #0]
 8002c90:	f422 4240 	bic.w	r2, r2, #49152	; 0xc000
 8002c94:	601a      	str	r2, [r3, #0]
 8002c96:	681a      	ldr	r2, [r3, #0]
 8002c98:	f442 4200 	orr.w	r2, r2, #32768	; 0x8000
 8002c9c:	e7c3      	b.n	8002c26 <_ZN4GpioILh1ELh7ELh1EE8set_modeEh+0x34>
 8002c9e:	2904      	cmp	r1, #4
 8002ca0:	d1c2      	bne.n	8002c28 <_ZN4GpioILh1ELh7ELh1EE8set_modeEh+0x36>
 8002ca2:	6803      	ldr	r3, [r0, #0]
 8002ca4:	681a      	ldr	r2, [r3, #0]
 8002ca6:	f422 4240 	bic.w	r2, r2, #49152	; 0xc000
 8002caa:	601a      	str	r2, [r3, #0]
 8002cac:	681a      	ldr	r2, [r3, #0]
 8002cae:	f442 4240 	orr.w	r2, r2, #49152	; 0xc000
 8002cb2:	e7b8      	b.n	8002c26 <_ZN4GpioILh1ELh7ELh1EE8set_modeEh+0x34>

08002cb4 <_ZN4GpioILh1ELh7ELh1EE4initEv>:
 8002cb4:	4a05      	ldr	r2, [pc, #20]	; (8002ccc <_ZN4GpioILh1ELh7ELh1EE4initEv+0x18>)
 8002cb6:	b508      	push	{r3, lr}
 8002cb8:	6953      	ldr	r3, [r2, #20]
 8002cba:	f443 03fc 	orr.w	r3, r3, #8257536	; 0x7e0000
 8002cbe:	6153      	str	r3, [r2, #20]
 8002cc0:	4b03      	ldr	r3, [pc, #12]	; (8002cd0 <_ZN4GpioILh1ELh7ELh1EE4initEv+0x1c>)
 8002cc2:	6003      	str	r3, [r0, #0]
 8002cc4:	2101      	movs	r1, #1
 8002cc6:	f7ff ff94 	bl	8002bf2 <_ZN4GpioILh1ELh7ELh1EE8set_modeEh>
 8002cca:	bd08      	pop	{r3, pc}
 8002ccc:	40021000 	andmi	r1, r2, r0
 8002cd0:	48000400 	stmdami	r0, {sl}

08002cd4 <_ZN4GpioILh1ELh6ELh1EE8set_modeEh>:
 8002cd4:	b9d1      	cbnz	r1, 8002d0c <_ZN4GpioILh1ELh6ELh1EE8set_modeEh+0x38>
 8002cd6:	6803      	ldr	r3, [r0, #0]
 8002cd8:	689a      	ldr	r2, [r3, #8]
 8002cda:	f422 5240 	bic.w	r2, r2, #12288	; 0x3000
 8002cde:	609a      	str	r2, [r3, #8]
 8002ce0:	689a      	ldr	r2, [r3, #8]
 8002ce2:	f442 5240 	orr.w	r2, r2, #12288	; 0x3000
 8002ce6:	609a      	str	r2, [r3, #8]
 8002ce8:	889a      	ldrh	r2, [r3, #4]
 8002cea:	f022 0240 	bic.w	r2, r2, #64	; 0x40
 8002cee:	0412      	lsls	r2, r2, #16
 8002cf0:	0c12      	lsrs	r2, r2, #16
 8002cf2:	809a      	strh	r2, [r3, #4]
 8002cf4:	889a      	ldrh	r2, [r3, #4]
 8002cf6:	b292      	uxth	r2, r2
 8002cf8:	809a      	strh	r2, [r3, #4]
 8002cfa:	681a      	ldr	r2, [r3, #0]
 8002cfc:	f422 5240 	bic.w	r2, r2, #12288	; 0x3000
 8002d00:	601a      	str	r2, [r3, #0]
 8002d02:	681a      	ldr	r2, [r3, #0]
 8002d04:	f442 5280 	orr.w	r2, r2, #4096	; 0x1000
 8002d08:	601a      	str	r2, [r3, #0]
 8002d0a:	4770      	bx	lr
 8002d0c:	2901      	cmp	r1, #1
 8002d0e:	d10e      	bne.n	8002d2e <_ZN4GpioILh1ELh6ELh1EE8set_modeEh+0x5a>
 8002d10:	6803      	ldr	r3, [r0, #0]
 8002d12:	689a      	ldr	r2, [r3, #8]
 8002d14:	f422 5240 	bic.w	r2, r2, #12288	; 0x3000
 8002d18:	609a      	str	r2, [r3, #8]
 8002d1a:	689a      	ldr	r2, [r3, #8]
 8002d1c:	f442 5240 	orr.w	r2, r2, #12288	; 0x3000
 8002d20:	609a      	str	r2, [r3, #8]
 8002d22:	681a      	ldr	r2, [r3, #0]
 8002d24:	f422 5240 	bic.w	r2, r2, #12288	; 0x3000
 8002d28:	601a      	str	r2, [r3, #0]
 8002d2a:	681a      	ldr	r2, [r3, #0]
 8002d2c:	e7ec      	b.n	8002d08 <_ZN4GpioILh1ELh6ELh1EE8set_modeEh+0x34>
 8002d2e:	2902      	cmp	r1, #2
 8002d30:	d113      	bne.n	8002d5a <_ZN4GpioILh1ELh6ELh1EE8set_modeEh+0x86>
 8002d32:	6803      	ldr	r3, [r0, #0]
 8002d34:	689a      	ldr	r2, [r3, #8]
 8002d36:	f422 5240 	bic.w	r2, r2, #12288	; 0x3000
 8002d3a:	609a      	str	r2, [r3, #8]
 8002d3c:	689a      	ldr	r2, [r3, #8]
 8002d3e:	f442 5240 	orr.w	r2, r2, #12288	; 0x3000
 8002d42:	609a      	str	r2, [r3, #8]
 8002d44:	681a      	ldr	r2, [r3, #0]
 8002d46:	f422 5240 	bic.w	r2, r2, #12288	; 0x3000
 8002d4a:	601a      	str	r2, [r3, #0]
 8002d4c:	681a      	ldr	r2, [r3, #0]
 8002d4e:	601a      	str	r2, [r3, #0]
 8002d50:	68da      	ldr	r2, [r3, #12]
 8002d52:	f442 5280 	orr.w	r2, r2, #4096	; 0x1000
 8002d56:	60da      	str	r2, [r3, #12]
 8002d58:	4770      	bx	lr
 8002d5a:	2905      	cmp	r1, #5
 8002d5c:	d110      	bne.n	8002d80 <_ZN4GpioILh1ELh6ELh1EE8set_modeEh+0xac>
 8002d5e:	6803      	ldr	r3, [r0, #0]
 8002d60:	689a      	ldr	r2, [r3, #8]
 8002d62:	f422 5240 	bic.w	r2, r2, #12288	; 0x3000
 8002d66:	609a      	str	r2, [r3, #8]
 8002d68:	689a      	ldr	r2, [r3, #8]
 8002d6a:	f442 5240 	orr.w	r2, r2, #12288	; 0x3000
 8002d6e:	609a      	str	r2, [r3, #8]
 8002d70:	681a      	ldr	r2, [r3, #0]
 8002d72:	f422 5240 	bic.w	r2, r2, #12288	; 0x3000
 8002d76:	601a      	str	r2, [r3, #0]
 8002d78:	681a      	ldr	r2, [r3, #0]
 8002d7a:	f442 5200 	orr.w	r2, r2, #8192	; 0x2000
 8002d7e:	e7c3      	b.n	8002d08 <_ZN4GpioILh1ELh6ELh1EE8set_modeEh+0x34>
 8002d80:	2904      	cmp	r1, #4
 8002d82:	d1c2      	bne.n	8002d0a <_ZN4GpioILh1ELh6ELh1EE8set_modeEh+0x36>
 8002d84:	6803      	ldr	r3, [r0, #0]
 8002d86:	681a      	ldr	r2, [r3, #0]
 8002d88:	f422 5240 	bic.w	r2, r2, #12288	; 0x3000
 8002d8c:	601a      	str	r2, [r3, #0]
 8002d8e:	681a      	ldr	r2, [r3, #0]
 8002d90:	f442 5240 	orr.w	r2, r2, #12288	; 0x3000
 8002d94:	e7b8      	b.n	8002d08 <_ZN4GpioILh1ELh6ELh1EE8set_modeEh+0x34>
 8002d96:	0000      	movs	r0, r0

08002d98 <_ZN4GpioILh1ELh6ELh1EE4initEv>:
 8002d98:	4a05      	ldr	r2, [pc, #20]	; (8002db0 <_ZN4GpioILh1ELh6ELh1EE4initEv+0x18>)
 8002d9a:	b508      	push	{r3, lr}
 8002d9c:	6953      	ldr	r3, [r2, #20]
 8002d9e:	f443 03fc 	orr.w	r3, r3, #8257536	; 0x7e0000
 8002da2:	6153      	str	r3, [r2, #20]
 8002da4:	4b03      	ldr	r3, [pc, #12]	; (8002db4 <_ZN4GpioILh1ELh6ELh1EE4initEv+0x1c>)
 8002da6:	6003      	str	r3, [r0, #0]
 8002da8:	2101      	movs	r1, #1
 8002daa:	f7ff ff93 	bl	8002cd4 <_ZN4GpioILh1ELh6ELh1EE8set_modeEh>
 8002dae:	bd08      	pop	{r3, pc}
 8002db0:	40021000 	andmi	r1, r2, r0
 8002db4:	48000400 	stmdami	r0, {sl}

08002db8 <_ZN4TI2CILh1ELh7ELh6ELh10ELh1EE4initEv>:
 8002db8:	230a      	movs	r3, #10
 8002dba:	b510      	push	{r4, lr}
 8002dbc:	6043      	str	r3, [r0, #4]
 8002dbe:	4604      	mov	r4, r0
 8002dc0:	3008      	adds	r0, #8
 8002dc2:	f7ff ff77 	bl	8002cb4 <_ZN4GpioILh1ELh7ELh1EE4initEv>
 8002dc6:	f104 000c 	add.w	r0, r4, #12
 8002dca:	f7ff ffe5 	bl	8002d98 <_ZN4GpioILh1ELh6ELh1EE4initEv>
 8002dce:	68a2      	ldr	r2, [r4, #8]
 8002dd0:	8d13      	ldrh	r3, [r2, #40]	; 0x28
 8002dd2:	b29b      	uxth	r3, r3
 8002dd4:	f043 0380 	orr.w	r3, r3, #128	; 0x80
 8002dd8:	8513      	strh	r3, [r2, #40]	; 0x28
 8002dda:	68e2      	ldr	r2, [r4, #12]
 8002ddc:	8d13      	ldrh	r3, [r2, #40]	; 0x28
 8002dde:	b29b      	uxth	r3, r3
 8002de0:	f043 0340 	orr.w	r3, r3, #64	; 0x40
 8002de4:	8513      	strh	r3, [r2, #40]	; 0x28
 8002de6:	bd10      	pop	{r4, pc}

08002de8 <_ZN7Drivers4initEv>:
 8002de8:	e92d 41f0 	stmdb	sp!, {r4, r5, r6, r7, r8, lr}
 8002dec:	4c45      	ldr	r4, [pc, #276]	; (8002f04 <_ZN7Drivers4initEv+0x11c>)
 8002dee:	4f46      	ldr	r7, [pc, #280]	; (8002f08 <_ZN7Drivers4initEv+0x120>)
 8002df0:	f8df 8178 	ldr.w	r8, [pc, #376]	; 8002f6c <_ZN7Drivers4initEv+0x184>
 8002df4:	1d05      	adds	r5, r0, #4
 8002df6:	4628      	mov	r0, r5
 8002df8:	2101      	movs	r1, #1
 8002dfa:	f7ff feeb 	bl	8002bd4 <_ZN4GpioILh1ELh15ELh0EE5writeEi>
 8002dfe:	4620      	mov	r0, r4
 8002e00:	f44f 31e1 	mov.w	r1, #115200	; 0x1c200
 8002e04:	f7ff fc70 	bl	80026e8 <_ZN5Usart4initEj>
 8002e08:	4620      	mov	r0, r4
 8002e0a:	4940      	ldr	r1, [pc, #256]	; (8002f0c <_ZN7Drivers4initEv+0x124>)
 8002e0c:	f7fe fbed 	bl	80015ea <_ZN8Terminal4putsEPKc>
 8002e10:	493f      	ldr	r1, [pc, #252]	; (8002f10 <_ZN7Drivers4initEv+0x128>)
 8002e12:	4620      	mov	r0, r4
 8002e14:	f7fe fbe9 	bl	80015ea <_ZN8Terminal4putsEPKc>
 8002e18:	f7fe fb12 	bl	8001440 <_Z8mem_initv>
 8002e1c:	493d      	ldr	r1, [pc, #244]	; (8002f14 <_ZN7Drivers4initEv+0x12c>)
 8002e1e:	4606      	mov	r6, r0
 8002e20:	4620      	mov	r0, r4
 8002e22:	f7fe fbe2 	bl	80015ea <_ZN8Terminal4putsEPKc>
 8002e26:	4631      	mov	r1, r6
 8002e28:	4e3b      	ldr	r6, [pc, #236]	; (8002f18 <_ZN7Drivers4initEv+0x130>)
 8002e2a:	4620      	mov	r0, r4
 8002e2c:	f7fe fc08 	bl	8001640 <_ZN8Terminal5putuiEm>
 8002e30:	4631      	mov	r1, r6
 8002e32:	4620      	mov	r0, r4
 8002e34:	f7fe fbd9 	bl	80015ea <_ZN8Terminal4putsEPKc>
 8002e38:	4638      	mov	r0, r7
 8002e3a:	f7ff fdb3 	bl	80029a4 <_ZN5Timer4initEv>
 8002e3e:	4620      	mov	r0, r4
 8002e40:	4936      	ldr	r1, [pc, #216]	; (8002f1c <_ZN7Drivers4initEv+0x134>)
 8002e42:	f7fe fbd2 	bl	80015ea <_ZN8Terminal4putsEPKc>
 8002e46:	4620      	mov	r0, r4
 8002e48:	4935      	ldr	r1, [pc, #212]	; (8002f20 <_ZN7Drivers4initEv+0x138>)
 8002e4a:	f7fe fbce 	bl	80015ea <_ZN8Terminal4putsEPKc>
 8002e4e:	4638      	mov	r0, r7
 8002e50:	21c8      	movs	r1, #200	; 0xc8
 8002e52:	f7ff fe1d 	bl	8002a90 <_ZN5Timer8delay_msEj>
 8002e56:	4933      	ldr	r1, [pc, #204]	; (8002f24 <_ZN7Drivers4initEv+0x13c>)
 8002e58:	4f33      	ldr	r7, [pc, #204]	; (8002f28 <_ZN7Drivers4initEv+0x140>)
 8002e5a:	4620      	mov	r0, r4
 8002e5c:	f7fe fbc5 	bl	80015ea <_ZN8Terminal4putsEPKc>
 8002e60:	4640      	mov	r0, r8
 8002e62:	f7ff ffa9 	bl	8002db8 <_ZN4TI2CILh1ELh7ELh6ELh10ELh1EE4initEv>
 8002e66:	4620      	mov	r0, r4
 8002e68:	4930      	ldr	r1, [pc, #192]	; (8002f2c <_ZN7Drivers4initEv+0x144>)
 8002e6a:	f7fe fbbe 	bl	80015ea <_ZN8Terminal4putsEPKc>
 8002e6e:	4641      	mov	r1, r8
 8002e70:	4638      	mov	r0, r7
 8002e72:	f7ff f9ad 	bl	80021d0 <_ZN3IMU4initER13I2C_Interface>
 8002e76:	492e      	ldr	r1, [pc, #184]	; (8002f30 <_ZN7Drivers4initEv+0x148>)
 8002e78:	4620      	mov	r0, r4
 8002e7a:	f7fe fbb6 	bl	80015ea <_ZN8Terminal4putsEPKc>
 8002e7e:	4638      	mov	r0, r7
 8002e80:	f7ff f99b 	bl	80021ba <_ZN3IMU7presentEv>
 8002e84:	4601      	mov	r1, r0
 8002e86:	4620      	mov	r0, r4
 8002e88:	f7ff fe6e 	bl	8002b68 <_ZN8TerminallsEb>
 8002e8c:	4631      	mov	r1, r6
 8002e8e:	f7fe fbac 	bl	80015ea <_ZN8Terminal4putsEPKc>
 8002e92:	4828      	ldr	r0, [pc, #160]	; (8002f34 <_ZN7Drivers4initEv+0x14c>)
 8002e94:	f7fe fee0 	bl	8001c58 <_ZN3ADC4initEv>
 8002e98:	4927      	ldr	r1, [pc, #156]	; (8002f38 <_ZN7Drivers4initEv+0x150>)
 8002e9a:	4620      	mov	r0, r4
 8002e9c:	f7fe fba5 	bl	80015ea <_ZN8Terminal4putsEPKc>
 8002ea0:	4826      	ldr	r0, [pc, #152]	; (8002f3c <_ZN7Drivers4initEv+0x154>)
 8002ea2:	f7fe ffdf 	bl	8001e64 <_ZN10LineSensor4initEv>
 8002ea6:	4926      	ldr	r1, [pc, #152]	; (8002f40 <_ZN7Drivers4initEv+0x158>)
 8002ea8:	4620      	mov	r0, r4
 8002eaa:	f7fe fb9e 	bl	80015ea <_ZN8Terminal4putsEPKc>
 8002eae:	4825      	ldr	r0, [pc, #148]	; (8002f44 <_ZN7Drivers4initEv+0x15c>)
 8002eb0:	f7ff fcde 	bl	8002870 <_ZN14DistanceSensor4initEv>
 8002eb4:	4924      	ldr	r1, [pc, #144]	; (8002f48 <_ZN7Drivers4initEv+0x160>)
 8002eb6:	4620      	mov	r0, r4
 8002eb8:	f7fe fb97 	bl	80015ea <_ZN8Terminal4putsEPKc>
 8002ebc:	4823      	ldr	r0, [pc, #140]	; (8002f4c <_ZN7Drivers4initEv+0x164>)
 8002ebe:	f7ff fa73 	bl	80023a8 <_ZN13EncoderSensor4initEv>
 8002ec2:	4923      	ldr	r1, [pc, #140]	; (8002f50 <_ZN7Drivers4initEv+0x168>)
 8002ec4:	4620      	mov	r0, r4
 8002ec6:	f7fe fb90 	bl	80015ea <_ZN8Terminal4putsEPKc>
 8002eca:	4822      	ldr	r0, [pc, #136]	; (8002f54 <_ZN7Drivers4initEv+0x16c>)
 8002ecc:	f7ff fba6 	bl	800261c <_ZN13MotorControll4initEv>
 8002ed0:	4620      	mov	r0, r4
 8002ed2:	4921      	ldr	r1, [pc, #132]	; (8002f58 <_ZN7Drivers4initEv+0x170>)
 8002ed4:	f7fe fb89 	bl	80015ea <_ZN8Terminal4putsEPKc>
 8002ed8:	2100      	movs	r1, #0
 8002eda:	4628      	mov	r0, r5
 8002edc:	f7ff fe7a 	bl	8002bd4 <_ZN4GpioILh1ELh15ELh0EE5writeEi>
 8002ee0:	481e      	ldr	r0, [pc, #120]	; (8002f5c <_ZN7Drivers4initEv+0x174>)
 8002ee2:	f7fe fdd9 	bl	8001a98 <_ZN3Key4initEv>
 8002ee6:	4620      	mov	r0, r4
 8002ee8:	491d      	ldr	r1, [pc, #116]	; (8002f60 <_ZN7Drivers4initEv+0x178>)
 8002eea:	f7fe fb7e 	bl	80015ea <_ZN8Terminal4putsEPKc>
 8002eee:	4620      	mov	r0, r4
 8002ef0:	491c      	ldr	r1, [pc, #112]	; (8002f64 <_ZN7Drivers4initEv+0x17c>)
 8002ef2:	f7fe fb7a 	bl	80015ea <_ZN8Terminal4putsEPKc>
 8002ef6:	4620      	mov	r0, r4
 8002ef8:	491b      	ldr	r1, [pc, #108]	; (8002f68 <_ZN7Drivers4initEv+0x180>)
 8002efa:	f7fe fb76 	bl	80015ea <_ZN8Terminal4putsEPKc>
 8002efe:	2000      	movs	r0, #0
 8002f00:	e8bd 81f0 	ldmia.w	sp!, {r4, r5, r6, r7, r8, pc}
 8002f04:	20000384 	andcs	r0, r0, r4, lsl #7
 8002f08:	20000388 	andcs	r0, r0, r8, lsl #7
 8002f0c:	0800410d 	stmdaeq	r0, {r0, r2, r3, r8, lr}
 8002f10:	08004119 	stmdaeq	r0, {r0, r3, r4, r8, lr}
 8002f14:	0800412d 	stmdaeq	r0, {r0, r2, r3, r5, r8, lr}
 8002f18:	08004117 	stmdaeq	r0, {r0, r1, r2, r4, r8, lr}
 8002f1c:	0800414b 	stmdaeq	r0, {r0, r1, r3, r6, r8, lr}
 8002f20:	0800415c 	stmdaeq	r0, {r2, r3, r4, r6, r8, lr}
 8002f24:	08004173 	stmdaeq	r0, {r0, r1, r4, r5, r6, r8, lr}
 8002f28:	200001c8 	andcs	r0, r0, r8, asr #3
 8002f2c:	0800416a 	stmdaeq	r0, {r1, r3, r5, r6, r8, lr}
 8002f30:	08004179 	stmdaeq	r0, {r0, r3, r4, r5, r6, r8, lr}
 8002f34:	20000154 	andcs	r0, r0, r4, asr r1
 8002f38:	0800418d 	stmdaeq	r0, {r0, r2, r3, r7, r8, lr}
 8002f3c:	20000224 	andcs	r0, r0, r4, lsr #4
 8002f40:	0800419c 	stmdaeq	r0, {r2, r3, r4, r7, r8, lr}
 8002f44:	20000158 	andcs	r0, r0, r8, asr r1
 8002f48:	080041b3 	stmdaeq	r0, {r0, r1, r4, r5, r7, r8, lr}
 8002f4c:	200001a4 	andcs	r0, r0, r4, lsr #3
 8002f50:	080041ce 	stmdaeq	r0, {r1, r2, r3, r6, r7, r8, lr}
 8002f54:	200002f0 	strdcs	r0, [r0], -r0	; <UNPREDICTABLE>
 8002f58:	080041e8 	stmdaeq	r0, {r3, r5, r6, r7, r8, lr}
 8002f5c:	2000020c 	andcs	r0, r0, ip, lsl #4
 8002f60:	08004202 	stmdaeq	r0, {r1, r9, lr}
 8002f64:	08004116 	stmdaeq	r0, {r1, r2, r4, r8, lr}
 8002f68:	08004211 	stmdaeq	r0, {r0, r4, r9, lr}
 8002f6c:	200001b8 			; <UNDEFINED> instruction: 0x200001b8

08002f70 <_ZN4TI2CILh1ELh7ELh6ELh10ELh1EE4stopEv>:
 8002f70:	b570      	push	{r4, r5, r6, lr}
 8002f72:	4604      	mov	r4, r0
 8002f74:	f100 060c 	add.w	r6, r0, #12
 8002f78:	f104 0508 	add.w	r5, r4, #8
 8002f7c:	4630      	mov	r0, r6
 8002f7e:	2100      	movs	r1, #0
 8002f80:	f7ff fea8 	bl	8002cd4 <_ZN4GpioILh1ELh6ELh1EE8set_modeEh>
 8002f84:	4628      	mov	r0, r5
 8002f86:	2100      	movs	r1, #0
 8002f88:	f7ff fe33 	bl	8002bf2 <_ZN4GpioILh1ELh7ELh1EE8set_modeEh>
 8002f8c:	4630      	mov	r0, r6
 8002f8e:	2101      	movs	r1, #1
 8002f90:	f7ff fea0 	bl	8002cd4 <_ZN4GpioILh1ELh6ELh1EE8set_modeEh>
 8002f94:	4628      	mov	r0, r5
 8002f96:	2100      	movs	r1, #0
 8002f98:	f7ff fe2b 	bl	8002bf2 <_ZN4GpioILh1ELh7ELh1EE8set_modeEh>
 8002f9c:	4630      	mov	r0, r6
 8002f9e:	2101      	movs	r1, #1
 8002fa0:	f7ff fe98 	bl	8002cd4 <_ZN4GpioILh1ELh6ELh1EE8set_modeEh>
 8002fa4:	4628      	mov	r0, r5
 8002fa6:	2101      	movs	r1, #1
 8002fa8:	f7ff fe23 	bl	8002bf2 <_ZN4GpioILh1ELh7ELh1EE8set_modeEh>
 8002fac:	4620      	mov	r0, r4
 8002fae:	e8bd 4070 	ldmia.w	sp!, {r4, r5, r6, lr}
 8002fb2:	f7fd bbf3 	b.w	800079c <_ZN13I2C_Interface5delayEv>

08002fb6 <_ZN4TI2CILh1ELh7ELh6ELh10ELh1EE5startEv>:
 8002fb6:	b570      	push	{r4, r5, r6, lr}
 8002fb8:	4604      	mov	r4, r0
 8002fba:	f100 060c 	add.w	r6, r0, #12
 8002fbe:	f104 0508 	add.w	r5, r4, #8
 8002fc2:	4630      	mov	r0, r6
 8002fc4:	2101      	movs	r1, #1
 8002fc6:	f7ff fe85 	bl	8002cd4 <_ZN4GpioILh1ELh6ELh1EE8set_modeEh>
 8002fca:	4628      	mov	r0, r5
 8002fcc:	2101      	movs	r1, #1
 8002fce:	f7ff fe10 	bl	8002bf2 <_ZN4GpioILh1ELh7ELh1EE8set_modeEh>
 8002fd2:	4630      	mov	r0, r6
 8002fd4:	2101      	movs	r1, #1
 8002fd6:	f7ff fe7d 	bl	8002cd4 <_ZN4GpioILh1ELh6ELh1EE8set_modeEh>
 8002fda:	4628      	mov	r0, r5
 8002fdc:	2100      	movs	r1, #0
 8002fde:	f7ff fe08 	bl	8002bf2 <_ZN4GpioILh1ELh7ELh1EE8set_modeEh>
 8002fe2:	4630      	mov	r0, r6
 8002fe4:	2100      	movs	r1, #0
 8002fe6:	f7ff fe75 	bl	8002cd4 <_ZN4GpioILh1ELh6ELh1EE8set_modeEh>
 8002fea:	4628      	mov	r0, r5
 8002fec:	2101      	movs	r1, #1
 8002fee:	f7ff fe00 	bl	8002bf2 <_ZN4GpioILh1ELh7ELh1EE8set_modeEh>
 8002ff2:	4620      	mov	r0, r4
 8002ff4:	e8bd 4070 	ldmia.w	sp!, {r4, r5, r6, lr}
 8002ff8:	f7fd bbd0 	b.w	800079c <_ZN13I2C_Interface5delayEv>

08002ffc <_ZN4TI2CILh1ELh7ELh6ELh10ELh1EE4readEh>:
 8002ffc:	e92d 43f8 	stmdb	sp!, {r3, r4, r5, r6, r7, r8, r9, lr}
 8003000:	4604      	mov	r4, r0
 8003002:	f100 0708 	add.w	r7, r0, #8
 8003006:	4638      	mov	r0, r7
 8003008:	4689      	mov	r9, r1
 800300a:	f104 060c 	add.w	r6, r4, #12
 800300e:	2101      	movs	r1, #1
 8003010:	f7ff fdef 	bl	8002bf2 <_ZN4GpioILh1ELh7ELh1EE8set_modeEh>
 8003014:	2100      	movs	r1, #0
 8003016:	4630      	mov	r0, r6
 8003018:	f7ff fe5c 	bl	8002cd4 <_ZN4GpioILh1ELh6ELh1EE8set_modeEh>
 800301c:	4620      	mov	r0, r4
 800301e:	f7fd fbbd 	bl	800079c <_ZN13I2C_Interface5delayEv>
 8003022:	f04f 0809 	mov.w	r8, #9
 8003026:	2500      	movs	r5, #0
 8003028:	f1b8 0801 	subs.w	r8, r8, #1
 800302c:	d017      	beq.n	800305e <_ZN4TI2CILh1ELh7ELh6ELh10ELh1EE4readEh+0x62>
 800302e:	2101      	movs	r1, #1
 8003030:	4630      	mov	r0, r6
 8003032:	f7ff fe4f 	bl	8002cd4 <_ZN4GpioILh1ELh6ELh1EE8set_modeEh>
 8003036:	4620      	mov	r0, r4
 8003038:	f7fd fbb0 	bl	800079c <_ZN13I2C_Interface5delayEv>
 800303c:	68a3      	ldr	r3, [r4, #8]
 800303e:	8a1b      	ldrh	r3, [r3, #16]
 8003040:	006d      	lsls	r5, r5, #1
 8003042:	061b      	lsls	r3, r3, #24
 8003044:	4630      	mov	r0, r6
 8003046:	b2ed      	uxtb	r5, r5
 8003048:	f04f 0100 	mov.w	r1, #0
 800304c:	bf48      	it	mi
 800304e:	f045 0501 	orrmi.w	r5, r5, #1
 8003052:	f7ff fe3f 	bl	8002cd4 <_ZN4GpioILh1ELh6ELh1EE8set_modeEh>
 8003056:	4620      	mov	r0, r4
 8003058:	f7fd fba0 	bl	800079c <_ZN13I2C_Interface5delayEv>
 800305c:	e7e4      	b.n	8003028 <_ZN4TI2CILh1ELh7ELh6ELh10ELh1EE4readEh+0x2c>
 800305e:	f1b9 0f00 	cmp.w	r9, #0
 8003062:	d01e      	beq.n	80030a2 <_ZN4TI2CILh1ELh7ELh6ELh10ELh1EE4readEh+0xa6>
 8003064:	4641      	mov	r1, r8
 8003066:	4638      	mov	r0, r7
 8003068:	f7ff fdc3 	bl	8002bf2 <_ZN4GpioILh1ELh7ELh1EE8set_modeEh>
 800306c:	4620      	mov	r0, r4
 800306e:	f7fd fb95 	bl	800079c <_ZN13I2C_Interface5delayEv>
 8003072:	2101      	movs	r1, #1
 8003074:	4630      	mov	r0, r6
 8003076:	f7ff fe2d 	bl	8002cd4 <_ZN4GpioILh1ELh6ELh1EE8set_modeEh>
 800307a:	4620      	mov	r0, r4
 800307c:	f7fd fb8e 	bl	800079c <_ZN13I2C_Interface5delayEv>
 8003080:	2100      	movs	r1, #0
 8003082:	4630      	mov	r0, r6
 8003084:	f7ff fe26 	bl	8002cd4 <_ZN4GpioILh1ELh6ELh1EE8set_modeEh>
 8003088:	4620      	mov	r0, r4
 800308a:	f7fd fb87 	bl	800079c <_ZN13I2C_Interface5delayEv>
 800308e:	2101      	movs	r1, #1
 8003090:	4638      	mov	r0, r7
 8003092:	f7ff fdae 	bl	8002bf2 <_ZN4GpioILh1ELh7ELh1EE8set_modeEh>
 8003096:	4620      	mov	r0, r4
 8003098:	f7fd fb80 	bl	800079c <_ZN13I2C_Interface5delayEv>
 800309c:	4628      	mov	r0, r5
 800309e:	e8bd 83f8 	ldmia.w	sp!, {r3, r4, r5, r6, r7, r8, r9, pc}
 80030a2:	2101      	movs	r1, #1
 80030a4:	e7df      	b.n	8003066 <_ZN4TI2CILh1ELh7ELh6ELh10ELh1EE4readEh+0x6a>

080030a6 <_ZN4TI2CILh1ELh7ELh6ELh10ELh1EE5writeEh>:
 80030a6:	e92d 41f0 	stmdb	sp!, {r4, r5, r6, r7, r8, lr}
 80030aa:	4604      	mov	r4, r0
 80030ac:	460d      	mov	r5, r1
 80030ae:	2709      	movs	r7, #9
 80030b0:	f100 060c 	add.w	r6, r0, #12
 80030b4:	f100 0808 	add.w	r8, r0, #8
 80030b8:	3f01      	subs	r7, #1
 80030ba:	d01a      	beq.n	80030f2 <_ZN4TI2CILh1ELh7ELh6ELh10ELh1EE5writeEh+0x4c>
 80030bc:	2100      	movs	r1, #0
 80030be:	4630      	mov	r0, r6
 80030c0:	f7ff fe08 	bl	8002cd4 <_ZN4GpioILh1ELh6ELh1EE8set_modeEh>
 80030c4:	4620      	mov	r0, r4
 80030c6:	f7fd fb69 	bl	800079c <_ZN13I2C_Interface5delayEv>
 80030ca:	062b      	lsls	r3, r5, #24
 80030cc:	bf4c      	ite	mi
 80030ce:	2101      	movmi	r1, #1
 80030d0:	2100      	movpl	r1, #0
 80030d2:	4640      	mov	r0, r8
 80030d4:	f7ff fd8d 	bl	8002bf2 <_ZN4GpioILh1ELh7ELh1EE8set_modeEh>
 80030d8:	4620      	mov	r0, r4
 80030da:	f7fd fb5f 	bl	800079c <_ZN13I2C_Interface5delayEv>
 80030de:	2101      	movs	r1, #1
 80030e0:	4630      	mov	r0, r6
 80030e2:	f7ff fdf7 	bl	8002cd4 <_ZN4GpioILh1ELh6ELh1EE8set_modeEh>
 80030e6:	006d      	lsls	r5, r5, #1
 80030e8:	4620      	mov	r0, r4
 80030ea:	f7fd fb57 	bl	800079c <_ZN13I2C_Interface5delayEv>
 80030ee:	b2ed      	uxtb	r5, r5
 80030f0:	e7e2      	b.n	80030b8 <_ZN4TI2CILh1ELh7ELh6ELh10ELh1EE5writeEh+0x12>
 80030f2:	4639      	mov	r1, r7
 80030f4:	4630      	mov	r0, r6
 80030f6:	f7ff fded 	bl	8002cd4 <_ZN4GpioILh1ELh6ELh1EE8set_modeEh>
 80030fa:	4620      	mov	r0, r4
 80030fc:	f7fd fb4e 	bl	800079c <_ZN13I2C_Interface5delayEv>
 8003100:	2101      	movs	r1, #1
 8003102:	4640      	mov	r0, r8
 8003104:	f7ff fd75 	bl	8002bf2 <_ZN4GpioILh1ELh7ELh1EE8set_modeEh>
 8003108:	4620      	mov	r0, r4
 800310a:	f7fd fb47 	bl	800079c <_ZN13I2C_Interface5delayEv>
 800310e:	2101      	movs	r1, #1
 8003110:	4630      	mov	r0, r6
 8003112:	f7ff fddf 	bl	8002cd4 <_ZN4GpioILh1ELh6ELh1EE8set_modeEh>
 8003116:	4620      	mov	r0, r4
 8003118:	f7fd fb40 	bl	800079c <_ZN13I2C_Interface5delayEv>
 800311c:	68a3      	ldr	r3, [r4, #8]
 800311e:	8a1d      	ldrh	r5, [r3, #16]
 8003120:	4639      	mov	r1, r7
 8003122:	4630      	mov	r0, r6
 8003124:	f7ff fdd6 	bl	8002cd4 <_ZN4GpioILh1ELh6ELh1EE8set_modeEh>
 8003128:	b2ad      	uxth	r5, r5
 800312a:	4620      	mov	r0, r4
 800312c:	f7fd fb36 	bl	800079c <_ZN13I2C_Interface5delayEv>
 8003130:	f085 0080 	eor.w	r0, r5, #128	; 0x80
 8003134:	f3c0 10c0 	ubfx	r0, r0, #7, #1
 8003138:	e8bd 81f0 	ldmia.w	sp!, {r4, r5, r6, r7, r8, pc}

0800313c <_GLOBAL__sub_I_drivers>:
 800313c:	b538      	push	{r3, r4, r5, lr}
 800313e:	4d38      	ldr	r5, [pc, #224]	; (8003220 <_GLOBAL__sub_I_drivers+0xe4>)
 8003140:	4c38      	ldr	r4, [pc, #224]	; (8003224 <_GLOBAL__sub_I_drivers+0xe8>)
 8003142:	4628      	mov	r0, r5
 8003144:	f7ff fd1e 	bl	8002b84 <_ZN7DriversC1Ev>
 8003148:	4628      	mov	r0, r5
 800314a:	4d37      	ldr	r5, [pc, #220]	; (8003228 <_GLOBAL__sub_I_drivers+0xec>)
 800314c:	4937      	ldr	r1, [pc, #220]	; (800322c <_GLOBAL__sub_I_drivers+0xf0>)
 800314e:	4622      	mov	r2, r4
 8003150:	f7fe f991 	bl	8001476 <__aeabi_atexit>
 8003154:	4628      	mov	r0, r5
 8003156:	f7fe fa33 	bl	80015c0 <_ZN8TerminalC1Ev>
 800315a:	4628      	mov	r0, r5
 800315c:	4d34      	ldr	r5, [pc, #208]	; (8003230 <_GLOBAL__sub_I_drivers+0xf4>)
 800315e:	4935      	ldr	r1, [pc, #212]	; (8003234 <_GLOBAL__sub_I_drivers+0xf8>)
 8003160:	4622      	mov	r2, r4
 8003162:	f7fe f988 	bl	8001476 <__aeabi_atexit>
 8003166:	4628      	mov	r0, r5
 8003168:	f7ff fc1a 	bl	80029a0 <_ZN5TimerC1Ev>
 800316c:	4628      	mov	r0, r5
 800316e:	4d32      	ldr	r5, [pc, #200]	; (8003238 <_GLOBAL__sub_I_drivers+0xfc>)
 8003170:	4932      	ldr	r1, [pc, #200]	; (800323c <_GLOBAL__sub_I_drivers+0x100>)
 8003172:	4622      	mov	r2, r4
 8003174:	f7fe f97f 	bl	8001476 <__aeabi_atexit>
 8003178:	4628      	mov	r0, r5
 800317a:	f7fd fac3 	bl	8000704 <_ZN13I2C_InterfaceC1Ev>
 800317e:	4628      	mov	r0, r5
 8003180:	4b2f      	ldr	r3, [pc, #188]	; (8003240 <_GLOBAL__sub_I_drivers+0x104>)
 8003182:	f840 3b08 	str.w	r3, [r0], #8
 8003186:	f7ff fd95 	bl	8002cb4 <_ZN4GpioILh1ELh7ELh1EE4initEv>
 800318a:	f105 000c 	add.w	r0, r5, #12
 800318e:	f7ff fe03 	bl	8002d98 <_ZN4GpioILh1ELh6ELh1EE4initEv>
 8003192:	4628      	mov	r0, r5
 8003194:	4d2b      	ldr	r5, [pc, #172]	; (8003244 <_GLOBAL__sub_I_drivers+0x108>)
 8003196:	492c      	ldr	r1, [pc, #176]	; (8003248 <_GLOBAL__sub_I_drivers+0x10c>)
 8003198:	4622      	mov	r2, r4
 800319a:	f7fe f96c 	bl	8001476 <__aeabi_atexit>
 800319e:	4628      	mov	r0, r5
 80031a0:	f7fe ff44 	bl	800202c <_ZN3IMUC1Ev>
 80031a4:	4628      	mov	r0, r5
 80031a6:	4d29      	ldr	r5, [pc, #164]	; (800324c <_GLOBAL__sub_I_drivers+0x110>)
 80031a8:	4929      	ldr	r1, [pc, #164]	; (8003250 <_GLOBAL__sub_I_drivers+0x114>)
 80031aa:	4622      	mov	r2, r4
 80031ac:	f7fe f963 	bl	8001476 <__aeabi_atexit>
 80031b0:	4628      	mov	r0, r5
 80031b2:	f7fe fcb9 	bl	8001b28 <_ZN3ADCC1Ev>
 80031b6:	4628      	mov	r0, r5
 80031b8:	4d26      	ldr	r5, [pc, #152]	; (8003254 <_GLOBAL__sub_I_drivers+0x118>)
 80031ba:	4927      	ldr	r1, [pc, #156]	; (8003258 <_GLOBAL__sub_I_drivers+0x11c>)
 80031bc:	4622      	mov	r2, r4
 80031be:	f7fe f95a 	bl	8001476 <__aeabi_atexit>
 80031c2:	4628      	mov	r0, r5
 80031c4:	f7fe fdae 	bl	8001d24 <_ZN10LineSensorC1Ev>
 80031c8:	4628      	mov	r0, r5
 80031ca:	4d24      	ldr	r5, [pc, #144]	; (800325c <_GLOBAL__sub_I_drivers+0x120>)
 80031cc:	4924      	ldr	r1, [pc, #144]	; (8003260 <_GLOBAL__sub_I_drivers+0x124>)
 80031ce:	4622      	mov	r2, r4
 80031d0:	f7fe f951 	bl	8001476 <__aeabi_atexit>
 80031d4:	4628      	mov	r0, r5
 80031d6:	f7ff faf1 	bl	80027bc <_ZN14DistanceSensorC1Ev>
 80031da:	4628      	mov	r0, r5
 80031dc:	4d21      	ldr	r5, [pc, #132]	; (8003264 <_GLOBAL__sub_I_drivers+0x128>)
 80031de:	4922      	ldr	r1, [pc, #136]	; (8003268 <_GLOBAL__sub_I_drivers+0x12c>)
 80031e0:	4622      	mov	r2, r4
 80031e2:	f7fe f948 	bl	8001476 <__aeabi_atexit>
 80031e6:	4628      	mov	r0, r5
 80031e8:	f7ff f876 	bl	80022d8 <_ZN13EncoderSensorC1Ev>
 80031ec:	4628      	mov	r0, r5
 80031ee:	4d1f      	ldr	r5, [pc, #124]	; (800326c <_GLOBAL__sub_I_drivers+0x130>)
 80031f0:	491f      	ldr	r1, [pc, #124]	; (8003270 <_GLOBAL__sub_I_drivers+0x134>)
 80031f2:	4622      	mov	r2, r4
 80031f4:	f7fe f93f 	bl	8001476 <__aeabi_atexit>
 80031f8:	4628      	mov	r0, r5
 80031fa:	f7ff f9ef 	bl	80025dc <_ZN13MotorControllC1Ev>
 80031fe:	4628      	mov	r0, r5
 8003200:	4d1c      	ldr	r5, [pc, #112]	; (8003274 <_GLOBAL__sub_I_drivers+0x138>)
 8003202:	491d      	ldr	r1, [pc, #116]	; (8003278 <_GLOBAL__sub_I_drivers+0x13c>)
 8003204:	4622      	mov	r2, r4
 8003206:	f7fe f936 	bl	8001476 <__aeabi_atexit>
 800320a:	4628      	mov	r0, r5
 800320c:	f7fe fc04 	bl	8001a18 <_ZN3KeyC1Ev>
 8003210:	4622      	mov	r2, r4
 8003212:	4628      	mov	r0, r5
 8003214:	4919      	ldr	r1, [pc, #100]	; (800327c <_GLOBAL__sub_I_drivers+0x140>)
 8003216:	e8bd 4038 	ldmia.w	sp!, {r3, r4, r5, lr}
 800321a:	f7fe b92c 	b.w	8001476 <__aeabi_atexit>
 800321e:	bf00      	nop
 8003220:	2000019c 	mulcs	r0, ip, r1
 8003224:	20000004 	andcs	r0, r0, r4
 8003228:	20000384 	andcs	r0, r0, r4, lsl #7
 800322c:	08002b31 	stmdaeq	r0, {r0, r4, r5, r8, r9, fp, sp}
 8003230:	20000388 	andcs	r0, r0, r8, lsl #7
 8003234:	08001599 	stmdaeq	r0, {r0, r3, r4, r7, r8, sl, ip}
 8003238:	200001b8 			; <UNDEFINED> instruction: 0x200001b8
 800323c:	08002a0d 	stmdaeq	r0, {r0, r2, r3, r9, fp, sp}
 8003240:	080040dc 	stmdaeq	r0, {r2, r3, r4, r6, r7, lr}
 8003244:	200001c8 	andcs	r0, r0, r8, asr #3
 8003248:	08002b41 	stmdaeq	r0, {r0, r6, r8, r9, fp, sp}
 800324c:	20000154 	andcs	r0, r0, r4, asr r1
 8003250:	0800201d 	stmdaeq	r0, {r0, r2, r3, r4, sp}
 8003254:	20000224 	andcs	r0, r0, r4, lsr #4
 8003258:	08001b19 	stmdaeq	r0, {r0, r3, r4, r8, r9, fp, ip}
 800325c:	20000158 	andcs	r0, r0, r8, asr r1
 8003260:	08001d05 	stmdaeq	r0, {r0, r2, r8, sl, fp, ip}
 8003264:	200001a4 	andcs	r0, r0, r4, lsr #3
 8003268:	080027ad 	stmdaeq	r0, {r0, r2, r3, r5, r7, r8, r9, sl, sp}
 800326c:	200002f0 	strdcs	r0, [r0], -r0	; <UNPREDICTABLE>
 8003270:	080022c9 	stmdaeq	r0, {r0, r3, r6, r7, r9, sp}
 8003274:	2000020c 	andcs	r0, r0, ip, lsl #4
 8003278:	08002691 	stmdaeq	r0, {r0, r4, r7, r9, sl, sp}
 800327c:	080019e1 	stmdaeq	r0, {r0, r5, r6, r7, r8, fp, ip}

08003280 <_ZN10LineSearchC1Ev>:
 8003280:	b538      	push	{r3, r4, r5, lr}
 8003282:	4604      	mov	r4, r0
 8003284:	4b06      	ldr	r3, [pc, #24]	; (80032a0 <_ZN10LineSearchC1Ev+0x20>)
 8003286:	f844 3b08 	str.w	r3, [r4], #8
 800328a:	4605      	mov	r5, r0
 800328c:	4620      	mov	r0, r4
 800328e:	f000 fa71 	bl	8003774 <_ZN16PositionControllC1Ev>
 8003292:	4620      	mov	r0, r4
 8003294:	4903      	ldr	r1, [pc, #12]	; (80032a4 <_ZN10LineSearchC1Ev+0x24>)
 8003296:	f000 fa93 	bl	80037c0 <_ZN16PositionControll4initEf>
 800329a:	4628      	mov	r0, r5
 800329c:	bd38      	pop	{r3, r4, r5, pc}
 800329e:	bf00      	nop
 80032a0:	08004248 	stmdaeq	r0, {r3, r6, r9, lr}
 80032a4:	3f333333 	svccc	0x00333333

080032a8 <_ZN10LineSearch22set_last_line_positionEf>:
 80032a8:	6041      	str	r1, [r0, #4]
 80032aa:	4770      	bx	lr

080032ac <_ZN10LineSearch12process_moveEj>:
 80032ac:	e92d 43f8 	stmdb	sp!, {r3, r4, r5, r6, r7, r8, r9, lr}
 80032b0:	4681      	mov	r9, r0
 80032b2:	4816      	ldr	r0, [pc, #88]	; (800330c <_ZN10LineSearch12process_moveEj+0x60>)
 80032b4:	f8df 8058 	ldr.w	r8, [pc, #88]	; 8003310 <_ZN10LineSearch12process_moveEj+0x64>
 80032b8:	4e14      	ldr	r6, [pc, #80]	; (800330c <_ZN10LineSearch12process_moveEj+0x60>)
 80032ba:	460d      	mov	r5, r1
 80032bc:	f7ff fbdc 	bl	8002a78 <_ZN5Timer8get_timeEv>
 80032c0:	4405      	add	r5, r0
 80032c2:	f109 0708 	add.w	r7, r9, #8
 80032c6:	2105      	movs	r1, #5
 80032c8:	4638      	mov	r0, r7
 80032ca:	f000 faa5 	bl	8003818 <_ZN16PositionControll7is_doneEi>
 80032ce:	4604      	mov	r4, r0
 80032d0:	b9a0      	cbnz	r0, 80032fc <_ZN10LineSearch12process_moveEj+0x50>
 80032d2:	4640      	mov	r0, r8
 80032d4:	f7fe fe2c 	bl	8001f30 <_ZN10LineSensor5readyEv>
 80032d8:	2800      	cmp	r0, #0
 80032da:	d0f4      	beq.n	80032c6 <_ZN10LineSearch12process_moveEj+0x1a>
 80032dc:	4630      	mov	r0, r6
 80032de:	f7ff fbcb 	bl	8002a78 <_ZN5Timer8get_timeEv>
 80032e2:	4285      	cmp	r5, r0
 80032e4:	d202      	bcs.n	80032ec <_ZN10LineSearch12process_moveEj+0x40>
 80032e6:	f898 30c0 	ldrb.w	r3, [r8, #192]	; 0xc0
 80032ea:	b95b      	cbnz	r3, 8003304 <_ZN10LineSearch12process_moveEj+0x58>
 80032ec:	4638      	mov	r0, r7
 80032ee:	f000 fab7 	bl	8003860 <_ZN16PositionControll7processEv>
 80032f2:	2104      	movs	r1, #4
 80032f4:	4630      	mov	r0, r6
 80032f6:	f7ff fbcb 	bl	8002a90 <_ZN5Timer8delay_msEj>
 80032fa:	e7e2      	b.n	80032c2 <_ZN10LineSearch12process_moveEj+0x16>
 80032fc:	f04f 30ff 	mov.w	r0, #4294967295	; 0xffffffff
 8003300:	e8bd 83f8 	ldmia.w	sp!, {r3, r4, r5, r6, r7, r8, r9, pc}
 8003304:	4620      	mov	r0, r4
 8003306:	e8bd 83f8 	ldmia.w	sp!, {r3, r4, r5, r6, r7, r8, r9, pc}
 800330a:	bf00      	nop
 800330c:	20000388 	andcs	r0, r0, r8, lsl #7
 8003310:	20000224 	andcs	r0, r0, r4, lsr #4

08003314 <_ZN10LineSearch4mainEv>:
 8003314:	edd0 7a01 	vldr	s15, [r0, #4]
 8003318:	eef5 7ac0 	vcmpe.f32	s15, #0.0
 800331c:	eef1 fa10 	vmrs	APSR_nzcv, fpscr
 8003320:	b538      	push	{r3, r4, r5, lr}
 8003322:	f100 0408 	add.w	r4, r0, #8
 8003326:	bf4c      	ite	mi
 8003328:	21aa      	movmi	r1, #170	; 0xaa
 800332a:	2100      	movpl	r1, #0
 800332c:	4605      	mov	r5, r0
 800332e:	bf4c      	ite	mi
 8003330:	2200      	movmi	r2, #0
 8003332:	22aa      	movpl	r2, #170	; 0xaa
 8003334:	4620      	mov	r0, r4
 8003336:	2305      	movs	r3, #5
 8003338:	f000 f9e2 	bl	8003700 <_ZN16PositionControll12set_positionElli>
 800333c:	2100      	movs	r1, #0
 800333e:	4628      	mov	r0, r5
 8003340:	f7ff ffb4 	bl	80032ac <_ZN10LineSearch12process_moveEj>
 8003344:	2800      	cmp	r0, #0
 8003346:	d052      	beq.n	80033ee <_ZN10LineSearch4mainEv+0xda>
 8003348:	edd5 7a01 	vldr	s15, [r5, #4]
 800334c:	eef5 7ac0 	vcmpe.f32	s15, #0.0
 8003350:	eef1 fa10 	vmrs	APSR_nzcv, fpscr
 8003354:	bf4b      	itete	mi
 8003356:	2200      	movmi	r2, #0
 8003358:	f06f 02a9 	mvnpl.w	r2, #169	; 0xa9
 800335c:	f06f 01a9 	mvnmi.w	r1, #169	; 0xa9
 8003360:	2100      	movpl	r1, #0
 8003362:	2305      	movs	r3, #5
 8003364:	4620      	mov	r0, r4
 8003366:	f000 f9cb 	bl	8003700 <_ZN16PositionControll12set_positionElli>
 800336a:	4921      	ldr	r1, [pc, #132]	; (80033f0 <_ZN10LineSearch4mainEv+0xdc>)
 800336c:	4628      	mov	r0, r5
 800336e:	f7ff ff9d 	bl	80032ac <_ZN10LineSearch12process_moveEj>
 8003372:	4620      	mov	r0, r4
 8003374:	f000 fad0 	bl	8003918 <_ZN16PositionControll4stopEv>
 8003378:	edd5 7a01 	vldr	s15, [r5, #4]
 800337c:	eef5 7ac0 	vcmpe.f32	s15, #0.0
 8003380:	eef1 fa10 	vmrs	APSR_nzcv, fpscr
 8003384:	bf4b      	itete	mi
 8003386:	2100      	movmi	r1, #0
 8003388:	21aa      	movpl	r1, #170	; 0xaa
 800338a:	22aa      	movmi	r2, #170	; 0xaa
 800338c:	2200      	movpl	r2, #0
 800338e:	4620      	mov	r0, r4
 8003390:	2305      	movs	r3, #5
 8003392:	f000 f9b5 	bl	8003700 <_ZN16PositionControll12set_positionElli>
 8003396:	2196      	movs	r1, #150	; 0x96
 8003398:	4628      	mov	r0, r5
 800339a:	f7ff ff87 	bl	80032ac <_ZN10LineSearch12process_moveEj>
 800339e:	b330      	cbz	r0, 80033ee <_ZN10LineSearch4mainEv+0xda>
 80033a0:	edd5 7a01 	vldr	s15, [r5, #4]
 80033a4:	eef5 7ac0 	vcmpe.f32	s15, #0.0
 80033a8:	eef1 fa10 	vmrs	APSR_nzcv, fpscr
 80033ac:	bf47      	ittee	mi
 80033ae:	f06f 02a9 	mvnmi.w	r2, #169	; 0xa9
 80033b2:	2100      	movmi	r1, #0
 80033b4:	2200      	movpl	r2, #0
 80033b6:	f06f 01a9 	mvnpl.w	r1, #169	; 0xa9
 80033ba:	2305      	movs	r3, #5
 80033bc:	4620      	mov	r0, r4
 80033be:	f000 f99f 	bl	8003700 <_ZN16PositionControll12set_positionElli>
 80033c2:	490b      	ldr	r1, [pc, #44]	; (80033f0 <_ZN10LineSearch4mainEv+0xdc>)
 80033c4:	4628      	mov	r0, r5
 80033c6:	f7ff ff71 	bl	80032ac <_ZN10LineSearch12process_moveEj>
 80033ca:	4620      	mov	r0, r4
 80033cc:	f000 faa4 	bl	8003918 <_ZN16PositionControll4stopEv>
 80033d0:	2255      	movs	r2, #85	; 0x55
 80033d2:	2305      	movs	r3, #5
 80033d4:	4611      	mov	r1, r2
 80033d6:	4620      	mov	r0, r4
 80033d8:	f000 f992 	bl	8003700 <_ZN16PositionControll12set_positionElli>
 80033dc:	4628      	mov	r0, r5
 80033de:	2196      	movs	r1, #150	; 0x96
 80033e0:	f7ff ff64 	bl	80032ac <_ZN10LineSearch12process_moveEj>
 80033e4:	4620      	mov	r0, r4
 80033e6:	e8bd 4038 	ldmia.w	sp!, {r3, r4, r5, lr}
 80033ea:	f000 ba95 	b.w	8003918 <_ZN16PositionControll4stopEv>
 80033ee:	bd38      	pop	{r3, r4, r5, pc}
 80033f0:	000f4240 	andeq	r4, pc, r0, asr #4

080033f4 <_ZN10LineSearchD1Ev>:
 80033f4:	b510      	push	{r4, lr}
 80033f6:	4b04      	ldr	r3, [pc, #16]	; (8003408 <_ZN10LineSearchD1Ev+0x14>)
 80033f8:	4604      	mov	r4, r0
 80033fa:	f840 3b08 	str.w	r3, [r0], #8
 80033fe:	f000 f96f 	bl	80036e0 <_ZN16PositionControllD1Ev>
 8003402:	4620      	mov	r0, r4
 8003404:	bd10      	pop	{r4, pc}
 8003406:	bf00      	nop
 8003408:	08004248 	stmdaeq	r0, {r3, r6, r9, lr}

0800340c <_ZN10LineSearchD0Ev>:
 800340c:	b510      	push	{r4, lr}
 800340e:	4604      	mov	r4, r0
 8003410:	f7ff fff0 	bl	80033f4 <_ZN10LineSearchD1Ev>
 8003414:	4620      	mov	r0, r4
 8003416:	215c      	movs	r1, #92	; 0x5c
 8003418:	f7fe f822 	bl	8001460 <_ZdlPvj>
 800341c:	4620      	mov	r0, r4
 800341e:	bd10      	pop	{r4, pc}

08003420 <_Z10diagnosticv>:
 8003420:	e92d 41f0 	stmdb	sp!, {r4, r5, r6, r7, r8, lr}
 8003424:	b0c0      	sub	sp, #256	; 0x100
 8003426:	a814      	add	r0, sp, #80	; 0x50
 8003428:	f000 fafa 	bl	8003a20 <_ZN11LineNetworkC1Ev>
 800342c:	a914      	add	r1, sp, #80	; 0x50
 800342e:	4668      	mov	r0, sp
 8003430:	f000 f8c8 	bl	80035c4 <_ZN13LinePredictorC1ER13NeuralNetwork>
 8003434:	4c4a      	ldr	r4, [pc, #296]	; (8003560 <_Z10diagnosticv+0x140>)
 8003436:	4d4b      	ldr	r5, [pc, #300]	; (8003564 <_Z10diagnosticv+0x144>)
 8003438:	4f4b      	ldr	r7, [pc, #300]	; (8003568 <_Z10diagnosticv+0x148>)
 800343a:	4e4c      	ldr	r6, [pc, #304]	; (800356c <_Z10diagnosticv+0x14c>)
 800343c:	494c      	ldr	r1, [pc, #304]	; (8003570 <_Z10diagnosticv+0x150>)
 800343e:	2300      	movs	r3, #0
 8003440:	461a      	mov	r2, r3
 8003442:	4668      	mov	r0, sp
 8003444:	f000 f8e4 	bl	8003610 <_ZN13LinePredictor7processER5ArrayIiLj8EEli>
 8003448:	f896 30c0 	ldrb.w	r3, [r6, #192]	; 0xc0
 800344c:	46b0      	mov	r8, r6
 800344e:	2b00      	cmp	r3, #0
 8003450:	f000 8083 	beq.w	800355a <_Z10diagnosticv+0x13a>
 8003454:	4947      	ldr	r1, [pc, #284]	; (8003574 <_Z10diagnosticv+0x154>)
 8003456:	4620      	mov	r0, r4
 8003458:	f7fe f8c7 	bl	80015ea <_ZN8Terminal4putsEPKc>
 800345c:	f8d6 10c4 	ldr.w	r1, [r6, #196]	; 0xc4
 8003460:	4620      	mov	r0, r4
 8003462:	f7fe f8c4 	bl	80015ee <_ZN8Terminal4putiEl>
 8003466:	4629      	mov	r1, r5
 8003468:	4620      	mov	r0, r4
 800346a:	f7fe f8be 	bl	80015ea <_ZN8Terminal4putsEPKc>
 800346e:	2600      	movs	r6, #0
 8003470:	eb08 0306 	add.w	r3, r8, r6
 8003474:	4620      	mov	r0, r4
 8003476:	f8d3 1080 	ldr.w	r1, [r3, #128]	; 0x80
 800347a:	f7fe f8b8 	bl	80015ee <_ZN8Terminal4putiEl>
 800347e:	3604      	adds	r6, #4
 8003480:	4629      	mov	r1, r5
 8003482:	4620      	mov	r0, r4
 8003484:	f7fe f8b1 	bl	80015ea <_ZN8Terminal4putsEPKc>
 8003488:	2e20      	cmp	r6, #32
 800348a:	d1f1      	bne.n	8003470 <_Z10diagnosticv+0x50>
 800348c:	4e3a      	ldr	r6, [pc, #232]	; (8003578 <_Z10diagnosticv+0x158>)
 800348e:	4620      	mov	r0, r4
 8003490:	69f1      	ldr	r1, [r6, #28]
 8003492:	f7fe f8ac 	bl	80015ee <_ZN8Terminal4putiEl>
 8003496:	4629      	mov	r1, r5
 8003498:	4620      	mov	r0, r4
 800349a:	f7fe f8a6 	bl	80015ea <_ZN8Terminal4putsEPKc>
 800349e:	6a31      	ldr	r1, [r6, #32]
 80034a0:	4620      	mov	r0, r4
 80034a2:	f7fe f8a4 	bl	80015ee <_ZN8Terminal4putiEl>
 80034a6:	4629      	mov	r1, r5
 80034a8:	4620      	mov	r0, r4
 80034aa:	f7fe f89e 	bl	80015ea <_ZN8Terminal4putsEPKc>
 80034ae:	6a71      	ldr	r1, [r6, #36]	; 0x24
 80034b0:	4620      	mov	r0, r4
 80034b2:	f7fe f89c 	bl	80015ee <_ZN8Terminal4putiEl>
 80034b6:	4629      	mov	r1, r5
 80034b8:	4620      	mov	r0, r4
 80034ba:	f7fe f896 	bl	80015ea <_ZN8Terminal4putsEPKc>
 80034be:	4638      	mov	r0, r7
 80034c0:	f7fe ffa6 	bl	8002410 <_ZN13EncoderSensor8get_leftEv>
 80034c4:	4601      	mov	r1, r0
 80034c6:	4620      	mov	r0, r4
 80034c8:	f7fe f891 	bl	80015ee <_ZN8Terminal4putiEl>
 80034cc:	4629      	mov	r1, r5
 80034ce:	4620      	mov	r0, r4
 80034d0:	f7fe f88b 	bl	80015ea <_ZN8Terminal4putsEPKc>
 80034d4:	4638      	mov	r0, r7
 80034d6:	f7fe ffa7 	bl	8002428 <_ZN13EncoderSensor9get_rightEv>
 80034da:	4601      	mov	r1, r0
 80034dc:	4620      	mov	r0, r4
 80034de:	f7fe f886 	bl	80015ee <_ZN8Terminal4putiEl>
 80034e2:	4629      	mov	r1, r5
 80034e4:	4620      	mov	r0, r4
 80034e6:	f7fe f880 	bl	80015ea <_ZN8Terminal4putsEPKc>
 80034ea:	4824      	ldr	r0, [pc, #144]	; (800357c <_Z10diagnosticv+0x15c>)
 80034ec:	f7ff f8cc 	bl	8002688 <_ZN13MotorControll14get_speed_leftEv>
 80034f0:	2203      	movs	r2, #3
 80034f2:	4601      	mov	r1, r0
 80034f4:	4620      	mov	r0, r4
 80034f6:	f7fe f8bf 	bl	8001678 <_ZN8Terminal4putfEfh>
 80034fa:	4629      	mov	r1, r5
 80034fc:	4620      	mov	r0, r4
 80034fe:	f7fe f874 	bl	80015ea <_ZN8Terminal4putsEPKc>
 8003502:	481e      	ldr	r0, [pc, #120]	; (800357c <_Z10diagnosticv+0x15c>)
 8003504:	f7ff f8c2 	bl	800268c <_ZN13MotorControll15get_speed_rightEv>
 8003508:	2203      	movs	r2, #3
 800350a:	4601      	mov	r1, r0
 800350c:	4620      	mov	r0, r4
 800350e:	f7fe f8b3 	bl	8001678 <_ZN8Terminal4putfEfh>
 8003512:	4629      	mov	r1, r5
 8003514:	4620      	mov	r0, r4
 8003516:	f7fe f868 	bl	80015ea <_ZN8Terminal4putsEPKc>
 800351a:	2600      	movs	r6, #0
 800351c:	eb0d 0306 	add.w	r3, sp, r6
 8003520:	4620      	mov	r0, r4
 8003522:	f993 1004 	ldrsb.w	r1, [r3, #4]
 8003526:	f7fe f862 	bl	80015ee <_ZN8Terminal4putiEl>
 800352a:	3601      	adds	r6, #1
 800352c:	4629      	mov	r1, r5
 800352e:	4620      	mov	r0, r4
 8003530:	f7fe f85b 	bl	80015ea <_ZN8Terminal4putsEPKc>
 8003534:	2e40      	cmp	r6, #64	; 0x40
 8003536:	d1f1      	bne.n	800351c <_Z10diagnosticv+0xfc>
 8003538:	9912      	ldr	r1, [sp, #72]	; 0x48
 800353a:	4620      	mov	r0, r4
 800353c:	f7fe f880 	bl	8001640 <_ZN8Terminal5putuiEm>
 8003540:	4629      	mov	r1, r5
 8003542:	4620      	mov	r0, r4
 8003544:	f7fe f851 	bl	80015ea <_ZN8Terminal4putsEPKc>
 8003548:	4620      	mov	r0, r4
 800354a:	490d      	ldr	r1, [pc, #52]	; (8003580 <_Z10diagnosticv+0x160>)
 800354c:	f7fe f84d 	bl	80015ea <_ZN8Terminal4putsEPKc>
 8003550:	2132      	movs	r1, #50	; 0x32
 8003552:	480c      	ldr	r0, [pc, #48]	; (8003584 <_Z10diagnosticv+0x164>)
 8003554:	f7ff fa9c 	bl	8002a90 <_ZN5Timer8delay_msEj>
 8003558:	e76f      	b.n	800343a <_Z10diagnosticv+0x1a>
 800355a:	490b      	ldr	r1, [pc, #44]	; (8003588 <_Z10diagnosticv+0x168>)
 800355c:	e77b      	b.n	8003456 <_Z10diagnosticv+0x36>
 800355e:	bf00      	nop
 8003560:	20000384 	andcs	r0, r0, r4, lsl #7
 8003564:	08004254 	stmdaeq	r0, {r2, r4, r6, r9, lr}
 8003568:	200001a4 	andcs	r0, r0, r4, lsr #3
 800356c:	20000224 	andcs	r0, r0, r4, lsr #4
 8003570:	200002a0 	andcs	r0, r0, r0, lsr #5
 8003574:	08004250 	stmdaeq	r0, {r4, r6, r9, lr}
 8003578:	200001c8 	andcs	r0, r0, r8, asr #3
 800357c:	200002f0 	strdcs	r0, [r0], -r0	; <UNPREDICTABLE>
 8003580:	08004117 	stmdaeq	r0, {r0, r1, r2, r4, r8, lr}
 8003584:	20000388 	andcs	r0, r0, r8, lsl #7
 8003588:	08004253 	stmdaeq	r0, {r0, r1, r4, r6, r9, lr}

0800358c <_ZN13LinePredictorD1Ev>:
 800358c:	4770      	bx	lr

0800358e <_ZN13LinePredictorD0Ev>:
 800358e:	b510      	push	{r4, lr}
 8003590:	2150      	movs	r1, #80	; 0x50
 8003592:	4604      	mov	r4, r0
 8003594:	f7fd ff64 	bl	8001460 <_ZdlPvj>
 8003598:	4620      	mov	r0, r4
 800359a:	bd10      	pop	{r4, pc}

0800359c <_ZN13LinePredictorC1Ev>:
 800359c:	4603      	mov	r3, r0
 800359e:	4a07      	ldr	r2, [pc, #28]	; (80035bc <_ZN13LinePredictorC1Ev+0x20>)
 80035a0:	f843 2b04 	str.w	r2, [r3], #4
 80035a4:	f100 0144 	add.w	r1, r0, #68	; 0x44
 80035a8:	2200      	movs	r2, #0
 80035aa:	f803 2b01 	strb.w	r2, [r3], #1
 80035ae:	428b      	cmp	r3, r1
 80035b0:	d1fb      	bne.n	80035aa <_ZN13LinePredictorC1Ev+0xe>
 80035b2:	4b03      	ldr	r3, [pc, #12]	; (80035c0 <_ZN13LinePredictorC1Ev+0x24>)
 80035b4:	6482      	str	r2, [r0, #72]	; 0x48
 80035b6:	64c3      	str	r3, [r0, #76]	; 0x4c
 80035b8:	6442      	str	r2, [r0, #68]	; 0x44
 80035ba:	4770      	bx	lr
 80035bc:	08004260 	stmdaeq	r0, {r5, r6, r9, lr}
 80035c0:	c4653600 	strbtgt	r3, [r5], #-1536	; 0xfffffa00

080035c4 <_ZN13LinePredictorC1ER13NeuralNetwork>:
 80035c4:	4603      	mov	r3, r0
 80035c6:	4a08      	ldr	r2, [pc, #32]	; (80035e8 <_ZN13LinePredictorC1ER13NeuralNetwork+0x24>)
 80035c8:	b510      	push	{r4, lr}
 80035ca:	f843 2b04 	str.w	r2, [r3], #4
 80035ce:	f100 0444 	add.w	r4, r0, #68	; 0x44
 80035d2:	2200      	movs	r2, #0
 80035d4:	f803 2b01 	strb.w	r2, [r3], #1
 80035d8:	42a3      	cmp	r3, r4
 80035da:	d1fb      	bne.n	80035d4 <_ZN13LinePredictorC1ER13NeuralNetwork+0x10>
 80035dc:	4b03      	ldr	r3, [pc, #12]	; (80035ec <_ZN13LinePredictorC1ER13NeuralNetwork+0x28>)
 80035de:	6482      	str	r2, [r0, #72]	; 0x48
 80035e0:	64c3      	str	r3, [r0, #76]	; 0x4c
 80035e2:	6441      	str	r1, [r0, #68]	; 0x44
 80035e4:	bd10      	pop	{r4, pc}
 80035e6:	bf00      	nop
 80035e8:	08004260 	stmdaeq	r0, {r5, r6, r9, lr}
 80035ec:	c4653600 	strbtgt	r3, [r5], #-1536	; 0xfffffa00

080035f0 <_ZN13LinePredictor4initER13NeuralNetwork>:
 80035f0:	b510      	push	{r4, lr}
 80035f2:	1d03      	adds	r3, r0, #4
 80035f4:	f100 0444 	add.w	r4, r0, #68	; 0x44
 80035f8:	2200      	movs	r2, #0
 80035fa:	f803 2b01 	strb.w	r2, [r3], #1
 80035fe:	42a3      	cmp	r3, r4
 8003600:	d1fb      	bne.n	80035fa <_ZN13LinePredictor4initER13NeuralNetwork+0xa>
 8003602:	4b02      	ldr	r3, [pc, #8]	; (800360c <_ZN13LinePredictor4initER13NeuralNetwork+0x1c>)
 8003604:	6482      	str	r2, [r0, #72]	; 0x48
 8003606:	64c3      	str	r3, [r0, #76]	; 0x4c
 8003608:	6441      	str	r1, [r0, #68]	; 0x44
 800360a:	bd10      	pop	{r4, pc}
 800360c:	c4653600 	strbtgt	r3, [r5], #-1536	; 0xfffffa00

08003610 <_ZN13LinePredictor7processER5ArrayIiLj8EEli>:
 8003610:	b570      	push	{r4, r5, r6, lr}
 8003612:	4604      	mov	r4, r0
 8003614:	6cc0      	ldr	r0, [r0, #76]	; 0x4c
 8003616:	1a10      	subs	r0, r2, r0
 8003618:	2800      	cmp	r0, #0
 800361a:	bfb8      	it	lt
 800361c:	4240      	neglt	r0, r0
 800361e:	4283      	cmp	r3, r0
 8003620:	dc4f      	bgt.n	80036c2 <_ZN13LinePredictor7processER5ArrayIiLj8EEli+0xb2>
 8003622:	64e2      	str	r2, [r4, #76]	; 0x4c
 8003624:	f104 0238 	add.w	r2, r4, #56	; 0x38
 8003628:	2300      	movs	r3, #0
 800362a:	f1a2 0008 	sub.w	r0, r2, #8
 800362e:	18c5      	adds	r5, r0, r3
 8003630:	f995 6004 	ldrsb.w	r6, [r5, #4]
 8003634:	18d5      	adds	r5, r2, r3
 8003636:	3301      	adds	r3, #1
 8003638:	2b08      	cmp	r3, #8
 800363a:	712e      	strb	r6, [r5, #4]
 800363c:	d1f7      	bne.n	800362e <_ZN13LinePredictor7processER5ArrayIiLj8EEli+0x1e>
 800363e:	4284      	cmp	r4, r0
 8003640:	4602      	mov	r2, r0
 8003642:	d1f1      	bne.n	8003628 <_ZN13LinePredictor7processER5ArrayIiLj8EEli+0x18>
 8003644:	1d0d      	adds	r5, r1, #4
 8003646:	4b22      	ldr	r3, [pc, #136]	; (80036d0 <_ZN13LinePredictor7processER5ArrayIiLj8EEli+0xc0>)
 8003648:	4a22      	ldr	r2, [pc, #136]	; (80036d4 <_ZN13LinePredictor7processER5ArrayIiLj8EEli+0xc4>)
 800364a:	3124      	adds	r1, #36	; 0x24
 800364c:	4628      	mov	r0, r5
 800364e:	f850 6b04 	ldr.w	r6, [r0], #4
 8003652:	42b2      	cmp	r2, r6
 8003654:	bfb8      	it	lt
 8003656:	4632      	movlt	r2, r6
 8003658:	42b3      	cmp	r3, r6
 800365a:	bfa8      	it	ge
 800365c:	4633      	movge	r3, r6
 800365e:	4281      	cmp	r1, r0
 8003660:	d1f5      	bne.n	800364e <_ZN13LinePredictor7processER5ArrayIiLj8EEli+0x3e>
 8003662:	4293      	cmp	r3, r2
 8003664:	da2f      	bge.n	80036c6 <_ZN13LinePredictor7processER5ArrayIiLj8EEli+0xb6>
 8003666:	1ad3      	subs	r3, r2, r3
 8003668:	ee07 3a90 	vmov	s15, r3
 800366c:	ed9f 7a1a 	vldr	s14, [pc, #104]	; 80036d8 <_ZN13LinePredictor7processER5ArrayIiLj8EEli+0xc8>
 8003670:	eef8 7ae7 	vcvt.f32.s32	s15, s15
 8003674:	eec7 6a27 	vdiv.f32	s13, s14, s15
 8003678:	ee07 2a90 	vmov	s15, r2
 800367c:	eef8 7ae7 	vcvt.f32.s32	s15, s15
 8003680:	ee07 7ae6 	vmls.f32	s14, s15, s13
 8003684:	eef0 7a47 	vmov.f32	s15, s14
 8003688:	1d23      	adds	r3, r4, #4
 800368a:	4619      	mov	r1, r3
 800368c:	ecb5 7a01 	vldmia	r5!, {s14}
 8003690:	eeb8 7ac7 	vcvt.f32.s32	s14, s14
 8003694:	eeb0 6a67 	vmov.f32	s12, s15
 8003698:	ee07 6a26 	vmla.f32	s12, s14, s13
 800369c:	4285      	cmp	r5, r0
 800369e:	eebd 7ac6 	vcvt.s32.f32	s14, s12
 80036a2:	ee17 2a10 	vmov	r2, s14
 80036a6:	f803 2b01 	strb.w	r2, [r3], #1
 80036aa:	d1ef      	bne.n	800368c <_ZN13LinePredictor7processER5ArrayIiLj8EEli+0x7c>
 80036ac:	6c60      	ldr	r0, [r4, #68]	; 0x44
 80036ae:	6803      	ldr	r3, [r0, #0]
 80036b0:	689b      	ldr	r3, [r3, #8]
 80036b2:	4798      	blx	r3
 80036b4:	6c60      	ldr	r0, [r4, #68]	; 0x44
 80036b6:	f7fd fdb5 	bl	8001224 <_ZN13NeuralNetwork7forwardEv>
 80036ba:	6c60      	ldr	r0, [r4, #68]	; 0x44
 80036bc:	f7fd fde4 	bl	8001288 <_ZN13NeuralNetwork12class_resultEv>
 80036c0:	64a0      	str	r0, [r4, #72]	; 0x48
 80036c2:	2000      	movs	r0, #0
 80036c4:	bd70      	pop	{r4, r5, r6, pc}
 80036c6:	eddf 7a05 	vldr	s15, [pc, #20]	; 80036dc <_ZN13LinePredictor7processER5ArrayIiLj8EEli+0xcc>
 80036ca:	eef0 6a67 	vmov.f32	s13, s15
 80036ce:	e7db      	b.n	8003688 <_ZN13LinePredictor7processER5ArrayIiLj8EEli+0x78>
 80036d0:	000f4240 	andeq	r4, pc, r0, asr #4
 80036d4:	fff0bdc0 			; <UNDEFINED> instruction: 0xfff0bdc0
 80036d8:	42fe0000 	rscsmi	r0, lr, #0
 80036dc:	00000000 	andeq	r0, r0, r0

080036e0 <_ZN16PositionControllD1Ev>:
 80036e0:	4770      	bx	lr

080036e2 <_ZN10IntegratorIfED1Ev>:
 80036e2:	4770      	bx	lr

080036e4 <_ZN10IntegratorIfED0Ev>:
 80036e4:	b510      	push	{r4, lr}
 80036e6:	2110      	movs	r1, #16
 80036e8:	4604      	mov	r4, r0
 80036ea:	f7fd feb9 	bl	8001460 <_ZdlPvj>
 80036ee:	4620      	mov	r0, r4
 80036f0:	bd10      	pop	{r4, pc}

080036f2 <_ZN16PositionControllD0Ev>:
 80036f2:	b510      	push	{r4, lr}
 80036f4:	2154      	movs	r1, #84	; 0x54
 80036f6:	4604      	mov	r4, r0
 80036f8:	f7fd feb2 	bl	8001460 <_ZdlPvj>
 80036fc:	4620      	mov	r0, r4
 80036fe:	bd10      	pop	{r4, pc}

08003700 <_ZN16PositionControll12set_positionElli>:
 8003700:	b5f8      	push	{r3, r4, r5, r6, r7, lr}
 8003702:	4604      	mov	r4, r0
 8003704:	4816      	ldr	r0, [pc, #88]	; (8003760 <_ZN16PositionControll12set_positionElli+0x60>)
 8003706:	460e      	mov	r6, r1
 8003708:	4615      	mov	r5, r2
 800370a:	461f      	mov	r7, r3
 800370c:	f7fe fe80 	bl	8002410 <_ZN13EncoderSensor8get_leftEv>
 8003710:	4430      	add	r0, r6
 8003712:	60a0      	str	r0, [r4, #8]
 8003714:	4812      	ldr	r0, [pc, #72]	; (8003760 <_ZN16PositionControll12set_positionElli+0x60>)
 8003716:	f7fe fe87 	bl	8002428 <_ZN13EncoderSensor9get_rightEv>
 800371a:	2e00      	cmp	r6, #0
 800371c:	4428      	add	r0, r5
 800371e:	60e0      	str	r0, [r4, #12]
 8003720:	6127      	str	r7, [r4, #16]
 8003722:	dd19      	ble.n	8003758 <_ZN16PositionControll12set_positionElli+0x58>
 8003724:	ed9f 7a0f 	vldr	s14, [pc, #60]	; 8003764 <_ZN16PositionControll12set_positionElli+0x64>
 8003728:	eddf 7a0f 	vldr	s15, [pc, #60]	; 8003768 <_ZN16PositionControll12set_positionElli+0x68>
 800372c:	2d00      	cmp	r5, #0
 800372e:	bfc8      	it	gt
 8003730:	eef0 7a47 	vmovgt.f32	s15, s14
 8003734:	4a0d      	ldr	r2, [pc, #52]	; (800376c <_ZN16PositionControll12set_positionElli+0x6c>)
 8003736:	490e      	ldr	r1, [pc, #56]	; (8003770 <_ZN16PositionControll12set_positionElli+0x70>)
 8003738:	edc4 7a07 	vstr	s15, [r4, #28]
 800373c:	2300      	movs	r3, #0
 800373e:	6222      	str	r2, [r4, #32]
 8003740:	61a3      	str	r3, [r4, #24]
 8003742:	62e1      	str	r1, [r4, #44]	; 0x2c
 8003744:	6322      	str	r2, [r4, #48]	; 0x30
 8003746:	62a3      	str	r3, [r4, #40]	; 0x28
 8003748:	edc4 7a0f 	vstr	s15, [r4, #60]	; 0x3c
 800374c:	6422      	str	r2, [r4, #64]	; 0x40
 800374e:	63a3      	str	r3, [r4, #56]	; 0x38
 8003750:	64e1      	str	r1, [r4, #76]	; 0x4c
 8003752:	6522      	str	r2, [r4, #80]	; 0x50
 8003754:	64a3      	str	r3, [r4, #72]	; 0x48
 8003756:	bdf8      	pop	{r3, r4, r5, r6, r7, pc}
 8003758:	eddf 7a03 	vldr	s15, [pc, #12]	; 8003768 <_ZN16PositionControll12set_positionElli+0x68>
 800375c:	e7ea      	b.n	8003734 <_ZN16PositionControll12set_positionElli+0x34>
 800375e:	bf00      	nop
 8003760:	200001a4 	andcs	r0, r0, r4, lsr #3
 8003764:	3b83126f 	blcc	60c8128 <__text_size__+0x60c39f8>
 8003768:	3c03126f 	sfmcc	f1, 4, [r3], {111}	; 0x6f
 800376c:	3c23d70a 	stccc	7, cr13, [r3], #-40	; 0xffffffd8
 8003770:	3b03126f 	blcc	80c8134 <_sidata+0xc3878>

08003774 <_ZN16PositionControllC1Ev>:
 8003774:	b510      	push	{r4, lr}
 8003776:	4b0f      	ldr	r3, [pc, #60]	; (80037b4 <_ZN16PositionControllC1Ev+0x40>)
 8003778:	4a0f      	ldr	r2, [pc, #60]	; (80037b8 <_ZN16PositionControllC1Ev+0x44>)
 800377a:	6003      	str	r3, [r0, #0]
 800377c:	2300      	movs	r3, #0
 800377e:	6142      	str	r2, [r0, #20]
 8003780:	61c3      	str	r3, [r0, #28]
 8003782:	6203      	str	r3, [r0, #32]
 8003784:	6183      	str	r3, [r0, #24]
 8003786:	6242      	str	r2, [r0, #36]	; 0x24
 8003788:	62c3      	str	r3, [r0, #44]	; 0x2c
 800378a:	6303      	str	r3, [r0, #48]	; 0x30
 800378c:	6283      	str	r3, [r0, #40]	; 0x28
 800378e:	6342      	str	r2, [r0, #52]	; 0x34
 8003790:	63c3      	str	r3, [r0, #60]	; 0x3c
 8003792:	6403      	str	r3, [r0, #64]	; 0x40
 8003794:	6383      	str	r3, [r0, #56]	; 0x38
 8003796:	6442      	str	r2, [r0, #68]	; 0x44
 8003798:	64c3      	str	r3, [r0, #76]	; 0x4c
 800379a:	2200      	movs	r2, #0
 800379c:	6503      	str	r3, [r0, #80]	; 0x50
 800379e:	6483      	str	r3, [r0, #72]	; 0x48
 80037a0:	4b06      	ldr	r3, [pc, #24]	; (80037bc <_ZN16PositionControllC1Ev+0x48>)
 80037a2:	6102      	str	r2, [r0, #16]
 80037a4:	4604      	mov	r4, r0
 80037a6:	6043      	str	r3, [r0, #4]
 80037a8:	4611      	mov	r1, r2
 80037aa:	2305      	movs	r3, #5
 80037ac:	f7ff ffa8 	bl	8003700 <_ZN16PositionControll12set_positionElli>
 80037b0:	4620      	mov	r0, r4
 80037b2:	bd10      	pop	{r4, pc}
 80037b4:	08004280 	stmdaeq	r0, {r7, r9, lr}
 80037b8:	08004270 	stmdaeq	r0, {r4, r5, r6, r9, lr}
 80037bc:	3f333333 	svccc	0x00333333

080037c0 <_ZN16PositionControll4initEf>:
 80037c0:	2200      	movs	r2, #0
 80037c2:	6041      	str	r1, [r0, #4]
 80037c4:	6102      	str	r2, [r0, #16]
 80037c6:	2305      	movs	r3, #5
 80037c8:	4611      	mov	r1, r2
 80037ca:	f7ff bf99 	b.w	8003700 <_ZN16PositionControll12set_positionElli>
 80037ce:	0000      	movs	r0, r0

080037d0 <_ZN16PositionControll12is_done_leftEi>:
 80037d0:	b538      	push	{r3, r4, r5, lr}
 80037d2:	6884      	ldr	r4, [r0, #8]
 80037d4:	4806      	ldr	r0, [pc, #24]	; (80037f0 <_ZN16PositionControll12is_done_leftEi+0x20>)
 80037d6:	460d      	mov	r5, r1
 80037d8:	f7fe fe1a 	bl	8002410 <_ZN13EncoderSensor8get_leftEv>
 80037dc:	1a20      	subs	r0, r4, r0
 80037de:	2800      	cmp	r0, #0
 80037e0:	bfb8      	it	lt
 80037e2:	4240      	neglt	r0, r0
 80037e4:	4285      	cmp	r5, r0
 80037e6:	bfd4      	ite	le
 80037e8:	2000      	movle	r0, #0
 80037ea:	2001      	movgt	r0, #1
 80037ec:	bd38      	pop	{r3, r4, r5, pc}
 80037ee:	bf00      	nop
 80037f0:	200001a4 	andcs	r0, r0, r4, lsr #3

080037f4 <_ZN16PositionControll13is_done_rightEi>:
 80037f4:	b538      	push	{r3, r4, r5, lr}
 80037f6:	68c4      	ldr	r4, [r0, #12]
 80037f8:	4806      	ldr	r0, [pc, #24]	; (8003814 <_ZN16PositionControll13is_done_rightEi+0x20>)
 80037fa:	460d      	mov	r5, r1
 80037fc:	f7fe fe14 	bl	8002428 <_ZN13EncoderSensor9get_rightEv>
 8003800:	1a20      	subs	r0, r4, r0
 8003802:	2800      	cmp	r0, #0
 8003804:	bfb8      	it	lt
 8003806:	4240      	neglt	r0, r0
 8003808:	4285      	cmp	r5, r0
 800380a:	bfd4      	ite	le
 800380c:	2000      	movle	r0, #0
 800380e:	2001      	movgt	r0, #1
 8003810:	bd38      	pop	{r3, r4, r5, pc}
 8003812:	bf00      	nop
 8003814:	200001a4 	andcs	r0, r0, r4, lsr #3

08003818 <_ZN16PositionControll7is_doneEi>:
 8003818:	b538      	push	{r3, r4, r5, lr}
 800381a:	4604      	mov	r4, r0
 800381c:	460d      	mov	r5, r1
 800381e:	f7ff ffd7 	bl	80037d0 <_ZN16PositionControll12is_done_leftEi>
 8003822:	b128      	cbz	r0, 8003830 <_ZN16PositionControll7is_doneEi+0x18>
 8003824:	4629      	mov	r1, r5
 8003826:	4620      	mov	r0, r4
 8003828:	e8bd 4038 	ldmia.w	sp!, {r3, r4, r5, lr}
 800382c:	f7ff bfe2 	b.w	80037f4 <_ZN16PositionControll13is_done_rightEi>
 8003830:	bd38      	pop	{r3, r4, r5, pc}

08003832 <_ZN10IntegratorIfE7processEf>:
 8003832:	edd0 7a01 	vldr	s15, [r0, #4]
 8003836:	ee07 1a10 	vmov	s14, r1
 800383a:	eef4 7ac7 	vcmpe.f32	s15, s14
 800383e:	eef1 fa10 	vmrs	APSR_nzcv, fpscr
 8003842:	d507      	bpl.n	8003854 <_ZN10IntegratorIfE7processEf+0x22>
 8003844:	ed90 7a02 	vldr	s14, [r0, #8]
 8003848:	ee77 7a27 	vadd.f32	s15, s14, s15
 800384c:	edc0 7a01 	vstr	s15, [r0, #4]
 8003850:	6840      	ldr	r0, [r0, #4]
 8003852:	4770      	bx	lr
 8003854:	ddfc      	ble.n	8003850 <_ZN10IntegratorIfE7processEf+0x1e>
 8003856:	ed90 7a03 	vldr	s14, [r0, #12]
 800385a:	ee77 7ac7 	vsub.f32	s15, s15, s14
 800385e:	e7f5      	b.n	800384c <_ZN10IntegratorIfE7processEf+0x1a>

08003860 <_ZN16PositionControll7processEv>:
 8003860:	b538      	push	{r3, r4, r5, lr}
 8003862:	6885      	ldr	r5, [r0, #8]
 8003864:	ed2d 8b02 	vpush	{d8}
 8003868:	4604      	mov	r4, r0
 800386a:	4828      	ldr	r0, [pc, #160]	; (800390c <_ZN16PositionControll7processEv+0xac>)
 800386c:	f7fe fdd0 	bl	8002410 <_ZN13EncoderSensor8get_leftEv>
 8003870:	4285      	cmp	r5, r0
 8003872:	dd25      	ble.n	80038c0 <_ZN16PositionControll7processEv+0x60>
 8003874:	6861      	ldr	r1, [r4, #4]
 8003876:	f104 0014 	add.w	r0, r4, #20
 800387a:	f7ff ffda 	bl	8003832 <_ZN10IntegratorIfE7processEf>
 800387e:	ed94 8a06 	vldr	s16, [r4, #24]
 8003882:	4822      	ldr	r0, [pc, #136]	; (800390c <_ZN16PositionControll7processEv+0xac>)
 8003884:	68e5      	ldr	r5, [r4, #12]
 8003886:	f7fe fdcf 	bl	8002428 <_ZN13EncoderSensor9get_rightEv>
 800388a:	4285      	cmp	r5, r0
 800388c:	dd2b      	ble.n	80038e6 <_ZN16PositionControll7processEv+0x86>
 800388e:	6861      	ldr	r1, [r4, #4]
 8003890:	f104 0034 	add.w	r0, r4, #52	; 0x34
 8003894:	f7ff ffcd 	bl	8003832 <_ZN10IntegratorIfE7processEf>
 8003898:	edd4 7a0e 	vldr	s15, [r4, #56]	; 0x38
 800389c:	481c      	ldr	r0, [pc, #112]	; (8003910 <_ZN16PositionControll7processEv+0xb0>)
 800389e:	ee17 1a90 	vmov	r1, s15
 80038a2:	f7fe feef 	bl	8002684 <_ZN13MotorControll15set_right_speedEf>
 80038a6:	ee18 1a10 	vmov	r1, s16
 80038aa:	4819      	ldr	r0, [pc, #100]	; (8003910 <_ZN16PositionControll7processEv+0xb0>)
 80038ac:	f7fe fee8 	bl	8002680 <_ZN13MotorControll14set_left_speedEf>
 80038b0:	ecbd 8b02 	vpop	{d8}
 80038b4:	6921      	ldr	r1, [r4, #16]
 80038b6:	4620      	mov	r0, r4
 80038b8:	e8bd 4038 	ldmia.w	sp!, {r3, r4, r5, lr}
 80038bc:	f7ff bfac 	b.w	8003818 <_ZN16PositionControll7is_doneEi>
 80038c0:	4812      	ldr	r0, [pc, #72]	; (800390c <_ZN16PositionControll7processEv+0xac>)
 80038c2:	68a5      	ldr	r5, [r4, #8]
 80038c4:	f7fe fda4 	bl	8002410 <_ZN13EncoderSensor8get_leftEv>
 80038c8:	4285      	cmp	r5, r0
 80038ca:	da09      	bge.n	80038e0 <_ZN16PositionControll7processEv+0x80>
 80038cc:	6861      	ldr	r1, [r4, #4]
 80038ce:	f104 0024 	add.w	r0, r4, #36	; 0x24
 80038d2:	f7ff ffae 	bl	8003832 <_ZN10IntegratorIfE7processEf>
 80038d6:	ed94 8a0a 	vldr	s16, [r4, #40]	; 0x28
 80038da:	eeb1 8a48 	vneg.f32	s16, s16
 80038de:	e7d0      	b.n	8003882 <_ZN16PositionControll7processEv+0x22>
 80038e0:	ed9f 8a0c 	vldr	s16, [pc, #48]	; 8003914 <_ZN16PositionControll7processEv+0xb4>
 80038e4:	e7cd      	b.n	8003882 <_ZN16PositionControll7processEv+0x22>
 80038e6:	4809      	ldr	r0, [pc, #36]	; (800390c <_ZN16PositionControll7processEv+0xac>)
 80038e8:	68e5      	ldr	r5, [r4, #12]
 80038ea:	f7fe fd9d 	bl	8002428 <_ZN13EncoderSensor9get_rightEv>
 80038ee:	4285      	cmp	r5, r0
 80038f0:	da09      	bge.n	8003906 <_ZN16PositionControll7processEv+0xa6>
 80038f2:	6861      	ldr	r1, [r4, #4]
 80038f4:	f104 0044 	add.w	r0, r4, #68	; 0x44
 80038f8:	f7ff ff9b 	bl	8003832 <_ZN10IntegratorIfE7processEf>
 80038fc:	edd4 7a12 	vldr	s15, [r4, #72]	; 0x48
 8003900:	eef1 7a67 	vneg.f32	s15, s15
 8003904:	e7ca      	b.n	800389c <_ZN16PositionControll7processEv+0x3c>
 8003906:	eddf 7a03 	vldr	s15, [pc, #12]	; 8003914 <_ZN16PositionControll7processEv+0xb4>
 800390a:	e7c7      	b.n	800389c <_ZN16PositionControll7processEv+0x3c>
 800390c:	200001a4 	andcs	r0, r0, r4, lsr #3
 8003910:	200002f0 	strdcs	r0, [r0], -r0	; <UNPREDICTABLE>
 8003914:	00000000 	andeq	r0, r0, r0

08003918 <_ZN16PositionControll4stopEv>:
 8003918:	b538      	push	{r3, r4, r5, lr}
 800391a:	ed2d 8b04 	vpush	{d8-d9}
 800391e:	ed9f 9a2a 	vldr	s18, [pc, #168]	; 80039c8 <_ZN16PositionControll4stopEv+0xb0>
 8003922:	4d2a      	ldr	r5, [pc, #168]	; (80039cc <_ZN16PositionControll4stopEv+0xb4>)
 8003924:	4604      	mov	r4, r0
 8003926:	eef0 9a49 	vmov.f32	s19, s18
 800392a:	4628      	mov	r0, r5
 800392c:	f7fe feac 	bl	8002688 <_ZN13MotorControll14get_speed_leftEv>
 8003930:	ee07 0a90 	vmov	s15, r0
 8003934:	eef5 7ac0 	vcmpe.f32	s15, #0.0
 8003938:	eef1 fa10 	vmrs	APSR_nzcv, fpscr
 800393c:	bf48      	it	mi
 800393e:	eef1 7a67 	vnegmi.f32	s15, s15
 8003942:	eef4 7ac9 	vcmpe.f32	s15, s18
 8003946:	eef1 fa10 	vmrs	APSR_nzcv, fpscr
 800394a:	dd20      	ble.n	800398e <_ZN16PositionControll4stopEv+0x76>
 800394c:	2100      	movs	r1, #0
 800394e:	f104 0044 	add.w	r0, r4, #68	; 0x44
 8003952:	f7ff ff6e 	bl	8003832 <_ZN10IntegratorIfE7processEf>
 8003956:	edd4 8a12 	vldr	s17, [r4, #72]	; 0x48
 800395a:	2100      	movs	r1, #0
 800395c:	f104 0024 	add.w	r0, r4, #36	; 0x24
 8003960:	f7ff ff67 	bl	8003832 <_ZN10IntegratorIfE7processEf>
 8003964:	ed94 8a0a 	vldr	s16, [r4, #40]	; 0x28
 8003968:	eef1 8a68 	vneg.f32	s17, s17
 800396c:	ee18 1a90 	vmov	r1, s17
 8003970:	4628      	mov	r0, r5
 8003972:	eeb1 8a48 	vneg.f32	s16, s16
 8003976:	f7fe fe85 	bl	8002684 <_ZN13MotorControll15set_right_speedEf>
 800397a:	ee18 1a10 	vmov	r1, s16
 800397e:	4628      	mov	r0, r5
 8003980:	f7fe fe7e 	bl	8002680 <_ZN13MotorControll14set_left_speedEf>
 8003984:	2104      	movs	r1, #4
 8003986:	4812      	ldr	r0, [pc, #72]	; (80039d0 <_ZN16PositionControll4stopEv+0xb8>)
 8003988:	f7ff f882 	bl	8002a90 <_ZN5Timer8delay_msEj>
 800398c:	e7cd      	b.n	800392a <_ZN16PositionControll4stopEv+0x12>
 800398e:	4628      	mov	r0, r5
 8003990:	f7fe fe7c 	bl	800268c <_ZN13MotorControll15get_speed_rightEv>
 8003994:	ee07 0a90 	vmov	s15, r0
 8003998:	eef5 7ac0 	vcmpe.f32	s15, #0.0
 800399c:	eef1 fa10 	vmrs	APSR_nzcv, fpscr
 80039a0:	bf48      	it	mi
 80039a2:	eef1 7a67 	vnegmi.f32	s15, s15
 80039a6:	eef4 7ae9 	vcmpe.f32	s15, s19
 80039aa:	eef1 fa10 	vmrs	APSR_nzcv, fpscr
 80039ae:	dccd      	bgt.n	800394c <_ZN16PositionControll4stopEv+0x34>
 80039b0:	2100      	movs	r1, #0
 80039b2:	4806      	ldr	r0, [pc, #24]	; (80039cc <_ZN16PositionControll4stopEv+0xb4>)
 80039b4:	f7fe fe66 	bl	8002684 <_ZN13MotorControll15set_right_speedEf>
 80039b8:	ecbd 8b04 	vpop	{d8-d9}
 80039bc:	2100      	movs	r1, #0
 80039be:	4803      	ldr	r0, [pc, #12]	; (80039cc <_ZN16PositionControll4stopEv+0xb4>)
 80039c0:	e8bd 4038 	ldmia.w	sp!, {r3, r4, r5, lr}
 80039c4:	f7fe be5c 	b.w	8002680 <_ZN13MotorControll14set_left_speedEf>
 80039c8:	3c23d70a 	stccc	7, cr13, [r3], #-40	; 0xffffffd8
 80039cc:	200002f0 	strdcs	r0, [r0], -r0	; <UNPREDICTABLE>
 80039d0:	20000388 	andcs	r0, r0, r8, lsl #7

080039d4 <_ZN11LineNetworkD1Ev>:
 80039d4:	b5f8      	push	{r3, r4, r5, r6, r7, lr}
 80039d6:	4604      	mov	r4, r0
 80039d8:	4b0b      	ldr	r3, [pc, #44]	; (8003a08 <_ZN11LineNetworkD1Ev+0x34>)
 80039da:	f844 3b08 	str.w	r3, [r4], #8
 80039de:	2600      	movs	r6, #0
 80039e0:	4605      	mov	r5, r0
 80039e2:	4637      	mov	r7, r6
 80039e4:	686b      	ldr	r3, [r5, #4]
 80039e6:	429e      	cmp	r6, r3
 80039e8:	d209      	bcs.n	80039fe <_ZN11LineNetworkD1Ev+0x2a>
 80039ea:	f854 0b04 	ldr.w	r0, [r4], #4
 80039ee:	b110      	cbz	r0, 80039f6 <_ZN11LineNetworkD1Ev+0x22>
 80039f0:	6803      	ldr	r3, [r0, #0]
 80039f2:	685b      	ldr	r3, [r3, #4]
 80039f4:	4798      	blx	r3
 80039f6:	f844 7c04 	str.w	r7, [r4, #-4]
 80039fa:	3601      	adds	r6, #1
 80039fc:	e7f2      	b.n	80039e4 <_ZN11LineNetworkD1Ev+0x10>
 80039fe:	4628      	mov	r0, r5
 8003a00:	f7fd fbd4 	bl	80011ac <_ZN13NeuralNetworkD1Ev>
 8003a04:	4628      	mov	r0, r5
 8003a06:	bdf8      	pop	{r3, r4, r5, r6, r7, pc}
 8003a08:	08004898 	stmdaeq	r0, {r3, r4, r7, fp, lr}

08003a0c <_ZN11LineNetworkD0Ev>:
 8003a0c:	b510      	push	{r4, lr}
 8003a0e:	4604      	mov	r4, r0
 8003a10:	f7ff ffe0 	bl	80039d4 <_ZN11LineNetworkD1Ev>
 8003a14:	4620      	mov	r0, r4
 8003a16:	21b0      	movs	r1, #176	; 0xb0
 8003a18:	f7fd fd22 	bl	8001460 <_ZdlPvj>
 8003a1c:	4620      	mov	r0, r4
 8003a1e:	bd10      	pop	{r4, pc}

08003a20 <_ZN11LineNetworkC1Ev>:
 8003a20:	e92d 47f0 	stmdb	sp!, {r4, r5, r6, r7, r8, r9, sl, lr}
 8003a24:	4680      	mov	r8, r0
 8003a26:	b094      	sub	sp, #80	; 0x50
 8003a28:	f7fd fbdc 	bl	80011e4 <_ZN13NeuralNetworkC1Ev>
 8003a2c:	4baa      	ldr	r3, [pc, #680]	; (8003cd8 <_ZN11LineNetworkC1Ev+0x2b8>)
 8003a2e:	f8c8 3000 	str.w	r3, [r8]
 8003a32:	2301      	movs	r3, #1
 8003a34:	f8c8 3090 	str.w	r3, [r8, #144]	; 0x90
 8003a38:	f8c8 3094 	str.w	r3, [r8, #148]	; 0x94
 8003a3c:	f8c8 3098 	str.w	r3, [r8, #152]	; 0x98
 8003a40:	2305      	movs	r3, #5
 8003a42:	f8c8 309c 	str.w	r3, [r8, #156]	; 0x9c
 8003a46:	4ba5      	ldr	r3, [pc, #660]	; (8003cdc <_ZN11LineNetworkC1Ev+0x2bc>)
 8003a48:	e893 0007 	ldmia.w	r3, {r0, r1, r2}
 8003a4c:	4ba4      	ldr	r3, [pc, #656]	; (8003ce0 <_ZN11LineNetworkC1Ev+0x2c0>)
 8003a4e:	ac0b      	add	r4, sp, #44	; 0x2c
 8003a50:	e884 0007 	stmia.w	r4, {r0, r1, r2}
 8003a54:	e893 0007 	ldmia.w	r3, {r0, r1, r2}
 8003a58:	4ba2      	ldr	r3, [pc, #648]	; (8003ce4 <_ZN11LineNetworkC1Ev+0x2c4>)
 8003a5a:	ad0e      	add	r5, sp, #56	; 0x38
 8003a5c:	e885 0007 	stmia.w	r5, {r0, r1, r2}
 8003a60:	e893 0007 	ldmia.w	r3, {r0, r1, r2}
 8003a64:	ae11      	add	r6, sp, #68	; 0x44
 8003a66:	f04f 0908 	mov.w	r9, #8
 8003a6a:	e886 0007 	stmia.w	r6, {r0, r1, r2}
 8003a6e:	f8c8 9088 	str.w	r9, [r8, #136]	; 0x88
 8003a72:	f8c8 908c 	str.w	r9, [r8, #140]	; 0x8c
 8003a76:	2038      	movs	r0, #56	; 0x38
 8003a78:	f7fd fcea 	bl	8001450 <_Znwj>
 8003a7c:	23d0      	movs	r3, #208	; 0xd0
 8003a7e:	9309      	str	r3, [sp, #36]	; 0x24
 8003a80:	f240 13f9 	movw	r3, #505	; 0x1f9
 8003a84:	9308      	str	r3, [sp, #32]
 8003a86:	4b98      	ldr	r3, [pc, #608]	; (8003ce8 <_ZN11LineNetworkC1Ev+0x2c8>)
 8003a88:	9307      	str	r3, [sp, #28]
 8003a8a:	4b98      	ldr	r3, [pc, #608]	; (8003cec <_ZN11LineNetworkC1Ev+0x2cc>)
 8003a8c:	9306      	str	r3, [sp, #24]
 8003a8e:	4682      	mov	sl, r0
 8003a90:	e896 0007 	ldmia.w	r6, {r0, r1, r2}
 8003a94:	af03      	add	r7, sp, #12
 8003a96:	e887 0007 	stmia.w	r7, {r0, r1, r2}
 8003a9a:	e895 0007 	ldmia.w	r5, {r0, r1, r2}
 8003a9e:	e88d 0007 	stmia.w	sp, {r0, r1, r2}
 8003aa2:	4650      	mov	r0, sl
 8003aa4:	e894 000e 	ldmia.w	r4, {r1, r2, r3}
 8003aa8:	f7fd fca2 	bl	80013f0 <_ZN19NetConvolutionLayerC1E14sLayerGeometryS0_S0_PKaS2_ii>
 8003aac:	4b90      	ldr	r3, [pc, #576]	; (8003cf0 <_ZN11LineNetworkC1Ev+0x2d0>)
 8003aae:	f8c8 a008 	str.w	sl, [r8, #8]
 8003ab2:	e893 0007 	ldmia.w	r3, {r0, r1, r2}
 8003ab6:	4b8f      	ldr	r3, [pc, #572]	; (8003cf4 <_ZN11LineNetworkC1Ev+0x2d4>)
 8003ab8:	e884 0007 	stmia.w	r4, {r0, r1, r2}
 8003abc:	e893 0007 	ldmia.w	r3, {r0, r1, r2}
 8003ac0:	4b8d      	ldr	r3, [pc, #564]	; (8003cf8 <_ZN11LineNetworkC1Ev+0x2d8>)
 8003ac2:	e885 0007 	stmia.w	r5, {r0, r1, r2}
 8003ac6:	e893 0007 	ldmia.w	r3, {r0, r1, r2}
 8003aca:	e886 0007 	stmia.w	r6, {r0, r1, r2}
 8003ace:	202c      	movs	r0, #44	; 0x2c
 8003ad0:	f7fd fcbe 	bl	8001450 <_Znwj>
 8003ad4:	4682      	mov	sl, r0
 8003ad6:	e896 0007 	ldmia.w	r6, {r0, r1, r2}
 8003ada:	e887 0007 	stmia.w	r7, {r0, r1, r2}
 8003ade:	e895 0007 	ldmia.w	r5, {r0, r1, r2}
 8003ae2:	e88d 0007 	stmia.w	sp, {r0, r1, r2}
 8003ae6:	4650      	mov	r0, sl
 8003ae8:	e894 000e 	ldmia.w	r4, {r1, r2, r3}
 8003aec:	f7fc fefc 	bl	80008e8 <_ZN12NetReluLayerC1E14sLayerGeometryS0_S0_>
 8003af0:	4b82      	ldr	r3, [pc, #520]	; (8003cfc <_ZN11LineNetworkC1Ev+0x2dc>)
 8003af2:	f8c8 a00c 	str.w	sl, [r8, #12]
 8003af6:	e893 0007 	ldmia.w	r3, {r0, r1, r2}
 8003afa:	4b81      	ldr	r3, [pc, #516]	; (8003d00 <_ZN11LineNetworkC1Ev+0x2e0>)
 8003afc:	e884 0007 	stmia.w	r4, {r0, r1, r2}
 8003b00:	e893 0007 	ldmia.w	r3, {r0, r1, r2}
 8003b04:	4b7f      	ldr	r3, [pc, #508]	; (8003d04 <_ZN11LineNetworkC1Ev+0x2e4>)
 8003b06:	e885 0007 	stmia.w	r5, {r0, r1, r2}
 8003b0a:	e893 0007 	ldmia.w	r3, {r0, r1, r2}
 8003b0e:	e886 0007 	stmia.w	r6, {r0, r1, r2}
 8003b12:	2028      	movs	r0, #40	; 0x28
 8003b14:	f7fd fc9c 	bl	8001450 <_Znwj>
 8003b18:	4682      	mov	sl, r0
 8003b1a:	e896 0007 	ldmia.w	r6, {r0, r1, r2}
 8003b1e:	e887 0007 	stmia.w	r7, {r0, r1, r2}
 8003b22:	e895 0007 	ldmia.w	r5, {r0, r1, r2}
 8003b26:	e88d 0007 	stmia.w	sp, {r0, r1, r2}
 8003b2a:	4650      	mov	r0, sl
 8003b2c:	e894 000e 	ldmia.w	r4, {r1, r2, r3}
 8003b30:	f7fd fb08 	bl	8001144 <_ZN18NetMaxPoolingLayerC1E14sLayerGeometryS0_S0_>
 8003b34:	4b74      	ldr	r3, [pc, #464]	; (8003d08 <_ZN11LineNetworkC1Ev+0x2e8>)
 8003b36:	f8c8 a010 	str.w	sl, [r8, #16]
 8003b3a:	e893 0007 	ldmia.w	r3, {r0, r1, r2}
 8003b3e:	4b73      	ldr	r3, [pc, #460]	; (8003d0c <_ZN11LineNetworkC1Ev+0x2ec>)
 8003b40:	e884 0007 	stmia.w	r4, {r0, r1, r2}
 8003b44:	e893 0007 	ldmia.w	r3, {r0, r1, r2}
 8003b48:	4b71      	ldr	r3, [pc, #452]	; (8003d10 <_ZN11LineNetworkC1Ev+0x2f0>)
 8003b4a:	e885 0007 	stmia.w	r5, {r0, r1, r2}
 8003b4e:	e893 0007 	ldmia.w	r3, {r0, r1, r2}
 8003b52:	e886 0007 	stmia.w	r6, {r0, r1, r2}
 8003b56:	2038      	movs	r0, #56	; 0x38
 8003b58:	f7fd fc7a 	bl	8001450 <_Znwj>
 8003b5c:	2386      	movs	r3, #134	; 0x86
 8003b5e:	9309      	str	r3, [sp, #36]	; 0x24
 8003b60:	f44f 73e5 	mov.w	r3, #458	; 0x1ca
 8003b64:	9308      	str	r3, [sp, #32]
 8003b66:	4b6b      	ldr	r3, [pc, #428]	; (8003d14 <_ZN11LineNetworkC1Ev+0x2f4>)
 8003b68:	9307      	str	r3, [sp, #28]
 8003b6a:	4b6b      	ldr	r3, [pc, #428]	; (8003d18 <_ZN11LineNetworkC1Ev+0x2f8>)
 8003b6c:	9306      	str	r3, [sp, #24]
 8003b6e:	4682      	mov	sl, r0
 8003b70:	e896 0007 	ldmia.w	r6, {r0, r1, r2}
 8003b74:	e887 0007 	stmia.w	r7, {r0, r1, r2}
 8003b78:	e895 0007 	ldmia.w	r5, {r0, r1, r2}
 8003b7c:	e88d 0007 	stmia.w	sp, {r0, r1, r2}
 8003b80:	4650      	mov	r0, sl
 8003b82:	e894 000e 	ldmia.w	r4, {r1, r2, r3}
 8003b86:	f7fd f961 	bl	8000e4c <_ZN24NetDenseConvolutionLayerC1E14sLayerGeometryS0_S0_PKaS2_ii>
 8003b8a:	4b64      	ldr	r3, [pc, #400]	; (8003d1c <_ZN11LineNetworkC1Ev+0x2fc>)
 8003b8c:	f8c8 a014 	str.w	sl, [r8, #20]
 8003b90:	e893 0007 	ldmia.w	r3, {r0, r1, r2}
 8003b94:	4b62      	ldr	r3, [pc, #392]	; (8003d20 <_ZN11LineNetworkC1Ev+0x300>)
 8003b96:	e884 0007 	stmia.w	r4, {r0, r1, r2}
 8003b9a:	e893 0007 	ldmia.w	r3, {r0, r1, r2}
 8003b9e:	4b61      	ldr	r3, [pc, #388]	; (8003d24 <_ZN11LineNetworkC1Ev+0x304>)
 8003ba0:	e885 0007 	stmia.w	r5, {r0, r1, r2}
 8003ba4:	e893 0007 	ldmia.w	r3, {r0, r1, r2}
 8003ba8:	e886 0007 	stmia.w	r6, {r0, r1, r2}
 8003bac:	202c      	movs	r0, #44	; 0x2c
 8003bae:	f7fd fc4f 	bl	8001450 <_Znwj>
 8003bb2:	4682      	mov	sl, r0
 8003bb4:	e896 0007 	ldmia.w	r6, {r0, r1, r2}
 8003bb8:	e887 0007 	stmia.w	r7, {r0, r1, r2}
 8003bbc:	e895 0007 	ldmia.w	r5, {r0, r1, r2}
 8003bc0:	e88d 0007 	stmia.w	sp, {r0, r1, r2}
 8003bc4:	4650      	mov	r0, sl
 8003bc6:	e894 000e 	ldmia.w	r4, {r1, r2, r3}
 8003bca:	f7fc fe8d 	bl	80008e8 <_ZN12NetReluLayerC1E14sLayerGeometryS0_S0_>
 8003bce:	4b56      	ldr	r3, [pc, #344]	; (8003d28 <_ZN11LineNetworkC1Ev+0x308>)
 8003bd0:	f8c8 a018 	str.w	sl, [r8, #24]
 8003bd4:	e893 0007 	ldmia.w	r3, {r0, r1, r2}
 8003bd8:	4b54      	ldr	r3, [pc, #336]	; (8003d2c <_ZN11LineNetworkC1Ev+0x30c>)
 8003bda:	e884 0007 	stmia.w	r4, {r0, r1, r2}
 8003bde:	e893 0007 	ldmia.w	r3, {r0, r1, r2}
 8003be2:	4b53      	ldr	r3, [pc, #332]	; (8003d30 <_ZN11LineNetworkC1Ev+0x310>)
 8003be4:	e885 0007 	stmia.w	r5, {r0, r1, r2}
 8003be8:	e893 0007 	ldmia.w	r3, {r0, r1, r2}
 8003bec:	e886 0007 	stmia.w	r6, {r0, r1, r2}
 8003bf0:	2038      	movs	r0, #56	; 0x38
 8003bf2:	f7fd fc2d 	bl	8001450 <_Znwj>
 8003bf6:	2366      	movs	r3, #102	; 0x66
 8003bf8:	9309      	str	r3, [sp, #36]	; 0x24
 8003bfa:	f240 13b7 	movw	r3, #439	; 0x1b7
 8003bfe:	9308      	str	r3, [sp, #32]
 8003c00:	4b4c      	ldr	r3, [pc, #304]	; (8003d34 <_ZN11LineNetworkC1Ev+0x314>)
 8003c02:	9307      	str	r3, [sp, #28]
 8003c04:	4b4c      	ldr	r3, [pc, #304]	; (8003d38 <_ZN11LineNetworkC1Ev+0x318>)
 8003c06:	9306      	str	r3, [sp, #24]
 8003c08:	4682      	mov	sl, r0
 8003c0a:	e896 0007 	ldmia.w	r6, {r0, r1, r2}
 8003c0e:	e887 0007 	stmia.w	r7, {r0, r1, r2}
 8003c12:	e895 0007 	ldmia.w	r5, {r0, r1, r2}
 8003c16:	e88d 0007 	stmia.w	sp, {r0, r1, r2}
 8003c1a:	4650      	mov	r0, sl
 8003c1c:	e894 000e 	ldmia.w	r4, {r1, r2, r3}
 8003c20:	f7fd f914 	bl	8000e4c <_ZN24NetDenseConvolutionLayerC1E14sLayerGeometryS0_S0_PKaS2_ii>
 8003c24:	4b45      	ldr	r3, [pc, #276]	; (8003d3c <_ZN11LineNetworkC1Ev+0x31c>)
 8003c26:	f8c8 a01c 	str.w	sl, [r8, #28]
 8003c2a:	e893 0007 	ldmia.w	r3, {r0, r1, r2}
 8003c2e:	4b44      	ldr	r3, [pc, #272]	; (8003d40 <_ZN11LineNetworkC1Ev+0x320>)
 8003c30:	e884 0007 	stmia.w	r4, {r0, r1, r2}
 8003c34:	e893 0007 	ldmia.w	r3, {r0, r1, r2}
 8003c38:	4b42      	ldr	r3, [pc, #264]	; (8003d44 <_ZN11LineNetworkC1Ev+0x324>)
 8003c3a:	e885 0007 	stmia.w	r5, {r0, r1, r2}
 8003c3e:	e893 0007 	ldmia.w	r3, {r0, r1, r2}
 8003c42:	e886 0007 	stmia.w	r6, {r0, r1, r2}
 8003c46:	202c      	movs	r0, #44	; 0x2c
 8003c48:	f7fd fc02 	bl	8001450 <_Znwj>
 8003c4c:	4682      	mov	sl, r0
 8003c4e:	e896 0007 	ldmia.w	r6, {r0, r1, r2}
 8003c52:	e887 0007 	stmia.w	r7, {r0, r1, r2}
 8003c56:	e895 0007 	ldmia.w	r5, {r0, r1, r2}
 8003c5a:	e88d 0007 	stmia.w	sp, {r0, r1, r2}
 8003c5e:	4650      	mov	r0, sl
 8003c60:	e894 000e 	ldmia.w	r4, {r1, r2, r3}
 8003c64:	f7fc fe40 	bl	80008e8 <_ZN12NetReluLayerC1E14sLayerGeometryS0_S0_>
 8003c68:	4b37      	ldr	r3, [pc, #220]	; (8003d48 <_ZN11LineNetworkC1Ev+0x328>)
 8003c6a:	f8c8 a020 	str.w	sl, [r8, #32]
 8003c6e:	e893 0007 	ldmia.w	r3, {r0, r1, r2}
 8003c72:	4b36      	ldr	r3, [pc, #216]	; (8003d4c <_ZN11LineNetworkC1Ev+0x32c>)
 8003c74:	e884 0007 	stmia.w	r4, {r0, r1, r2}
 8003c78:	e893 0007 	ldmia.w	r3, {r0, r1, r2}
 8003c7c:	4b34      	ldr	r3, [pc, #208]	; (8003d50 <_ZN11LineNetworkC1Ev+0x330>)
 8003c7e:	e885 0007 	stmia.w	r5, {r0, r1, r2}
 8003c82:	e893 0007 	ldmia.w	r3, {r0, r1, r2}
 8003c86:	e886 0007 	stmia.w	r6, {r0, r1, r2}
 8003c8a:	2040      	movs	r0, #64	; 0x40
 8003c8c:	f7fd fbe0 	bl	8001450 <_Znwj>
 8003c90:	f240 1325 	movw	r3, #293	; 0x125
 8003c94:	9309      	str	r3, [sp, #36]	; 0x24
 8003c96:	f44f 73d4 	mov.w	r3, #424	; 0x1a8
 8003c9a:	9308      	str	r3, [sp, #32]
 8003c9c:	4b2d      	ldr	r3, [pc, #180]	; (8003d54 <_ZN11LineNetworkC1Ev+0x334>)
 8003c9e:	9307      	str	r3, [sp, #28]
 8003ca0:	4b2d      	ldr	r3, [pc, #180]	; (8003d58 <_ZN11LineNetworkC1Ev+0x338>)
 8003ca2:	9306      	str	r3, [sp, #24]
 8003ca4:	4682      	mov	sl, r0
 8003ca6:	e896 0007 	ldmia.w	r6, {r0, r1, r2}
 8003caa:	e887 0007 	stmia.w	r7, {r0, r1, r2}
 8003cae:	e895 0007 	ldmia.w	r5, {r0, r1, r2}
 8003cb2:	e88d 0007 	stmia.w	sp, {r0, r1, r2}
 8003cb6:	4650      	mov	r0, sl
 8003cb8:	e894 000e 	ldmia.w	r4, {r1, r2, r3}
 8003cbc:	f7fc fdba 	bl	8000834 <_ZN10NetFcLayerC1E14sLayerGeometryS0_S0_PKaS2_ii>
 8003cc0:	4640      	mov	r0, r8
 8003cc2:	f8c8 a024 	str.w	sl, [r8, #36]	; 0x24
 8003cc6:	f8c8 9004 	str.w	r9, [r8, #4]
 8003cca:	f7fd fb14 	bl	80012f6 <_ZN13NeuralNetwork15allocate_bufferEv>
 8003cce:	4640      	mov	r0, r8
 8003cd0:	b014      	add	sp, #80	; 0x50
 8003cd2:	e8bd 87f0 	ldmia.w	sp!, {r4, r5, r6, r7, r8, r9, sl, pc}
 8003cd6:	bf00      	nop
 8003cd8:	08004898 	stmdaeq	r0, {r3, r4, r7, fp, lr}
 8003cdc:	0800486c 	stmdaeq	r0, {r2, r3, r5, r6, fp, lr}
 8003ce0:	08004830 	stmdaeq	r0, {r4, r5, fp, lr}
 8003ce4:	0800483c 	stmdaeq	r0, {r2, r3, r4, r5, fp, lr}
 8003ce8:	08004288 	stmdaeq	r0, {r3, r7, r9, lr}
 8003cec:	08004299 	stmdaeq	r0, {r0, r3, r4, r7, r9, lr}
 8003cf0:	0800483c 	stmdaeq	r0, {r2, r3, r4, r5, fp, lr}
 8003cf4:	0800483c 	stmdaeq	r0, {r2, r3, r4, r5, fp, lr}
 8003cf8:	0800483c 	stmdaeq	r0, {r2, r3, r4, r5, fp, lr}
 8003cfc:	08004860 	stmdaeq	r0, {r5, r6, fp, lr}
 8003d00:	0800483c 	stmdaeq	r0, {r2, r3, r4, r5, fp, lr}
 8003d04:	08004848 	stmdaeq	r0, {r3, r6, fp, lr}
 8003d08:	0800486c 	stmdaeq	r0, {r2, r3, r5, r6, fp, lr}
 8003d0c:	08004848 	stmdaeq	r0, {r3, r6, fp, lr}
 8003d10:	08004854 	stmdaeq	r0, {r2, r4, r6, fp, lr}
 8003d14:	0800428c 	stmdaeq	r0, {r2, r3, r7, r9, lr}
 8003d18:	080042bd 	stmdaeq	r0, {r0, r2, r3, r4, r5, r7, r9, lr}
 8003d1c:	08004854 	stmdaeq	r0, {r2, r4, r6, fp, lr}
 8003d20:	08004854 	stmdaeq	r0, {r2, r4, r6, fp, lr}
 8003d24:	08004854 	stmdaeq	r0, {r2, r4, r6, fp, lr}
 8003d28:	0800486c 	stmdaeq	r0, {r2, r3, r5, r6, fp, lr}
 8003d2c:	08004854 	stmdaeq	r0, {r2, r4, r6, fp, lr}
 8003d30:	08004878 	stmdaeq	r0, {r3, r4, r5, r6, fp, lr}
 8003d34:	08004290 	stmdaeq	r0, {r4, r7, r9, lr}
 8003d38:	0800434d 	stmdaeq	r0, {r0, r2, r3, r6, r8, r9, lr}
 8003d3c:	08004878 	stmdaeq	r0, {r3, r4, r5, r6, fp, lr}
 8003d40:	08004878 	stmdaeq	r0, {r3, r4, r5, r6, fp, lr}
 8003d44:	08004878 	stmdaeq	r0, {r3, r4, r5, r6, fp, lr}
 8003d48:	08004878 	stmdaeq	r0, {r3, r4, r5, r6, fp, lr}
 8003d4c:	08004878 	stmdaeq	r0, {r3, r4, r5, r6, fp, lr}
 8003d50:	08004884 	stmdaeq	r0, {r2, r7, fp, lr}
 8003d54:	08004294 	stmdaeq	r0, {r2, r4, r7, r9, lr}
 8003d58:	0800446d 	stmdaeq	r0, {r0, r2, r3, r5, r6, sl, lr}

08003d5c <_ZN10BrickAvoidC1Ev>:
 8003d5c:	b538      	push	{r3, r4, r5, lr}
 8003d5e:	4604      	mov	r4, r0
 8003d60:	4b06      	ldr	r3, [pc, #24]	; (8003d7c <_ZN10BrickAvoidC1Ev+0x20>)
 8003d62:	f844 3b04 	str.w	r3, [r4], #4
 8003d66:	4605      	mov	r5, r0
 8003d68:	4620      	mov	r0, r4
 8003d6a:	f7ff fd03 	bl	8003774 <_ZN16PositionControllC1Ev>
 8003d6e:	4620      	mov	r0, r4
 8003d70:	4903      	ldr	r1, [pc, #12]	; (8003d80 <_ZN10BrickAvoidC1Ev+0x24>)
 8003d72:	f7ff fd25 	bl	80037c0 <_ZN16PositionControll4initEf>
 8003d76:	4628      	mov	r0, r5
 8003d78:	bd38      	pop	{r3, r4, r5, pc}
 8003d7a:	bf00      	nop
 8003d7c:	080048b0 	stmdaeq	r0, {r4, r5, r7, fp, lr}
 8003d80:	3f333333 	svccc	0x00333333

08003d84 <_ZN10BrickAvoid12process_moveEll>:
 8003d84:	b538      	push	{r3, r4, r5, lr}
 8003d86:	1d04      	adds	r4, r0, #4
 8003d88:	2305      	movs	r3, #5
 8003d8a:	4620      	mov	r0, r4
 8003d8c:	f7ff fcb8 	bl	8003700 <_ZN16PositionControll12set_positionElli>
 8003d90:	4d09      	ldr	r5, [pc, #36]	; (8003db8 <_ZN10BrickAvoid12process_moveEll+0x34>)
 8003d92:	2105      	movs	r1, #5
 8003d94:	4620      	mov	r0, r4
 8003d96:	f7ff fd3f 	bl	8003818 <_ZN16PositionControll7is_doneEi>
 8003d9a:	b938      	cbnz	r0, 8003dac <_ZN10BrickAvoid12process_moveEll+0x28>
 8003d9c:	4620      	mov	r0, r4
 8003d9e:	f7ff fd5f 	bl	8003860 <_ZN16PositionControll7processEv>
 8003da2:	2104      	movs	r1, #4
 8003da4:	4628      	mov	r0, r5
 8003da6:	f7fe fe73 	bl	8002a90 <_ZN5Timer8delay_msEj>
 8003daa:	e7f2      	b.n	8003d92 <_ZN10BrickAvoid12process_moveEll+0xe>
 8003dac:	4620      	mov	r0, r4
 8003dae:	e8bd 4038 	ldmia.w	sp!, {r3, r4, r5, lr}
 8003db2:	f7ff bdb1 	b.w	8003918 <_ZN16PositionControll4stopEv>
 8003db6:	bf00      	nop
 8003db8:	20000388 	andcs	r0, r0, r8, lsl #7

08003dbc <_ZN10BrickAvoidD1Ev>:
 8003dbc:	b510      	push	{r4, lr}
 8003dbe:	4b04      	ldr	r3, [pc, #16]	; (8003dd0 <_ZN10BrickAvoidD1Ev+0x14>)
 8003dc0:	4604      	mov	r4, r0
 8003dc2:	f840 3b04 	str.w	r3, [r0], #4
 8003dc6:	f7ff fc8b 	bl	80036e0 <_ZN16PositionControllD1Ev>
 8003dca:	4620      	mov	r0, r4
 8003dcc:	bd10      	pop	{r4, pc}
 8003dce:	bf00      	nop
 8003dd0:	080048b0 	stmdaeq	r0, {r4, r5, r7, fp, lr}

08003dd4 <_ZN10BrickAvoidD0Ev>:
 8003dd4:	b510      	push	{r4, lr}
 8003dd6:	4604      	mov	r4, r0
 8003dd8:	f7ff fff0 	bl	8003dbc <_ZN10BrickAvoidD1Ev>
 8003ddc:	4620      	mov	r0, r4
 8003dde:	2158      	movs	r1, #88	; 0x58
 8003de0:	f7fd fb3e 	bl	8001460 <_ZdlPvj>
 8003de4:	4620      	mov	r0, r4
 8003de6:	bd10      	pop	{r4, pc}

08003de8 <_ZN10BrickAvoid5avoidEj>:
 8003de8:	b5f0      	push	{r4, r5, r6, r7, lr}
 8003dea:	ed2d 8b04 	vpush	{d8-d9}
 8003dee:	f06f 022b 	mvn.w	r2, #43	; 0x2b
 8003df2:	b08f      	sub	sp, #60	; 0x3c
 8003df4:	4611      	mov	r1, r2
 8003df6:	4605      	mov	r5, r0
 8003df8:	f7ff ffc4 	bl	8003d84 <_ZN10BrickAvoid12process_moveEll>
 8003dfc:	2258      	movs	r2, #88	; 0x58
 8003dfe:	2100      	movs	r1, #0
 8003e00:	4628      	mov	r0, r5
 8003e02:	f7ff ffbf 	bl	8003d84 <_ZN10BrickAvoid12process_moveEll>
 8003e06:	f04f 537e 	mov.w	r3, #1065353216	; 0x3f800000
 8003e0a:	9300      	str	r3, [sp, #0]
 8003e0c:	2300      	movs	r3, #0
 8003e0e:	461a      	mov	r2, r3
 8003e10:	4619      	mov	r1, r3
 8003e12:	a803      	add	r0, sp, #12
 8003e14:	f7fd fb50 	bl	80014b8 <_ZN3PIDC1Effff>
 8003e18:	4c2e      	ldr	r4, [pc, #184]	; (8003ed4 <_ZN10BrickAvoid5avoidEj+0xec>)
 8003e1a:	4b2f      	ldr	r3, [pc, #188]	; (8003ed8 <_ZN10BrickAvoid5avoidEj+0xf0>)
 8003e1c:	9300      	str	r3, [sp, #0]
 8003e1e:	2200      	movs	r2, #0
 8003e20:	4b2e      	ldr	r3, [pc, #184]	; (8003edc <_ZN10BrickAvoid5avoidEj+0xf4>)
 8003e22:	492f      	ldr	r1, [pc, #188]	; (8003ee0 <_ZN10BrickAvoid5avoidEj+0xf8>)
 8003e24:	eddf 8a2f 	vldr	s17, [pc, #188]	; 8003ee4 <_ZN10BrickAvoid5avoidEj+0xfc>
 8003e28:	ed9f 8a2f 	vldr	s16, [pc, #188]	; 8003ee8 <_ZN10BrickAvoid5avoidEj+0x100>
 8003e2c:	eddf 9a2f 	vldr	s19, [pc, #188]	; 8003eec <_ZN10BrickAvoid5avoidEj+0x104>
 8003e30:	4e2f      	ldr	r6, [pc, #188]	; (8003ef0 <_ZN10BrickAvoid5avoidEj+0x108>)
 8003e32:	a803      	add	r0, sp, #12
 8003e34:	f7fd fb29 	bl	800148a <_ZN3PID4initEffff>
 8003e38:	edd4 7a03 	vldr	s15, [r4, #12]
 8003e3c:	eef8 7ae7 	vcvt.f32.s32	s15, s15
 8003e40:	a803      	add	r0, sp, #12
 8003e42:	ee87 7aa8 	vdiv.f32	s14, s15, s17
 8003e46:	4627      	mov	r7, r4
 8003e48:	ee17 1a10 	vmov	r1, s14
 8003e4c:	f7fd fb80 	bl	8001550 <_ZN3PID5resetEf>
 8003e50:	4638      	mov	r0, r7
 8003e52:	f7fe fd9d 	bl	8002990 <_ZN14DistanceSensor5readyEv>
 8003e56:	2800      	cmp	r0, #0
 8003e58:	d0fa      	beq.n	8003e50 <_ZN10BrickAvoid5avoidEj+0x68>
 8003e5a:	eeb4 8ae9 	vcmpe.f32	s16, s19
 8003e5e:	eef1 fa10 	vmrs	APSR_nzcv, fpscr
 8003e62:	bf4a      	itet	mi
 8003e64:	eddf 7a23 	vldrmi	s15, [pc, #140]	; 8003ef4 <_ZN10BrickAvoid5avoidEj+0x10c>
 8003e68:	ed9f 8a20 	vldrpl	s16, [pc, #128]	; 8003eec <_ZN10BrickAvoid5avoidEj+0x104>
 8003e6c:	ee38 8a27 	vaddmi.f32	s16, s16, s15
 8003e70:	edd4 7a03 	vldr	s15, [r4, #12]
 8003e74:	eef8 7ae7 	vcvt.f32.s32	s15, s15
 8003e78:	a803      	add	r0, sp, #12
 8003e7a:	ee87 7aa8 	vdiv.f32	s14, s15, s17
 8003e7e:	eddf 7a1e 	vldr	s15, [pc, #120]	; 8003ef8 <_ZN10BrickAvoid5avoidEj+0x110>
 8003e82:	ee77 7ac7 	vsub.f32	s15, s15, s14
 8003e86:	ee17 2a10 	vmov	r2, s14
 8003e8a:	ee17 1a90 	vmov	r1, s15
 8003e8e:	f7fd fb1f 	bl	80014d0 <_ZN3PID7processEff>
 8003e92:	ee07 0a90 	vmov	s15, r0
 8003e96:	ee37 9a88 	vadd.f32	s18, s15, s16
 8003e9a:	ee78 7a67 	vsub.f32	s15, s16, s15
 8003e9e:	4630      	mov	r0, r6
 8003ea0:	ee17 1a90 	vmov	r1, s15
 8003ea4:	f7fe fbec 	bl	8002680 <_ZN13MotorControll14set_left_speedEf>
 8003ea8:	ee19 1a10 	vmov	r1, s18
 8003eac:	4630      	mov	r0, r6
 8003eae:	f7fe fbe9 	bl	8002684 <_ZN13MotorControll15set_right_speedEf>
 8003eb2:	4b12      	ldr	r3, [pc, #72]	; (8003efc <_ZN10BrickAvoid5avoidEj+0x114>)
 8003eb4:	f893 30c0 	ldrb.w	r3, [r3, #192]	; 0xc0
 8003eb8:	2b00      	cmp	r3, #0
 8003eba:	d0c9      	beq.n	8003e50 <_ZN10BrickAvoid5avoidEj+0x68>
 8003ebc:	2272      	movs	r2, #114	; 0x72
 8003ebe:	2100      	movs	r1, #0
 8003ec0:	4628      	mov	r0, r5
 8003ec2:	f7ff ff5f 	bl	8003d84 <_ZN10BrickAvoid12process_moveEll>
 8003ec6:	a803      	add	r0, sp, #12
 8003ec8:	f7fd fad7 	bl	800147a <_ZN3PIDD1Ev>
 8003ecc:	b00f      	add	sp, #60	; 0x3c
 8003ece:	ecbd 8b04 	vpop	{d8-d9}
 8003ed2:	bdf0      	pop	{r4, r5, r6, r7, pc}
 8003ed4:	20000158 	andcs	r0, r0, r8, asr r1
 8003ed8:	41200000 			; <UNDEFINED> instruction: 0x41200000
 8003edc:	3e4ccccd 	cdpcc	12, 4, cr12, cr12, cr13, {6}
 8003ee0:	3ecccccd 	cdpcc	12, 12, cr12, cr12, cr13, {6}
 8003ee4:	42c80000 	sbcmi	r0, r8, #0
 8003ee8:	00000000 	andeq	r0, r0, r0
 8003eec:	3ecccccd 	cdpcc	12, 12, cr12, cr12, cr13, {6}
 8003ef0:	200002f0 	strdcs	r0, [r0], -r0	; <UNPREDICTABLE>
 8003ef4:	3ca3d70a 	stccc	7, cr13, [r3], #40	; 0x28
 8003ef8:	400ccccd 	andmi	ip, ip, sp, asr #25
 8003efc:	20000224 	andcs	r0, r0, r4, lsr #4

08003f00 <_ZTV9SpeedRampIfE>:
 8003f00:	00000000 	andeq	r0, r0, r0
 8003f04:	00000000 	andeq	r0, r0, r0
 8003f08:	08000491 	stmdaeq	r0, {r0, r4, r7, sl}
 8003f0c:	08000493 	stmdaeq	r0, {r0, r1, r4, r7, sl}

08003f10 <_ZTV5Robot>:
 8003f10:	00000000 	andeq	r0, r0, r0
 8003f14:	00000000 	andeq	r0, r0, r0
 8003f18:	080006a5 	stmdaeq	r0, {r0, r2, r5, r7, r9, sl}
 8003f1c:	080006dd 	stmdaeq	r0, {r0, r2, r3, r4, r6, r7, r9, sl}

08003f20 <_ZTV13I2C_Interface>:
 8003f20:	00000000 	andeq	r0, r0, r0
 8003f24:	00000000 	andeq	r0, r0, r0
 8003f28:	080006f3 	stmdaeq	r0, {r0, r1, r4, r5, r6, r7, r9, sl}
 8003f2c:	080006f5 	stmdaeq	r0, {r0, r2, r4, r5, r6, r7, r9, sl}
 8003f30:	080006f7 	stmdaeq	r0, {r0, r1, r2, r4, r5, r6, r7, r9, sl}
 8003f34:	080006fd 	stmdaeq	r0, {r0, r2, r3, r4, r5, r6, r7, r9, sl}
 8003f38:	08000701 	stmdaeq	r0, {r0, r8, r9, sl}

08003f3c <_ZTV10NetFcLayer>:
 8003f3c:	00000000 	andeq	r0, r0, r0
 8003f40:	00000000 	andeq	r0, r0, r0
 8003f44:	080007ad 	stmdaeq	r0, {r0, r2, r3, r5, r7, r8, r9, sl}
 8003f48:	080007c1 	stmdaeq	r0, {r0, r6, r7, r8, r9, sl}
 8003f4c:	080007d5 	stmdaeq	r0, {r0, r2, r4, r6, r7, r8, r9, sl}

08003f50 <_ZTV12NetReluLayer>:
 8003f50:	00000000 	andeq	r0, r0, r0
 8003f54:	00000000 	andeq	r0, r0, r0
 8003f58:	080008c1 	stmdaeq	r0, {r0, r6, r7, fp}
 8003f5c:	080008d5 	stmdaeq	r0, {r0, r2, r4, r6, r7, fp}
 8003f60:	0800089d 	stmdaeq	r0, {r0, r2, r3, r4, r7, fp}

08003f64 <_ZTV24NetDenseConvolutionLayer>:
 8003f64:	00000000 	andeq	r0, r0, r0
 8003f68:	00000000 	andeq	r0, r0, r0
 8003f6c:	08000dc5 	stmdaeq	r0, {r0, r2, r6, r7, r8, sl, fp}
 8003f70:	08000dd9 	stmdaeq	r0, {r0, r3, r4, r6, r7, r8, sl, fp}
 8003f74:	08000ded 	stmdaeq	r0, {r0, r2, r3, r5, r6, r7, r8, sl, fp}

08003f78 <_ZTV18NetMaxPoolingLayer>:
 8003f78:	00000000 	andeq	r0, r0, r0
 8003f7c:	00000000 	andeq	r0, r0, r0
 8003f80:	08000e9d 	stmdaeq	r0, {r0, r2, r3, r4, r7, r9, sl, fp}
 8003f84:	08000eb1 	stmdaeq	r0, {r0, r4, r5, r7, r9, sl, fp}
 8003f88:	08000ec5 	stmdaeq	r0, {r0, r2, r6, r7, r9, sl, fp}

08003f8c <_ZTV13NeuralNetwork>:
 8003f8c:	00000000 	andeq	r0, r0, r0
 8003f90:	00000000 	andeq	r0, r0, r0
 8003f94:	080011ad 	stmdaeq	r0, {r0, r2, r3, r5, r7, r8, ip}
 8003f98:	080011d1 	stmdaeq	r0, {r0, r4, r6, r7, r8, ip}
 8003f9c:	08001185 	stmdaeq	r0, {r0, r2, r7, r8, ip}
 8003fa0:	080012f7 	stmdaeq	r0, {r0, r1, r2, r4, r5, r6, r7, r9, ip}

08003fa4 <_ZTV12NetworkLayer>:
 8003fa4:	00000000 	andeq	r0, r0, r0
 8003fa8:	00000000 	andeq	r0, r0, r0
 8003fac:	0800135f 	stmdaeq	r0, {r0, r1, r2, r3, r4, r6, r8, r9, ip}
 8003fb0:	08001363 	stmdaeq	r0, {r0, r1, r5, r6, r8, r9, ip}
 8003fb4:	08001361 	stmdaeq	r0, {r0, r5, r6, r8, r9, ip}

08003fb8 <_ZTV19NetConvolutionLayer>:
 8003fb8:	00000000 	andeq	r0, r0, r0
 8003fbc:	00000000 	andeq	r0, r0, r0
 8003fc0:	08001391 	stmdaeq	r0, {r0, r4, r7, r8, r9, ip}
 8003fc4:	080013a5 	stmdaeq	r0, {r0, r2, r5, r7, r8, r9, ip}
 8003fc8:	080013b9 	stmdaeq	r0, {r0, r3, r4, r5, r7, r8, r9, ip}

08003fcc <_ZTV3PID>:
 8003fcc:	00000000 	andeq	r0, r0, r0
 8003fd0:	00000000 	andeq	r0, r0, r0
 8003fd4:	0800147b 	stmdaeq	r0, {r0, r1, r3, r4, r5, r6, sl, ip}
 8003fd8:	0800147d 	stmdaeq	r0, {r0, r2, r3, r4, r5, r6, sl, ip}

08003fdc <_ZTV8Terminal>:
 8003fdc:	00000000 	andeq	r0, r0, r0
 8003fe0:	00000000 	andeq	r0, r0, r0
 8003fe4:	08001599 	stmdaeq	r0, {r0, r3, r4, r7, r8, sl, ip}
 8003fe8:	080015ad 	stmdaeq	r0, {r0, r2, r3, r5, r7, r8, sl, ip}

08003fec <_ZTV5Motor>:
 8003fec:	00000000 	andeq	r0, r0, r0
 8003ff0:	00000000 	andeq	r0, r0, r0
 8003ff4:	0800171d 	stmdaeq	r0, {r0, r2, r3, r4, r8, r9, sl, ip}
 8003ff8:	0800171f 	stmdaeq	r0, {r0, r1, r2, r3, r4, r8, r9, sl, ip}

08003ffc <_ZTV3Key>:
 8003ffc:	00000000 	andeq	r0, r0, r0
 8004000:	00000000 	andeq	r0, r0, r0
 8004004:	080019e1 	stmdaeq	r0, {r0, r5, r6, r7, r8, fp, ip}
 8004008:	080019e3 	stmdaeq	r0, {r0, r1, r5, r6, r7, r8, fp, ip}
 800400c:	080019f1 	stmdaeq	r0, {r0, r4, r5, r6, r7, r8, fp, ip}

08004010 <CSWTCH.10>:
 8004010:	01040302 	tsteq	r4, r2, lsl #6
 8004014:	0c040302 	stceq	3, cr0, [r4], {2}
 8004018:	00000601 	andeq	r0, r0, r1, lsl #12

0800401c <CSWTCH.9>:
 800401c:	50000000 	andpl	r0, r0, r0
 8004020:	50000000 	andpl	r0, r0, r0
 8004024:	50000000 	andpl	r0, r0, r0
 8004028:	50000100 	andpl	r0, r0, r0, lsl #2
 800402c:	50000100 	andpl	r0, r0, r0, lsl #2
 8004030:	50000100 	andpl	r0, r0, r0, lsl #2
 8004034:	50000100 	andpl	r0, r0, r0, lsl #2
 8004038:	50000400 	andpl	r0, r0, r0, lsl #8
 800403c:	50000400 	andpl	r0, r0, r0, lsl #8
 8004040:	50000000 	andpl	r0, r0, r0

08004044 <_ZTV3ADC>:
 8004044:	00000000 	andeq	r0, r0, r0
 8004048:	00000000 	andeq	r0, r0, r0
 800404c:	08001b19 	stmdaeq	r0, {r0, r3, r4, r8, r9, fp, ip}
 8004050:	08001b1b 	stmdaeq	r0, {r0, r1, r3, r4, r8, r9, fp, ip}

08004054 <_ZTV5ArrayIiLj8EE>:
 8004054:	00000000 	andeq	r0, r0, r0
 8004058:	00000000 	andeq	r0, r0, r0
 800405c:	08001d07 	stmdaeq	r0, {r0, r1, r2, r8, sl, fp, ip}
 8004060:	08001d09 	stmdaeq	r0, {r0, r3, r8, sl, fp, ip}

08004064 <_ZTV10LineSensor>:
 8004064:	00000000 	andeq	r0, r0, r0
 8004068:	00000000 	andeq	r0, r0, r0
 800406c:	08001d05 	stmdaeq	r0, {r0, r2, r8, sl, fp, ip}
 8004070:	08001d17 	stmdaeq	r0, {r0, r1, r2, r4, r8, sl, fp, ip}
 8004074:	08001fa1 	stmdaeq	r0, {r0, r5, r7, r8, r9, sl, fp, ip}

08004078 <_ZTV3IMU>:
 8004078:	00000000 	andeq	r0, r0, r0
 800407c:	00000000 	andeq	r0, r0, r0
 8004080:	0800201d 	stmdaeq	r0, {r0, r2, r3, r4, sp}
 8004084:	0800201f 	stmdaeq	r0, {r0, r1, r2, r3, r4, sp}
 8004088:	080021b5 	stmdaeq	r0, {r0, r2, r4, r5, r7, r8, sp}

0800408c <_ZTV13EncoderSensor>:
 800408c:	00000000 	andeq	r0, r0, r0
 8004090:	00000000 	andeq	r0, r0, r0
 8004094:	080022c9 	stmdaeq	r0, {r0, r3, r6, r7, r9, sp}
 8004098:	080022cb 	stmdaeq	r0, {r0, r1, r3, r6, r7, r9, sp}

0800409c <_ZTV13MotorControll>:
 800409c:	00000000 	andeq	r0, r0, r0
 80040a0:	00000000 	andeq	r0, r0, r0
 80040a4:	08002691 	stmdaeq	r0, {r0, r4, r7, r9, sl, sp}
 80040a8:	080026b9 	stmdaeq	r0, {r0, r3, r4, r5, r7, r9, sl, sp}
 80040ac:	080024e9 	stmdaeq	r0, {r0, r3, r5, r6, r7, sl, sp}

080040b0 <_ZTV5Usart>:
 80040b0:	00000000 	andeq	r0, r0, r0
 80040b4:	00000000 	andeq	r0, r0, r0
 80040b8:	080026cd 	stmdaeq	r0, {r0, r2, r3, r6, r7, r9, sl, sp}
 80040bc:	080026cf 	stmdaeq	r0, {r0, r1, r2, r3, r6, r7, r9, sl, sp}

080040c0 <_ZTV14DistanceSensor>:
 80040c0:	00000000 	andeq	r0, r0, r0
 80040c4:	00000000 	andeq	r0, r0, r0
 80040c8:	080027ad 	stmdaeq	r0, {r0, r2, r3, r5, r7, r8, r9, sl, sp}
 80040cc:	080027af 	stmdaeq	r0, {r0, r1, r2, r3, r5, r7, r8, r9, sl, sp}
 80040d0:	080028e1 	stmdaeq	r0, {r0, r5, r6, r7, fp, sp}

080040d4 <_ZTV4TI2CILh1ELh7ELh6ELh10ELh1EE>:
 80040d4:	00000000 	andeq	r0, r0, r0
 80040d8:	00000000 	andeq	r0, r0, r0
 80040dc:	08002fb7 	stmdaeq	r0, {r0, r1, r2, r4, r5, r7, r8, r9, sl, fp, sp}
 80040e0:	08002f71 	stmdaeq	r0, {r0, r4, r5, r6, r8, r9, sl, fp, sp}
 80040e4:	08002db9 	stmdaeq	r0, {r0, r3, r4, r5, r7, r8, sl, fp, sp}
 80040e8:	080030a7 	stmdaeq	r0, {r0, r1, r2, r5, r7, ip, sp}
 80040ec:	08002ffd 	stmdaeq	r0, {r0, r2, r3, r4, r5, r6, r7, r8, r9, sl, fp, sp}
 80040f0:	08002b41 	stmdaeq	r0, {r0, r6, r8, r9, fp, sp}
 80040f4:	08002b55 	stmdaeq	r0, {r0, r2, r4, r6, r8, r9, fp, sp}
 80040f8:	74736509 	ldrbtvc	r6, [r3], #-1289	; 0xfffffaf7
 80040fc:	756d695f 	strbvc	r6, [sp, #-2399]!	; 0xfffff6a1
 8004100:	6e65735f 	mcrvs	3, 3, r7, cr5, cr15, {2}
 8004104:	0a726f73 	beq	9c9fed8 <_sidata+0x1c9b61c>
 8004108:	203a2000 	eorscs	r2, sl, r0
 800410c:	0a0a0a00 	beq	8286914 <_sidata+0x282058>
 8004110:	23232323 			; <UNDEFINED> instruction: 0x23232323
 8004114:	0a0a0a23 	beq	82869a8 <_sidata+0x2820ec>
 8004118:	72657400 	rsbvc	r7, r5, #0, 8
 800411c:	616e696d 	cmnvs	lr, sp, ror #18
 8004120:	6e69206c 	cdpvs	0, 6, cr2, cr9, cr12, {3}
 8004124:	64207469 	strtvs	r7, [r0], #-1129	; 0xfffffb97
 8004128:	0a656e6f 	beq	995faec <_sidata+0x195b230>
 800412c:	6d656d00 	stclvs	13, cr6, [r5, #-0]
 8004130:	696e6920 	stmdbvs	lr!, {r5, r8, fp, sp, lr}^
 8004134:	6f642074 	svcvs	0x00642074
 8004138:	202c656e 	eorcs	r6, ip, lr, ror #10
 800413c:	70616568 	rsbvc	r6, r1, r8, ror #10
 8004140:	61747320 	cmnvs	r4, r0, lsr #6
 8004144:	61207472 			; <UNDEFINED> instruction: 0x61207472
 8004148:	74002074 	strvc	r2, [r0], #-116	; 0xffffff8c
 800414c:	72656d69 	rsbvc	r6, r5, #6720	; 0x1a40
 8004150:	696e6920 	stmdbvs	lr!, {r5, r8, fp, sp, lr}^
 8004154:	6f642074 	svcvs	0x00642074
 8004158:	000a656e 	andeq	r6, sl, lr, ror #10
 800415c:	616c6564 	cmnvs	ip, r4, ror #10
 8004160:	30322079 	eorscc	r2, r2, r9, ror r0
 8004164:	736d2030 	cmnvc	sp, #48	; 0x30
 8004168:	32690020 	rsbcc	r0, r9, #32
 800416c:	6e692063 	cdpvs	0, 6, cr2, cr9, cr3, {3}
 8004170:	64207469 	strtvs	r7, [r0], #-1129	; 0xfffffb97
 8004174:	0a656e6f 	beq	995fb38 <_sidata+0x195b27c>
 8004178:	756d6900 	strbvc	r6, [sp, #-2304]!	; 0xfffff700
 800417c:	696e6920 	stmdbvs	lr!, {r5, r8, fp, sp, lr}^
 8004180:	6f642074 	svcvs	0x00642074
 8004184:	7720656e 	strvc	r6, [r0, -lr, ror #10]!
 8004188:	20687469 	rsbcs	r7, r8, r9, ror #8
 800418c:	63646100 	cmnvs	r4, #0, 2
 8004190:	696e6920 	stmdbvs	lr!, {r5, r8, fp, sp, lr}^
 8004194:	6f642074 	svcvs	0x00642074
 8004198:	000a656e 	andeq	r6, sl, lr, ror #10
 800419c:	656e696c 	strbvs	r6, [lr, #-2412]!	; 0xfffff694
 80041a0:	6e657320 	cdpvs	3, 6, cr7, cr5, cr0, {1}
 80041a4:	20726f73 	rsbscs	r6, r2, r3, ror pc
 80041a8:	74696e69 	strbtvc	r6, [r9], #-3689	; 0xfffff197
 80041ac:	6e6f6420 	cdpvs	4, 6, cr6, cr15, cr0, {1}
 80041b0:	64000a65 	strvs	r0, [r0], #-2661	; 0xfffff59b
 80041b4:	61747369 	cmnvs	r4, r9, ror #6
 80041b8:	2065636e 	rsbcs	r6, r5, lr, ror #6
 80041bc:	736e6573 	cmnvc	lr, #482344960	; 0x1cc00000
 80041c0:	6920726f 	stmdbvs	r0!, {r0, r1, r2, r3, r5, r6, r9, ip, sp, lr}
 80041c4:	2074696e 	rsbscs	r6, r4, lr, ror #18
 80041c8:	656e6f64 	strbvs	r6, [lr, #-3940]!	; 0xfffff09c
 80041cc:	6e65000a 	cdpvs	0, 6, cr0, cr5, cr10, {0}
 80041d0:	65646f63 	strbvs	r6, [r4, #-3939]!	; 0xfffff09d
 80041d4:	65732072 	ldrbvs	r2, [r3, #-114]!	; 0xffffff8e
 80041d8:	726f736e 	rsbvc	r7, pc, #-1207959551	; 0xb8000001
 80041dc:	696e6920 	stmdbvs	lr!, {r5, r8, fp, sp, lr}^
 80041e0:	6f642074 	svcvs	0x00642074
 80041e4:	000a656e 	andeq	r6, sl, lr, ror #10
 80041e8:	6f746f6d 	svcvs	0x00746f6d
 80041ec:	6f632072 	svcvs	0x00632072
 80041f0:	6f72746e 	svcvs	0x0072746e
 80041f4:	69206c6c 	stmdbvs	r0!, {r2, r3, r5, r6, sl, fp, sp, lr}
 80041f8:	2074696e 	rsbscs	r6, r4, lr, ror #18
 80041fc:	656e6f64 	strbvs	r6, [lr, #-3940]!	; 0xfffff09c
 8004200:	656b000a 	strbvs	r0, [fp, #-10]!
 8004204:	6e692079 	mcrvs	0, 3, r2, cr9, cr9, {3}
 8004208:	64207469 	strtvs	r7, [r0], #-1129	; 0xfffffb97
 800420c:	0a656e6f 	beq	995fbd0 <_sidata+0x195b314>
 8004210:	73797300 	cmnvc	r9, #0, 6
 8004214:	206d6574 	rsbcs	r6, sp, r4, ror r5
 8004218:	74696e69 	strbtvc	r6, [r9], #-3689	; 0xfffff197
 800421c:	6e6f6420 	cdpvs	4, 6, cr6, cr15, cr0, {1}
 8004220:	74000a65 	strvc	r0, [r0], #-2661	; 0xfffff59b
 8004224:	00657572 	rsbeq	r7, r5, r2, ror r5
 8004228:	736c6166 	cmnvc	ip, #-2147483623	; 0x80000019
 800422c:	00000065 	andeq	r0, r0, r5, rrx

08004230 <_ZTV7Drivers>:
 8004230:	00000000 	andeq	r0, r0, r0
 8004234:	00000000 	andeq	r0, r0, r0
 8004238:	08002b31 	stmdaeq	r0, {r0, r4, r5, r8, r9, fp, sp}
 800423c:	08002b33 	stmdaeq	r0, {r0, r1, r4, r5, r8, r9, fp, sp}

08004240 <_ZTV10LineSearch>:
 8004240:	00000000 	andeq	r0, r0, r0
 8004244:	00000000 	andeq	r0, r0, r0
 8004248:	080033f5 	stmdaeq	r0, {r0, r2, r4, r5, r6, r7, r8, r9, ip, sp}
 800424c:	0800340d 	stmdaeq	r0, {r0, r2, r3, sl, ip, sp}
 8004250:	30002031 	andcc	r2, r0, r1, lsr r0
 8004254:	00000020 	andeq	r0, r0, r0, lsr #32

08004258 <_ZTV13LinePredictor>:
 8004258:	00000000 	andeq	r0, r0, r0
 800425c:	00000000 	andeq	r0, r0, r0
 8004260:	0800358d 	stmdaeq	r0, {r0, r2, r3, r7, r8, sl, ip, sp}
 8004264:	0800358f 	stmdaeq	r0, {r0, r1, r2, r3, r7, r8, sl, ip, sp}

08004268 <_ZTV10IntegratorIfE>:
 8004268:	00000000 	andeq	r0, r0, r0
 800426c:	00000000 	andeq	r0, r0, r0
 8004270:	080036e3 	stmdaeq	r0, {r0, r1, r5, r6, r7, r9, sl, ip, sp}
 8004274:	080036e5 	stmdaeq	r0, {r0, r2, r5, r6, r7, r9, sl, ip, sp}

08004278 <_ZTV16PositionControll>:
 8004278:	00000000 	andeq	r0, r0, r0
 800427c:	00000000 	andeq	r0, r0, r0
 8004280:	080036e1 	stmdaeq	r0, {r0, r5, r6, r7, r9, sl, ip, sp}
 8004284:	080036f3 	stmdaeq	r0, {r0, r1, r4, r5, r6, r7, r9, sl, ip, sp}

08004288 <_ZL12layer_0_bias>:
 8004288:	7f9ef5d3 	svcvc	0x009ef5d3

0800428c <_ZL12layer_3_bias>:
 800428c:	00287f63 	eoreq	r7, r8, r3, ror #30

08004290 <_ZL12layer_5_bias>:
 8004290:	007f002c 	rsbseq	r0, pc, ip, lsr #32

08004294 <_ZL12layer_7_bias>:
 8004294:	1c52357f 	cfldr64ne	mvdx3, [r2], {127}	; 0x7f
 8004298:	582f8938 	stmdapl	pc!, {r3, r4, r5, r8, fp, pc}	; <UNPREDICTABLE>

08004299 <_ZL15layer_0_weights>:
 8004299:	ef582f89 	svc	0x00582f89
 800429d:	e08a4934 	add	r4, sl, r4, lsr r9
 80042a1:	0fc4fa1a 	svceq	0x00c4fa1a
 80042a5:	302ed9dc 	ldrdcc	sp, [lr], -ip	; <UNPREDICTABLE>
 80042a9:	e75349ef 	ldrb	r4, [r3, -pc, ror #19]
 80042ad:	0e263e1b 	mcreq	14, 1, r3, cr6, cr11, {0}
 80042b1:	811cea1c 	tsthi	ip, ip, lsl sl
 80042b5:	03d963de 	bicseq	r6, r9, #2013265923	; 0x78000003
 80042b9:	4cfdd36d 	ldclmi	3, cr13, [sp], #436	; 0x1b4

080042bd <_ZL15layer_3_weights>:
 80042bd:	ea2ed827 	b	8bba361 <_sidata+0xbb5aa5>
 80042c1:	1c0403d2 	stcne	3, cr0, [r4], {210}	; 0xd2
 80042c5:	f8132505 			; <UNDEFINED> instruction: 0xf8132505
 80042c9:	0501f61d 	streq	pc, [r1, #-1565]	; 0xfffff9e3
 80042cd:	2132e10a 	teqcs	r2, sl, lsl #2
 80042d1:	9c28ebd9 			; <UNDEFINED> instruction: 0x9c28ebd9
 80042d5:	1afa3022 	bne	7e90365 <__text_size__+0x7e8bc35>
 80042d9:	e8fe3ded 	ldm	lr!, {r0, r2, r3, r5, r6, r7, r8, sl, fp, ip, sp}^
 80042dd:	e02ae301 	eor	lr, sl, r1, lsl #6
 80042e1:	08cc05d2 	stmiaeq	ip, {r1, r4, r6, r7, r8, sl}^
 80042e5:	d705eff0 			; <UNDEFINED> instruction: 0xd705eff0
 80042e9:	c308cd18 	movwgt	ip, #36120	; 0x8d18
 80042ed:	1f0dfbd3 	svcne	0x000dfbd3
 80042f1:	203cdd30 	eorscs	sp, ip, r0, lsr sp
 80042f5:	c52253c9 	strgt	r5, [r2, #-969]!	; 0xfffffc37
 80042f9:	81050a5b 	tsthi	r5, fp, asr sl
 80042fd:	22bcce2b 	adcscs	ip, ip, #688	; 0x2b0
 8004301:	0e0db810 	mcreq	8, 0, fp, cr13, cr0, {0}
 8004305:	f4b969d4 			; <UNDEFINED> instruction: 0xf4b969d4
 8004309:	0d17c24f 	lfmeq	f4, 1, [r7, #-316]	; 0xfffffec4
 800430d:	f5d5fc03 	pld	[r5, #3075]	; 0xc03
 8004311:	03dcfc0f 	bicseq	pc, ip, #3840	; 0xf00
 8004315:	2e0be73d 	mcrcs	7, 0, lr, cr11, cr13, {1}
 8004319:	ea10f0d5 	b	8440675 <_sidata+0x43bdb9>
 800431d:	fae5063d 	blx	7945c19 <__text_size__+0x79414e9>
 8004321:	1be8b445 	blne	7a3143d <__text_size__+0x7a2cd0d>
 8004325:	31fd150c 	mvnscc	r1, ip, lsl #10
 8004329:	08f21b0a 	ldmeq	r2!, {r1, r3, r8, r9, fp, ip}^
 800432d:	e8ff1407 	ldm	pc!, {r0, r1, r2, sl, ip}^	; <UNPREDICTABLE>
 8004331:	ea0ae307 	b	82bcf55 <_sidata+0x2b8699>
 8004335:	070b0d1c 	smladeq	fp, ip, sp, r0
 8004339:	edefdcff 	stcl	12, cr13, [pc, #1020]!	; 800473c <_ZL15layer_7_weights+0x2cf>
 800433d:	ebf3eced 	bl	7cff6f9 <__text_size__+0x7cfafc9>
 8004341:	17fe04dd 	ubfxne	r0, sp, #9, #31
 8004345:	f2f3e9f9 			; <UNDEFINED> instruction: 0xf2f3e9f9
 8004349:	04e2e7f6 	strbteq	lr, [r2], #2038	; 0x7f6

0800434d <_ZL15layer_5_weights>:
 800434d:	b80019ff 	stmdalt	r0, {r0, r1, r2, r3, r4, r5, r6, r7, r8, fp, ip}
 8004351:	fdb5f1fd 	ldc2	1, cr15, [r5, #1012]!	; 0x3f4
 8004355:	33e330fd 	mvncc	r3, #253	; 0xfd
 8004359:	cd29e41e 	cfstrsgt	mvf14, [r9, #-120]!	; 0xffffff88
 800435d:	f3030de5 	vpadd.f32	q0, <illegal reg q9.5>, <illegal reg q10.5>
 8004361:	20bd2b0b 	adcscs	r2, sp, fp, lsl #22
 8004365:	030bda01 	movweq	sp, #47617	; 0xba01
 8004369:	00040600 	andeq	r0, r4, r0, lsl #12
 800436d:	1835e975 	ldmdane	r5!, {r0, r2, r4, r5, r6, r8, fp, sp, lr, pc}
 8004371:	35fdaf51 	ldrbcc	sl, [sp, #3921]!	; 0xf51
 8004375:	cb0ad6dc 	blgt	82b9eed <_sidata+0x2b5631>
 8004379:	fe0750f2 	mcr2	0, 0, r5, cr7, cr2, {7}
 800437d:	21f51939 	mvnscs	r1, r9, lsr r9
 8004381:	0c000001 	stceq	0, cr0, [r0], {1}
 8004385:	060005e2 	streq	r0, [r0], -r2, ror #11
 8004389:	540ef9fe 	strpl	pc, [lr], #-2558	; 0xfffff602
 800438d:	da23d3af 	ble	88f9251 <_sidata+0x8f4995>
 8004391:	e3f4fbe8 	mvns	pc, #232, 22	; 0x3a000
 8004395:	e7111308 	ldr	r1, [r1, -r8, lsl #6]
 8004399:	e3f50fd1 	mvns	r0, #836	; 0x344
 800439d:	00f11d35 	rscseq	r1, r1, r5, lsr sp
 80043a1:	0c03fa09 			; <UNDEFINED> instruction: 0x0c03fa09
 80043a5:	19d3feea 	ldmibne	r3, {r1, r3, r5, r6, r7, r9, sl, fp, ip, sp, lr, pc}^
 80043a9:	c82895bc 	stmdagt	r8!, {r2, r3, r4, r5, r7, r8, sl, ip, pc}
 80043ad:	0de12fb7 	stcleq	15, cr2, [r1, #732]!	; 0x2dc
 80043b1:	0b111200 	bleq	8448bb9 <_sidata+0x4442fd>
 80043b5:	0c1c6333 	ldceq	3, cr6, [ip], {51}	; 0x33
 80043b9:	00953631 	addseq	r3, r5, r1, lsr r6
 80043bd:	0a18a216 	beq	862cc1d <_sidata+0x628361>
 80043c1:	33da23ce 	bicscc	r2, sl, #939524099	; 0x38000003
 80043c5:	1ee52308 	cdpne	3, 14, cr2, cr5, cr8, {0}
 80043c9:	07ffc627 	ldrbeq	ip, [pc, r7, lsr #12]!
 80043cd:	06f1fff6 			; <UNDEFINED> instruction: 0x06f1fff6
 80043d1:	200fe727 	andcs	lr, pc, r7, lsr #14
 80043d5:	10fcc300 	rscsne	ip, ip, r0, lsl #6
 80043d9:	fa0b08e9 	blx	82c6785 <_sidata+0x2c1ec9>
 80043dd:	f62d8a12 			; <UNDEFINED> instruction: 0xf62d8a12
 80043e1:	dcdf2f96 	ldclle	15, cr2, [pc], {150}	; 0x96
 80043e5:	ea03eb1f 	b	80ff069 <_sidata+0xfa7ad>
 80043e9:	3600e801 	strcc	lr, [r0], -r1, lsl #16
 80043ed:	12dd29d4 	sbcsne	r2, sp, #212, 18	; 0x350000
 80043f1:	defb20fe 	mrcle	0, 7, r2, cr11, cr14, {7}
 80043f5:	0313052b 	tsteq	r3, #180355072	; 0xac00000
 80043f9:	00f5fd00 	rscseq	pc, r5, r0, lsl #26
 80043fd:	c5f3ad81 	ldrbgt	sl, [r3, #3457]!	; 0xd81
 8004401:	f8cc32bb 			; <UNDEFINED> instruction: 0xf8cc32bb
 8004405:	0be4fb00 	bleq	794300d <__text_size__+0x793e8dd>
 8004409:	9038f109 	eorsls	pc, r8, r9, lsl #2
 800440d:	e4f5141c 	ldrbt	r1, [r5], #1052	; 0x41c
 8004411:	1cc523e2 	stclne	3, cr2, [r5], {226}	; 0xe2
 8004415:	3500ee3c 	strcc	lr, [r0, #-3644]	; 0xfffff1c4
 8004419:	cb0006db 	blgt	8005f8d <_sidata+0x16d1>
 800441d:	0fe08742 	svceq	0x00e08742
 8004421:	0a2401d9 	beq	8904b8d <_sidata+0x9002d1>
 8004425:	f8f6d50f 			; <UNDEFINED> instruction: 0xf8f6d50f
 8004429:	120309de 	andne	r0, r3, #3637248	; 0x378000
 800442d:	13f9eb17 	mvnsne	lr, #23552	; 0x5c00
 8004431:	00ff0607 	rscseq	r0, pc, r7, lsl #12
 8004435:	ebc80005 	bl	7204451 <__text_size__+0x71ffd21>
 8004439:	d73f9819 			; <UNDEFINED> instruction: 0xd73f9819
 800443d:	04f716d1 	ldrbteq	r1, [r7], #1745	; 0x6d1
 8004441:	f0030cfa 			; <UNDEFINED> instruction: 0xf0030cfa
 8004445:	620ce354 	andvs	lr, ip, #84, 6	; 0x50000001
 8004449:	f0f51add 			; <UNDEFINED> instruction: 0xf0f51add
 800444d:	f7e31913 			; <UNDEFINED> instruction: 0xf7e31913
 8004451:	12f011fa 	rscsne	r1, r0, #-2147483586	; 0x8000003e
 8004455:	203adb0b 	eorscs	sp, sl, fp, lsl #22
 8004459:	f6f02be2 			; <UNDEFINED> instruction: 0xf6f02be2
 800445d:	3006ea18 	andcc	lr, r6, r8, lsl sl
 8004461:	0f2b00ee 	svceq	0x002b00ee
 8004465:	edfbdd05 	ldcl	13, cr13, [fp, #20]!
 8004469:	40fd0c1c 	rscsmi	r0, sp, ip, lsl ip

0800446d <_ZL15layer_7_weights>:
 800446d:	000000fc 	strdeq	r0, [r0], -ip
 8004471:	04f9d406 	ldrbteq	sp, [r9], #1030	; 0x406
 8004475:	fffbf906 			; <UNDEFINED> instruction: 0xfffbf906
 8004479:	ef041c04 	svc	0x00041c04
 800447d:	000000fa 	strdeq	r0, [r0], -sl
 8004481:	fdfefd00 	ldc2l	13, cr15, [lr]
 8004485:	f40001fa 	vst4.<illegal width 64>	{d0,d2,d4,d6}, [r0 :256], sl
 8004489:	eb05f202 	bl	8180c99 <_sidata+0x17c3dd>
 800448d:	04feff00 	ldrbteq	pc, [lr], #3840	; 0xf00	; <UNPREDICTABLE>
 8004491:	5103f402 	tstpl	r3, r2, lsl #8	; <UNPREDICTABLE>
 8004495:	2e00f000 	cdpcs	0, 0, cr15, cr0, cr0, {0}
 8004499:	3cf3f100 	ldfccp	f7, [r3]
 800449d:	06fc0504 	ldrbteq	r0, [ip], r4, lsl #10
 80044a1:	18faea00 	ldmne	sl!, {r9, fp, sp, lr, pc}^
 80044a5:	08f40c03 	ldmeq	r4!, {r0, r1, sl, fp}^
 80044a9:	ecf40702 	ldcl	7, cr0, [r4], #8
 80044ad:	00000005 	andeq	r0, r0, r5
 80044b1:	f0080c00 			; <UNDEFINED> instruction: 0xf0080c00
 80044b5:	f0011100 			; <UNDEFINED> instruction: 0xf0011100
 80044b9:	0f2326fc 	svceq	0x002326fc
 80044bd:	00040004 	andeq	r0, r4, r4
 80044c1:	ddf23400 	cfldrdle	mvd3, [r2]
 80044c5:	fcf02500 	ldc2l	5, cr2, [r0]
 80044c9:	fd050d00 	stc2	13, cr0, [r5, #-0]
 80044cd:	00000000 	andeq	r0, r0, r0
 80044d1:	e9010df8 	stmdb	r1, {r3, r4, r5, r6, r7, r8, sl, fp}
 80044d5:	f5020803 			; <UNDEFINED> instruction: 0xf5020803
 80044d9:	f502fd05 			; <UNDEFINED> instruction: 0xf502fd05
 80044dd:	03000000 	movweq	r0, #0
 80044e1:	f900fd00 			; <UNDEFINED> instruction: 0xf900fd00
 80044e5:	06fbf900 	ldrbteq	pc, [fp], r0, lsl #18	; <UNPREDICTABLE>
 80044e9:	fcfb04f8 	ldc2l	4, cr0, [fp], #992	; 0x3e0
 80044ed:	fef8f0d4 	mrc2	0, 7, pc, cr8, cr4, {6}
 80044f1:	f9f9faee 			; <UNDEFINED> instruction: 0xf9f9faee
 80044f5:	faf8fc02 	blx	7e43505 <__text_size__+0x7e3edd5>
 80044f9:	fcfbfc08 	ldc2l	12, cr15, [fp], #32
 80044fd:	2cefe5fe 	cfstr64cs	mvdx14, [pc], #1016	; 80048fc <_sidata+0x40>
 8004501:	1bfbf1f6 	blne	7f00ce1 <__text_size__+0x7efc5b1>
 8004505:	0cf9fbf4 	vldmiaeq	r9!, {d31-<overflow reg d88>}
 8004509:	9ef903ff 	mrcls	3, 7, r0, cr9, cr15, {7}
 800450d:	fbfa070d 	blx	7e8614b <__text_size__+0x7e81a1b>
 8004511:	fcfb060b 	ldc2l	6, cr0, [fp], #44	; 0x2c
 8004515:	fbfc0809 	blx	7f06543 <__text_size__+0x7f01e13>
 8004519:	f9fe0607 			; <UNDEFINED> instruction: 0xf9fe0607
 800451d:	0500ffd5 	streq	pc, [r0, #-4053]	; 0xfffff02b
 8004521:	06ff00e2 	ldrbteq	r0, [pc], r2, ror #1
 8004525:	000000fc 	strdeq	r0, [r0], -ip
 8004529:	fd00000b 	stc2	0, cr0, [r0, #-44]	; 0xffffffd4
 800452d:	04ff0108 	ldrbteq	r0, [pc], #264	; 8004535 <_ZL15layer_7_weights+0xc8>
 8004531:	f7ff2000 			; <UNDEFINED> instruction: 0xf7ff2000
 8004535:	fcfb0d00 	ldc2l	13, cr0, [fp]
 8004539:	1200f600 	andne	pc, r0, #0, 12
 800453d:	fcfa0000 	ldc2l	0, cr0, [sl]
 8004541:	08fb05fb 	ldmeq	fp!, {r0, r1, r3, r4, r5, r6, r7, r8, sl}^
 8004545:	fe0000fe 	mcr2	0, 0, r0, cr0, cr14, {7}
 8004549:	fe042b00 	vseleq.f64	d2, d4, d0
 800454d:	fafa00f9 	blx	7e84939 <__text_size__+0x7e80209>
 8004551:	e6ecd600 	strbt	sp, [ip], r0, lsl #12
 8004555:	00f4e506 	rscseq	lr, r4, r6, lsl #10
 8004559:	fdfaf500 	ldc2l	5, cr15, [sl]
 800455d:	08000000 	stmdaeq	r0, {}	; <UNPREDICTABLE>
 8004561:	e7ff1200 	ldrb	r1, [pc, r0, lsl #4]!
 8004565:	f00100fb 			; <UNDEFINED> instruction: 0xf00100fb
 8004569:	34f9f900 	ldrbtcc	pc, [r9], #2304	; 0x900	; <UNPREDICTABLE>
 800456d:	03ff060c 	mvnseq	r0, #12, 12	; 0xc00000
 8004571:	09010df9 	stmdbeq	r1, {r0, r3, r4, r5, r6, r7, r8, sl, fp}
 8004575:	ff0500f7 			; <UNDEFINED> instruction: 0xff0500f7
 8004579:	d4ff04fc 	ldrbtle	r0, [pc], #1276	; 8004581 <_ZL15layer_7_weights+0x114>
 800457d:	fc070209 	stc2	2, cr0, [r7], {9}
 8004581:	ed20ddfe 	stc	13, cr13, [r0, #-1016]!	; 0xfffffc08
 8004585:	0410ec09 	ldreq	lr, [r0], #-3081	; 0xfffff3f7
 8004589:	f70623fe 			; <UNDEFINED> instruction: 0xf70623fe
 800458d:	f807f90a 			; <UNDEFINED> instruction: 0xf807f90a
 8004591:	fc010c09 	stc2	12, cr0, [r1], {9}
 8004595:	05fdf7f4 	ldrbeq	pc, [sp, #2036]!	; 0x7f4	; <UNPREDICTABLE>
 8004599:	f9fc1600 			; <UNDEFINED> instruction: 0xf9fc1600
 800459d:	0bfff300 	bleq	80011a5 <_ZN13NeuralNetwork9set_inputEPa+0x21>
 80045a1:	fe0503f7 	mcr2	3, 0, r0, cr5, cr7, {7}
 80045a5:	fff9f30a 			; <UNDEFINED> instruction: 0xfff9f30a
 80045a9:	0207f80c 	andeq	pc, r7, #12, 16	; 0xc0000
 80045ad:	f4011548 	vst3.16	{d1,d3,d5}, [r1], r8
 80045b1:	f5071227 			; <UNDEFINED> instruction: 0xf5071227
 80045b5:	fd04130e 	stc2	3, cr1, [r4, #-56]	; 0xffffffc8
 80045b9:	f90304f7 			; <UNDEFINED> instruction: 0xf90304f7
 80045bd:	f7fdce50 			; <UNDEFINED> instruction: 0xf7fdce50
 80045c1:	0706ec3e 	smladxeq	r6, lr, ip, lr
 80045c5:	1cfff225 	lfmne	f7, 3, [pc], #148	; 8004660 <_ZL15layer_7_weights+0x1f3>
 80045c9:	e0fa07f2 	ldrsht	r0, [sl], #114	; 0x72
 80045cd:	f8fd0300 			; <UNDEFINED> instruction: 0xf8fd0300
 80045d1:	fbfd0106 	blx	7f449f3 <__text_size__+0x7f402c3>
 80045d5:	fdfeff03 	ldc2l	15, cr15, [lr, #12]!
 80045d9:	fd000000 	stc2	0, cr0, [r0, #-0]
 80045dd:	fa03f238 	blx	8100ec5 <_sidata+0xfc609>
 80045e1:	fe00f821 	cdp2	8, 0, cr15, cr0, cr1, {1}
 80045e5:	04fffe08 	ldrbteq	pc, [pc], #3592	; 80045ed <_ZL15layer_7_weights+0x180>	; <UNPREDICTABLE>
 80045e9:	fffefef3 			; <UNDEFINED> instruction: 0xfffefef3
 80045ed:	0d00f404 	cfstrseq	mvf15, [r0, #-16]
 80045f1:	e8211307 	stmda	r1!, {r0, r1, r2, r8, r9, ip}
 80045f5:	f90b0b09 			; <UNDEFINED> instruction: 0xf90b0b09
 80045f9:	0700f905 	streq	pc, [r0, -r5, lsl #18]
 80045fd:	0203ff0b 	andeq	pc, r3, #11, 30	; 0x2c
 8004601:	fde9f5fc 	stc2l	5, cr15, [r9, #1008]!	; 0x3f0
 8004605:	01f7e2f3 	ldrsheq	lr, [r7, #35]!	; 0x23
 8004609:	0211dcfe 	andseq	sp, r1, #65024	; 0xfe00
 800460d:	00fff604 	rscseq	pc, pc, r4, lsl #12
 8004611:	f4086cfe 			; <UNDEFINED> instruction: 0xf4086cfe
 8004615:	020950f4 	andeq	r5, r9, #244	; 0xf4
 8004619:	04031e03 	streq	r1, [r3], #-3587	; 0xfffff1fd
 800461d:	00f30805 	rscseq	r0, r3, r5, lsl #16
 8004621:	03ee04f3 	mvneq	r0, #-218103808	; 0xf3000000
 8004625:	06fe08f5 			; <UNDEFINED> instruction: 0x06fe08f5
 8004629:	fafdfe09 	blx	7f83e55 <__text_size__+0x7f7f725>
 800462d:	f7fef904 			; <UNDEFINED> instruction: 0xf7fef904
 8004631:	f40b00f9 	vst4.<illegal width 64>	{d0-d3}, [fp :256], r9
 8004635:	01010306 	tsteq	r1, r6, lsl #6
 8004639:	00f606fc 	ldrshteq	r0, [r6], #108	; 0x6c
 800463d:	f60409fd 			; <UNDEFINED> instruction: 0xf60409fd
 8004641:	2cfcf504 	cfldr64cs	mvdx15, [ip], #16
 8004645:	00fdf7ff 	ldrshteq	pc, [sp], #127	; 0x7f	; <UNPREDICTABLE>
 8004649:	00fbe0f8 	ldrshteq	lr, [fp], #8
 800464d:	f7f908f8 			; <UNDEFINED> instruction: 0xf7f908f8
 8004651:	fffc130b 			; <UNDEFINED> instruction: 0xfffc130b
 8004655:	00fb0905 	rscseq	r0, fp, r5, lsl #18
 8004659:	f70df9f4 			; <UNDEFINED> instruction: 0xf70df9f4
 800465d:	f9fe0906 			; <UNDEFINED> instruction: 0xf9fe0906
 8004661:	f5f50a0c 			; <UNDEFINED> instruction: 0xf5f50a0c
 8004665:	fcfbf807 	ldc2l	8, cr15, [fp], #28
 8004669:	0300f70d 	movweq	pc, #1805	; 0x70d	; <UNPREDICTABLE>
 800466d:	f9ed00ee 			; <UNDEFINED> instruction: 0xf9ed00ee
 8004671:	00f9f9f3 	ldrshteq	pc, [r9], #147	; 0x93	; <UNPREDICTABLE>
 8004675:	000002fc 	strdeq	r0, [r0], -ip
 8004679:	0e0504fe 	mcreq	4, 0, r0, cr5, cr14, {7}
 800467d:	e6db2fc1 	ldrb	r2, [fp], r1, asr #31
 8004681:	f7e211ca 			; <UNDEFINED> instruction: 0xf7e211ca
 8004685:	11010bf6 	strdne	r0, [r1, -r6]
 8004689:	031bfd0e 	tsteq	fp, #896	; 0x380	; <UNPREDICTABLE>
 800468d:	ff0204f9 			; <UNDEFINED> instruction: 0xff0204f9
 8004691:	fe0302fa 	mcr2	2, 0, r0, cr3, cr10, {7}
 8004695:	00020100 	andeq	r0, r2, r0, lsl #2
 8004699:	040300fe 	streq	r0, [r3], #-254	; 0xffffff02
 800469d:	f4e512f9 	vld3.8			; <UNDEFINED> instruction: 0xf4e512f9
 80046a1:	f6f40df7 			; <UNDEFINED> instruction: 0xf6f40df7
 80046a5:	fdff0403 	ldc2l	4, cr0, [pc, #12]!	; 80046b8 <_ZL15layer_7_weights+0x24b>
 80046a9:	0207fe04 	andeq	pc, r7, #4, 28	; 0x40
 80046ad:	fe06f805 	cdp2	8, 0, cr15, cr6, cr5, {0}
 80046b1:	2ee8030a 	cdpcs	3, 14, cr0, cr8, cr10, {0}
 80046b5:	15f60000 	ldrbne	r0, [r6, #0]!
 80046b9:	f7fe0b06 			; <UNDEFINED> instruction: 0xf7fe0b06
 80046bd:	f6fa00f9 			; <UNDEFINED> instruction: 0xf6fa00f9
 80046c1:	0f531d08 	svceq	0x00531d08
 80046c5:	002711fb 	strdeq	r1, [r7], -fp	; <UNPREDICTABLE>
 80046c9:	06fcff0a 	ldrbteq	pc, [ip], sl, lsl #30	; <UNPREDICTABLE>
 80046cd:	0cfafe05 	ldcleq	14, cr15, [sl], #20
 80046d1:	0231c9fc 	eorseq	ip, r1, #252, 18	; 0x3f0000
 80046d5:	0019db07 	andseq	sp, r9, r7, lsl #22
 80046d9:	050001fb 	streq	r0, [r0, #-507]	; 0xfffffe05
 80046dd:	0bf70403 	bleq	7dc56f1 <__text_size__+0x7dc0fc1>
 80046e1:	241ae6f4 	ldrcs	lr, [sl], #-1780	; 0xfffff90c
 80046e5:	08080209 	stmdaeq	r8, {r0, r3, r9}
 80046e9:	05f102f8 	ldrbeq	r0, [r1, #760]!	; 0x2f8
 80046ed:	000208f7 	strdeq	r0, [r2], -r7
 80046f1:	0af3e4ff 	beq	7cfdaf5 <__text_size__+0x7cf93c5>
 80046f5:	12fcf00d 	rscsne	pc, ip, #13
 80046f9:	19fcf909 	ldmibne	ip!, {r0, r3, r8, fp, ip, sp, lr, pc}^
 80046fd:	07f70008 	ldrbeq	r0, [r7, r8]!
 8004701:	010000f8 	strdeq	r0, [r0, -r8]
 8004705:	00fcfffb 	ldrshteq	pc, [ip], #251	; 0xfb	; <UNPREDICTABLE>
 8004709:	17ff0709 	ldrbne	r0, [pc, r9, lsl #14]!
 800470d:	04fdfa01 	ldrbteq	pc, [sp], #2561	; 0xa01	; <UNPREDICTABLE>
 8004711:	f324e1fa 	vbit	q7, q10, q13
 8004715:	0816fc0a 	ldmdaeq	r6, {r1, r3, sl, fp, ip, sp, lr, pc}
 8004719:	01060200 	mrseq	r0, LR_usr
 800471d:	fffafe03 			; <UNDEFINED> instruction: 0xfffafe03
 8004721:	080df3f9 	stmdaeq	sp, {r0, r3, r4, r5, r6, r7, r8, r9, ip, sp, lr, pc}
 8004725:	fef5fdf5 	mrc2	13, 7, pc, cr5, cr5, {7}
 8004729:	0803ff00 	stmdaeq	r3, {r8, r9, sl, fp, ip, sp, lr, pc}
 800472d:	c11602fd 			; <UNDEFINED> instruction: 0xc11602fd
 8004731:	cf10fff4 	svcgt	0x0010fff4
 8004735:	e90106fe 	stmdb	r1, {r1, r2, r3, r4, r5, r6, r7, r9, sl}
 8004739:	f0f70202 			; <UNDEFINED> instruction: 0xf0f70202
 800473d:	43f320f7 	mvnsmi	r2, #247	; 0xf7
 8004741:	1c0722f8 	sfmne	f2, 4, [r7], {248}	; 0xf8
 8004745:	f9fa1bf0 			; <UNDEFINED> instruction: 0xf9fa1bf0
 8004749:	fef215f8 	mrc2	5, 7, r1, cr2, cr8, {7}
 800474d:	090bfafe 	stmdbeq	fp, {r1, r2, r3, r4, r5, r6, r7, r9, fp, ip, sp, lr, pc}
 8004751:	0402fdff 	streq	pc, [r2], #-3583	; 0xfffff201
 8004755:	0004fffd 	strdeq	pc, [r4], -sp
 8004759:	000201fc 	strdeq	r0, [r2], -ip
 800475d:	f90d02fc 			; <UNDEFINED> instruction: 0xf90d02fc
 8004761:	fe0300fa 	mcr2	0, 0, r0, cr3, cr10, {7}
 8004765:	0906feff 	stmdbeq	r6, {r0, r1, r2, r3, r4, r5, r6, r7, r9, sl, fp, ip, sp, lr, pc}
 8004769:	0bf80b03 	bleq	7e0737d <__text_size__+0x7e02c4d>
 800476d:	0df600f4 	ldcleq	0, cr0, [r6, #976]!	; 0x3d0
 8004771:	e404f305 	str	pc, [r4], #-773	; 0xfffffcfb
 8004775:	0003fc05 	andeq	pc, r3, r5, lsl #24
 8004779:	08faee0b 	ldmeq	sl!, {r0, r1, r3, r9, sl, fp, sp, lr, pc}^
 800477d:	02fb07f8 	rscseq	r0, fp, #248, 14	; 0x3e00000
 8004781:	eeb80600 	cdp	6, 11, cr0, cr8, cr0, {0}
 8004785:	0cdd0105 	ldfeqe	f0, [sp], {5}
 8004789:	1df0ffff 	ldclne	15, cr15, [r0, #1020]!	; 0x3fc
 800478d:	05fa0203 	ldrbeq	r0, [sl, #515]!	; 0x203
 8004791:	dee40003 	cdple	0, 14, cr0, cr4, cr3, {0}
 8004795:	ddfbfdfe 	ldclle	13, cr15, [fp, #1016]!	; 0x3f8
 8004799:	ac0a07f5 	stcge	7, cr0, [sl], {245}	; 0xf5
 800479d:	00fcf309 	rscseq	pc, ip, r9, lsl #6
 80047a1:	ebf80e0a 	bl	7e07fd1 <__text_size__+0x7e038a1>
 80047a5:	ed08f1fd 	stfd	f7, [r8, #-1012]	; 0xfffffc0c
 80047a9:	f333f607 	vmax.u<illegal width 64>	d15, d3, d7
 80047ad:	fcfe0c0a 	ldc2l	12, cr0, [lr], #40	; 0x28
 80047b1:	fbf9040a 	blx	7e457e3 <__text_size__+0x7e410b3>
 80047b5:	08f901fb 	ldmeq	r9!, {r0, r1, r3, r4, r5, r6, r7, r8}^
 80047b9:	070cfd0b 	streq	pc, [ip, -fp, lsl #26]
 80047bd:	fd050b02 	stc2	11, cr0, [r5, #-8]	; <UNPREDICTABLE>
 80047c1:	0a0af50b 	beq	82c1bf5 <_sidata+0x2bd339>
 80047c5:	fb03f903 	blx	8102bdb <_sidata+0xfe31f>
 80047c9:	0300ecfd 	movweq	lr, #3325	; 0xcfd
 80047cd:	fe0b0df6 	mcr2	13, 0, r0, cr11, cr6, {7}
 80047d1:	28def707 	ldmcs	lr, {r0, r1, r2, r8, r9, sl, ip, sp, lr, pc}^
 80047d5:	02f30201 	rscseq	r0, r3, #268435456	; 0x10000000
 80047d9:	13fd0109 	mvnsne	r0, #1073741826	; 0x40000002
 80047dd:	f5fe0a03 			; <UNDEFINED> instruction: 0xf5fe0a03
 80047e1:	050c0d00 	streq	r0, [ip, #-3328]	; 0xfffff300
 80047e5:	020cfe02 	andeq	pc, ip, #2, 28
 80047e9:	fcfbfe05 	ldc2l	14, cr15, [fp], #20
 80047ed:	5307f7fc 	movwpl	pc, #30716	; 0x77fc	; <UNPREDICTABLE>
 80047f1:	410ef5fe 	strdmi	pc, [lr, -lr]
 80047f5:	230df5fb 	movwcs	pc, #54779	; 0xd5fb	; <UNPREDICTABLE>
 80047f9:	1505f9ff 	strne	pc, [r5, #-2559]	; 0xfffff601
 80047fd:	cb34ff05 	blgt	8d44419 <_sidata+0xd3fb5d>
 8004801:	d627ebff 			; <UNDEFINED> instruction: 0xd627ebff
 8004805:	e116f805 	tst	r6, r5, lsl #16	; <UNPREDICTABLE>
 8004809:	7f06f4f9 	svcvc	0x0006f4f9
 800480d:	08fff7f5 	ldmeq	pc!, {r0, r2, r4, r5, r6, r7, r8, r9, sl, ip, sp, lr, pc}^	; <UNPREDICTABLE>
 8004811:	0300faf6 	movweq	pc, #2806	; 0xaf6	; <UNPREDICTABLE>
 8004815:	0600fdf7 			; <UNDEFINED> instruction: 0x0600fdf7
 8004819:	0503fffb 	streq	pc, [r3, #-4091]	; 0xfffff005
 800481d:	160cfb04 	strne	pc, [ip], -r4, lsl #22
 8004821:	080cfd05 	stmdaeq	ip, {r0, r2, r8, sl, fp, ip, sp, lr, pc}
 8004825:	f502ffff 			; <UNDEFINED> instruction: 0xf502ffff
 8004829:	00030002 	andeq	r0, r3, r2
 800482d:	08000000 	stmdaeq	r0, {}	; <UNPREDICTABLE>

08004830 <_ZL22layer_0_input_geometry>:
 8004830:	00000008 	andeq	r0, r0, r8
 8004834:	00000008 	andeq	r0, r0, r8
 8004838:	00000001 	andeq	r0, r0, r1

0800483c <_ZL22layer_1_input_geometry>:
 800483c:	00000008 	andeq	r0, r0, r8
 8004840:	00000008 	andeq	r0, r0, r8
 8004844:	00000004 	andeq	r0, r0, r4

08004848 <_ZL22layer_3_input_geometry>:
 8004848:	00000004 	andeq	r0, r0, r4
 800484c:	00000004 	andeq	r0, r0, r4
 8004850:	00000004 	andeq	r0, r0, r4

08004854 <_ZL22layer_4_input_geometry>:
 8004854:	00000004 	andeq	r0, r0, r4
 8004858:	00000004 	andeq	r0, r0, r4
 800485c:	00000008 	andeq	r0, r0, r8

08004860 <_ZL23layer_2_kernel_geometry>:
 8004860:	00000002 	andeq	r0, r0, r2
 8004864:	00000002 	andeq	r0, r0, r2
 8004868:	00000001 	andeq	r0, r0, r1

0800486c <_ZL23layer_0_kernel_geometry>:
 800486c:	00000003 	andeq	r0, r0, r3
 8004870:	00000003 	andeq	r0, r0, r3
 8004874:	00000004 	andeq	r0, r0, r4

08004878 <_ZL22layer_6_input_geometry>:
 8004878:	00000004 	andeq	r0, r0, r4
 800487c:	00000004 	andeq	r0, r0, r4
 8004880:	0000000c 	andeq	r0, r0, ip

08004884 <_ZL23layer_7_output_geometry>:
 8004884:	00000001 	andeq	r0, r0, r1
 8004888:	00000001 	andeq	r0, r0, r1
 800488c:	00000005 	andeq	r0, r0, r5

08004890 <_ZTV11LineNetwork>:
 8004890:	00000000 	andeq	r0, r0, r0
 8004894:	00000000 	andeq	r0, r0, r0
 8004898:	080039d5 	stmdaeq	r0, {r0, r2, r4, r6, r7, r8, fp, ip, sp}
 800489c:	08003a0d 	stmdaeq	r0, {r0, r2, r3, r9, fp, ip, sp}
 80048a0:	08001185 	stmdaeq	r0, {r0, r2, r7, r8, ip}
 80048a4:	080012f7 	stmdaeq	r0, {r0, r1, r2, r4, r5, r6, r7, r9, ip}

080048a8 <_ZTV10BrickAvoid>:
 80048a8:	00000000 	andeq	r0, r0, r0
 80048ac:	00000000 	andeq	r0, r0, r0
 80048b0:	08003dbd 	stmdaeq	r0, {r0, r2, r3, r4, r5, r7, r8, sl, fp, ip, sp}
 80048b4:	08003dd5 	stmdaeq	r0, {r0, r2, r4, r6, r7, r8, sl, fp, ip, sp}

Disassembly of section .init_array:

080048b8 <__init_array_start>:
 80048b8:	0800313d 	stmdaeq	r0, {r0, r2, r3, r4, r5, r8, ip, sp}

Disassembly of section .bss:

20000000 <_sbss>:
20000000:	00000000 	andeq	r0, r0, r0

20000004 <__dso_handle>:
20000004:	00000000 	andeq	r0, r0, r0

20000008 <g_left_encoder>:
20000008:	00000000 	andeq	r0, r0, r0

2000000c <g_right_encoder>:
2000000c:	00000000 	andeq	r0, r0, r0

20000010 <g_time>:
20000010:	00000000 	andeq	r0, r0, r0

20000014 <g_timers>:
20000014:	00000000 	andeq	r0, r0, r0
20000018:	00000000 	andeq	r0, r0, r0
2000001c:	00000000 	andeq	r0, r0, r0
20000020:	00000000 	andeq	r0, r0, r0
20000024:	00000000 	andeq	r0, r0, r0
20000028:	00000000 	andeq	r0, r0, r0
2000002c:	00000000 	andeq	r0, r0, r0
20000030:	00000000 	andeq	r0, r0, r0
20000034:	00000000 	andeq	r0, r0, r0
20000038:	00000000 	andeq	r0, r0, r0
2000003c:	00000000 	andeq	r0, r0, r0
20000040:	00000000 	andeq	r0, r0, r0
20000044:	00000000 	andeq	r0, r0, r0
20000048:	00000000 	andeq	r0, r0, r0
2000004c:	00000000 	andeq	r0, r0, r0
20000050:	00000000 	andeq	r0, r0, r0
20000054:	00000000 	andeq	r0, r0, r0
20000058:	00000000 	andeq	r0, r0, r0
2000005c:	00000000 	andeq	r0, r0, r0
20000060:	00000000 	andeq	r0, r0, r0
20000064:	00000000 	andeq	r0, r0, r0
20000068:	00000000 	andeq	r0, r0, r0
2000006c:	00000000 	andeq	r0, r0, r0
20000070:	00000000 	andeq	r0, r0, r0
20000074:	00000000 	andeq	r0, r0, r0
20000078:	00000000 	andeq	r0, r0, r0
2000007c:	00000000 	andeq	r0, r0, r0
20000080:	00000000 	andeq	r0, r0, r0
20000084:	00000000 	andeq	r0, r0, r0
20000088:	00000000 	andeq	r0, r0, r0
2000008c:	00000000 	andeq	r0, r0, r0
20000090:	00000000 	andeq	r0, r0, r0
20000094:	00000000 	andeq	r0, r0, r0
20000098:	00000000 	andeq	r0, r0, r0
2000009c:	00000000 	andeq	r0, r0, r0
200000a0:	00000000 	andeq	r0, r0, r0
200000a4:	00000000 	andeq	r0, r0, r0
200000a8:	00000000 	andeq	r0, r0, r0
200000ac:	00000000 	andeq	r0, r0, r0
200000b0:	00000000 	andeq	r0, r0, r0
200000b4:	00000000 	andeq	r0, r0, r0
200000b8:	00000000 	andeq	r0, r0, r0
200000bc:	00000000 	andeq	r0, r0, r0
200000c0:	00000000 	andeq	r0, r0, r0
200000c4:	00000000 	andeq	r0, r0, r0
200000c8:	00000000 	andeq	r0, r0, r0
200000cc:	00000000 	andeq	r0, r0, r0
200000d0:	00000000 	andeq	r0, r0, r0
200000d4:	00000000 	andeq	r0, r0, r0
200000d8:	00000000 	andeq	r0, r0, r0
200000dc:	00000000 	andeq	r0, r0, r0
200000e0:	00000000 	andeq	r0, r0, r0
200000e4:	00000000 	andeq	r0, r0, r0
200000e8:	00000000 	andeq	r0, r0, r0
200000ec:	00000000 	andeq	r0, r0, r0
200000f0:	00000000 	andeq	r0, r0, r0
200000f4:	00000000 	andeq	r0, r0, r0
200000f8:	00000000 	andeq	r0, r0, r0
200000fc:	00000000 	andeq	r0, r0, r0
20000100:	00000000 	andeq	r0, r0, r0
20000104:	00000000 	andeq	r0, r0, r0
20000108:	00000000 	andeq	r0, r0, r0
2000010c:	00000000 	andeq	r0, r0, r0
20000110:	00000000 	andeq	r0, r0, r0
20000114:	00000000 	andeq	r0, r0, r0
20000118:	00000000 	andeq	r0, r0, r0
2000011c:	00000000 	andeq	r0, r0, r0
20000120:	00000000 	andeq	r0, r0, r0
20000124:	00000000 	andeq	r0, r0, r0
20000128:	00000000 	andeq	r0, r0, r0
2000012c:	00000000 	andeq	r0, r0, r0
20000130:	00000000 	andeq	r0, r0, r0
20000134:	00000000 	andeq	r0, r0, r0
20000138:	00000000 	andeq	r0, r0, r0
2000013c:	00000000 	andeq	r0, r0, r0
20000140:	00000000 	andeq	r0, r0, r0
20000144:	00000000 	andeq	r0, r0, r0
20000148:	00000000 	andeq	r0, r0, r0
2000014c:	00000000 	andeq	r0, r0, r0
20000150:	00000000 	andeq	r0, r0, r0

20000154 <adc>:
20000154:	00000000 	andeq	r0, r0, r0

20000158 <distance_sensor>:
20000158:	00000000 	andeq	r0, r0, r0
2000015c:	00000000 	andeq	r0, r0, r0
20000160:	00000000 	andeq	r0, r0, r0
20000164:	00000000 	andeq	r0, r0, r0
20000168:	00000000 	andeq	r0, r0, r0
2000016c:	00000000 	andeq	r0, r0, r0
20000170:	00000000 	andeq	r0, r0, r0
20000174:	00000000 	andeq	r0, r0, r0
20000178:	00000000 	andeq	r0, r0, r0
2000017c:	00000000 	andeq	r0, r0, r0
20000180:	00000000 	andeq	r0, r0, r0
20000184:	00000000 	andeq	r0, r0, r0
20000188:	00000000 	andeq	r0, r0, r0
2000018c:	00000000 	andeq	r0, r0, r0
20000190:	00000000 	andeq	r0, r0, r0
20000194:	00000000 	andeq	r0, r0, r0
20000198:	00000000 	andeq	r0, r0, r0

2000019c <drivers>:
2000019c:	00000000 	andeq	r0, r0, r0
200001a0:	00000000 	andeq	r0, r0, r0

200001a4 <encoder_sensor>:
200001a4:	00000000 	andeq	r0, r0, r0
200001a8:	00000000 	andeq	r0, r0, r0
200001ac:	00000000 	andeq	r0, r0, r0
200001b0:	00000000 	andeq	r0, r0, r0
200001b4:	00000000 	andeq	r0, r0, r0

200001b8 <i2c>:
200001b8:	00000000 	andeq	r0, r0, r0
200001bc:	00000000 	andeq	r0, r0, r0
200001c0:	00000000 	andeq	r0, r0, r0
200001c4:	00000000 	andeq	r0, r0, r0

200001c8 <imu_sensor>:
200001c8:	00000000 	andeq	r0, r0, r0
200001cc:	00000000 	andeq	r0, r0, r0
200001d0:	00000000 	andeq	r0, r0, r0
200001d4:	00000000 	andeq	r0, r0, r0
200001d8:	00000000 	andeq	r0, r0, r0
200001dc:	00000000 	andeq	r0, r0, r0
200001e0:	00000000 	andeq	r0, r0, r0
200001e4:	00000000 	andeq	r0, r0, r0
200001e8:	00000000 	andeq	r0, r0, r0
200001ec:	00000000 	andeq	r0, r0, r0
200001f0:	00000000 	andeq	r0, r0, r0
200001f4:	00000000 	andeq	r0, r0, r0
200001f8:	00000000 	andeq	r0, r0, r0
200001fc:	00000000 	andeq	r0, r0, r0
20000200:	00000000 	andeq	r0, r0, r0
20000204:	00000000 	andeq	r0, r0, r0
20000208:	00000000 	andeq	r0, r0, r0

2000020c <key>:
2000020c:	00000000 	andeq	r0, r0, r0
20000210:	00000000 	andeq	r0, r0, r0
20000214:	00000000 	andeq	r0, r0, r0
20000218:	00000000 	andeq	r0, r0, r0
2000021c:	00000000 	andeq	r0, r0, r0
20000220:	00000000 	andeq	r0, r0, r0

20000224 <line_sensor>:
20000224:	00000000 	andeq	r0, r0, r0
20000228:	00000000 	andeq	r0, r0, r0
2000022c:	00000000 	andeq	r0, r0, r0
20000230:	00000000 	andeq	r0, r0, r0
20000234:	00000000 	andeq	r0, r0, r0
20000238:	00000000 	andeq	r0, r0, r0
2000023c:	00000000 	andeq	r0, r0, r0
20000240:	00000000 	andeq	r0, r0, r0
20000244:	00000000 	andeq	r0, r0, r0
20000248:	00000000 	andeq	r0, r0, r0
2000024c:	00000000 	andeq	r0, r0, r0
20000250:	00000000 	andeq	r0, r0, r0
20000254:	00000000 	andeq	r0, r0, r0
20000258:	00000000 	andeq	r0, r0, r0
2000025c:	00000000 	andeq	r0, r0, r0
20000260:	00000000 	andeq	r0, r0, r0
20000264:	00000000 	andeq	r0, r0, r0
20000268:	00000000 	andeq	r0, r0, r0
2000026c:	00000000 	andeq	r0, r0, r0
20000270:	00000000 	andeq	r0, r0, r0
20000274:	00000000 	andeq	r0, r0, r0
20000278:	00000000 	andeq	r0, r0, r0
2000027c:	00000000 	andeq	r0, r0, r0
20000280:	00000000 	andeq	r0, r0, r0
20000284:	00000000 	andeq	r0, r0, r0
20000288:	00000000 	andeq	r0, r0, r0
2000028c:	00000000 	andeq	r0, r0, r0
20000290:	00000000 	andeq	r0, r0, r0
20000294:	00000000 	andeq	r0, r0, r0
20000298:	00000000 	andeq	r0, r0, r0
2000029c:	00000000 	andeq	r0, r0, r0
200002a0:	00000000 	andeq	r0, r0, r0
200002a4:	00000000 	andeq	r0, r0, r0
200002a8:	00000000 	andeq	r0, r0, r0
200002ac:	00000000 	andeq	r0, r0, r0
200002b0:	00000000 	andeq	r0, r0, r0
200002b4:	00000000 	andeq	r0, r0, r0
200002b8:	00000000 	andeq	r0, r0, r0
200002bc:	00000000 	andeq	r0, r0, r0
200002c0:	00000000 	andeq	r0, r0, r0
200002c4:	00000000 	andeq	r0, r0, r0
200002c8:	00000000 	andeq	r0, r0, r0
200002cc:	00000000 	andeq	r0, r0, r0
200002d0:	00000000 	andeq	r0, r0, r0
200002d4:	00000000 	andeq	r0, r0, r0
200002d8:	00000000 	andeq	r0, r0, r0
200002dc:	00000000 	andeq	r0, r0, r0
200002e0:	00000000 	andeq	r0, r0, r0
200002e4:	00000000 	andeq	r0, r0, r0
200002e8:	00000000 	andeq	r0, r0, r0
200002ec:	00000000 	andeq	r0, r0, r0

200002f0 <motor_controll>:
200002f0:	00000000 	andeq	r0, r0, r0
200002f4:	00000000 	andeq	r0, r0, r0
200002f8:	00000000 	andeq	r0, r0, r0
200002fc:	00000000 	andeq	r0, r0, r0
20000300:	00000000 	andeq	r0, r0, r0
20000304:	00000000 	andeq	r0, r0, r0
20000308:	00000000 	andeq	r0, r0, r0
2000030c:	00000000 	andeq	r0, r0, r0
20000310:	00000000 	andeq	r0, r0, r0
20000314:	00000000 	andeq	r0, r0, r0
20000318:	00000000 	andeq	r0, r0, r0
2000031c:	00000000 	andeq	r0, r0, r0
20000320:	00000000 	andeq	r0, r0, r0
20000324:	00000000 	andeq	r0, r0, r0
20000328:	00000000 	andeq	r0, r0, r0
2000032c:	00000000 	andeq	r0, r0, r0
20000330:	00000000 	andeq	r0, r0, r0
20000334:	00000000 	andeq	r0, r0, r0
20000338:	00000000 	andeq	r0, r0, r0
2000033c:	00000000 	andeq	r0, r0, r0
20000340:	00000000 	andeq	r0, r0, r0
20000344:	00000000 	andeq	r0, r0, r0
20000348:	00000000 	andeq	r0, r0, r0
2000034c:	00000000 	andeq	r0, r0, r0
20000350:	00000000 	andeq	r0, r0, r0
20000354:	00000000 	andeq	r0, r0, r0
20000358:	00000000 	andeq	r0, r0, r0
2000035c:	00000000 	andeq	r0, r0, r0
20000360:	00000000 	andeq	r0, r0, r0
20000364:	00000000 	andeq	r0, r0, r0
20000368:	00000000 	andeq	r0, r0, r0
2000036c:	00000000 	andeq	r0, r0, r0
20000370:	00000000 	andeq	r0, r0, r0
20000374:	00000000 	andeq	r0, r0, r0
20000378:	00000000 	andeq	r0, r0, r0
2000037c:	00000000 	andeq	r0, r0, r0
20000380:	00000000 	andeq	r0, r0, r0

20000384 <terminal>:
20000384:	00000000 	andeq	r0, r0, r0

20000388 <timer>:
20000388:	00000000 	andeq	r0, r0, r0

Disassembly of section .comment:

00000000 <.comment>:
   0:	3a434347 	bcc	10d0d24 <__text_size__+0x10cc5f4>
   4:	35312820 	ldrcc	r2, [r1, #-2080]!	; 0xfffff7e0
   8:	332e363a 			; <UNDEFINED> instruction: 0x332e363a
   c:	732b312e 			; <UNDEFINED> instruction: 0x732b312e
  10:	35326e76 	ldrcc	r6, [r2, #-3702]!	; 0xfffff18a
  14:	39333033 	ldmdbcc	r3!, {r0, r1, r4, r5, ip, sp}
  18:	7562312d 	strbvc	r3, [r2, #-301]!	; 0xfffffed3
  1c:	31646c69 	cmncc	r4, r9, ror #24
  20:	2e362029 	cdpcs	0, 3, cr2, cr6, cr9, {1}
  24:	20312e33 	eorscs	r2, r1, r3, lsr lr
  28:	37313032 			; <UNDEFINED> instruction: 0x37313032
  2c:	30323630 	eorscc	r3, r2, r0, lsr r6
  30:	Address 0x0000000000000030 is out of bounds.


Disassembly of section .ARM.attributes:

00000000 <.ARM.attributes>:
   0:	00003441 	andeq	r3, r0, r1, asr #8
   4:	61656100 	cmnvs	r5, r0, lsl #2
   8:	01006962 	tsteq	r0, r2, ror #18
   c:	0000002a 	andeq	r0, r0, sl, lsr #32
  10:	726f4305 	rsbvc	r4, pc, #335544320	; 0x14000000
  14:	2d786574 	cfldr64cs	mvdx6, [r8, #-464]!	; 0xfffffe30
  18:	0600344d 	streq	r3, [r0], -sp, asr #8
  1c:	094d070d 	stmdbeq	sp, {r0, r2, r3, r8, r9, sl}^
  20:	12020a02 	andne	r0, r2, #8192	; 0x2000
  24:	15011404 	strne	r1, [r1, #-1028]	; 0xfffffbfc
  28:	18031701 	stmdane	r3, {r0, r8, r9, sl, ip}
  2c:	1a011901 	bne	46438 <__text_size__+0x41d08>
  30:	22041e01 	andcs	r1, r4, #1, 28
  34:	Address 0x0000000000000034 is out of bounds.

