
bin/main.elf:     file format elf32-littlearm


Disassembly of section .isr_vector:

08000000 <InterruptVector>:
 8000000:	20008000 	andcs	r8, r0, r0
 8000004:	080002b1 	stmdaeq	r0, {r0, r4, r5, r7, r9}
 8000008:	080002a1 	stmdaeq	r0, {r0, r5, r7, r9}
 800000c:	08000285 	stmdaeq	r0, {r0, r2, r7, r9}
 8000010:	080002a1 	stmdaeq	r0, {r0, r5, r7, r9}
 8000014:	080002a1 	stmdaeq	r0, {r0, r5, r7, r9}
 8000018:	080002a1 	stmdaeq	r0, {r0, r5, r7, r9}
 800001c:	00000000 	andeq	r0, r0, r0
 8000020:	00000000 	andeq	r0, r0, r0
 8000024:	00000000 	andeq	r0, r0, r0
 8000028:	00000000 	andeq	r0, r0, r0
 800002c:	080002a1 	stmdaeq	r0, {r0, r5, r7, r9}
 8000030:	080002a1 	stmdaeq	r0, {r0, r5, r7, r9}
 8000034:	00000000 	andeq	r0, r0, r0
 8000038:	080002a1 	stmdaeq	r0, {r0, r5, r7, r9}
 800003c:	080002a1 	stmdaeq	r0, {r0, r5, r7, r9}
 8000040:	080002a1 	stmdaeq	r0, {r0, r5, r7, r9}
 8000044:	080002a1 	stmdaeq	r0, {r0, r5, r7, r9}
 8000048:	080002a1 	stmdaeq	r0, {r0, r5, r7, r9}
 800004c:	080002a1 	stmdaeq	r0, {r0, r5, r7, r9}
 8000050:	080002a1 	stmdaeq	r0, {r0, r5, r7, r9}
 8000054:	080002a1 	stmdaeq	r0, {r0, r5, r7, r9}
 8000058:	080002a1 	stmdaeq	r0, {r0, r5, r7, r9}
 800005c:	080002a1 	stmdaeq	r0, {r0, r5, r7, r9}
 8000060:	080002a1 	stmdaeq	r0, {r0, r5, r7, r9}
 8000064:	080002a1 	stmdaeq	r0, {r0, r5, r7, r9}
 8000068:	080002a1 	stmdaeq	r0, {r0, r5, r7, r9}
 800006c:	080002a1 	stmdaeq	r0, {r0, r5, r7, r9}
 8000070:	080002a1 	stmdaeq	r0, {r0, r5, r7, r9}
 8000074:	080002a1 	stmdaeq	r0, {r0, r5, r7, r9}
 8000078:	080002a1 	stmdaeq	r0, {r0, r5, r7, r9}
 800007c:	080002a1 	stmdaeq	r0, {r0, r5, r7, r9}
 8000080:	080002a1 	stmdaeq	r0, {r0, r5, r7, r9}
 8000084:	080002a1 	stmdaeq	r0, {r0, r5, r7, r9}
 8000088:	080002a1 	stmdaeq	r0, {r0, r5, r7, r9}
 800008c:	080002a1 	stmdaeq	r0, {r0, r5, r7, r9}
 8000090:	080002a1 	stmdaeq	r0, {r0, r5, r7, r9}
 8000094:	080002a1 	stmdaeq	r0, {r0, r5, r7, r9}
 8000098:	080002a1 	stmdaeq	r0, {r0, r5, r7, r9}
 800009c:	08001aa9 	stmdaeq	r0, {r0, r3, r5, r7, r9, fp, ip}
 80000a0:	080002a1 	stmdaeq	r0, {r0, r5, r7, r9}
 80000a4:	080002a1 	stmdaeq	r0, {r0, r5, r7, r9}
 80000a8:	080002a1 	stmdaeq	r0, {r0, r5, r7, r9}
 80000ac:	080002a1 	stmdaeq	r0, {r0, r5, r7, r9}
 80000b0:	0800046d 	stmdaeq	r0, {r0, r2, r3, r5, r6, sl}
 80000b4:	080002a1 	stmdaeq	r0, {r0, r5, r7, r9}
 80000b8:	080002a1 	stmdaeq	r0, {r0, r5, r7, r9}
 80000bc:	080002a1 	stmdaeq	r0, {r0, r5, r7, r9}
 80000c0:	080002a1 	stmdaeq	r0, {r0, r5, r7, r9}
 80000c4:	080002a1 	stmdaeq	r0, {r0, r5, r7, r9}
 80000c8:	080002a1 	stmdaeq	r0, {r0, r5, r7, r9}
 80000cc:	080002a1 	stmdaeq	r0, {r0, r5, r7, r9}
 80000d0:	080002a1 	stmdaeq	r0, {r0, r5, r7, r9}
 80000d4:	080002a1 	stmdaeq	r0, {r0, r5, r7, r9}
 80000d8:	080002a1 	stmdaeq	r0, {r0, r5, r7, r9}
 80000dc:	080002a1 	stmdaeq	r0, {r0, r5, r7, r9}
 80000e0:	08001ad9 	stmdaeq	r0, {r0, r3, r4, r6, r7, r9, fp, ip}
 80000e4:	080002a1 	stmdaeq	r0, {r0, r5, r7, r9}
 80000e8:	080002a1 	stmdaeq	r0, {r0, r5, r7, r9}
 80000ec:	080002a1 	stmdaeq	r0, {r0, r5, r7, r9}
 80000f0:	080002a1 	stmdaeq	r0, {r0, r5, r7, r9}
 80000f4:	080002a1 	stmdaeq	r0, {r0, r5, r7, r9}
 80000f8:	080002a1 	stmdaeq	r0, {r0, r5, r7, r9}
 80000fc:	080002a1 	stmdaeq	r0, {r0, r5, r7, r9}
 8000100:	00000000 	andeq	r0, r0, r0
 8000104:	00000000 	andeq	r0, r0, r0
 8000108:	00000000 	andeq	r0, r0, r0
 800010c:	080002a1 	stmdaeq	r0, {r0, r5, r7, r9}
 8000110:	080002a1 	stmdaeq	r0, {r0, r5, r7, r9}
 8000114:	080002a1 	stmdaeq	r0, {r0, r5, r7, r9}
 8000118:	080002a1 	stmdaeq	r0, {r0, r5, r7, r9}
 800011c:	080002a1 	stmdaeq	r0, {r0, r5, r7, r9}
 8000120:	080002a1 	stmdaeq	r0, {r0, r5, r7, r9}
 8000124:	080002a1 	stmdaeq	r0, {r0, r5, r7, r9}
 8000128:	080002a1 	stmdaeq	r0, {r0, r5, r7, r9}
 800012c:	080002a1 	stmdaeq	r0, {r0, r5, r7, r9}
 8000130:	080002a1 	stmdaeq	r0, {r0, r5, r7, r9}
 8000134:	080002a1 	stmdaeq	r0, {r0, r5, r7, r9}
 8000138:	00000000 	andeq	r0, r0, r0
 800013c:	00000000 	andeq	r0, r0, r0
 8000140:	080002a1 	stmdaeq	r0, {r0, r5, r7, r9}
 8000144:	080002a1 	stmdaeq	r0, {r0, r5, r7, r9}
 8000148:	080002a1 	stmdaeq	r0, {r0, r5, r7, r9}
 800014c:	00000000 	andeq	r0, r0, r0
 8000150:	00000000 	andeq	r0, r0, r0
 8000154:	00000000 	andeq	r0, r0, r0
 8000158:	00000000 	andeq	r0, r0, r0
 800015c:	00000000 	andeq	r0, r0, r0
 8000160:	00000000 	andeq	r0, r0, r0
 8000164:	00000000 	andeq	r0, r0, r0
 8000168:	080002a1 	stmdaeq	r0, {r0, r5, r7, r9}
 800016c:	080002a1 	stmdaeq	r0, {r0, r5, r7, r9}
 8000170:	080002a1 	stmdaeq	r0, {r0, r5, r7, r9}
 8000174:	00000000 	andeq	r0, r0, r0
 8000178:	00000000 	andeq	r0, r0, r0
 800017c:	00000000 	andeq	r0, r0, r0
 8000180:	00000000 	andeq	r0, r0, r0
 8000184:	080002a1 	stmdaeq	r0, {r0, r5, r7, r9}

Disassembly of section .text:

08000188 <SystemInit>:
 8000188:	4a39      	ldr	r2, [pc, #228]	; (8000270 <SystemInit+0xe8>)
 800018a:	f8d2 3088 	ldr.w	r3, [r2, #136]	; 0x88
 800018e:	f443 0370 	orr.w	r3, r3, #15728640	; 0xf00000
 8000192:	f8c2 3088 	str.w	r3, [r2, #136]	; 0x88
 8000196:	4b37      	ldr	r3, [pc, #220]	; (8000274 <SystemInit+0xec>)
 8000198:	681a      	ldr	r2, [r3, #0]
 800019a:	f042 0201 	orr.w	r2, r2, #1
 800019e:	601a      	str	r2, [r3, #0]
 80001a0:	6859      	ldr	r1, [r3, #4]
 80001a2:	4a35      	ldr	r2, [pc, #212]	; (8000278 <SystemInit+0xf0>)
 80001a4:	400a      	ands	r2, r1
 80001a6:	605a      	str	r2, [r3, #4]
 80001a8:	681a      	ldr	r2, [r3, #0]
 80001aa:	f022 7284 	bic.w	r2, r2, #17301504	; 0x1080000
 80001ae:	f422 3280 	bic.w	r2, r2, #65536	; 0x10000
 80001b2:	601a      	str	r2, [r3, #0]
 80001b4:	681a      	ldr	r2, [r3, #0]
 80001b6:	f422 2280 	bic.w	r2, r2, #262144	; 0x40000
 80001ba:	601a      	str	r2, [r3, #0]
 80001bc:	685a      	ldr	r2, [r3, #4]
 80001be:	f422 02fe 	bic.w	r2, r2, #8323072	; 0x7f0000
 80001c2:	605a      	str	r2, [r3, #4]
 80001c4:	6ada      	ldr	r2, [r3, #44]	; 0x2c
 80001c6:	f022 020f 	bic.w	r2, r2, #15
 80001ca:	62da      	str	r2, [r3, #44]	; 0x2c
 80001cc:	6b19      	ldr	r1, [r3, #48]	; 0x30
 80001ce:	4a2b      	ldr	r2, [pc, #172]	; (800027c <SystemInit+0xf4>)
 80001d0:	b082      	sub	sp, #8
 80001d2:	400a      	ands	r2, r1
 80001d4:	631a      	str	r2, [r3, #48]	; 0x30
 80001d6:	2200      	movs	r2, #0
 80001d8:	609a      	str	r2, [r3, #8]
 80001da:	9200      	str	r2, [sp, #0]
 80001dc:	9201      	str	r2, [sp, #4]
 80001de:	681a      	ldr	r2, [r3, #0]
 80001e0:	f442 3280 	orr.w	r2, r2, #65536	; 0x10000
 80001e4:	601a      	str	r2, [r3, #0]
 80001e6:	681a      	ldr	r2, [r3, #0]
 80001e8:	f402 3200 	and.w	r2, r2, #131072	; 0x20000
 80001ec:	9201      	str	r2, [sp, #4]
 80001ee:	9a00      	ldr	r2, [sp, #0]
 80001f0:	3201      	adds	r2, #1
 80001f2:	9200      	str	r2, [sp, #0]
 80001f4:	9a01      	ldr	r2, [sp, #4]
 80001f6:	b91a      	cbnz	r2, 8000200 <SystemInit+0x78>
 80001f8:	9a00      	ldr	r2, [sp, #0]
 80001fa:	f5b2 4fa0 	cmp.w	r2, #20480	; 0x5000
 80001fe:	d1f2      	bne.n	80001e6 <SystemInit+0x5e>
 8000200:	681a      	ldr	r2, [r3, #0]
 8000202:	f412 3200 	ands.w	r2, r2, #131072	; 0x20000
 8000206:	bf18      	it	ne
 8000208:	2201      	movne	r2, #1
 800020a:	9201      	str	r2, [sp, #4]
 800020c:	9a01      	ldr	r2, [sp, #4]
 800020e:	2a01      	cmp	r2, #1
 8000210:	d005      	beq.n	800021e <SystemInit+0x96>
 8000212:	4b17      	ldr	r3, [pc, #92]	; (8000270 <SystemInit+0xe8>)
 8000214:	f04f 6200 	mov.w	r2, #134217728	; 0x8000000
 8000218:	609a      	str	r2, [r3, #8]
 800021a:	b002      	add	sp, #8
 800021c:	4770      	bx	lr
 800021e:	4a18      	ldr	r2, [pc, #96]	; (8000280 <SystemInit+0xf8>)
 8000220:	2112      	movs	r1, #18
 8000222:	6011      	str	r1, [r2, #0]
 8000224:	685a      	ldr	r2, [r3, #4]
 8000226:	605a      	str	r2, [r3, #4]
 8000228:	685a      	ldr	r2, [r3, #4]
 800022a:	605a      	str	r2, [r3, #4]
 800022c:	685a      	ldr	r2, [r3, #4]
 800022e:	f442 6280 	orr.w	r2, r2, #1024	; 0x400
 8000232:	605a      	str	r2, [r3, #4]
 8000234:	685a      	ldr	r2, [r3, #4]
 8000236:	f422 127c 	bic.w	r2, r2, #4128768	; 0x3f0000
 800023a:	605a      	str	r2, [r3, #4]
 800023c:	685a      	ldr	r2, [r3, #4]
 800023e:	f442 12e8 	orr.w	r2, r2, #1900544	; 0x1d0000
 8000242:	605a      	str	r2, [r3, #4]
 8000244:	681a      	ldr	r2, [r3, #0]
 8000246:	f042 7280 	orr.w	r2, r2, #16777216	; 0x1000000
 800024a:	601a      	str	r2, [r3, #0]
 800024c:	681a      	ldr	r2, [r3, #0]
 800024e:	0192      	lsls	r2, r2, #6
 8000250:	d5fc      	bpl.n	800024c <SystemInit+0xc4>
 8000252:	685a      	ldr	r2, [r3, #4]
 8000254:	f022 0203 	bic.w	r2, r2, #3
 8000258:	605a      	str	r2, [r3, #4]
 800025a:	685a      	ldr	r2, [r3, #4]
 800025c:	f042 0202 	orr.w	r2, r2, #2
 8000260:	605a      	str	r2, [r3, #4]
 8000262:	685a      	ldr	r2, [r3, #4]
 8000264:	f002 020c 	and.w	r2, r2, #12
 8000268:	2a08      	cmp	r2, #8
 800026a:	d1fa      	bne.n	8000262 <SystemInit+0xda>
 800026c:	e7d1      	b.n	8000212 <SystemInit+0x8a>
 800026e:	bf00      	nop
 8000270:	e000ed00 	and	lr, r0, r0, lsl #26
 8000274:	40021000 	andmi	r1, r2, r0
 8000278:	f87fc00c 			; <UNDEFINED> instruction: 0xf87fc00c
 800027c:	ff00fccc 			; <UNDEFINED> instruction: 0xff00fccc
 8000280:	40022000 	andmi	r2, r2, r0

08000284 <HardFault_Handler>:
 8000284:	4668      	mov	r0, sp
 8000286:	f020 0107 	bic.w	r1, r0, #7
 800028a:	4a04      	ldr	r2, [pc, #16]	; (800029c <HardFault_Handler+0x18>)
 800028c:	468d      	mov	sp, r1
 800028e:	bf00      	nop
 8000290:	8d13      	ldrh	r3, [r2, #40]	; 0x28
 8000292:	b29b      	uxth	r3, r3
 8000294:	f443 4300 	orr.w	r3, r3, #32768	; 0x8000
 8000298:	8513      	strh	r3, [r2, #40]	; 0x28
 800029a:	e7f8      	b.n	800028e <HardFault_Handler+0xa>
 800029c:	48000400 	stmdami	r0, {sl}

080002a0 <Default_Handler>:
 80002a0:	4668      	mov	r0, sp
 80002a2:	f020 0107 	bic.w	r1, r0, #7
 80002a6:	468d      	mov	sp, r1
 80002a8:	b508      	push	{r3, lr}
 80002aa:	f7ff ffeb 	bl	8000284 <HardFault_Handler>
 80002ae:	0000      	movs	r0, r0

080002b0 <Reset_Handler>:
 80002b0:	4914      	ldr	r1, [pc, #80]	; (8000304 <Reset_Handler+0x54>)
 80002b2:	4a15      	ldr	r2, [pc, #84]	; (8000308 <Reset_Handler+0x58>)
 80002b4:	4815      	ldr	r0, [pc, #84]	; (800030c <Reset_Handler+0x5c>)
 80002b6:	1a52      	subs	r2, r2, r1
 80002b8:	1092      	asrs	r2, r2, #2
 80002ba:	2300      	movs	r3, #0
 80002bc:	429a      	cmp	r2, r3
 80002be:	d115      	bne.n	80002ec <Reset_Handler+0x3c>
 80002c0:	4a13      	ldr	r2, [pc, #76]	; (8000310 <Reset_Handler+0x60>)
 80002c2:	4e14      	ldr	r6, [pc, #80]	; (8000314 <Reset_Handler+0x64>)
 80002c4:	f8d2 3088 	ldr.w	r3, [r2, #136]	; 0x88
 80002c8:	4c13      	ldr	r4, [pc, #76]	; (8000318 <Reset_Handler+0x68>)
 80002ca:	f443 0370 	orr.w	r3, r3, #15728640	; 0xf00000
 80002ce:	f8c2 3088 	str.w	r3, [r2, #136]	; 0x88
 80002d2:	f8d2 3234 	ldr.w	r3, [r2, #564]	; 0x234
 80002d6:	1ba4      	subs	r4, r4, r6
 80002d8:	f043 4340 	orr.w	r3, r3, #3221225472	; 0xc0000000
 80002dc:	f8c2 3234 	str.w	r3, [r2, #564]	; 0x234
 80002e0:	10a4      	asrs	r4, r4, #2
 80002e2:	2500      	movs	r5, #0
 80002e4:	42a5      	cmp	r5, r4
 80002e6:	d107      	bne.n	80002f8 <Reset_Handler+0x48>
 80002e8:	f001 b9b0 	b.w	800164c <main>
 80002ec:	f850 4023 	ldr.w	r4, [r0, r3, lsl #2]
 80002f0:	f841 4023 	str.w	r4, [r1, r3, lsl #2]
 80002f4:	3301      	adds	r3, #1
 80002f6:	e7e1      	b.n	80002bc <Reset_Handler+0xc>
 80002f8:	f856 3025 	ldr.w	r3, [r6, r5, lsl #2]
 80002fc:	4798      	blx	r3
 80002fe:	3501      	adds	r5, #1
 8000300:	e7f0      	b.n	80002e4 <Reset_Handler+0x34>
 8000302:	bf00      	nop
 8000304:	20000000 	andcs	r0, r0, r0
 8000308:	20000000 	andcs	r0, r0, r0
 800030c:	08002034 	stmdaeq	r0, {r2, r4, r5, sp}
 8000310:	e000ed00 	and	lr, r0, r0, lsl #26
 8000314:	08002034 	stmdaeq	r0, {r2, r4, r5, sp}
 8000318:	0800203c 	stmdaeq	r0, {r2, r3, r4, r5, sp}

0800031c <_ZN13MotorControll4mainEv>:
 800031c:	4770      	bx	lr
 800031e:	0000      	movs	r0, r0

08000320 <_ZN13MotorControllD1Ev>:
 8000320:	b510      	push	{r4, lr}
 8000322:	4b04      	ldr	r3, [pc, #16]	; (8000334 <_ZN13MotorControllD1Ev+0x14>)
 8000324:	4604      	mov	r4, r0
 8000326:	f840 3b04 	str.w	r3, [r0], #4
 800032a:	f001 faa7 	bl	800187c <_ZN5MotorD1Ev>
 800032e:	4620      	mov	r0, r4
 8000330:	bd10      	pop	{r4, pc}
 8000332:	bf00      	nop
 8000334:	08001e70 	stmdaeq	r0, {r4, r5, r6, r9, sl, fp, ip}

08000338 <_ZN13MotorControllD0Ev>:
 8000338:	b510      	push	{r4, lr}
 800033a:	4604      	mov	r4, r0
 800033c:	f7ff fff0 	bl	8000320 <_ZN13MotorControllD1Ev>
 8000340:	4620      	mov	r0, r4
 8000342:	2118      	movs	r1, #24
 8000344:	f000 ff96 	bl	8001274 <_ZdlPvj>
 8000348:	4620      	mov	r0, r4
 800034a:	bd10      	pop	{r4, pc}

0800034c <_ZN13MotorControllC1Ev>:
 800034c:	b510      	push	{r4, lr}
 800034e:	4b04      	ldr	r3, [pc, #16]	; (8000360 <_ZN13MotorControllC1Ev+0x14>)
 8000350:	4604      	mov	r4, r0
 8000352:	f840 3b04 	str.w	r3, [r0], #4
 8000356:	f001 f9f3 	bl	8001740 <_ZN5MotorC1Ev>
 800035a:	4620      	mov	r0, r4
 800035c:	bd10      	pop	{r4, pc}
 800035e:	bf00      	nop
 8000360:	08001e70 	stmdaeq	r0, {r4, r5, r6, r9, sl, fp, ip}

08000364 <_ZN13MotorControll4initEv>:
 8000364:	b508      	push	{r3, lr}
 8000366:	3004      	adds	r0, #4
 8000368:	f001 fae2 	bl	8001930 <_ZN5Motor4initEv>
 800036c:	2000      	movs	r0, #0
 800036e:	bd08      	pop	{r3, pc}

08000370 <_ZN5TimerC1Ev>:
 8000370:	4770      	bx	lr
 8000372:	0000      	movs	r0, r0

08000374 <_ZN5Timer4initEv>:
 8000374:	b5f7      	push	{r0, r1, r2, r4, r5, r6, r7, lr}
 8000376:	2200      	movs	r2, #0
 8000378:	4d15      	ldr	r5, [pc, #84]	; (80003d0 <_ZN5Timer4initEv+0x5c>)
 800037a:	2714      	movs	r7, #20
 800037c:	4613      	mov	r3, r2
 800037e:	f44f 767a 	mov.w	r6, #1000	; 0x3e8
 8000382:	fb07 f402 	mul.w	r4, r7, r2
 8000386:	1929      	adds	r1, r5, r4
 8000388:	3201      	adds	r2, #1
 800038a:	2a10      	cmp	r2, #16
 800038c:	512b      	str	r3, [r5, r4]
 800038e:	604b      	str	r3, [r1, #4]
 8000390:	608e      	str	r6, [r1, #8]
 8000392:	60cb      	str	r3, [r1, #12]
 8000394:	740b      	strb	r3, [r1, #16]
 8000396:	744b      	strb	r3, [r1, #17]
 8000398:	d1f3      	bne.n	8000382 <_ZN5Timer4initEv+0xe>
 800039a:	4a0e      	ldr	r2, [pc, #56]	; (80003d4 <_ZN5Timer4initEv+0x60>)
 800039c:	6013      	str	r3, [r2, #0]
 800039e:	4a0e      	ldr	r2, [pc, #56]	; (80003d8 <_ZN5Timer4initEv+0x64>)
 80003a0:	6003      	str	r3, [r0, #0]
 80003a2:	69d3      	ldr	r3, [r2, #28]
 80003a4:	f043 0301 	orr.w	r3, r3, #1
 80003a8:	61d3      	str	r3, [r2, #28]
 80003aa:	2200      	movs	r2, #0
 80003ac:	f44f 7334 	mov.w	r3, #720	; 0x2d0
 80003b0:	9300      	str	r3, [sp, #0]
 80003b2:	4611      	mov	r1, r2
 80003b4:	2363      	movs	r3, #99	; 0x63
 80003b6:	f04f 4080 	mov.w	r0, #1073741824	; 0x40000000
 80003ba:	f001 fc99 	bl	8001cf0 <_Z10timer_initP11TIM_TypeDefmmmm>
 80003be:	2201      	movs	r2, #1
 80003c0:	2100      	movs	r1, #0
 80003c2:	201c      	movs	r0, #28
 80003c4:	f001 fc72 	bl	8001cac <_Z9nvic_initmmm>
 80003c8:	b662      	cpsie	i
 80003ca:	b003      	add	sp, #12
 80003cc:	bdf0      	pop	{r4, r5, r6, r7, pc}
 80003ce:	bf00      	nop
 80003d0:	20000004 	andcs	r0, r0, r4
 80003d4:	20000000 	andcs	r0, r0, r0
 80003d8:	40021000 	andmi	r1, r2, r0

080003dc <_ZN5TimerD1Ev>:
 80003dc:	4770      	bx	lr
 80003de:	0000      	movs	r0, r0

080003e0 <_ZN5Timer8add_taskEP6Threadjb>:
 80003e0:	b5f0      	push	{r4, r5, r6, r7, lr}
 80003e2:	b672      	cpsid	i
 80003e4:	4d11      	ldr	r5, [pc, #68]	; (800042c <_ZN5Timer8add_taskEP6Threadjb+0x4c>)
 80003e6:	2400      	movs	r4, #0
 80003e8:	f04f 30ff 	mov.w	r0, #4294967295	; 0xffffffff
 80003ec:	f04f 0e14 	mov.w	lr, #20
 80003f0:	462f      	mov	r7, r5
 80003f2:	fb0e f604 	mul.w	r6, lr, r4
 80003f6:	eb05 0c06 	add.w	ip, r5, r6
 80003fa:	59ae      	ldr	r6, [r5, r6]
 80003fc:	b926      	cbnz	r6, 8000408 <_ZN5Timer8add_taskEP6Threadjb+0x28>
 80003fe:	f8dc 6004 	ldr.w	r6, [ip, #4]
 8000402:	2e00      	cmp	r6, #0
 8000404:	bf08      	it	eq
 8000406:	4620      	moveq	r0, r4
 8000408:	3401      	adds	r4, #1
 800040a:	2c10      	cmp	r4, #16
 800040c:	d1f1      	bne.n	80003f2 <_ZN5Timer8add_taskEP6Threadjb+0x12>
 800040e:	1c44      	adds	r4, r0, #1
 8000410:	d00a      	beq.n	8000428 <_ZN5Timer8add_taskEP6Threadjb+0x48>
 8000412:	b2c4      	uxtb	r4, r0
 8000414:	2514      	movs	r5, #20
 8000416:	4365      	muls	r5, r4
 8000418:	197c      	adds	r4, r7, r5
 800041a:	2600      	movs	r6, #0
 800041c:	517e      	str	r6, [r7, r5]
 800041e:	6061      	str	r1, [r4, #4]
 8000420:	60a2      	str	r2, [r4, #8]
 8000422:	60e2      	str	r2, [r4, #12]
 8000424:	7426      	strb	r6, [r4, #16]
 8000426:	7463      	strb	r3, [r4, #17]
 8000428:	b662      	cpsie	i
 800042a:	bdf0      	pop	{r4, r5, r6, r7, pc}
 800042c:	20000004 	andcs	r0, r0, r4

08000430 <_ZN5Timer8get_timeEv>:
 8000430:	b082      	sub	sp, #8
 8000432:	b672      	cpsid	i
 8000434:	4b03      	ldr	r3, [pc, #12]	; (8000444 <_ZN5Timer8get_timeEv+0x14>)
 8000436:	681b      	ldr	r3, [r3, #0]
 8000438:	9301      	str	r3, [sp, #4]
 800043a:	b662      	cpsie	i
 800043c:	9801      	ldr	r0, [sp, #4]
 800043e:	b002      	add	sp, #8
 8000440:	4770      	bx	lr
 8000442:	bf00      	nop
 8000444:	20000000 	andcs	r0, r0, r0

08000448 <_ZN5Timer8delay_msEj>:
 8000448:	b507      	push	{r0, r1, r2, lr}
 800044a:	4602      	mov	r2, r0
 800044c:	f7ff fff0 	bl	8000430 <_ZN5Timer8get_timeEv>
 8000450:	4401      	add	r1, r0
 8000452:	9101      	str	r1, [sp, #4]
 8000454:	4610      	mov	r0, r2
 8000456:	f7ff ffeb 	bl	8000430 <_ZN5Timer8get_timeEv>
 800045a:	9b01      	ldr	r3, [sp, #4]
 800045c:	4298      	cmp	r0, r3
 800045e:	d201      	bcs.n	8000464 <_ZN5Timer8delay_msEj+0x1c>
 8000460:	bf00      	nop
 8000462:	e7f7      	b.n	8000454 <_ZN5Timer8delay_msEj+0xc>
 8000464:	b003      	add	sp, #12
 8000466:	f85d fb04 	ldr.w	pc, [sp], #4
 800046a:	0000      	movs	r0, r0

0800046c <TIM2_IRQHandler>:
 800046c:	b5f8      	push	{r3, r4, r5, r6, r7, lr}
 800046e:	f04f 4380 	mov.w	r3, #1073741824	; 0x40000000
 8000472:	691a      	ldr	r2, [r3, #16]
 8000474:	07d2      	lsls	r2, r2, #31
 8000476:	d514      	bpl.n	80004a2 <TIM2_IRQHandler+0x36>
 8000478:	4f19      	ldr	r7, [pc, #100]	; (80004e0 <TIM2_IRQHandler+0x74>)
 800047a:	f64f 72fe 	movw	r2, #65534	; 0xfffe
 800047e:	611a      	str	r2, [r3, #16]
 8000480:	2400      	movs	r4, #0
 8000482:	2614      	movs	r6, #20
 8000484:	463d      	mov	r5, r7
 8000486:	fb06 7304 	mla	r3, r6, r4, r7
 800048a:	68da      	ldr	r2, [r3, #12]
 800048c:	b152      	cbz	r2, 80004a4 <TIM2_IRQHandler+0x38>
 800048e:	68da      	ldr	r2, [r3, #12]
 8000490:	3a01      	subs	r2, #1
 8000492:	60da      	str	r2, [r3, #12]
 8000494:	3401      	adds	r4, #1
 8000496:	2c10      	cmp	r4, #16
 8000498:	d1f5      	bne.n	8000486 <TIM2_IRQHandler+0x1a>
 800049a:	4a12      	ldr	r2, [pc, #72]	; (80004e4 <TIM2_IRQHandler+0x78>)
 800049c:	6813      	ldr	r3, [r2, #0]
 800049e:	3301      	adds	r3, #1
 80004a0:	6013      	str	r3, [r2, #0]
 80004a2:	bdf8      	pop	{r3, r4, r5, r6, r7, pc}
 80004a4:	689a      	ldr	r2, [r3, #8]
 80004a6:	60da      	str	r2, [r3, #12]
 80004a8:	7c1a      	ldrb	r2, [r3, #16]
 80004aa:	2aff      	cmp	r2, #255	; 0xff
 80004ac:	bf1f      	itttt	ne
 80004ae:	7c1a      	ldrbne	r2, [r3, #16]
 80004b0:	3201      	addne	r2, #1
 80004b2:	b2d2      	uxtbne	r2, r2
 80004b4:	741a      	strbne	r2, [r3, #16]
 80004b6:	fb06 f304 	mul.w	r3, r6, r4
 80004ba:	18ea      	adds	r2, r5, r3
 80004bc:	7c52      	ldrb	r2, [r2, #17]
 80004be:	2a00      	cmp	r2, #0
 80004c0:	d1e8      	bne.n	8000494 <TIM2_IRQHandler+0x28>
 80004c2:	58ea      	ldr	r2, [r5, r3]
 80004c4:	b10a      	cbz	r2, 80004ca <TIM2_IRQHandler+0x5e>
 80004c6:	58eb      	ldr	r3, [r5, r3]
 80004c8:	4798      	blx	r3
 80004ca:	fb06 5304 	mla	r3, r6, r4, r5
 80004ce:	685a      	ldr	r2, [r3, #4]
 80004d0:	2a00      	cmp	r2, #0
 80004d2:	d0df      	beq.n	8000494 <TIM2_IRQHandler+0x28>
 80004d4:	6858      	ldr	r0, [r3, #4]
 80004d6:	6803      	ldr	r3, [r0, #0]
 80004d8:	689b      	ldr	r3, [r3, #8]
 80004da:	4798      	blx	r3
 80004dc:	e7da      	b.n	8000494 <TIM2_IRQHandler+0x28>
 80004de:	bf00      	nop
 80004e0:	20000004 	andcs	r0, r0, r4
 80004e4:	20000000 	andcs	r0, r0, r0

080004e8 <_ZN14DistanceSensorD1Ev>:
 80004e8:	4770      	bx	lr

080004ea <_ZN14DistanceSensorD0Ev>:
 80004ea:	b510      	push	{r4, lr}
 80004ec:	2144      	movs	r1, #68	; 0x44
 80004ee:	4604      	mov	r4, r0
 80004f0:	f000 fec0 	bl	8001274 <_ZdlPvj>
 80004f4:	4620      	mov	r0, r4
 80004f6:	bd10      	pop	{r4, pc}

080004f8 <_ZN14DistanceSensorC1Ev>:
 80004f8:	4928      	ldr	r1, [pc, #160]	; (800059c <_ZN14DistanceSensorC1Ev+0xa4>)
 80004fa:	4b29      	ldr	r3, [pc, #164]	; (80005a0 <_ZN14DistanceSensorC1Ev+0xa8>)
 80004fc:	6003      	str	r3, [r0, #0]
 80004fe:	694b      	ldr	r3, [r1, #20]
 8000500:	f443 037f 	orr.w	r3, r3, #16711680	; 0xff0000
 8000504:	b530      	push	{r4, r5, lr}
 8000506:	614b      	str	r3, [r1, #20]
 8000508:	4b26      	ldr	r3, [pc, #152]	; (80005a4 <_ZN14DistanceSensorC1Ev+0xac>)
 800050a:	6183      	str	r3, [r0, #24]
 800050c:	689a      	ldr	r2, [r3, #8]
 800050e:	f022 6240 	bic.w	r2, r2, #201326592	; 0xc000000
 8000512:	609a      	str	r2, [r3, #8]
 8000514:	689a      	ldr	r2, [r3, #8]
 8000516:	f042 6240 	orr.w	r2, r2, #201326592	; 0xc000000
 800051a:	609a      	str	r2, [r3, #8]
 800051c:	889a      	ldrh	r2, [r3, #4]
 800051e:	f422 5200 	bic.w	r2, r2, #8192	; 0x2000
 8000522:	0412      	lsls	r2, r2, #16
 8000524:	0c12      	lsrs	r2, r2, #16
 8000526:	809a      	strh	r2, [r3, #4]
 8000528:	889a      	ldrh	r2, [r3, #4]
 800052a:	b292      	uxth	r2, r2
 800052c:	809a      	strh	r2, [r3, #4]
 800052e:	681a      	ldr	r2, [r3, #0]
 8000530:	f022 6240 	bic.w	r2, r2, #201326592	; 0xc000000
 8000534:	601a      	str	r2, [r3, #0]
 8000536:	681a      	ldr	r2, [r3, #0]
 8000538:	f042 6280 	orr.w	r2, r2, #67108864	; 0x4000000
 800053c:	601a      	str	r2, [r3, #0]
 800053e:	694a      	ldr	r2, [r1, #20]
 8000540:	f442 027f 	orr.w	r2, r2, #16711680	; 0xff0000
 8000544:	614a      	str	r2, [r1, #20]
 8000546:	4a18      	ldr	r2, [pc, #96]	; (80005a8 <_ZN14DistanceSensorC1Ev+0xb0>)
 8000548:	61c2      	str	r2, [r0, #28]
 800054a:	6815      	ldr	r5, [r2, #0]
 800054c:	f025 0503 	bic.w	r5, r5, #3
 8000550:	6015      	str	r5, [r2, #0]
 8000552:	6815      	ldr	r5, [r2, #0]
 8000554:	f045 0503 	orr.w	r5, r5, #3
 8000558:	6015      	str	r5, [r2, #0]
 800055a:	694d      	ldr	r5, [r1, #20]
 800055c:	f445 057f 	orr.w	r5, r5, #16711680	; 0xff0000
 8000560:	614d      	str	r5, [r1, #20]
 8000562:	6815      	ldr	r5, [r2, #0]
 8000564:	6202      	str	r2, [r0, #32]
 8000566:	f025 050c 	bic.w	r5, r5, #12
 800056a:	6015      	str	r5, [r2, #0]
 800056c:	6815      	ldr	r5, [r2, #0]
 800056e:	f045 050c 	orr.w	r5, r5, #12
 8000572:	6015      	str	r5, [r2, #0]
 8000574:	694a      	ldr	r2, [r1, #20]
 8000576:	f442 027f 	orr.w	r2, r2, #16711680	; 0xff0000
 800057a:	614a      	str	r2, [r1, #20]
 800057c:	681a      	ldr	r2, [r3, #0]
 800057e:	6243      	str	r3, [r0, #36]	; 0x24
 8000580:	f022 0203 	bic.w	r2, r2, #3
 8000584:	601a      	str	r2, [r3, #0]
 8000586:	681a      	ldr	r2, [r3, #0]
 8000588:	f042 0203 	orr.w	r2, r2, #3
 800058c:	601a      	str	r2, [r3, #0]
 800058e:	8d1a      	ldrh	r2, [r3, #40]	; 0x28
 8000590:	b292      	uxth	r2, r2
 8000592:	f442 5200 	orr.w	r2, r2, #8192	; 0x2000
 8000596:	851a      	strh	r2, [r3, #40]	; 0x28
 8000598:	bd30      	pop	{r4, r5, pc}
 800059a:	bf00      	nop
 800059c:	40021000 	andmi	r1, r2, r0
 80005a0:	08001e84 	stmdaeq	r0, {r2, r7, r9, sl, fp, ip}
 80005a4:	48000800 	stmdami	r0, {fp}
 80005a8:	48000400 	stmdami	r0, {sl}

080005ac <_ZN14DistanceSensor6filterEPij>:
 80005ac:	eb00 0282 	add.w	r2, r0, r2, lsl #2
 80005b0:	6b93      	ldr	r3, [r2, #56]	; 0x38
 80005b2:	6ad2      	ldr	r2, [r2, #44]	; 0x2c
 80005b4:	1a9b      	subs	r3, r3, r2
 80005b6:	ea23 73e3 	bic.w	r3, r3, r3, asr #31
 80005ba:	2210      	movs	r2, #16
 80005bc:	f5c3 5380 	rsb	r3, r3, #4096	; 0x1000
 80005c0:	fb93 f3f2 	sdiv	r3, r3, r2
 80005c4:	680a      	ldr	r2, [r1, #0]
 80005c6:	eb02 0242 	add.w	r2, r2, r2, lsl #1
 80005ca:	4413      	add	r3, r2
 80005cc:	2204      	movs	r2, #4
 80005ce:	fb93 f3f2 	sdiv	r3, r3, r2
 80005d2:	600b      	str	r3, [r1, #0]
 80005d4:	4770      	bx	lr

080005d6 <_ZN14DistanceSensor4mainEv>:
 80005d6:	b538      	push	{r3, r4, r5, lr}
 80005d8:	6a85      	ldr	r5, [r0, #40]	; 0x28
 80005da:	4604      	mov	r4, r0
 80005dc:	b115      	cbz	r5, 80005e4 <_ZN14DistanceSensor4mainEv+0xe>
 80005de:	2d01      	cmp	r5, #1
 80005e0:	d014      	beq.n	800060c <_ZN14DistanceSensor4mainEv+0x36>
 80005e2:	bd38      	pop	{r3, r4, r5, pc}
 80005e4:	2008      	movs	r0, #8
 80005e6:	f001 fb3d 	bl	8001c64 <_Z8adc_readi>
 80005ea:	63a0      	str	r0, [r4, #56]	; 0x38
 80005ec:	2009      	movs	r0, #9
 80005ee:	f001 fb39 	bl	8001c64 <_Z8adc_readi>
 80005f2:	63e0      	str	r0, [r4, #60]	; 0x3c
 80005f4:	200a      	movs	r0, #10
 80005f6:	f001 fb35 	bl	8001c64 <_Z8adc_readi>
 80005fa:	69a2      	ldr	r2, [r4, #24]
 80005fc:	6420      	str	r0, [r4, #64]	; 0x40
 80005fe:	6993      	ldr	r3, [r2, #24]
 8000600:	f443 5300 	orr.w	r3, r3, #8192	; 0x2000
 8000604:	6193      	str	r3, [r2, #24]
 8000606:	2301      	movs	r3, #1
 8000608:	62a3      	str	r3, [r4, #40]	; 0x28
 800060a:	bd38      	pop	{r3, r4, r5, pc}
 800060c:	2008      	movs	r0, #8
 800060e:	f001 fb29 	bl	8001c64 <_Z8adc_readi>
 8000612:	62e0      	str	r0, [r4, #44]	; 0x2c
 8000614:	2009      	movs	r0, #9
 8000616:	f001 fb25 	bl	8001c64 <_Z8adc_readi>
 800061a:	6320      	str	r0, [r4, #48]	; 0x30
 800061c:	200a      	movs	r0, #10
 800061e:	f001 fb21 	bl	8001c64 <_Z8adc_readi>
 8000622:	69a2      	ldr	r2, [r4, #24]
 8000624:	6360      	str	r0, [r4, #52]	; 0x34
 8000626:	8d13      	ldrh	r3, [r2, #40]	; 0x28
 8000628:	b29b      	uxth	r3, r3
 800062a:	f443 5300 	orr.w	r3, r3, #8192	; 0x2000
 800062e:	8513      	strh	r3, [r2, #40]	; 0x28
 8000630:	f104 0108 	add.w	r1, r4, #8
 8000634:	2200      	movs	r2, #0
 8000636:	4620      	mov	r0, r4
 8000638:	f7ff ffb8 	bl	80005ac <_ZN14DistanceSensor6filterEPij>
 800063c:	462a      	mov	r2, r5
 800063e:	1d21      	adds	r1, r4, #4
 8000640:	4620      	mov	r0, r4
 8000642:	f7ff ffb3 	bl	80005ac <_ZN14DistanceSensor6filterEPij>
 8000646:	2202      	movs	r2, #2
 8000648:	f104 010c 	add.w	r1, r4, #12
 800064c:	4620      	mov	r0, r4
 800064e:	f7ff ffad 	bl	80005ac <_ZN14DistanceSensor6filterEPij>
 8000652:	68a2      	ldr	r2, [r4, #8]
 8000654:	2aef      	cmp	r2, #239	; 0xef
 8000656:	f04f 0300 	mov.w	r3, #0
 800065a:	dc04      	bgt.n	8000666 <_ZN14DistanceSensor4mainEv+0x90>
 800065c:	2ad1      	cmp	r2, #209	; 0xd1
 800065e:	7425      	strb	r5, [r4, #16]
 8000660:	dd03      	ble.n	800066a <_ZN14DistanceSensor4mainEv+0x94>
 8000662:	7463      	strb	r3, [r4, #17]
 8000664:	e002      	b.n	800066c <_ZN14DistanceSensor4mainEv+0x96>
 8000666:	7423      	strb	r3, [r4, #16]
 8000668:	e7fb      	b.n	8000662 <_ZN14DistanceSensor4mainEv+0x8c>
 800066a:	7465      	strb	r5, [r4, #17]
 800066c:	2300      	movs	r3, #0
 800066e:	62a3      	str	r3, [r4, #40]	; 0x28
 8000670:	2301      	movs	r3, #1
 8000672:	7523      	strb	r3, [r4, #20]
 8000674:	bd38      	pop	{r3, r4, r5, pc}

08000676 <_ZN7DriversD1Ev>:
 8000676:	4770      	bx	lr

08000678 <_ZN7DriversD0Ev>:
 8000678:	b510      	push	{r4, lr}
 800067a:	2108      	movs	r1, #8
 800067c:	4604      	mov	r4, r0
 800067e:	f000 fdf9 	bl	8001274 <_ZdlPvj>
 8000682:	4620      	mov	r0, r4
 8000684:	bd10      	pop	{r4, pc}
 8000686:	0000      	movs	r0, r0

08000688 <_ZN4TI2CILh1ELh7ELh6ELh10ELh1EED1Ev>:
 8000688:	b510      	push	{r4, lr}
 800068a:	4b03      	ldr	r3, [pc, #12]	; (8000698 <_ZN4TI2CILh1ELh7ELh6ELh10ELh1EED1Ev+0x10>)
 800068c:	6003      	str	r3, [r0, #0]
 800068e:	4604      	mov	r4, r0
 8000690:	f000 fc42 	bl	8000f18 <_ZN13I2C_InterfaceD1Ev>
 8000694:	4620      	mov	r0, r4
 8000696:	bd10      	pop	{r4, pc}
 8000698:	08001e98 	stmdaeq	r0, {r3, r4, r7, r9, sl, fp, ip}

0800069c <_ZN4TI2CILh1ELh7ELh6ELh10ELh1EED0Ev>:
 800069c:	b510      	push	{r4, lr}
 800069e:	4604      	mov	r4, r0
 80006a0:	f7ff fff2 	bl	8000688 <_ZN4TI2CILh1ELh7ELh6ELh10ELh1EED1Ev>
 80006a4:	4620      	mov	r0, r4
 80006a6:	2110      	movs	r1, #16
 80006a8:	f000 fde4 	bl	8001274 <_ZdlPvj>
 80006ac:	4620      	mov	r0, r4
 80006ae:	bd10      	pop	{r4, pc}

080006b0 <_ZN8TerminallsEb>:
 80006b0:	b510      	push	{r4, lr}
 80006b2:	4604      	mov	r4, r0
 80006b4:	b121      	cbz	r1, 80006c0 <_ZN8TerminallsEb+0x10>
 80006b6:	4903      	ldr	r1, [pc, #12]	; (80006c4 <_ZN8TerminallsEb+0x14>)
 80006b8:	f000 ff99 	bl	80015ee <_ZN8Terminal4putsEPKc>
 80006bc:	4620      	mov	r0, r4
 80006be:	bd10      	pop	{r4, pc}
 80006c0:	4901      	ldr	r1, [pc, #4]	; (80006c8 <_ZN8TerminallsEb+0x18>)
 80006c2:	e7f9      	b.n	80006b8 <_ZN8TerminallsEb+0x8>
 80006c4:	08001f98 	stmdaeq	r0, {r3, r4, r7, r8, r9, sl, fp, ip}
 80006c8:	08001f9d 	stmdaeq	r0, {r0, r2, r3, r4, r7, r8, r9, sl, fp, ip}

080006cc <_ZN7DriversC1Ev>:
 80006cc:	4910      	ldr	r1, [pc, #64]	; (8000710 <_ZN7DriversC1Ev+0x44>)
 80006ce:	4b11      	ldr	r3, [pc, #68]	; (8000714 <_ZN7DriversC1Ev+0x48>)
 80006d0:	6003      	str	r3, [r0, #0]
 80006d2:	694b      	ldr	r3, [r1, #20]
 80006d4:	f443 037f 	orr.w	r3, r3, #16711680	; 0xff0000
 80006d8:	614b      	str	r3, [r1, #20]
 80006da:	4b0f      	ldr	r3, [pc, #60]	; (8000718 <_ZN7DriversC1Ev+0x4c>)
 80006dc:	6043      	str	r3, [r0, #4]
 80006de:	689a      	ldr	r2, [r3, #8]
 80006e0:	f022 4240 	bic.w	r2, r2, #3221225472	; 0xc0000000
 80006e4:	609a      	str	r2, [r3, #8]
 80006e6:	689a      	ldr	r2, [r3, #8]
 80006e8:	f042 4240 	orr.w	r2, r2, #3221225472	; 0xc0000000
 80006ec:	609a      	str	r2, [r3, #8]
 80006ee:	889a      	ldrh	r2, [r3, #4]
 80006f0:	f3c2 020e 	ubfx	r2, r2, #0, #15
 80006f4:	809a      	strh	r2, [r3, #4]
 80006f6:	889a      	ldrh	r2, [r3, #4]
 80006f8:	b292      	uxth	r2, r2
 80006fa:	809a      	strh	r2, [r3, #4]
 80006fc:	681a      	ldr	r2, [r3, #0]
 80006fe:	f022 4240 	bic.w	r2, r2, #3221225472	; 0xc0000000
 8000702:	601a      	str	r2, [r3, #0]
 8000704:	681a      	ldr	r2, [r3, #0]
 8000706:	f042 4280 	orr.w	r2, r2, #1073741824	; 0x40000000
 800070a:	601a      	str	r2, [r3, #0]
 800070c:	4770      	bx	lr
 800070e:	bf00      	nop
 8000710:	40021000 	andmi	r1, r2, r0
 8000714:	08001fac 	stmdaeq	r0, {r2, r3, r5, r7, r8, r9, sl, fp, ip}
 8000718:	48000400 	stmdami	r0, {sl}

0800071c <_ZN7Drivers15test_imu_sensorEi>:
 800071c:	e92d 43f8 	stmdb	sp!, {r3, r4, r5, r6, r7, r8, r9, lr}
 8000720:	4680      	mov	r8, r0
 8000722:	460f      	mov	r7, r1
 8000724:	4841      	ldr	r0, [pc, #260]	; (800082c <_ZN7Drivers15test_imu_sensorEi+0x110>)
 8000726:	4942      	ldr	r1, [pc, #264]	; (8000830 <_ZN7Drivers15test_imu_sensorEi+0x114>)
 8000728:	4d42      	ldr	r5, [pc, #264]	; (8000834 <_ZN7Drivers15test_imu_sensorEi+0x118>)
 800072a:	4c40      	ldr	r4, [pc, #256]	; (800082c <_ZN7Drivers15test_imu_sensorEi+0x110>)
 800072c:	4e42      	ldr	r6, [pc, #264]	; (8000838 <_ZN7Drivers15test_imu_sensorEi+0x11c>)
 800072e:	f000 ff5e 	bl	80015ee <_ZN8Terminal4putsEPKc>
 8000732:	f04f 0901 	mov.w	r9, #1
 8000736:	f1b9 0f00 	cmp.w	r9, #0
 800073a:	d075      	beq.n	8000828 <_ZN7Drivers15test_imu_sensorEi+0x10c>
 800073c:	4628      	mov	r0, r5
 800073e:	f000 fd0d 	bl	800115c <_ZN3IMU5readyEv>
 8000742:	2800      	cmp	r0, #0
 8000744:	d0f7      	beq.n	8000736 <_ZN7Drivers15test_imu_sensorEi+0x1a>
 8000746:	f8d8 2004 	ldr.w	r2, [r8, #4]
 800074a:	6929      	ldr	r1, [r5, #16]
 800074c:	6993      	ldr	r3, [r2, #24]
 800074e:	f443 4300 	orr.w	r3, r3, #32768	; 0x8000
 8000752:	2f00      	cmp	r7, #0
 8000754:	6193      	str	r3, [r2, #24]
 8000756:	4620      	mov	r0, r4
 8000758:	bfc8      	it	gt
 800075a:	f107 37ff 	addgt.w	r7, r7, #4294967295	; 0xffffffff
 800075e:	f000 ff48 	bl	80015f2 <_ZN8Terminal4putiEl>
 8000762:	4631      	mov	r1, r6
 8000764:	4620      	mov	r0, r4
 8000766:	f000 ff42 	bl	80015ee <_ZN8Terminal4putsEPKc>
 800076a:	6969      	ldr	r1, [r5, #20]
 800076c:	4620      	mov	r0, r4
 800076e:	f000 ff40 	bl	80015f2 <_ZN8Terminal4putiEl>
 8000772:	4631      	mov	r1, r6
 8000774:	4620      	mov	r0, r4
 8000776:	f000 ff3a 	bl	80015ee <_ZN8Terminal4putsEPKc>
 800077a:	69a9      	ldr	r1, [r5, #24]
 800077c:	4620      	mov	r0, r4
 800077e:	f000 ff38 	bl	80015f2 <_ZN8Terminal4putiEl>
 8000782:	4631      	mov	r1, r6
 8000784:	4620      	mov	r0, r4
 8000786:	f000 ff32 	bl	80015ee <_ZN8Terminal4putsEPKc>
 800078a:	492c      	ldr	r1, [pc, #176]	; (800083c <_ZN7Drivers15test_imu_sensorEi+0x120>)
 800078c:	4620      	mov	r0, r4
 800078e:	f000 ff2e 	bl	80015ee <_ZN8Terminal4putsEPKc>
 8000792:	6869      	ldr	r1, [r5, #4]
 8000794:	4620      	mov	r0, r4
 8000796:	f000 ff2c 	bl	80015f2 <_ZN8Terminal4putiEl>
 800079a:	4631      	mov	r1, r6
 800079c:	4620      	mov	r0, r4
 800079e:	f000 ff26 	bl	80015ee <_ZN8Terminal4putsEPKc>
 80007a2:	68a9      	ldr	r1, [r5, #8]
 80007a4:	4620      	mov	r0, r4
 80007a6:	f000 ff24 	bl	80015f2 <_ZN8Terminal4putiEl>
 80007aa:	4631      	mov	r1, r6
 80007ac:	4620      	mov	r0, r4
 80007ae:	f000 ff1e 	bl	80015ee <_ZN8Terminal4putsEPKc>
 80007b2:	68e9      	ldr	r1, [r5, #12]
 80007b4:	4620      	mov	r0, r4
 80007b6:	f000 ff1c 	bl	80015f2 <_ZN8Terminal4putiEl>
 80007ba:	4631      	mov	r1, r6
 80007bc:	4620      	mov	r0, r4
 80007be:	f000 ff16 	bl	80015ee <_ZN8Terminal4putsEPKc>
 80007c2:	491e      	ldr	r1, [pc, #120]	; (800083c <_ZN7Drivers15test_imu_sensorEi+0x120>)
 80007c4:	4620      	mov	r0, r4
 80007c6:	f000 ff12 	bl	80015ee <_ZN8Terminal4putsEPKc>
 80007ca:	69e9      	ldr	r1, [r5, #28]
 80007cc:	4620      	mov	r0, r4
 80007ce:	f000 ff10 	bl	80015f2 <_ZN8Terminal4putiEl>
 80007d2:	4631      	mov	r1, r6
 80007d4:	4620      	mov	r0, r4
 80007d6:	f000 ff0a 	bl	80015ee <_ZN8Terminal4putsEPKc>
 80007da:	6a29      	ldr	r1, [r5, #32]
 80007dc:	4620      	mov	r0, r4
 80007de:	f000 ff08 	bl	80015f2 <_ZN8Terminal4putiEl>
 80007e2:	4631      	mov	r1, r6
 80007e4:	4620      	mov	r0, r4
 80007e6:	f000 ff02 	bl	80015ee <_ZN8Terminal4putsEPKc>
 80007ea:	6a69      	ldr	r1, [r5, #36]	; 0x24
 80007ec:	4620      	mov	r0, r4
 80007ee:	f000 ff00 	bl	80015f2 <_ZN8Terminal4putiEl>
 80007f2:	4631      	mov	r1, r6
 80007f4:	4620      	mov	r0, r4
 80007f6:	f000 fefa 	bl	80015ee <_ZN8Terminal4putsEPKc>
 80007fa:	4911      	ldr	r1, [pc, #68]	; (8000840 <_ZN7Drivers15test_imu_sensorEi+0x124>)
 80007fc:	4620      	mov	r0, r4
 80007fe:	f000 fef6 	bl	80015ee <_ZN8Terminal4putsEPKc>
 8000802:	f8d8 2004 	ldr.w	r2, [r8, #4]
 8000806:	480f      	ldr	r0, [pc, #60]	; (8000844 <_ZN7Drivers15test_imu_sensorEi+0x128>)
 8000808:	8d13      	ldrh	r3, [r2, #40]	; 0x28
 800080a:	ea6f 4343 	mvn.w	r3, r3, lsl #17
 800080e:	ea6f 4353 	mvn.w	r3, r3, lsr #17
 8000812:	b29b      	uxth	r3, r3
 8000814:	8513      	strh	r3, [r2, #40]	; 0x28
 8000816:	21c8      	movs	r1, #200	; 0xc8
 8000818:	f7ff fe16 	bl	8000448 <_ZN5Timer8delay_msEj>
 800081c:	f117 0900 	adds.w	r9, r7, #0
 8000820:	bf18      	it	ne
 8000822:	f04f 0901 	movne.w	r9, #1
 8000826:	e786      	b.n	8000736 <_ZN7Drivers15test_imu_sensorEi+0x1a>
 8000828:	e8bd 83f8 	ldmia.w	sp!, {r3, r4, r5, r6, r7, r8, r9, pc}
 800082c:	200002c0 	andcs	r0, r0, r0, asr #5
 8000830:	08001eb4 	stmdaeq	r0, {r2, r4, r5, r7, r9, sl, fp, ip}
 8000834:	200001a8 	andcs	r0, r0, r8, lsr #3
 8000838:	08001ec7 	stmdaeq	r0, {r0, r1, r2, r6, r7, r9, sl, fp, ip}
 800083c:	08001ec5 	stmdaeq	r0, {r0, r2, r6, r7, r9, sl, fp, ip}
 8000840:	08001ee3 	stmdaeq	r0, {r0, r1, r5, r6, r7, r9, sl, fp, ip}
 8000844:	200002c4 	andcs	r0, r0, r4, asr #5

08000848 <_ZN7Drivers16test_line_sensorEi>:
 8000848:	e92d 43f8 	stmdb	sp!, {r3, r4, r5, r6, r7, r8, r9, lr}
 800084c:	4680      	mov	r8, r0
 800084e:	460e      	mov	r6, r1
 8000850:	482e      	ldr	r0, [pc, #184]	; (800090c <_ZN7Drivers16test_line_sensorEi+0xc4>)
 8000852:	492f      	ldr	r1, [pc, #188]	; (8000910 <_ZN7Drivers16test_line_sensorEi+0xc8>)
 8000854:	4d2f      	ldr	r5, [pc, #188]	; (8000914 <_ZN7Drivers16test_line_sensorEi+0xcc>)
 8000856:	4c2d      	ldr	r4, [pc, #180]	; (800090c <_ZN7Drivers16test_line_sensorEi+0xc4>)
 8000858:	4f2f      	ldr	r7, [pc, #188]	; (8000918 <_ZN7Drivers16test_line_sensorEi+0xd0>)
 800085a:	f000 fec8 	bl	80015ee <_ZN8Terminal4putsEPKc>
 800085e:	482d      	ldr	r0, [pc, #180]	; (8000914 <_ZN7Drivers16test_line_sensorEi+0xcc>)
 8000860:	f000 fe12 	bl	8001488 <_ZN10LineSensor2onEv>
 8000864:	f04f 0901 	mov.w	r9, #1
 8000868:	f1b9 0f00 	cmp.w	r9, #0
 800086c:	d049      	beq.n	8000902 <_ZN7Drivers16test_line_sensorEi+0xba>
 800086e:	4628      	mov	r0, r5
 8000870:	f000 fe02 	bl	8001478 <_ZN10LineSensor5readyEv>
 8000874:	2800      	cmp	r0, #0
 8000876:	d0f7      	beq.n	8000868 <_ZN7Drivers16test_line_sensorEi+0x20>
 8000878:	f8d8 2004 	ldr.w	r2, [r8, #4]
 800087c:	6993      	ldr	r3, [r2, #24]
 800087e:	f443 4300 	orr.w	r3, r3, #32768	; 0x8000
 8000882:	6193      	str	r3, [r2, #24]
 8000884:	2e00      	cmp	r6, #0
 8000886:	f895 10b0 	ldrb.w	r1, [r5, #176]	; 0xb0
 800088a:	4620      	mov	r0, r4
 800088c:	bfc8      	it	gt
 800088e:	f106 36ff 	addgt.w	r6, r6, #4294967295	; 0xffffffff
 8000892:	f000 feae 	bl	80015f2 <_ZN8Terminal4putiEl>
 8000896:	4639      	mov	r1, r7
 8000898:	4620      	mov	r0, r4
 800089a:	f000 fea8 	bl	80015ee <_ZN8Terminal4putsEPKc>
 800089e:	f895 10b1 	ldrb.w	r1, [r5, #177]	; 0xb1
 80008a2:	4620      	mov	r0, r4
 80008a4:	f000 fea5 	bl	80015f2 <_ZN8Terminal4putiEl>
 80008a8:	4639      	mov	r1, r7
 80008aa:	4620      	mov	r0, r4
 80008ac:	f000 fe9f 	bl	80015ee <_ZN8Terminal4putsEPKc>
 80008b0:	f8d5 10b4 	ldr.w	r1, [r5, #180]	; 0xb4
 80008b4:	4620      	mov	r0, r4
 80008b6:	f000 fe9c 	bl	80015f2 <_ZN8Terminal4putiEl>
 80008ba:	4639      	mov	r1, r7
 80008bc:	4620      	mov	r0, r4
 80008be:	f000 fe96 	bl	80015ee <_ZN8Terminal4putsEPKc>
 80008c2:	f8d5 10b8 	ldr.w	r1, [r5, #184]	; 0xb8
 80008c6:	4620      	mov	r0, r4
 80008c8:	f000 fe93 	bl	80015f2 <_ZN8Terminal4putiEl>
 80008cc:	4639      	mov	r1, r7
 80008ce:	4620      	mov	r0, r4
 80008d0:	f000 fe8d 	bl	80015ee <_ZN8Terminal4putsEPKc>
 80008d4:	4911      	ldr	r1, [pc, #68]	; (800091c <_ZN7Drivers16test_line_sensorEi+0xd4>)
 80008d6:	4620      	mov	r0, r4
 80008d8:	f000 fe89 	bl	80015ee <_ZN8Terminal4putsEPKc>
 80008dc:	f8d8 2004 	ldr.w	r2, [r8, #4]
 80008e0:	480f      	ldr	r0, [pc, #60]	; (8000920 <_ZN7Drivers16test_line_sensorEi+0xd8>)
 80008e2:	8d13      	ldrh	r3, [r2, #40]	; 0x28
 80008e4:	ea6f 4343 	mvn.w	r3, r3, lsl #17
 80008e8:	ea6f 4353 	mvn.w	r3, r3, lsr #17
 80008ec:	b29b      	uxth	r3, r3
 80008ee:	8513      	strh	r3, [r2, #40]	; 0x28
 80008f0:	21c8      	movs	r1, #200	; 0xc8
 80008f2:	f7ff fda9 	bl	8000448 <_ZN5Timer8delay_msEj>
 80008f6:	f116 0900 	adds.w	r9, r6, #0
 80008fa:	bf18      	it	ne
 80008fc:	f04f 0901 	movne.w	r9, #1
 8000900:	e7b2      	b.n	8000868 <_ZN7Drivers16test_line_sensorEi+0x20>
 8000902:	4804      	ldr	r0, [pc, #16]	; (8000914 <_ZN7Drivers16test_line_sensorEi+0xcc>)
 8000904:	e8bd 43f8 	ldmia.w	sp!, {r3, r4, r5, r6, r7, r8, r9, lr}
 8000908:	f000 bdc4 	b.w	8001494 <_ZN10LineSensor3offEv>
 800090c:	200002c0 	andcs	r0, r0, r0, asr #5
 8000910:	08001ec9 	stmdaeq	r0, {r0, r3, r6, r7, r9, sl, fp, ip}
 8000914:	200001ec 	andcs	r0, r0, ip, ror #3
 8000918:	08001ec7 	stmdaeq	r0, {r0, r1, r2, r6, r7, r9, sl, fp, ip}
 800091c:	08001ee3 	stmdaeq	r0, {r0, r1, r5, r6, r7, r9, sl, fp, ip}
 8000920:	200002c4 	andcs	r0, r0, r4, asr #5

08000924 <_ZN5TGpioILh1ELh7ELh1EE8set_modeEh>:
 8000924:	b9d1      	cbnz	r1, 800095c <_ZN5TGpioILh1ELh7ELh1EE8set_modeEh+0x38>
 8000926:	6803      	ldr	r3, [r0, #0]
 8000928:	689a      	ldr	r2, [r3, #8]
 800092a:	f422 4240 	bic.w	r2, r2, #49152	; 0xc000
 800092e:	609a      	str	r2, [r3, #8]
 8000930:	689a      	ldr	r2, [r3, #8]
 8000932:	f442 4240 	orr.w	r2, r2, #49152	; 0xc000
 8000936:	609a      	str	r2, [r3, #8]
 8000938:	889a      	ldrh	r2, [r3, #4]
 800093a:	f022 0280 	bic.w	r2, r2, #128	; 0x80
 800093e:	0412      	lsls	r2, r2, #16
 8000940:	0c12      	lsrs	r2, r2, #16
 8000942:	809a      	strh	r2, [r3, #4]
 8000944:	889a      	ldrh	r2, [r3, #4]
 8000946:	b292      	uxth	r2, r2
 8000948:	809a      	strh	r2, [r3, #4]
 800094a:	681a      	ldr	r2, [r3, #0]
 800094c:	f422 4240 	bic.w	r2, r2, #49152	; 0xc000
 8000950:	601a      	str	r2, [r3, #0]
 8000952:	681a      	ldr	r2, [r3, #0]
 8000954:	f442 4280 	orr.w	r2, r2, #16384	; 0x4000
 8000958:	601a      	str	r2, [r3, #0]
 800095a:	4770      	bx	lr
 800095c:	2901      	cmp	r1, #1
 800095e:	d10e      	bne.n	800097e <_ZN5TGpioILh1ELh7ELh1EE8set_modeEh+0x5a>
 8000960:	6803      	ldr	r3, [r0, #0]
 8000962:	689a      	ldr	r2, [r3, #8]
 8000964:	f422 4240 	bic.w	r2, r2, #49152	; 0xc000
 8000968:	609a      	str	r2, [r3, #8]
 800096a:	689a      	ldr	r2, [r3, #8]
 800096c:	f442 4240 	orr.w	r2, r2, #49152	; 0xc000
 8000970:	609a      	str	r2, [r3, #8]
 8000972:	681a      	ldr	r2, [r3, #0]
 8000974:	f422 4240 	bic.w	r2, r2, #49152	; 0xc000
 8000978:	601a      	str	r2, [r3, #0]
 800097a:	681a      	ldr	r2, [r3, #0]
 800097c:	e7ec      	b.n	8000958 <_ZN5TGpioILh1ELh7ELh1EE8set_modeEh+0x34>
 800097e:	2902      	cmp	r1, #2
 8000980:	d113      	bne.n	80009aa <_ZN5TGpioILh1ELh7ELh1EE8set_modeEh+0x86>
 8000982:	6803      	ldr	r3, [r0, #0]
 8000984:	689a      	ldr	r2, [r3, #8]
 8000986:	f422 4240 	bic.w	r2, r2, #49152	; 0xc000
 800098a:	609a      	str	r2, [r3, #8]
 800098c:	689a      	ldr	r2, [r3, #8]
 800098e:	f442 4240 	orr.w	r2, r2, #49152	; 0xc000
 8000992:	609a      	str	r2, [r3, #8]
 8000994:	681a      	ldr	r2, [r3, #0]
 8000996:	f422 4240 	bic.w	r2, r2, #49152	; 0xc000
 800099a:	601a      	str	r2, [r3, #0]
 800099c:	681a      	ldr	r2, [r3, #0]
 800099e:	601a      	str	r2, [r3, #0]
 80009a0:	68da      	ldr	r2, [r3, #12]
 80009a2:	f442 4280 	orr.w	r2, r2, #16384	; 0x4000
 80009a6:	60da      	str	r2, [r3, #12]
 80009a8:	4770      	bx	lr
 80009aa:	2903      	cmp	r1, #3
 80009ac:	d110      	bne.n	80009d0 <_ZN5TGpioILh1ELh7ELh1EE8set_modeEh+0xac>
 80009ae:	6803      	ldr	r3, [r0, #0]
 80009b0:	689a      	ldr	r2, [r3, #8]
 80009b2:	f422 4240 	bic.w	r2, r2, #49152	; 0xc000
 80009b6:	609a      	str	r2, [r3, #8]
 80009b8:	689a      	ldr	r2, [r3, #8]
 80009ba:	f442 4240 	orr.w	r2, r2, #49152	; 0xc000
 80009be:	609a      	str	r2, [r3, #8]
 80009c0:	681a      	ldr	r2, [r3, #0]
 80009c2:	f422 4240 	bic.w	r2, r2, #49152	; 0xc000
 80009c6:	601a      	str	r2, [r3, #0]
 80009c8:	681a      	ldr	r2, [r3, #0]
 80009ca:	f442 4200 	orr.w	r2, r2, #32768	; 0x8000
 80009ce:	e7c3      	b.n	8000958 <_ZN5TGpioILh1ELh7ELh1EE8set_modeEh+0x34>
 80009d0:	2904      	cmp	r1, #4
 80009d2:	d1c2      	bne.n	800095a <_ZN5TGpioILh1ELh7ELh1EE8set_modeEh+0x36>
 80009d4:	6803      	ldr	r3, [r0, #0]
 80009d6:	681a      	ldr	r2, [r3, #0]
 80009d8:	f422 4240 	bic.w	r2, r2, #49152	; 0xc000
 80009dc:	601a      	str	r2, [r3, #0]
 80009de:	681a      	ldr	r2, [r3, #0]
 80009e0:	f442 4240 	orr.w	r2, r2, #49152	; 0xc000
 80009e4:	e7b8      	b.n	8000958 <_ZN5TGpioILh1ELh7ELh1EE8set_modeEh+0x34>
 80009e6:	0000      	movs	r0, r0

080009e8 <_ZN5TGpioILh1ELh7ELh1EE4initEv>:
 80009e8:	4a05      	ldr	r2, [pc, #20]	; (8000a00 <_ZN5TGpioILh1ELh7ELh1EE4initEv+0x18>)
 80009ea:	b508      	push	{r3, lr}
 80009ec:	6953      	ldr	r3, [r2, #20]
 80009ee:	f443 037f 	orr.w	r3, r3, #16711680	; 0xff0000
 80009f2:	6153      	str	r3, [r2, #20]
 80009f4:	4b03      	ldr	r3, [pc, #12]	; (8000a04 <_ZN5TGpioILh1ELh7ELh1EE4initEv+0x1c>)
 80009f6:	6003      	str	r3, [r0, #0]
 80009f8:	2101      	movs	r1, #1
 80009fa:	f7ff ff93 	bl	8000924 <_ZN5TGpioILh1ELh7ELh1EE8set_modeEh>
 80009fe:	bd08      	pop	{r3, pc}
 8000a00:	40021000 	andmi	r1, r2, r0
 8000a04:	48000400 	stmdami	r0, {sl}

08000a08 <_ZN5TGpioILh1ELh6ELh1EE8set_modeEh>:
 8000a08:	b9d1      	cbnz	r1, 8000a40 <_ZN5TGpioILh1ELh6ELh1EE8set_modeEh+0x38>
 8000a0a:	6803      	ldr	r3, [r0, #0]
 8000a0c:	689a      	ldr	r2, [r3, #8]
 8000a0e:	f422 5240 	bic.w	r2, r2, #12288	; 0x3000
 8000a12:	609a      	str	r2, [r3, #8]
 8000a14:	689a      	ldr	r2, [r3, #8]
 8000a16:	f442 5240 	orr.w	r2, r2, #12288	; 0x3000
 8000a1a:	609a      	str	r2, [r3, #8]
 8000a1c:	889a      	ldrh	r2, [r3, #4]
 8000a1e:	f022 0240 	bic.w	r2, r2, #64	; 0x40
 8000a22:	0412      	lsls	r2, r2, #16
 8000a24:	0c12      	lsrs	r2, r2, #16
 8000a26:	809a      	strh	r2, [r3, #4]
 8000a28:	889a      	ldrh	r2, [r3, #4]
 8000a2a:	b292      	uxth	r2, r2
 8000a2c:	809a      	strh	r2, [r3, #4]
 8000a2e:	681a      	ldr	r2, [r3, #0]
 8000a30:	f422 5240 	bic.w	r2, r2, #12288	; 0x3000
 8000a34:	601a      	str	r2, [r3, #0]
 8000a36:	681a      	ldr	r2, [r3, #0]
 8000a38:	f442 5280 	orr.w	r2, r2, #4096	; 0x1000
 8000a3c:	601a      	str	r2, [r3, #0]
 8000a3e:	4770      	bx	lr
 8000a40:	2901      	cmp	r1, #1
 8000a42:	d10e      	bne.n	8000a62 <_ZN5TGpioILh1ELh6ELh1EE8set_modeEh+0x5a>
 8000a44:	6803      	ldr	r3, [r0, #0]
 8000a46:	689a      	ldr	r2, [r3, #8]
 8000a48:	f422 5240 	bic.w	r2, r2, #12288	; 0x3000
 8000a4c:	609a      	str	r2, [r3, #8]
 8000a4e:	689a      	ldr	r2, [r3, #8]
 8000a50:	f442 5240 	orr.w	r2, r2, #12288	; 0x3000
 8000a54:	609a      	str	r2, [r3, #8]
 8000a56:	681a      	ldr	r2, [r3, #0]
 8000a58:	f422 5240 	bic.w	r2, r2, #12288	; 0x3000
 8000a5c:	601a      	str	r2, [r3, #0]
 8000a5e:	681a      	ldr	r2, [r3, #0]
 8000a60:	e7ec      	b.n	8000a3c <_ZN5TGpioILh1ELh6ELh1EE8set_modeEh+0x34>
 8000a62:	2902      	cmp	r1, #2
 8000a64:	d113      	bne.n	8000a8e <_ZN5TGpioILh1ELh6ELh1EE8set_modeEh+0x86>
 8000a66:	6803      	ldr	r3, [r0, #0]
 8000a68:	689a      	ldr	r2, [r3, #8]
 8000a6a:	f422 5240 	bic.w	r2, r2, #12288	; 0x3000
 8000a6e:	609a      	str	r2, [r3, #8]
 8000a70:	689a      	ldr	r2, [r3, #8]
 8000a72:	f442 5240 	orr.w	r2, r2, #12288	; 0x3000
 8000a76:	609a      	str	r2, [r3, #8]
 8000a78:	681a      	ldr	r2, [r3, #0]
 8000a7a:	f422 5240 	bic.w	r2, r2, #12288	; 0x3000
 8000a7e:	601a      	str	r2, [r3, #0]
 8000a80:	681a      	ldr	r2, [r3, #0]
 8000a82:	601a      	str	r2, [r3, #0]
 8000a84:	68da      	ldr	r2, [r3, #12]
 8000a86:	f442 5280 	orr.w	r2, r2, #4096	; 0x1000
 8000a8a:	60da      	str	r2, [r3, #12]
 8000a8c:	4770      	bx	lr
 8000a8e:	2903      	cmp	r1, #3
 8000a90:	d110      	bne.n	8000ab4 <_ZN5TGpioILh1ELh6ELh1EE8set_modeEh+0xac>
 8000a92:	6803      	ldr	r3, [r0, #0]
 8000a94:	689a      	ldr	r2, [r3, #8]
 8000a96:	f422 5240 	bic.w	r2, r2, #12288	; 0x3000
 8000a9a:	609a      	str	r2, [r3, #8]
 8000a9c:	689a      	ldr	r2, [r3, #8]
 8000a9e:	f442 5240 	orr.w	r2, r2, #12288	; 0x3000
 8000aa2:	609a      	str	r2, [r3, #8]
 8000aa4:	681a      	ldr	r2, [r3, #0]
 8000aa6:	f422 5240 	bic.w	r2, r2, #12288	; 0x3000
 8000aaa:	601a      	str	r2, [r3, #0]
 8000aac:	681a      	ldr	r2, [r3, #0]
 8000aae:	f442 5200 	orr.w	r2, r2, #8192	; 0x2000
 8000ab2:	e7c3      	b.n	8000a3c <_ZN5TGpioILh1ELh6ELh1EE8set_modeEh+0x34>
 8000ab4:	2904      	cmp	r1, #4
 8000ab6:	d1c2      	bne.n	8000a3e <_ZN5TGpioILh1ELh6ELh1EE8set_modeEh+0x36>
 8000ab8:	6803      	ldr	r3, [r0, #0]
 8000aba:	681a      	ldr	r2, [r3, #0]
 8000abc:	f422 5240 	bic.w	r2, r2, #12288	; 0x3000
 8000ac0:	601a      	str	r2, [r3, #0]
 8000ac2:	681a      	ldr	r2, [r3, #0]
 8000ac4:	f442 5240 	orr.w	r2, r2, #12288	; 0x3000
 8000ac8:	e7b8      	b.n	8000a3c <_ZN5TGpioILh1ELh6ELh1EE8set_modeEh+0x34>
 8000aca:	0000      	movs	r0, r0

08000acc <_ZN5TGpioILh1ELh6ELh1EE4initEv>:
 8000acc:	4a05      	ldr	r2, [pc, #20]	; (8000ae4 <_ZN5TGpioILh1ELh6ELh1EE4initEv+0x18>)
 8000ace:	b508      	push	{r3, lr}
 8000ad0:	6953      	ldr	r3, [r2, #20]
 8000ad2:	f443 037f 	orr.w	r3, r3, #16711680	; 0xff0000
 8000ad6:	6153      	str	r3, [r2, #20]
 8000ad8:	4b03      	ldr	r3, [pc, #12]	; (8000ae8 <_ZN5TGpioILh1ELh6ELh1EE4initEv+0x1c>)
 8000ada:	6003      	str	r3, [r0, #0]
 8000adc:	2101      	movs	r1, #1
 8000ade:	f7ff ff93 	bl	8000a08 <_ZN5TGpioILh1ELh6ELh1EE8set_modeEh>
 8000ae2:	bd08      	pop	{r3, pc}
 8000ae4:	40021000 	andmi	r1, r2, r0
 8000ae8:	48000400 	stmdami	r0, {sl}

08000aec <_ZN4TI2CILh1ELh7ELh6ELh10ELh1EE4initEv>:
 8000aec:	230a      	movs	r3, #10
 8000aee:	b510      	push	{r4, lr}
 8000af0:	6043      	str	r3, [r0, #4]
 8000af2:	4604      	mov	r4, r0
 8000af4:	3008      	adds	r0, #8
 8000af6:	f7ff ff77 	bl	80009e8 <_ZN5TGpioILh1ELh7ELh1EE4initEv>
 8000afa:	f104 000c 	add.w	r0, r4, #12
 8000afe:	f7ff ffe5 	bl	8000acc <_ZN5TGpioILh1ELh6ELh1EE4initEv>
 8000b02:	68a2      	ldr	r2, [r4, #8]
 8000b04:	8d13      	ldrh	r3, [r2, #40]	; 0x28
 8000b06:	b29b      	uxth	r3, r3
 8000b08:	f043 0380 	orr.w	r3, r3, #128	; 0x80
 8000b0c:	8513      	strh	r3, [r2, #40]	; 0x28
 8000b0e:	68e2      	ldr	r2, [r4, #12]
 8000b10:	8d13      	ldrh	r3, [r2, #40]	; 0x28
 8000b12:	b29b      	uxth	r3, r3
 8000b14:	f043 0340 	orr.w	r3, r3, #64	; 0x40
 8000b18:	8513      	strh	r3, [r2, #40]	; 0x28
 8000b1a:	bd10      	pop	{r4, pc}

08000b1c <_ZN7Drivers4initEv>:
 8000b1c:	b5f8      	push	{r3, r4, r5, r6, r7, lr}
 8000b1e:	4605      	mov	r5, r0
 8000b20:	f7ff fb32 	bl	8000188 <SystemInit>
 8000b24:	686a      	ldr	r2, [r5, #4]
 8000b26:	4c33      	ldr	r4, [pc, #204]	; (8000bf4 <_ZN7Drivers4initEv+0xd8>)
 8000b28:	6993      	ldr	r3, [r2, #24]
 8000b2a:	4e33      	ldr	r6, [pc, #204]	; (8000bf8 <_ZN7Drivers4initEv+0xdc>)
 8000b2c:	4f33      	ldr	r7, [pc, #204]	; (8000bfc <_ZN7Drivers4initEv+0xe0>)
 8000b2e:	f443 4300 	orr.w	r3, r3, #32768	; 0x8000
 8000b32:	6193      	str	r3, [r2, #24]
 8000b34:	4620      	mov	r0, r4
 8000b36:	f000 fdad 	bl	8001694 <_ZN5Usart4initEv>
 8000b3a:	4620      	mov	r0, r4
 8000b3c:	4930      	ldr	r1, [pc, #192]	; (8000c00 <_ZN7Drivers4initEv+0xe4>)
 8000b3e:	f000 fd56 	bl	80015ee <_ZN8Terminal4putsEPKc>
 8000b42:	4930      	ldr	r1, [pc, #192]	; (8000c04 <_ZN7Drivers4initEv+0xe8>)
 8000b44:	4620      	mov	r0, r4
 8000b46:	f000 fd52 	bl	80015ee <_ZN8Terminal4putsEPKc>
 8000b4a:	4630      	mov	r0, r6
 8000b4c:	f7ff fc12 	bl	8000374 <_ZN5Timer4initEv>
 8000b50:	4620      	mov	r0, r4
 8000b52:	492d      	ldr	r1, [pc, #180]	; (8000c08 <_ZN7Drivers4initEv+0xec>)
 8000b54:	f000 fd4b 	bl	80015ee <_ZN8Terminal4putsEPKc>
 8000b58:	4620      	mov	r0, r4
 8000b5a:	492c      	ldr	r1, [pc, #176]	; (8000c0c <_ZN7Drivers4initEv+0xf0>)
 8000b5c:	f000 fd47 	bl	80015ee <_ZN8Terminal4putsEPKc>
 8000b60:	4630      	mov	r0, r6
 8000b62:	21c8      	movs	r1, #200	; 0xc8
 8000b64:	f7ff fc70 	bl	8000448 <_ZN5Timer8delay_msEj>
 8000b68:	4929      	ldr	r1, [pc, #164]	; (8000c10 <_ZN7Drivers4initEv+0xf4>)
 8000b6a:	4e2a      	ldr	r6, [pc, #168]	; (8000c14 <_ZN7Drivers4initEv+0xf8>)
 8000b6c:	4620      	mov	r0, r4
 8000b6e:	f000 fd3e 	bl	80015ee <_ZN8Terminal4putsEPKc>
 8000b72:	4638      	mov	r0, r7
 8000b74:	f7ff ffba 	bl	8000aec <_ZN4TI2CILh1ELh7ELh6ELh10ELh1EE4initEv>
 8000b78:	4620      	mov	r0, r4
 8000b7a:	4927      	ldr	r1, [pc, #156]	; (8000c18 <_ZN7Drivers4initEv+0xfc>)
 8000b7c:	f000 fd37 	bl	80015ee <_ZN8Terminal4putsEPKc>
 8000b80:	4639      	mov	r1, r7
 8000b82:	4630      	mov	r0, r6
 8000b84:	f000 fafa 	bl	800117c <_ZN3IMU4initEP13I2C_Interface>
 8000b88:	4924      	ldr	r1, [pc, #144]	; (8000c1c <_ZN7Drivers4initEv+0x100>)
 8000b8a:	4620      	mov	r0, r4
 8000b8c:	f000 fd2f 	bl	80015ee <_ZN8Terminal4putsEPKc>
 8000b90:	4630      	mov	r0, r6
 8000b92:	f000 fade 	bl	8001152 <_ZN3IMU7presentEv>
 8000b96:	4601      	mov	r1, r0
 8000b98:	4620      	mov	r0, r4
 8000b9a:	f7ff fd89 	bl	80006b0 <_ZN8TerminallsEb>
 8000b9e:	4920      	ldr	r1, [pc, #128]	; (8000c20 <_ZN7Drivers4initEv+0x104>)
 8000ba0:	f000 fd25 	bl	80015ee <_ZN8Terminal4putsEPKc>
 8000ba4:	481f      	ldr	r0, [pc, #124]	; (8000c24 <_ZN7Drivers4initEv+0x108>)
 8000ba6:	f000 fc09 	bl	80013bc <_ZN10LineSensor4initEv>
 8000baa:	491f      	ldr	r1, [pc, #124]	; (8000c28 <_ZN7Drivers4initEv+0x10c>)
 8000bac:	4620      	mov	r0, r4
 8000bae:	f000 fd1e 	bl	80015ee <_ZN8Terminal4putsEPKc>
 8000bb2:	481e      	ldr	r0, [pc, #120]	; (8000c2c <_ZN7Drivers4initEv+0x110>)
 8000bb4:	f000 ff44 	bl	8001a40 <_ZN7Encoder4initEv>
 8000bb8:	491d      	ldr	r1, [pc, #116]	; (8000c30 <_ZN7Drivers4initEv+0x114>)
 8000bba:	4620      	mov	r0, r4
 8000bbc:	f000 fd17 	bl	80015ee <_ZN8Terminal4putsEPKc>
 8000bc0:	481c      	ldr	r0, [pc, #112]	; (8000c34 <_ZN7Drivers4initEv+0x118>)
 8000bc2:	f7ff fbcf 	bl	8000364 <_ZN13MotorControll4initEv>
 8000bc6:	4620      	mov	r0, r4
 8000bc8:	491b      	ldr	r1, [pc, #108]	; (8000c38 <_ZN7Drivers4initEv+0x11c>)
 8000bca:	f000 fd10 	bl	80015ee <_ZN8Terminal4putsEPKc>
 8000bce:	4620      	mov	r0, r4
 8000bd0:	491a      	ldr	r1, [pc, #104]	; (8000c3c <_ZN7Drivers4initEv+0x120>)
 8000bd2:	f000 fd0c 	bl	80015ee <_ZN8Terminal4putsEPKc>
 8000bd6:	4620      	mov	r0, r4
 8000bd8:	4919      	ldr	r1, [pc, #100]	; (8000c40 <_ZN7Drivers4initEv+0x124>)
 8000bda:	f000 fd08 	bl	80015ee <_ZN8Terminal4putsEPKc>
 8000bde:	686a      	ldr	r2, [r5, #4]
 8000be0:	8d13      	ldrh	r3, [r2, #40]	; 0x28
 8000be2:	ea6f 4343 	mvn.w	r3, r3, lsl #17
 8000be6:	ea6f 4353 	mvn.w	r3, r3, lsr #17
 8000bea:	b29b      	uxth	r3, r3
 8000bec:	8513      	strh	r3, [r2, #40]	; 0x28
 8000bee:	2000      	movs	r0, #0
 8000bf0:	bdf8      	pop	{r3, r4, r5, r6, r7, pc}
 8000bf2:	bf00      	nop
 8000bf4:	200002c0 	andcs	r0, r0, r0, asr #5
 8000bf8:	200002c4 	andcs	r0, r0, r4, asr #5
 8000bfc:	20000198 	mulcs	r0, r8, r1
 8000c00:	08001edc 	stmdaeq	r0, {r2, r3, r4, r6, r7, r9, sl, fp, ip}
 8000c04:	08001ee5 	stmdaeq	r0, {r0, r2, r5, r6, r7, r9, sl, fp, ip}
 8000c08:	08001ef9 	stmdaeq	r0, {r0, r3, r4, r5, r6, r7, r9, sl, fp, ip}
 8000c0c:	08001f0a 	stmdaeq	r0, {r1, r3, r8, r9, sl, fp, ip}
 8000c10:	08001f21 	stmdaeq	r0, {r0, r5, r8, r9, sl, fp, ip}
 8000c14:	200001a8 	andcs	r0, r0, r8, lsr #3
 8000c18:	08001f18 	stmdaeq	r0, {r3, r4, r8, r9, sl, fp, ip}
 8000c1c:	08001f27 	stmdaeq	r0, {r0, r1, r2, r5, r8, r9, sl, fp, ip}
 8000c20:	08001ee3 	stmdaeq	r0, {r0, r1, r5, r6, r7, r9, sl, fp, ip}
 8000c24:	200001ec 	andcs	r0, r0, ip, ror #3
 8000c28:	08001f3b 	stmdaeq	r0, {r0, r1, r3, r4, r5, r8, r9, sl, fp, ip}
 8000c2c:	20000188 	andcs	r0, r0, r8, lsl #3
 8000c30:	08001f52 	stmdaeq	r0, {r1, r4, r6, r8, r9, sl, fp, ip}
 8000c34:	200002a8 	andcs	r0, r0, r8, lsr #5
 8000c38:	08001f6c 	stmdaeq	r0, {r2, r3, r5, r6, r8, r9, sl, fp, ip}
 8000c3c:	08001ee2 	stmdaeq	r0, {r1, r5, r6, r7, r9, sl, fp, ip}
 8000c40:	08001f86 	stmdaeq	r0, {r1, r2, r7, r8, r9, sl, fp, ip}

08000c44 <_ZN4TI2CILh1ELh7ELh6ELh10ELh1EE4stopEv>:
 8000c44:	b570      	push	{r4, r5, r6, lr}
 8000c46:	4604      	mov	r4, r0
 8000c48:	f100 060c 	add.w	r6, r0, #12
 8000c4c:	f104 0508 	add.w	r5, r4, #8
 8000c50:	4630      	mov	r0, r6
 8000c52:	2100      	movs	r1, #0
 8000c54:	f7ff fed8 	bl	8000a08 <_ZN5TGpioILh1ELh6ELh1EE8set_modeEh>
 8000c58:	4628      	mov	r0, r5
 8000c5a:	2100      	movs	r1, #0
 8000c5c:	f7ff fe62 	bl	8000924 <_ZN5TGpioILh1ELh7ELh1EE8set_modeEh>
 8000c60:	4630      	mov	r0, r6
 8000c62:	2101      	movs	r1, #1
 8000c64:	f7ff fed0 	bl	8000a08 <_ZN5TGpioILh1ELh6ELh1EE8set_modeEh>
 8000c68:	4628      	mov	r0, r5
 8000c6a:	2100      	movs	r1, #0
 8000c6c:	f7ff fe5a 	bl	8000924 <_ZN5TGpioILh1ELh7ELh1EE8set_modeEh>
 8000c70:	4630      	mov	r0, r6
 8000c72:	2101      	movs	r1, #1
 8000c74:	f7ff fec8 	bl	8000a08 <_ZN5TGpioILh1ELh6ELh1EE8set_modeEh>
 8000c78:	4628      	mov	r0, r5
 8000c7a:	2101      	movs	r1, #1
 8000c7c:	f7ff fe52 	bl	8000924 <_ZN5TGpioILh1ELh7ELh1EE8set_modeEh>
 8000c80:	4620      	mov	r0, r4
 8000c82:	e8bd 4070 	ldmia.w	sp!, {r4, r5, r6, lr}
 8000c86:	f000 b98d 	b.w	8000fa4 <_ZN13I2C_Interface5delayEv>

08000c8a <_ZN4TI2CILh1ELh7ELh6ELh10ELh1EE5startEv>:
 8000c8a:	b570      	push	{r4, r5, r6, lr}
 8000c8c:	4604      	mov	r4, r0
 8000c8e:	f100 060c 	add.w	r6, r0, #12
 8000c92:	f104 0508 	add.w	r5, r4, #8
 8000c96:	4630      	mov	r0, r6
 8000c98:	2101      	movs	r1, #1
 8000c9a:	f7ff feb5 	bl	8000a08 <_ZN5TGpioILh1ELh6ELh1EE8set_modeEh>
 8000c9e:	4628      	mov	r0, r5
 8000ca0:	2101      	movs	r1, #1
 8000ca2:	f7ff fe3f 	bl	8000924 <_ZN5TGpioILh1ELh7ELh1EE8set_modeEh>
 8000ca6:	4630      	mov	r0, r6
 8000ca8:	2101      	movs	r1, #1
 8000caa:	f7ff fead 	bl	8000a08 <_ZN5TGpioILh1ELh6ELh1EE8set_modeEh>
 8000cae:	4628      	mov	r0, r5
 8000cb0:	2100      	movs	r1, #0
 8000cb2:	f7ff fe37 	bl	8000924 <_ZN5TGpioILh1ELh7ELh1EE8set_modeEh>
 8000cb6:	4630      	mov	r0, r6
 8000cb8:	2100      	movs	r1, #0
 8000cba:	f7ff fea5 	bl	8000a08 <_ZN5TGpioILh1ELh6ELh1EE8set_modeEh>
 8000cbe:	4628      	mov	r0, r5
 8000cc0:	2101      	movs	r1, #1
 8000cc2:	f7ff fe2f 	bl	8000924 <_ZN5TGpioILh1ELh7ELh1EE8set_modeEh>
 8000cc6:	4620      	mov	r0, r4
 8000cc8:	e8bd 4070 	ldmia.w	sp!, {r4, r5, r6, lr}
 8000ccc:	f000 b96a 	b.w	8000fa4 <_ZN13I2C_Interface5delayEv>

08000cd0 <_ZN4TI2CILh1ELh7ELh6ELh10ELh1EE4readEh>:
 8000cd0:	e92d 43f8 	stmdb	sp!, {r3, r4, r5, r6, r7, r8, r9, lr}
 8000cd4:	4604      	mov	r4, r0
 8000cd6:	f100 0708 	add.w	r7, r0, #8
 8000cda:	4638      	mov	r0, r7
 8000cdc:	4689      	mov	r9, r1
 8000cde:	f104 060c 	add.w	r6, r4, #12
 8000ce2:	2101      	movs	r1, #1
 8000ce4:	f7ff fe1e 	bl	8000924 <_ZN5TGpioILh1ELh7ELh1EE8set_modeEh>
 8000ce8:	2100      	movs	r1, #0
 8000cea:	4630      	mov	r0, r6
 8000cec:	f7ff fe8c 	bl	8000a08 <_ZN5TGpioILh1ELh6ELh1EE8set_modeEh>
 8000cf0:	4620      	mov	r0, r4
 8000cf2:	f000 f957 	bl	8000fa4 <_ZN13I2C_Interface5delayEv>
 8000cf6:	f04f 0809 	mov.w	r8, #9
 8000cfa:	2500      	movs	r5, #0
 8000cfc:	f1b8 0801 	subs.w	r8, r8, #1
 8000d00:	d017      	beq.n	8000d32 <_ZN4TI2CILh1ELh7ELh6ELh10ELh1EE4readEh+0x62>
 8000d02:	2101      	movs	r1, #1
 8000d04:	4630      	mov	r0, r6
 8000d06:	f7ff fe7f 	bl	8000a08 <_ZN5TGpioILh1ELh6ELh1EE8set_modeEh>
 8000d0a:	4620      	mov	r0, r4
 8000d0c:	f000 f94a 	bl	8000fa4 <_ZN13I2C_Interface5delayEv>
 8000d10:	68a3      	ldr	r3, [r4, #8]
 8000d12:	8a1b      	ldrh	r3, [r3, #16]
 8000d14:	006d      	lsls	r5, r5, #1
 8000d16:	061b      	lsls	r3, r3, #24
 8000d18:	4630      	mov	r0, r6
 8000d1a:	b2ed      	uxtb	r5, r5
 8000d1c:	f04f 0100 	mov.w	r1, #0
 8000d20:	bf48      	it	mi
 8000d22:	f045 0501 	orrmi.w	r5, r5, #1
 8000d26:	f7ff fe6f 	bl	8000a08 <_ZN5TGpioILh1ELh6ELh1EE8set_modeEh>
 8000d2a:	4620      	mov	r0, r4
 8000d2c:	f000 f93a 	bl	8000fa4 <_ZN13I2C_Interface5delayEv>
 8000d30:	e7e4      	b.n	8000cfc <_ZN4TI2CILh1ELh7ELh6ELh10ELh1EE4readEh+0x2c>
 8000d32:	f1b9 0f00 	cmp.w	r9, #0
 8000d36:	d01e      	beq.n	8000d76 <_ZN4TI2CILh1ELh7ELh6ELh10ELh1EE4readEh+0xa6>
 8000d38:	4641      	mov	r1, r8
 8000d3a:	4638      	mov	r0, r7
 8000d3c:	f7ff fdf2 	bl	8000924 <_ZN5TGpioILh1ELh7ELh1EE8set_modeEh>
 8000d40:	4620      	mov	r0, r4
 8000d42:	f000 f92f 	bl	8000fa4 <_ZN13I2C_Interface5delayEv>
 8000d46:	2101      	movs	r1, #1
 8000d48:	4630      	mov	r0, r6
 8000d4a:	f7ff fe5d 	bl	8000a08 <_ZN5TGpioILh1ELh6ELh1EE8set_modeEh>
 8000d4e:	4620      	mov	r0, r4
 8000d50:	f000 f928 	bl	8000fa4 <_ZN13I2C_Interface5delayEv>
 8000d54:	2100      	movs	r1, #0
 8000d56:	4630      	mov	r0, r6
 8000d58:	f7ff fe56 	bl	8000a08 <_ZN5TGpioILh1ELh6ELh1EE8set_modeEh>
 8000d5c:	4620      	mov	r0, r4
 8000d5e:	f000 f921 	bl	8000fa4 <_ZN13I2C_Interface5delayEv>
 8000d62:	2101      	movs	r1, #1
 8000d64:	4638      	mov	r0, r7
 8000d66:	f7ff fddd 	bl	8000924 <_ZN5TGpioILh1ELh7ELh1EE8set_modeEh>
 8000d6a:	4620      	mov	r0, r4
 8000d6c:	f000 f91a 	bl	8000fa4 <_ZN13I2C_Interface5delayEv>
 8000d70:	4628      	mov	r0, r5
 8000d72:	e8bd 83f8 	ldmia.w	sp!, {r3, r4, r5, r6, r7, r8, r9, pc}
 8000d76:	2101      	movs	r1, #1
 8000d78:	e7df      	b.n	8000d3a <_ZN4TI2CILh1ELh7ELh6ELh10ELh1EE4readEh+0x6a>

08000d7a <_ZN4TI2CILh1ELh7ELh6ELh10ELh1EE5writeEh>:
 8000d7a:	e92d 41f0 	stmdb	sp!, {r4, r5, r6, r7, r8, lr}
 8000d7e:	4604      	mov	r4, r0
 8000d80:	460d      	mov	r5, r1
 8000d82:	2709      	movs	r7, #9
 8000d84:	f100 060c 	add.w	r6, r0, #12
 8000d88:	f100 0808 	add.w	r8, r0, #8
 8000d8c:	3f01      	subs	r7, #1
 8000d8e:	d01a      	beq.n	8000dc6 <_ZN4TI2CILh1ELh7ELh6ELh10ELh1EE5writeEh+0x4c>
 8000d90:	2100      	movs	r1, #0
 8000d92:	4630      	mov	r0, r6
 8000d94:	f7ff fe38 	bl	8000a08 <_ZN5TGpioILh1ELh6ELh1EE8set_modeEh>
 8000d98:	4620      	mov	r0, r4
 8000d9a:	f000 f903 	bl	8000fa4 <_ZN13I2C_Interface5delayEv>
 8000d9e:	062b      	lsls	r3, r5, #24
 8000da0:	bf4c      	ite	mi
 8000da2:	2101      	movmi	r1, #1
 8000da4:	2100      	movpl	r1, #0
 8000da6:	4640      	mov	r0, r8
 8000da8:	f7ff fdbc 	bl	8000924 <_ZN5TGpioILh1ELh7ELh1EE8set_modeEh>
 8000dac:	4620      	mov	r0, r4
 8000dae:	f000 f8f9 	bl	8000fa4 <_ZN13I2C_Interface5delayEv>
 8000db2:	2101      	movs	r1, #1
 8000db4:	4630      	mov	r0, r6
 8000db6:	f7ff fe27 	bl	8000a08 <_ZN5TGpioILh1ELh6ELh1EE8set_modeEh>
 8000dba:	006d      	lsls	r5, r5, #1
 8000dbc:	4620      	mov	r0, r4
 8000dbe:	f000 f8f1 	bl	8000fa4 <_ZN13I2C_Interface5delayEv>
 8000dc2:	b2ed      	uxtb	r5, r5
 8000dc4:	e7e2      	b.n	8000d8c <_ZN4TI2CILh1ELh7ELh6ELh10ELh1EE5writeEh+0x12>
 8000dc6:	4639      	mov	r1, r7
 8000dc8:	4630      	mov	r0, r6
 8000dca:	f7ff fe1d 	bl	8000a08 <_ZN5TGpioILh1ELh6ELh1EE8set_modeEh>
 8000dce:	4620      	mov	r0, r4
 8000dd0:	f000 f8e8 	bl	8000fa4 <_ZN13I2C_Interface5delayEv>
 8000dd4:	2101      	movs	r1, #1
 8000dd6:	4640      	mov	r0, r8
 8000dd8:	f7ff fda4 	bl	8000924 <_ZN5TGpioILh1ELh7ELh1EE8set_modeEh>
 8000ddc:	4620      	mov	r0, r4
 8000dde:	f000 f8e1 	bl	8000fa4 <_ZN13I2C_Interface5delayEv>
 8000de2:	2101      	movs	r1, #1
 8000de4:	4630      	mov	r0, r6
 8000de6:	f7ff fe0f 	bl	8000a08 <_ZN5TGpioILh1ELh6ELh1EE8set_modeEh>
 8000dea:	4620      	mov	r0, r4
 8000dec:	f000 f8da 	bl	8000fa4 <_ZN13I2C_Interface5delayEv>
 8000df0:	68a3      	ldr	r3, [r4, #8]
 8000df2:	8a1d      	ldrh	r5, [r3, #16]
 8000df4:	4639      	mov	r1, r7
 8000df6:	4630      	mov	r0, r6
 8000df8:	f7ff fe06 	bl	8000a08 <_ZN5TGpioILh1ELh6ELh1EE8set_modeEh>
 8000dfc:	b2ad      	uxth	r5, r5
 8000dfe:	4620      	mov	r0, r4
 8000e00:	f000 f8d0 	bl	8000fa4 <_ZN13I2C_Interface5delayEv>
 8000e04:	f085 0080 	eor.w	r0, r5, #128	; 0x80
 8000e08:	f3c0 10c0 	ubfx	r0, r0, #7, #1
 8000e0c:	e8bd 81f0 	ldmia.w	sp!, {r4, r5, r6, r7, r8, pc}

08000e10 <_GLOBAL__sub_I_i2c>:
 8000e10:	b538      	push	{r3, r4, r5, lr}
 8000e12:	4d2a      	ldr	r5, [pc, #168]	; (8000ebc <_GLOBAL__sub_I_i2c+0xac>)
 8000e14:	4c2a      	ldr	r4, [pc, #168]	; (8000ec0 <_GLOBAL__sub_I_i2c+0xb0>)
 8000e16:	4628      	mov	r0, r5
 8000e18:	f000 f878 	bl	8000f0c <_ZN13I2C_InterfaceC1Ev>
 8000e1c:	4628      	mov	r0, r5
 8000e1e:	4b29      	ldr	r3, [pc, #164]	; (8000ec4 <_GLOBAL__sub_I_i2c+0xb4>)
 8000e20:	f840 3b08 	str.w	r3, [r0], #8
 8000e24:	f7ff fde0 	bl	80009e8 <_ZN5TGpioILh1ELh7ELh1EE4initEv>
 8000e28:	f105 000c 	add.w	r0, r5, #12
 8000e2c:	f7ff fe4e 	bl	8000acc <_ZN5TGpioILh1ELh6ELh1EE4initEv>
 8000e30:	4628      	mov	r0, r5
 8000e32:	4d25      	ldr	r5, [pc, #148]	; (8000ec8 <_GLOBAL__sub_I_i2c+0xb8>)
 8000e34:	4925      	ldr	r1, [pc, #148]	; (8000ecc <_GLOBAL__sub_I_i2c+0xbc>)
 8000e36:	4622      	mov	r2, r4
 8000e38:	f000 fc04 	bl	8001644 <__aeabi_atexit>
 8000e3c:	4628      	mov	r0, r5
 8000e3e:	f000 fbbf 	bl	80015c0 <_ZN8TerminalC1Ev>
 8000e42:	4628      	mov	r0, r5
 8000e44:	4d22      	ldr	r5, [pc, #136]	; (8000ed0 <_GLOBAL__sub_I_i2c+0xc0>)
 8000e46:	4923      	ldr	r1, [pc, #140]	; (8000ed4 <_GLOBAL__sub_I_i2c+0xc4>)
 8000e48:	4622      	mov	r2, r4
 8000e4a:	f000 fbfb 	bl	8001644 <__aeabi_atexit>
 8000e4e:	4628      	mov	r0, r5
 8000e50:	f7ff fa8e 	bl	8000370 <_ZN5TimerC1Ev>
 8000e54:	4628      	mov	r0, r5
 8000e56:	4d20      	ldr	r5, [pc, #128]	; (8000ed8 <_GLOBAL__sub_I_i2c+0xc8>)
 8000e58:	4920      	ldr	r1, [pc, #128]	; (8000edc <_GLOBAL__sub_I_i2c+0xcc>)
 8000e5a:	4622      	mov	r2, r4
 8000e5c:	f000 fbf2 	bl	8001644 <__aeabi_atexit>
 8000e60:	4628      	mov	r0, r5
 8000e62:	f000 f8af 	bl	8000fc4 <_ZN3IMUC1Ev>
 8000e66:	4628      	mov	r0, r5
 8000e68:	4d1d      	ldr	r5, [pc, #116]	; (8000ee0 <_GLOBAL__sub_I_i2c+0xd0>)
 8000e6a:	491e      	ldr	r1, [pc, #120]	; (8000ee4 <_GLOBAL__sub_I_i2c+0xd4>)
 8000e6c:	4622      	mov	r2, r4
 8000e6e:	f000 fbe9 	bl	8001644 <__aeabi_atexit>
 8000e72:	4628      	mov	r0, r5
 8000e74:	f7ff fb40 	bl	80004f8 <_ZN14DistanceSensorC1Ev>
 8000e78:	4628      	mov	r0, r5
 8000e7a:	4d1b      	ldr	r5, [pc, #108]	; (8000ee8 <_GLOBAL__sub_I_i2c+0xd8>)
 8000e7c:	491b      	ldr	r1, [pc, #108]	; (8000eec <_GLOBAL__sub_I_i2c+0xdc>)
 8000e7e:	4622      	mov	r2, r4
 8000e80:	f000 fbe0 	bl	8001644 <__aeabi_atexit>
 8000e84:	4628      	mov	r0, r5
 8000e86:	f000 f9ff 	bl	8001288 <_ZN10LineSensorC1Ev>
 8000e8a:	4628      	mov	r0, r5
 8000e8c:	4d18      	ldr	r5, [pc, #96]	; (8000ef0 <_GLOBAL__sub_I_i2c+0xe0>)
 8000e8e:	4919      	ldr	r1, [pc, #100]	; (8000ef4 <_GLOBAL__sub_I_i2c+0xe4>)
 8000e90:	4622      	mov	r2, r4
 8000e92:	f000 fbd7 	bl	8001644 <__aeabi_atexit>
 8000e96:	4628      	mov	r0, r5
 8000e98:	f000 fd6c 	bl	8001974 <_ZN7EncoderC1Ev>
 8000e9c:	4628      	mov	r0, r5
 8000e9e:	4d16      	ldr	r5, [pc, #88]	; (8000ef8 <_GLOBAL__sub_I_i2c+0xe8>)
 8000ea0:	4916      	ldr	r1, [pc, #88]	; (8000efc <_GLOBAL__sub_I_i2c+0xec>)
 8000ea2:	4622      	mov	r2, r4
 8000ea4:	f000 fbce 	bl	8001644 <__aeabi_atexit>
 8000ea8:	4628      	mov	r0, r5
 8000eaa:	f7ff fa4f 	bl	800034c <_ZN13MotorControllC1Ev>
 8000eae:	4622      	mov	r2, r4
 8000eb0:	4628      	mov	r0, r5
 8000eb2:	4913      	ldr	r1, [pc, #76]	; (8000f00 <_GLOBAL__sub_I_i2c+0xf0>)
 8000eb4:	e8bd 4038 	ldmia.w	sp!, {r3, r4, r5, lr}
 8000eb8:	f000 bbc4 	b.w	8001644 <__aeabi_atexit>
 8000ebc:	20000198 	mulcs	r0, r8, r1
 8000ec0:	200002c8 	andcs	r0, r0, r8, asr #5
 8000ec4:	08001e98 	stmdaeq	r0, {r3, r4, r7, r9, sl, fp, ip}
 8000ec8:	200002c0 	andcs	r0, r0, r0, asr #5
 8000ecc:	08000689 	stmdaeq	r0, {r0, r3, r7, r9, sl}
 8000ed0:	200002c4 	andcs	r0, r0, r4, asr #5
 8000ed4:	080015cd 	stmdaeq	r0, {r0, r2, r3, r6, r7, r8, sl, ip}
 8000ed8:	200001a8 	andcs	r0, r0, r8, lsr #3
 8000edc:	080003dd 	stmdaeq	r0, {r0, r2, r3, r4, r6, r7, r8, r9}
 8000ee0:	20000144 	andcs	r0, r0, r4, asr #2
 8000ee4:	08000fb5 	stmdaeq	r0, {r0, r2, r4, r5, r7, r8, r9, sl, fp}
 8000ee8:	200001ec 	andcs	r0, r0, ip, ror #3
 8000eec:	080004e9 	stmdaeq	r0, {r0, r3, r5, r6, r7, sl}
 8000ef0:	20000188 	andcs	r0, r0, r8, lsl #3
 8000ef4:	08001277 	stmdaeq	r0, {r0, r1, r2, r4, r5, r6, r9, ip}
 8000ef8:	200002a8 	andcs	r0, r0, r8, lsr #5
 8000efc:	08001a3d 	stmdaeq	r0, {r0, r2, r3, r4, r5, r9, fp, ip}
 8000f00:	08000321 	stmdaeq	r0, {r0, r5, r8, r9}

08000f04 <_ZN13I2C_Interface4initEv>:
 8000f04:	2314      	movs	r3, #20
 8000f06:	6043      	str	r3, [r0, #4]
 8000f08:	4770      	bx	lr
 8000f0a:	0000      	movs	r0, r0

08000f0c <_ZN13I2C_InterfaceC1Ev>:
 8000f0c:	4b01      	ldr	r3, [pc, #4]	; (8000f14 <_ZN13I2C_InterfaceC1Ev+0x8>)
 8000f0e:	6003      	str	r3, [r0, #0]
 8000f10:	4770      	bx	lr
 8000f12:	bf00      	nop
 8000f14:	08001fbc 	stmdaeq	r0, {r2, r3, r4, r5, r7, r8, r9, sl, fp, ip}

08000f18 <_ZN13I2C_InterfaceD1Ev>:
 8000f18:	4770      	bx	lr

08000f1a <_ZN13I2C_Interface9write_regEhhh>:
 8000f1a:	e92d 41f0 	stmdb	sp!, {r4, r5, r6, r7, r8, lr}
 8000f1e:	461d      	mov	r5, r3
 8000f20:	6803      	ldr	r3, [r0, #0]
 8000f22:	4604      	mov	r4, r0
 8000f24:	689b      	ldr	r3, [r3, #8]
 8000f26:	4616      	mov	r6, r2
 8000f28:	460f      	mov	r7, r1
 8000f2a:	4798      	blx	r3
 8000f2c:	6823      	ldr	r3, [r4, #0]
 8000f2e:	4639      	mov	r1, r7
 8000f30:	695b      	ldr	r3, [r3, #20]
 8000f32:	4620      	mov	r0, r4
 8000f34:	4798      	blx	r3
 8000f36:	6823      	ldr	r3, [r4, #0]
 8000f38:	4631      	mov	r1, r6
 8000f3a:	695b      	ldr	r3, [r3, #20]
 8000f3c:	4620      	mov	r0, r4
 8000f3e:	4798      	blx	r3
 8000f40:	6823      	ldr	r3, [r4, #0]
 8000f42:	4629      	mov	r1, r5
 8000f44:	695a      	ldr	r2, [r3, #20]
 8000f46:	4620      	mov	r0, r4
 8000f48:	4790      	blx	r2
 8000f4a:	6823      	ldr	r3, [r4, #0]
 8000f4c:	4620      	mov	r0, r4
 8000f4e:	68db      	ldr	r3, [r3, #12]
 8000f50:	e8bd 41f0 	ldmia.w	sp!, {r4, r5, r6, r7, r8, lr}
 8000f54:	4718      	bx	r3

08000f56 <_ZN13I2C_Interface8read_regEhh>:
 8000f56:	6803      	ldr	r3, [r0, #0]
 8000f58:	b570      	push	{r4, r5, r6, lr}
 8000f5a:	4604      	mov	r4, r0
 8000f5c:	689b      	ldr	r3, [r3, #8]
 8000f5e:	4616      	mov	r6, r2
 8000f60:	460d      	mov	r5, r1
 8000f62:	4798      	blx	r3
 8000f64:	6823      	ldr	r3, [r4, #0]
 8000f66:	4629      	mov	r1, r5
 8000f68:	695b      	ldr	r3, [r3, #20]
 8000f6a:	4620      	mov	r0, r4
 8000f6c:	4798      	blx	r3
 8000f6e:	6823      	ldr	r3, [r4, #0]
 8000f70:	4631      	mov	r1, r6
 8000f72:	695b      	ldr	r3, [r3, #20]
 8000f74:	4620      	mov	r0, r4
 8000f76:	4798      	blx	r3
 8000f78:	6823      	ldr	r3, [r4, #0]
 8000f7a:	4620      	mov	r0, r4
 8000f7c:	689b      	ldr	r3, [r3, #8]
 8000f7e:	4798      	blx	r3
 8000f80:	6823      	ldr	r3, [r4, #0]
 8000f82:	f045 0101 	orr.w	r1, r5, #1
 8000f86:	695b      	ldr	r3, [r3, #20]
 8000f88:	4620      	mov	r0, r4
 8000f8a:	4798      	blx	r3
 8000f8c:	6823      	ldr	r3, [r4, #0]
 8000f8e:	2100      	movs	r1, #0
 8000f90:	699b      	ldr	r3, [r3, #24]
 8000f92:	4620      	mov	r0, r4
 8000f94:	4798      	blx	r3
 8000f96:	6823      	ldr	r3, [r4, #0]
 8000f98:	4605      	mov	r5, r0
 8000f9a:	68db      	ldr	r3, [r3, #12]
 8000f9c:	4620      	mov	r0, r4
 8000f9e:	4798      	blx	r3
 8000fa0:	4628      	mov	r0, r5
 8000fa2:	bd70      	pop	{r4, r5, r6, pc}

08000fa4 <_ZN13I2C_Interface5delayEv>:
 8000fa4:	6842      	ldr	r2, [r0, #4]
 8000fa6:	2300      	movs	r3, #0
 8000fa8:	4293      	cmp	r3, r2
 8000faa:	d002      	beq.n	8000fb2 <_ZN13I2C_Interface5delayEv+0xe>
 8000fac:	bf00      	nop
 8000fae:	3301      	adds	r3, #1
 8000fb0:	e7fa      	b.n	8000fa8 <_ZN13I2C_Interface5delayEv+0x4>
 8000fb2:	4770      	bx	lr

08000fb4 <_ZN3IMUD1Ev>:
 8000fb4:	4770      	bx	lr

08000fb6 <_ZN3IMUD0Ev>:
 8000fb6:	b510      	push	{r4, lr}
 8000fb8:	2144      	movs	r1, #68	; 0x44
 8000fba:	4604      	mov	r4, r0
 8000fbc:	f000 f95a 	bl	8001274 <_ZdlPvj>
 8000fc0:	4620      	mov	r0, r4
 8000fc2:	bd10      	pop	{r4, pc}

08000fc4 <_ZN3IMUC1Ev>:
 8000fc4:	4b01      	ldr	r3, [pc, #4]	; (8000fcc <_ZN3IMUC1Ev+0x8>)
 8000fc6:	6003      	str	r3, [r0, #0]
 8000fc8:	4770      	bx	lr
 8000fca:	bf00      	nop
 8000fcc:	08001fe0 	stmdaeq	r0, {r5, r6, r7, r8, r9, sl, fp, ip}

08000fd0 <_ZN3IMU4readEb>:
 8000fd0:	e92d 41f0 	stmdb	sp!, {r4, r5, r6, r7, r8, lr}
 8000fd4:	4604      	mov	r4, r0
 8000fd6:	6c00      	ldr	r0, [r0, #64]	; 0x40
 8000fd8:	6803      	ldr	r3, [r0, #0]
 8000fda:	689b      	ldr	r3, [r3, #8]
 8000fdc:	4688      	mov	r8, r1
 8000fde:	4798      	blx	r3
 8000fe0:	6c20      	ldr	r0, [r4, #64]	; 0x40
 8000fe2:	6803      	ldr	r3, [r0, #0]
 8000fe4:	21d4      	movs	r1, #212	; 0xd4
 8000fe6:	695b      	ldr	r3, [r3, #20]
 8000fe8:	4798      	blx	r3
 8000fea:	6c20      	ldr	r0, [r4, #64]	; 0x40
 8000fec:	6803      	ldr	r3, [r0, #0]
 8000fee:	2119      	movs	r1, #25
 8000ff0:	695b      	ldr	r3, [r3, #20]
 8000ff2:	4798      	blx	r3
 8000ff4:	6c20      	ldr	r0, [r4, #64]	; 0x40
 8000ff6:	6803      	ldr	r3, [r0, #0]
 8000ff8:	689b      	ldr	r3, [r3, #8]
 8000ffa:	4798      	blx	r3
 8000ffc:	6c20      	ldr	r0, [r4, #64]	; 0x40
 8000ffe:	6803      	ldr	r3, [r0, #0]
 8001000:	21d5      	movs	r1, #213	; 0xd5
 8001002:	695b      	ldr	r3, [r3, #20]
 8001004:	4798      	blx	r3
 8001006:	6c20      	ldr	r0, [r4, #64]	; 0x40
 8001008:	6803      	ldr	r3, [r0, #0]
 800100a:	2101      	movs	r1, #1
 800100c:	699b      	ldr	r3, [r3, #24]
 800100e:	4798      	blx	r3
 8001010:	0200      	lsls	r0, r0, #8
 8001012:	b207      	sxth	r7, r0
 8001014:	6c20      	ldr	r0, [r4, #64]	; 0x40
 8001016:	6803      	ldr	r3, [r0, #0]
 8001018:	2101      	movs	r1, #1
 800101a:	699b      	ldr	r3, [r3, #24]
 800101c:	4798      	blx	r3
 800101e:	4307      	orrs	r7, r0
 8001020:	6c20      	ldr	r0, [r4, #64]	; 0x40
 8001022:	6803      	ldr	r3, [r0, #0]
 8001024:	2101      	movs	r1, #1
 8001026:	699b      	ldr	r3, [r3, #24]
 8001028:	4798      	blx	r3
 800102a:	0200      	lsls	r0, r0, #8
 800102c:	b206      	sxth	r6, r0
 800102e:	6c20      	ldr	r0, [r4, #64]	; 0x40
 8001030:	6803      	ldr	r3, [r0, #0]
 8001032:	2101      	movs	r1, #1
 8001034:	699b      	ldr	r3, [r3, #24]
 8001036:	4798      	blx	r3
 8001038:	4306      	orrs	r6, r0
 800103a:	6c20      	ldr	r0, [r4, #64]	; 0x40
 800103c:	6803      	ldr	r3, [r0, #0]
 800103e:	2101      	movs	r1, #1
 8001040:	699b      	ldr	r3, [r3, #24]
 8001042:	4798      	blx	r3
 8001044:	0200      	lsls	r0, r0, #8
 8001046:	b205      	sxth	r5, r0
 8001048:	6c20      	ldr	r0, [r4, #64]	; 0x40
 800104a:	6803      	ldr	r3, [r0, #0]
 800104c:	2100      	movs	r1, #0
 800104e:	699b      	ldr	r3, [r3, #24]
 8001050:	4798      	blx	r3
 8001052:	4305      	orrs	r5, r0
 8001054:	6c20      	ldr	r0, [r4, #64]	; 0x40
 8001056:	6803      	ldr	r3, [r0, #0]
 8001058:	68db      	ldr	r3, [r3, #12]
 800105a:	b23f      	sxth	r7, r7
 800105c:	b236      	sxth	r6, r6
 800105e:	b22d      	sxth	r5, r5
 8001060:	4798      	blx	r3
 8001062:	f1b8 0f00 	cmp.w	r8, #0
 8001066:	d008      	beq.n	800107a <_ZN3IMU4readEb+0xaa>
 8001068:	6aa3      	ldr	r3, [r4, #40]	; 0x28
 800106a:	443b      	add	r3, r7
 800106c:	62a3      	str	r3, [r4, #40]	; 0x28
 800106e:	6ae3      	ldr	r3, [r4, #44]	; 0x2c
 8001070:	4433      	add	r3, r6
 8001072:	62e3      	str	r3, [r4, #44]	; 0x2c
 8001074:	6b23      	ldr	r3, [r4, #48]	; 0x30
 8001076:	442b      	add	r3, r5
 8001078:	6323      	str	r3, [r4, #48]	; 0x30
 800107a:	6aa3      	ldr	r3, [r4, #40]	; 0x28
 800107c:	69e1      	ldr	r1, [r4, #28]
 800107e:	6b22      	ldr	r2, [r4, #48]	; 0x30
 8001080:	6ae0      	ldr	r0, [r4, #44]	; 0x2c
 8001082:	1afb      	subs	r3, r7, r3
 8001084:	1aad      	subs	r5, r5, r2
 8001086:	6123      	str	r3, [r4, #16]
 8001088:	2219      	movs	r2, #25
 800108a:	fb93 f3f2 	sdiv	r3, r3, r2
 800108e:	eb01 0343 	add.w	r3, r1, r3, lsl #1
 8001092:	61e3      	str	r3, [r4, #28]
 8001094:	6a23      	ldr	r3, [r4, #32]
 8001096:	61a5      	str	r5, [r4, #24]
 8001098:	1a30      	subs	r0, r6, r0
 800109a:	6160      	str	r0, [r4, #20]
 800109c:	fb90 f0f2 	sdiv	r0, r0, r2
 80010a0:	eb03 0040 	add.w	r0, r3, r0, lsl #1
 80010a4:	6220      	str	r0, [r4, #32]
 80010a6:	6a63      	ldr	r3, [r4, #36]	; 0x24
 80010a8:	6c20      	ldr	r0, [r4, #64]	; 0x40
 80010aa:	fb95 f5f2 	sdiv	r5, r5, r2
 80010ae:	eb03 0545 	add.w	r5, r3, r5, lsl #1
 80010b2:	6803      	ldr	r3, [r0, #0]
 80010b4:	6265      	str	r5, [r4, #36]	; 0x24
 80010b6:	689b      	ldr	r3, [r3, #8]
 80010b8:	4798      	blx	r3
 80010ba:	6c20      	ldr	r0, [r4, #64]	; 0x40
 80010bc:	6803      	ldr	r3, [r0, #0]
 80010be:	21d4      	movs	r1, #212	; 0xd4
 80010c0:	695b      	ldr	r3, [r3, #20]
 80010c2:	4798      	blx	r3
 80010c4:	6c20      	ldr	r0, [r4, #64]	; 0x40
 80010c6:	6803      	ldr	r3, [r0, #0]
 80010c8:	2129      	movs	r1, #41	; 0x29
 80010ca:	695b      	ldr	r3, [r3, #20]
 80010cc:	4798      	blx	r3
 80010ce:	6c20      	ldr	r0, [r4, #64]	; 0x40
 80010d0:	6803      	ldr	r3, [r0, #0]
 80010d2:	689b      	ldr	r3, [r3, #8]
 80010d4:	4798      	blx	r3
 80010d6:	6c20      	ldr	r0, [r4, #64]	; 0x40
 80010d8:	6803      	ldr	r3, [r0, #0]
 80010da:	21d5      	movs	r1, #213	; 0xd5
 80010dc:	695b      	ldr	r3, [r3, #20]
 80010de:	4798      	blx	r3
 80010e0:	6c20      	ldr	r0, [r4, #64]	; 0x40
 80010e2:	6803      	ldr	r3, [r0, #0]
 80010e4:	2101      	movs	r1, #1
 80010e6:	699b      	ldr	r3, [r3, #24]
 80010e8:	4798      	blx	r3
 80010ea:	0200      	lsls	r0, r0, #8
 80010ec:	b207      	sxth	r7, r0
 80010ee:	6c20      	ldr	r0, [r4, #64]	; 0x40
 80010f0:	6803      	ldr	r3, [r0, #0]
 80010f2:	2101      	movs	r1, #1
 80010f4:	699b      	ldr	r3, [r3, #24]
 80010f6:	4798      	blx	r3
 80010f8:	4307      	orrs	r7, r0
 80010fa:	6c20      	ldr	r0, [r4, #64]	; 0x40
 80010fc:	6803      	ldr	r3, [r0, #0]
 80010fe:	2101      	movs	r1, #1
 8001100:	699b      	ldr	r3, [r3, #24]
 8001102:	4798      	blx	r3
 8001104:	0200      	lsls	r0, r0, #8
 8001106:	b206      	sxth	r6, r0
 8001108:	6c20      	ldr	r0, [r4, #64]	; 0x40
 800110a:	6803      	ldr	r3, [r0, #0]
 800110c:	2101      	movs	r1, #1
 800110e:	699b      	ldr	r3, [r3, #24]
 8001110:	4798      	blx	r3
 8001112:	4306      	orrs	r6, r0
 8001114:	6c20      	ldr	r0, [r4, #64]	; 0x40
 8001116:	6803      	ldr	r3, [r0, #0]
 8001118:	2101      	movs	r1, #1
 800111a:	699b      	ldr	r3, [r3, #24]
 800111c:	4798      	blx	r3
 800111e:	0200      	lsls	r0, r0, #8
 8001120:	b205      	sxth	r5, r0
 8001122:	6c20      	ldr	r0, [r4, #64]	; 0x40
 8001124:	6803      	ldr	r3, [r0, #0]
 8001126:	2100      	movs	r1, #0
 8001128:	699b      	ldr	r3, [r3, #24]
 800112a:	4798      	blx	r3
 800112c:	4305      	orrs	r5, r0
 800112e:	6c20      	ldr	r0, [r4, #64]	; 0x40
 8001130:	6803      	ldr	r3, [r0, #0]
 8001132:	68db      	ldr	r3, [r3, #12]
 8001134:	4798      	blx	r3
 8001136:	b23f      	sxth	r7, r7
 8001138:	b236      	sxth	r6, r6
 800113a:	b22d      	sxth	r5, r5
 800113c:	2301      	movs	r3, #1
 800113e:	6067      	str	r7, [r4, #4]
 8001140:	60a6      	str	r6, [r4, #8]
 8001142:	60e5      	str	r5, [r4, #12]
 8001144:	f884 303c 	strb.w	r3, [r4, #60]	; 0x3c
 8001148:	e8bd 81f0 	ldmia.w	sp!, {r4, r5, r6, r7, r8, pc}

0800114c <_ZN3IMU4mainEv>:
 800114c:	2100      	movs	r1, #0
 800114e:	f7ff bf3f 	b.w	8000fd0 <_ZN3IMU4readEb>

08001152 <_ZN3IMU7presentEv>:
 8001152:	6b40      	ldr	r0, [r0, #52]	; 0x34
 8001154:	3000      	adds	r0, #0
 8001156:	bf18      	it	ne
 8001158:	2001      	movne	r0, #1
 800115a:	4770      	bx	lr

0800115c <_ZN3IMU5readyEv>:
 800115c:	f890 303c 	ldrb.w	r3, [r0, #60]	; 0x3c
 8001160:	b672      	cpsid	i
 8001162:	b113      	cbz	r3, 800116a <_ZN3IMU5readyEv+0xe>
 8001164:	2200      	movs	r2, #0
 8001166:	f880 203c 	strb.w	r2, [r0, #60]	; 0x3c
 800116a:	b662      	cpsie	i
 800116c:	4618      	mov	r0, r3
 800116e:	4770      	bx	lr

08001170 <_ZN3IMU11delay_loopsEm>:
 8001170:	f111 31ff 	adds.w	r1, r1, #4294967295	; 0xffffffff
 8001174:	d301      	bcc.n	800117a <_ZN3IMU11delay_loopsEm+0xa>
 8001176:	bf00      	nop
 8001178:	e7fa      	b.n	8001170 <_ZN3IMU11delay_loopsEm>
 800117a:	4770      	bx	lr

0800117c <_ZN3IMU4initEP13I2C_Interface>:
 800117c:	b538      	push	{r3, r4, r5, lr}
 800117e:	4604      	mov	r4, r0
 8001180:	2210      	movs	r2, #16
 8001182:	4608      	mov	r0, r1
 8001184:	6421      	str	r1, [r4, #64]	; 0x40
 8001186:	23a8      	movs	r3, #168	; 0xa8
 8001188:	21d4      	movs	r1, #212	; 0xd4
 800118a:	f7ff fec6 	bl	8000f1a <_ZN13I2C_Interface9write_regEhhh>
 800118e:	2300      	movs	r3, #0
 8001190:	6123      	str	r3, [r4, #16]
 8001192:	6163      	str	r3, [r4, #20]
 8001194:	61a3      	str	r3, [r4, #24]
 8001196:	62a3      	str	r3, [r4, #40]	; 0x28
 8001198:	62e3      	str	r3, [r4, #44]	; 0x2c
 800119a:	6323      	str	r3, [r4, #48]	; 0x30
 800119c:	61e3      	str	r3, [r4, #28]
 800119e:	6223      	str	r3, [r4, #32]
 80011a0:	6263      	str	r3, [r4, #36]	; 0x24
 80011a2:	f242 7110 	movw	r1, #10000	; 0x2710
 80011a6:	4620      	mov	r0, r4
 80011a8:	f7ff ffe2 	bl	8001170 <_ZN3IMU11delay_loopsEm>
 80011ac:	220f      	movs	r2, #15
 80011ae:	6363      	str	r3, [r4, #52]	; 0x34
 80011b0:	21d4      	movs	r1, #212	; 0xd4
 80011b2:	6c20      	ldr	r0, [r4, #64]	; 0x40
 80011b4:	f7ff fecf 	bl	8000f56 <_ZN13I2C_Interface8read_regEhh>
 80011b8:	2868      	cmp	r0, #104	; 0x68
 80011ba:	bf04      	itt	eq
 80011bc:	2301      	moveq	r3, #1
 80011be:	6363      	streq	r3, [r4, #52]	; 0x34
 80011c0:	2210      	movs	r2, #16
 80011c2:	23a8      	movs	r3, #168	; 0xa8
 80011c4:	21d4      	movs	r1, #212	; 0xd4
 80011c6:	6c20      	ldr	r0, [r4, #64]	; 0x40
 80011c8:	f7ff fea7 	bl	8000f1a <_ZN13I2C_Interface9write_regEhhh>
 80011cc:	2338      	movs	r3, #56	; 0x38
 80011ce:	221e      	movs	r2, #30
 80011d0:	21d4      	movs	r1, #212	; 0xd4
 80011d2:	6c20      	ldr	r0, [r4, #64]	; 0x40
 80011d4:	f7ff fea1 	bl	8000f1a <_ZN13I2C_Interface9write_regEhhh>
 80011d8:	2300      	movs	r3, #0
 80011da:	222e      	movs	r2, #46	; 0x2e
 80011dc:	21d4      	movs	r1, #212	; 0xd4
 80011de:	6c20      	ldr	r0, [r4, #64]	; 0x40
 80011e0:	f7ff fe9b 	bl	8000f1a <_ZN13I2C_Interface9write_regEhhh>
 80011e4:	2300      	movs	r3, #0
 80011e6:	2212      	movs	r2, #18
 80011e8:	21d4      	movs	r1, #212	; 0xd4
 80011ea:	6c20      	ldr	r0, [r4, #64]	; 0x40
 80011ec:	f7ff fe95 	bl	8000f1a <_ZN13I2C_Interface9write_regEhhh>
 80011f0:	2360      	movs	r3, #96	; 0x60
 80011f2:	2220      	movs	r2, #32
 80011f4:	21d4      	movs	r1, #212	; 0xd4
 80011f6:	6c20      	ldr	r0, [r4, #64]	; 0x40
 80011f8:	f7ff fe8f 	bl	8000f1a <_ZN13I2C_Interface9write_regEhhh>
 80011fc:	2338      	movs	r3, #56	; 0x38
 80011fe:	221f      	movs	r2, #31
 8001200:	21d4      	movs	r1, #212	; 0xd4
 8001202:	6c20      	ldr	r0, [r4, #64]	; 0x40
 8001204:	f7ff fe89 	bl	8000f1a <_ZN13I2C_Interface9write_regEhhh>
 8001208:	f242 7110 	movw	r1, #10000	; 0x2710
 800120c:	4620      	mov	r0, r4
 800120e:	f7ff ffaf 	bl	8001170 <_ZN3IMU11delay_loopsEm>
 8001212:	2100      	movs	r1, #0
 8001214:	4620      	mov	r0, r4
 8001216:	f7ff fedb 	bl	8000fd0 <_ZN3IMU4readEb>
 800121a:	2300      	movs	r3, #0
 800121c:	63a3      	str	r3, [r4, #56]	; 0x38
 800121e:	f44f 757a 	mov.w	r5, #1000	; 0x3e8
 8001222:	2101      	movs	r1, #1
 8001224:	4620      	mov	r0, r4
 8001226:	f7ff fed3 	bl	8000fd0 <_ZN3IMU4readEb>
 800122a:	2164      	movs	r1, #100	; 0x64
 800122c:	4620      	mov	r0, r4
 800122e:	f7ff ff9f 	bl	8001170 <_ZN3IMU11delay_loopsEm>
 8001232:	3d01      	subs	r5, #1
 8001234:	d1f5      	bne.n	8001222 <_ZN3IMU4initEP13I2C_Interface+0xa6>
 8001236:	f44f 727a 	mov.w	r2, #1000	; 0x3e8
 800123a:	6aa3      	ldr	r3, [r4, #40]	; 0x28
 800123c:	61e5      	str	r5, [r4, #28]
 800123e:	fb93 f3f2 	sdiv	r3, r3, r2
 8001242:	6225      	str	r5, [r4, #32]
 8001244:	62a3      	str	r3, [r4, #40]	; 0x28
 8001246:	6265      	str	r5, [r4, #36]	; 0x24
 8001248:	6ae3      	ldr	r3, [r4, #44]	; 0x2c
 800124a:	6065      	str	r5, [r4, #4]
 800124c:	fb93 f3f2 	sdiv	r3, r3, r2
 8001250:	60a5      	str	r5, [r4, #8]
 8001252:	62e3      	str	r3, [r4, #44]	; 0x2c
 8001254:	60e5      	str	r5, [r4, #12]
 8001256:	6b23      	ldr	r3, [r4, #48]	; 0x30
 8001258:	4805      	ldr	r0, [pc, #20]	; (8001270 <_ZN3IMU4initEP13I2C_Interface+0xf4>)
 800125a:	fb93 f3f2 	sdiv	r3, r3, r2
 800125e:	4621      	mov	r1, r4
 8001260:	6323      	str	r3, [r4, #48]	; 0x30
 8001262:	220a      	movs	r2, #10
 8001264:	462b      	mov	r3, r5
 8001266:	f7ff f8bb 	bl	80003e0 <_ZN5Timer8add_taskEP6Threadjb>
 800126a:	f884 503c 	strb.w	r5, [r4, #60]	; 0x3c
 800126e:	bd38      	pop	{r3, r4, r5, pc}
 8001270:	200002c4 	andcs	r0, r0, r4, asr #5

08001274 <_ZdlPvj>:
 8001274:	4770      	bx	lr

08001276 <_ZN10LineSensorD1Ev>:
 8001276:	4770      	bx	lr

08001278 <_ZN10LineSensorD0Ev>:
 8001278:	b510      	push	{r4, lr}
 800127a:	21bc      	movs	r1, #188	; 0xbc
 800127c:	4604      	mov	r4, r0
 800127e:	f7ff fff9 	bl	8001274 <_ZdlPvj>
 8001282:	4620      	mov	r0, r4
 8001284:	bd10      	pop	{r4, pc}
 8001286:	0000      	movs	r0, r0

08001288 <_ZN10LineSensorC1Ev>:
 8001288:	4a4a      	ldr	r2, [pc, #296]	; (80013b4 <_ZN10LineSensorC1Ev+0x12c>)
 800128a:	4b4b      	ldr	r3, [pc, #300]	; (80013b8 <_ZN10LineSensorC1Ev+0x130>)
 800128c:	6003      	str	r3, [r0, #0]
 800128e:	6953      	ldr	r3, [r2, #20]
 8001290:	f443 037f 	orr.w	r3, r3, #16711680	; 0xff0000
 8001294:	b510      	push	{r4, lr}
 8001296:	6153      	str	r3, [r2, #20]
 8001298:	f04f 4390 	mov.w	r3, #1207959552	; 0x48000000
 800129c:	6043      	str	r3, [r0, #4]
 800129e:	689c      	ldr	r4, [r3, #8]
 80012a0:	f424 3440 	bic.w	r4, r4, #196608	; 0x30000
 80012a4:	609c      	str	r4, [r3, #8]
 80012a6:	689c      	ldr	r4, [r3, #8]
 80012a8:	f444 3440 	orr.w	r4, r4, #196608	; 0x30000
 80012ac:	609c      	str	r4, [r3, #8]
 80012ae:	889c      	ldrh	r4, [r3, #4]
 80012b0:	f424 7480 	bic.w	r4, r4, #256	; 0x100
 80012b4:	0424      	lsls	r4, r4, #16
 80012b6:	0c24      	lsrs	r4, r4, #16
 80012b8:	809c      	strh	r4, [r3, #4]
 80012ba:	889c      	ldrh	r4, [r3, #4]
 80012bc:	b2a4      	uxth	r4, r4
 80012be:	809c      	strh	r4, [r3, #4]
 80012c0:	681c      	ldr	r4, [r3, #0]
 80012c2:	f424 3440 	bic.w	r4, r4, #196608	; 0x30000
 80012c6:	601c      	str	r4, [r3, #0]
 80012c8:	681c      	ldr	r4, [r3, #0]
 80012ca:	f444 3480 	orr.w	r4, r4, #65536	; 0x10000
 80012ce:	601c      	str	r4, [r3, #0]
 80012d0:	6954      	ldr	r4, [r2, #20]
 80012d2:	f444 047f 	orr.w	r4, r4, #16711680	; 0xff0000
 80012d6:	6154      	str	r4, [r2, #20]
 80012d8:	681c      	ldr	r4, [r3, #0]
 80012da:	f8c0 3090 	str.w	r3, [r0, #144]	; 0x90
 80012de:	f024 0403 	bic.w	r4, r4, #3
 80012e2:	601c      	str	r4, [r3, #0]
 80012e4:	681c      	ldr	r4, [r3, #0]
 80012e6:	f044 0403 	orr.w	r4, r4, #3
 80012ea:	601c      	str	r4, [r3, #0]
 80012ec:	6954      	ldr	r4, [r2, #20]
 80012ee:	f444 047f 	orr.w	r4, r4, #16711680	; 0xff0000
 80012f2:	6154      	str	r4, [r2, #20]
 80012f4:	681c      	ldr	r4, [r3, #0]
 80012f6:	f8c0 3094 	str.w	r3, [r0, #148]	; 0x94
 80012fa:	f024 040c 	bic.w	r4, r4, #12
 80012fe:	601c      	str	r4, [r3, #0]
 8001300:	681c      	ldr	r4, [r3, #0]
 8001302:	f044 040c 	orr.w	r4, r4, #12
 8001306:	601c      	str	r4, [r3, #0]
 8001308:	6954      	ldr	r4, [r2, #20]
 800130a:	f444 047f 	orr.w	r4, r4, #16711680	; 0xff0000
 800130e:	6154      	str	r4, [r2, #20]
 8001310:	681c      	ldr	r4, [r3, #0]
 8001312:	f8c0 3098 	str.w	r3, [r0, #152]	; 0x98
 8001316:	f024 0430 	bic.w	r4, r4, #48	; 0x30
 800131a:	601c      	str	r4, [r3, #0]
 800131c:	681c      	ldr	r4, [r3, #0]
 800131e:	f044 0430 	orr.w	r4, r4, #48	; 0x30
 8001322:	601c      	str	r4, [r3, #0]
 8001324:	6954      	ldr	r4, [r2, #20]
 8001326:	f444 047f 	orr.w	r4, r4, #16711680	; 0xff0000
 800132a:	6154      	str	r4, [r2, #20]
 800132c:	681c      	ldr	r4, [r3, #0]
 800132e:	f8c0 309c 	str.w	r3, [r0, #156]	; 0x9c
 8001332:	f024 04c0 	bic.w	r4, r4, #192	; 0xc0
 8001336:	601c      	str	r4, [r3, #0]
 8001338:	681c      	ldr	r4, [r3, #0]
 800133a:	f044 04c0 	orr.w	r4, r4, #192	; 0xc0
 800133e:	601c      	str	r4, [r3, #0]
 8001340:	6954      	ldr	r4, [r2, #20]
 8001342:	f444 047f 	orr.w	r4, r4, #16711680	; 0xff0000
 8001346:	6154      	str	r4, [r2, #20]
 8001348:	681c      	ldr	r4, [r3, #0]
 800134a:	f8c0 30a0 	str.w	r3, [r0, #160]	; 0xa0
 800134e:	f424 7440 	bic.w	r4, r4, #768	; 0x300
 8001352:	601c      	str	r4, [r3, #0]
 8001354:	681c      	ldr	r4, [r3, #0]
 8001356:	f444 7440 	orr.w	r4, r4, #768	; 0x300
 800135a:	601c      	str	r4, [r3, #0]
 800135c:	6954      	ldr	r4, [r2, #20]
 800135e:	f444 047f 	orr.w	r4, r4, #16711680	; 0xff0000
 8001362:	6154      	str	r4, [r2, #20]
 8001364:	681c      	ldr	r4, [r3, #0]
 8001366:	f8c0 30a4 	str.w	r3, [r0, #164]	; 0xa4
 800136a:	f424 6440 	bic.w	r4, r4, #3072	; 0xc00
 800136e:	601c      	str	r4, [r3, #0]
 8001370:	681c      	ldr	r4, [r3, #0]
 8001372:	f444 6440 	orr.w	r4, r4, #3072	; 0xc00
 8001376:	601c      	str	r4, [r3, #0]
 8001378:	6954      	ldr	r4, [r2, #20]
 800137a:	f444 047f 	orr.w	r4, r4, #16711680	; 0xff0000
 800137e:	6154      	str	r4, [r2, #20]
 8001380:	681c      	ldr	r4, [r3, #0]
 8001382:	f8c0 30a8 	str.w	r3, [r0, #168]	; 0xa8
 8001386:	f424 5440 	bic.w	r4, r4, #12288	; 0x3000
 800138a:	601c      	str	r4, [r3, #0]
 800138c:	681c      	ldr	r4, [r3, #0]
 800138e:	f444 5440 	orr.w	r4, r4, #12288	; 0x3000
 8001392:	601c      	str	r4, [r3, #0]
 8001394:	6954      	ldr	r4, [r2, #20]
 8001396:	f444 047f 	orr.w	r4, r4, #16711680	; 0xff0000
 800139a:	6154      	str	r4, [r2, #20]
 800139c:	681a      	ldr	r2, [r3, #0]
 800139e:	f8c0 30ac 	str.w	r3, [r0, #172]	; 0xac
 80013a2:	f422 4240 	bic.w	r2, r2, #49152	; 0xc000
 80013a6:	601a      	str	r2, [r3, #0]
 80013a8:	681a      	ldr	r2, [r3, #0]
 80013aa:	f442 4240 	orr.w	r2, r2, #49152	; 0xc000
 80013ae:	601a      	str	r2, [r3, #0]
 80013b0:	bd10      	pop	{r4, pc}
 80013b2:	bf00      	nop
 80013b4:	40021000 	andmi	r1, r2, r0
 80013b8:	08001ff4 	stmdaeq	r0, {r2, r4, r5, r6, r7, r8, r9, sl, fp, ip}

080013bc <_ZN10LineSensor4initEv>:
 80013bc:	6842      	ldr	r2, [r0, #4]
 80013be:	b5f8      	push	{r3, r4, r5, r6, r7, lr}
 80013c0:	8d13      	ldrh	r3, [r2, #40]	; 0x28
 80013c2:	b29b      	uxth	r3, r3
 80013c4:	f443 7380 	orr.w	r3, r3, #256	; 0x100
 80013c8:	8513      	strh	r3, [r2, #40]	; 0x28
 80013ca:	2164      	movs	r1, #100	; 0x64
 80013cc:	4604      	mov	r4, r0
 80013ce:	4829      	ldr	r0, [pc, #164]	; (8001474 <_ZN10LineSensor4initEv+0xb8>)
 80013d0:	f7ff f83a 	bl	8000448 <_ZN5Timer8delay_msEj>
 80013d4:	f000 fc06 	bl	8001be4 <_Z8adc_initv>
 80013d8:	2164      	movs	r1, #100	; 0x64
 80013da:	4826      	ldr	r0, [pc, #152]	; (8001474 <_ZN10LineSensor4initEv+0xb8>)
 80013dc:	f7ff f834 	bl	8000448 <_ZN5Timer8delay_msEj>
 80013e0:	f104 0630 	add.w	r6, r4, #48	; 0x30
 80013e4:	4637      	mov	r7, r6
 80013e6:	2500      	movs	r5, #0
 80013e8:	4628      	mov	r0, r5
 80013ea:	f000 fc3b 	bl	8001c64 <_Z8adc_readi>
 80013ee:	3501      	adds	r5, #1
 80013f0:	2d08      	cmp	r5, #8
 80013f2:	f847 0b04 	str.w	r0, [r7], #4
 80013f6:	d1f7      	bne.n	80013e8 <_ZN10LineSensor4initEv+0x2c>
 80013f8:	6862      	ldr	r2, [r4, #4]
 80013fa:	481e      	ldr	r0, [pc, #120]	; (8001474 <_ZN10LineSensor4initEv+0xb8>)
 80013fc:	6993      	ldr	r3, [r2, #24]
 80013fe:	f443 7380 	orr.w	r3, r3, #256	; 0x100
 8001402:	6193      	str	r3, [r2, #24]
 8001404:	2164      	movs	r1, #100	; 0x64
 8001406:	f7ff f81f 	bl	8000448 <_ZN5Timer8delay_msEj>
 800140a:	2500      	movs	r5, #0
 800140c:	4628      	mov	r0, r5
 800140e:	f000 fc29 	bl	8001c64 <_Z8adc_readi>
 8001412:	f856 3b04 	ldr.w	r3, [r6], #4
 8001416:	3501      	adds	r5, #1
 8001418:	1ac0      	subs	r0, r0, r3
 800141a:	2d08      	cmp	r5, #8
 800141c:	61f0      	str	r0, [r6, #28]
 800141e:	d1f5      	bne.n	800140c <_ZN10LineSensor4initEv+0x50>
 8001420:	f104 0370 	add.w	r3, r4, #112	; 0x70
 8001424:	f104 0190 	add.w	r1, r4, #144	; 0x90
 8001428:	2200      	movs	r2, #0
 800142a:	f843 2b04 	str.w	r2, [r3], #4
 800142e:	4299      	cmp	r1, r3
 8001430:	d1fb      	bne.n	800142a <_ZN10LineSensor4initEv+0x6e>
 8001432:	f06f 03ff 	mvn.w	r3, #255	; 0xff
 8001436:	6123      	str	r3, [r4, #16]
 8001438:	f06f 03bf 	mvn.w	r3, #191	; 0xbf
 800143c:	6163      	str	r3, [r4, #20]
 800143e:	f06f 037f 	mvn.w	r3, #127	; 0x7f
 8001442:	61a3      	str	r3, [r4, #24]
 8001444:	f06f 033f 	mvn.w	r3, #63	; 0x3f
 8001448:	61e3      	str	r3, [r4, #28]
 800144a:	2340      	movs	r3, #64	; 0x40
 800144c:	6223      	str	r3, [r4, #32]
 800144e:	2380      	movs	r3, #128	; 0x80
 8001450:	6263      	str	r3, [r4, #36]	; 0x24
 8001452:	23c0      	movs	r3, #192	; 0xc0
 8001454:	62a3      	str	r3, [r4, #40]	; 0x28
 8001456:	f44f 7380 	mov.w	r3, #256	; 0x100
 800145a:	62e3      	str	r3, [r4, #44]	; 0x2c
 800145c:	f44f 73c8 	mov.w	r3, #400	; 0x190
 8001460:	60a3      	str	r3, [r4, #8]
 8001462:	7322      	strb	r2, [r4, #12]
 8001464:	2300      	movs	r3, #0
 8001466:	2204      	movs	r2, #4
 8001468:	4621      	mov	r1, r4
 800146a:	4802      	ldr	r0, [pc, #8]	; (8001474 <_ZN10LineSensor4initEv+0xb8>)
 800146c:	f7fe ffb8 	bl	80003e0 <_ZN5Timer8add_taskEP6Threadjb>
 8001470:	2000      	movs	r0, #0
 8001472:	bdf8      	pop	{r3, r4, r5, r6, r7, pc}
 8001474:	200002c4 	andcs	r0, r0, r4, asr #5

08001478 <_ZN10LineSensor5readyEv>:
 8001478:	7b03      	ldrb	r3, [r0, #12]
 800147a:	b672      	cpsid	i
 800147c:	b10b      	cbz	r3, 8001482 <_ZN10LineSensor5readyEv+0xa>
 800147e:	2200      	movs	r2, #0
 8001480:	7302      	strb	r2, [r0, #12]
 8001482:	b662      	cpsie	i
 8001484:	4618      	mov	r0, r3
 8001486:	4770      	bx	lr

08001488 <_ZN10LineSensor2onEv>:
 8001488:	6842      	ldr	r2, [r0, #4]
 800148a:	6993      	ldr	r3, [r2, #24]
 800148c:	f443 7380 	orr.w	r3, r3, #256	; 0x100
 8001490:	6193      	str	r3, [r2, #24]
 8001492:	4770      	bx	lr

08001494 <_ZN10LineSensor3offEv>:
 8001494:	6842      	ldr	r2, [r0, #4]
 8001496:	8d13      	ldrh	r3, [r2, #40]	; 0x28
 8001498:	b29b      	uxth	r3, r3
 800149a:	f443 7380 	orr.w	r3, r3, #256	; 0x100
 800149e:	8513      	strh	r3, [r2, #40]	; 0x28
 80014a0:	4770      	bx	lr

080014a2 <_ZN10LineSensor9integrateEj>:
 80014a2:	eb00 0081 	add.w	r0, r0, r1, lsl #2
 80014a6:	b530      	push	{r4, r5, lr}
 80014a8:	6902      	ldr	r2, [r0, #16]
 80014aa:	6f05      	ldr	r5, [r0, #112]	; 0x70
 80014ac:	fb02 f405 	mul.w	r4, r2, r5
 80014b0:	b171      	cbz	r1, 80014d0 <_ZN10LineSensor9integrateEj+0x2e>
 80014b2:	6ec3      	ldr	r3, [r0, #108]	; 0x6c
 80014b4:	68c2      	ldr	r2, [r0, #12]
 80014b6:	2906      	cmp	r1, #6
 80014b8:	fb02 4203 	mla	r2, r2, r3, r4
 80014bc:	442b      	add	r3, r5
 80014be:	d80a      	bhi.n	80014d6 <_ZN10LineSensor9integrateEj+0x34>
 80014c0:	6f41      	ldr	r1, [r0, #116]	; 0x74
 80014c2:	6940      	ldr	r0, [r0, #20]
 80014c4:	440b      	add	r3, r1
 80014c6:	fb00 2201 	mla	r2, r0, r1, r2
 80014ca:	fb92 f0f3 	sdiv	r0, r2, r3
 80014ce:	bd30      	pop	{r4, r5, pc}
 80014d0:	0062      	lsls	r2, r4, #1
 80014d2:	006b      	lsls	r3, r5, #1
 80014d4:	e7f4      	b.n	80014c0 <_ZN10LineSensor9integrateEj+0x1e>
 80014d6:	4422      	add	r2, r4
 80014d8:	442b      	add	r3, r5
 80014da:	e7f6      	b.n	80014ca <_ZN10LineSensor9integrateEj+0x28>

080014dc <_ZN10LineSensor18find_left_line_posEv>:
 80014dc:	6882      	ldr	r2, [r0, #8]
 80014de:	f100 038c 	add.w	r3, r0, #140	; 0x8c
 80014e2:	2007      	movs	r0, #7
 80014e4:	f853 1904 	ldr.w	r1, [r3], #-4
 80014e8:	4291      	cmp	r1, r2
 80014ea:	dc02      	bgt.n	80014f2 <_ZN10LineSensor18find_left_line_posEv+0x16>
 80014ec:	f110 30ff 	adds.w	r0, r0, #4294967295	; 0xffffffff
 80014f0:	d2f8      	bcs.n	80014e4 <_ZN10LineSensor18find_left_line_posEv+0x8>
 80014f2:	4770      	bx	lr

080014f4 <_ZN10LineSensor19find_right_line_posEv>:
 80014f4:	6882      	ldr	r2, [r0, #8]
 80014f6:	f100 0370 	add.w	r3, r0, #112	; 0x70
 80014fa:	2000      	movs	r0, #0
 80014fc:	f853 1b04 	ldr.w	r1, [r3], #4
 8001500:	4291      	cmp	r1, r2
 8001502:	dc04      	bgt.n	800150e <_ZN10LineSensor19find_right_line_posEv+0x1a>
 8001504:	3001      	adds	r0, #1
 8001506:	2808      	cmp	r0, #8
 8001508:	d1f8      	bne.n	80014fc <_ZN10LineSensor19find_right_line_posEv+0x8>
 800150a:	f04f 30ff 	mov.w	r0, #4294967295	; 0xffffffff
 800150e:	4770      	bx	lr

08001510 <_ZN10LineSensor4mainEv>:
 8001510:	e92d 4ff8 	stmdb	sp!, {r3, r4, r5, r6, r7, r8, r9, sl, fp, lr}
 8001514:	2500      	movs	r5, #0
 8001516:	f8df a0a4 	ldr.w	sl, [pc, #164]	; 80015bc <_ZN10LineSensor4mainEv+0xac>
 800151a:	4604      	mov	r4, r0
 800151c:	f100 0630 	add.w	r6, r0, #48	; 0x30
 8001520:	46ab      	mov	fp, r5
 8001522:	4628      	mov	r0, r5
 8001524:	f000 fb9e 	bl	8001c64 <_Z8adc_readi>
 8001528:	f856 3b04 	ldr.w	r3, [r6], #4
 800152c:	1ac0      	subs	r0, r0, r3
 800152e:	fb0a f000 	mul.w	r0, sl, r0
 8001532:	69f2      	ldr	r2, [r6, #28]
 8001534:	fb90 f0f2 	sdiv	r0, r0, r2
 8001538:	3501      	adds	r5, #1
 800153a:	f510 707a 	adds.w	r0, r0, #1000	; 0x3e8
 800153e:	bf54      	ite	pl
 8001540:	63f0      	strpl	r0, [r6, #60]	; 0x3c
 8001542:	f8c6 b03c 	strmi.w	fp, [r6, #60]	; 0x3c
 8001546:	2d08      	cmp	r5, #8
 8001548:	d1eb      	bne.n	8001522 <_ZN10LineSensor4mainEv+0x12>
 800154a:	4620      	mov	r0, r4
 800154c:	f7ff ffc6 	bl	80014dc <_ZN10LineSensor18find_left_line_posEv>
 8001550:	4605      	mov	r5, r0
 8001552:	4620      	mov	r0, r4
 8001554:	f7ff ffce 	bl	80014f4 <_ZN10LineSensor19find_right_line_posEv>
 8001558:	1c6a      	adds	r2, r5, #1
 800155a:	4606      	mov	r6, r0
 800155c:	d02c      	beq.n	80015b8 <_ZN10LineSensor4mainEv+0xa8>
 800155e:	1c43      	adds	r3, r0, #1
 8001560:	d02a      	beq.n	80015b8 <_ZN10LineSensor4mainEv+0xa8>
 8001562:	1a2b      	subs	r3, r5, r0
 8001564:	2b00      	cmp	r3, #0
 8001566:	bfb8      	it	lt
 8001568:	425b      	neglt	r3, r3
 800156a:	2b01      	cmp	r3, #1
 800156c:	dc17      	bgt.n	800159e <_ZN10LineSensor4mainEv+0x8e>
 800156e:	4405      	add	r5, r0
 8001570:	2102      	movs	r1, #2
 8001572:	4620      	mov	r0, r4
 8001574:	fb95 f1f1 	sdiv	r1, r5, r1
 8001578:	f7ff ff93 	bl	80014a2 <_ZN10LineSensor9integrateEj>
 800157c:	f04f 0901 	mov.w	r9, #1
 8001580:	4607      	mov	r7, r0
 8001582:	4680      	mov	r8, r0
 8001584:	2301      	movs	r3, #1
 8001586:	f884 30b0 	strb.w	r3, [r4, #176]	; 0xb0
 800158a:	2301      	movs	r3, #1
 800158c:	f884 90b1 	strb.w	r9, [r4, #177]	; 0xb1
 8001590:	f8c4 70b4 	str.w	r7, [r4, #180]	; 0xb4
 8001594:	f8c4 80b8 	str.w	r8, [r4, #184]	; 0xb8
 8001598:	7323      	strb	r3, [r4, #12]
 800159a:	e8bd 8ff8 	ldmia.w	sp!, {r3, r4, r5, r6, r7, r8, r9, sl, fp, pc}
 800159e:	4629      	mov	r1, r5
 80015a0:	4620      	mov	r0, r4
 80015a2:	f7ff ff7e 	bl	80014a2 <_ZN10LineSensor9integrateEj>
 80015a6:	4631      	mov	r1, r6
 80015a8:	4607      	mov	r7, r0
 80015aa:	4620      	mov	r0, r4
 80015ac:	f7ff ff79 	bl	80014a2 <_ZN10LineSensor9integrateEj>
 80015b0:	f04f 0902 	mov.w	r9, #2
 80015b4:	4680      	mov	r8, r0
 80015b6:	e7e5      	b.n	8001584 <_ZN10LineSensor4mainEv+0x74>
 80015b8:	2300      	movs	r3, #0
 80015ba:	e7e4      	b.n	8001586 <_ZN10LineSensor4mainEv+0x76>
 80015bc:	fffffc18 			; <UNDEFINED> instruction: 0xfffffc18

080015c0 <_ZN8TerminalC1Ev>:
 80015c0:	b510      	push	{r4, lr}
 80015c2:	4604      	mov	r4, r0
 80015c4:	f000 f864 	bl	8001690 <_ZN5UsartC1Ev>
 80015c8:	4620      	mov	r0, r4
 80015ca:	bd10      	pop	{r4, pc}

080015cc <_ZN8TerminalD1Ev>:
 80015cc:	b510      	push	{r4, lr}
 80015ce:	4604      	mov	r4, r0
 80015d0:	f000 f8a8 	bl	8001724 <_ZN5UsartD1Ev>
 80015d4:	4620      	mov	r0, r4
 80015d6:	bd10      	pop	{r4, pc}

080015d8 <_ZN8Terminal4putsEPc>:
 80015d8:	b538      	push	{r3, r4, r5, lr}
 80015da:	4605      	mov	r5, r0
 80015dc:	1e4c      	subs	r4, r1, #1
 80015de:	f814 1f01 	ldrb.w	r1, [r4, #1]!
 80015e2:	b119      	cbz	r1, 80015ec <_ZN8Terminal4putsEPc+0x14>
 80015e4:	4628      	mov	r0, r5
 80015e6:	f000 f89f 	bl	8001728 <_ZN5Usart8put_charEc>
 80015ea:	e7f8      	b.n	80015de <_ZN8Terminal4putsEPc+0x6>
 80015ec:	bd38      	pop	{r3, r4, r5, pc}

080015ee <_ZN8Terminal4putsEPKc>:
 80015ee:	f7ff bff3 	b.w	80015d8 <_ZN8Terminal4putsEPc>

080015f2 <_ZN8Terminal4putiEl>:
 80015f2:	b57f      	push	{r0, r1, r2, r3, r4, r5, r6, lr}
 80015f4:	1e0b      	subs	r3, r1, #0
 80015f6:	f04f 0200 	mov.w	r2, #0
 80015fa:	f04f 010a 	mov.w	r1, #10
 80015fe:	bfba      	itte	lt
 8001600:	425b      	neglt	r3, r3
 8001602:	2401      	movlt	r4, #1
 8001604:	4614      	movge	r4, r2
 8001606:	f88d 200f 	strb.w	r2, [sp, #15]
 800160a:	460e      	mov	r6, r1
 800160c:	aa04      	add	r2, sp, #16
 800160e:	fb93 f5f6 	sdiv	r5, r3, r6
 8001612:	440a      	add	r2, r1
 8001614:	fb06 3315 	mls	r3, r6, r5, r3
 8001618:	3330      	adds	r3, #48	; 0x30
 800161a:	f802 3c0c 	strb.w	r3, [r2, #-12]
 800161e:	1e4a      	subs	r2, r1, #1
 8001620:	b2d2      	uxtb	r2, r2
 8001622:	462b      	mov	r3, r5
 8001624:	b965      	cbnz	r5, 8001640 <_ZN8Terminal4putiEl+0x4e>
 8001626:	b12c      	cbz	r4, 8001634 <_ZN8Terminal4putiEl+0x42>
 8001628:	ab04      	add	r3, sp, #16
 800162a:	4413      	add	r3, r2
 800162c:	212d      	movs	r1, #45	; 0x2d
 800162e:	f803 1c0c 	strb.w	r1, [r3, #-12]
 8001632:	4611      	mov	r1, r2
 8001634:	ab01      	add	r3, sp, #4
 8001636:	4419      	add	r1, r3
 8001638:	f7ff ffce 	bl	80015d8 <_ZN8Terminal4putsEPc>
 800163c:	b004      	add	sp, #16
 800163e:	bd70      	pop	{r4, r5, r6, pc}
 8001640:	4611      	mov	r1, r2
 8001642:	e7e3      	b.n	800160c <_ZN8Terminal4putiEl+0x1a>

08001644 <__aeabi_atexit>:
 8001644:	2000      	movs	r0, #0
 8001646:	4770      	bx	lr

08001648 <__cxa_pure_virtual>:
 8001648:	e7fe      	b.n	8001648 <__cxa_pure_virtual>
 800164a:	0000      	movs	r0, r0

0800164c <main>:
 800164c:	b508      	push	{r3, lr}
 800164e:	4806      	ldr	r0, [pc, #24]	; (8001668 <main+0x1c>)
 8001650:	f7ff fa64 	bl	8000b1c <_ZN7Drivers4initEv>
 8001654:	210a      	movs	r1, #10
 8001656:	4804      	ldr	r0, [pc, #16]	; (8001668 <main+0x1c>)
 8001658:	f7ff f860 	bl	800071c <_ZN7Drivers15test_imu_sensorEi>
 800165c:	f04f 31ff 	mov.w	r1, #4294967295	; 0xffffffff
 8001660:	4801      	ldr	r0, [pc, #4]	; (8001668 <main+0x1c>)
 8001662:	f7ff f8f1 	bl	8000848 <_ZN7Drivers16test_line_sensorEi>
 8001666:	e7fe      	b.n	8001666 <main+0x1a>
 8001668:	200002cc 	andcs	r0, r0, ip, asr #5

0800166c <_GLOBAL__sub_I_drivers>:
 800166c:	b510      	push	{r4, lr}
 800166e:	4c05      	ldr	r4, [pc, #20]	; (8001684 <_GLOBAL__sub_I_drivers+0x18>)
 8001670:	4620      	mov	r0, r4
 8001672:	f7ff f82b 	bl	80006cc <_ZN7DriversC1Ev>
 8001676:	4620      	mov	r0, r4
 8001678:	4a03      	ldr	r2, [pc, #12]	; (8001688 <_GLOBAL__sub_I_drivers+0x1c>)
 800167a:	4904      	ldr	r1, [pc, #16]	; (800168c <_GLOBAL__sub_I_drivers+0x20>)
 800167c:	e8bd 4010 	ldmia.w	sp!, {r4, lr}
 8001680:	f7ff bfe0 	b.w	8001644 <__aeabi_atexit>
 8001684:	200002cc 	andcs	r0, r0, ip, asr #5
 8001688:	200002c8 	andcs	r0, r0, r8, asr #5
 800168c:	08000677 	stmdaeq	r0, {r0, r1, r2, r4, r5, r6, r9, sl}

08001690 <_ZN5UsartC1Ev>:
 8001690:	4770      	bx	lr
 8001692:	0000      	movs	r0, r0

08001694 <_ZN5Usart4initEv>:
 8001694:	4a21      	ldr	r2, [pc, #132]	; (800171c <_ZN5Usart4initEv+0x88>)
 8001696:	4822      	ldr	r0, [pc, #136]	; (8001720 <_ZN5Usart4initEv+0x8c>)
 8001698:	6953      	ldr	r3, [r2, #20]
 800169a:	f443 037f 	orr.w	r3, r3, #16711680	; 0xff0000
 800169e:	6153      	str	r3, [r2, #20]
 80016a0:	f04f 4390 	mov.w	r3, #1207959552	; 0x48000000
 80016a4:	6899      	ldr	r1, [r3, #8]
 80016a6:	f421 2140 	bic.w	r1, r1, #786432	; 0xc0000
 80016aa:	6099      	str	r1, [r3, #8]
 80016ac:	6899      	ldr	r1, [r3, #8]
 80016ae:	f441 2140 	orr.w	r1, r1, #786432	; 0xc0000
 80016b2:	6099      	str	r1, [r3, #8]
 80016b4:	6819      	ldr	r1, [r3, #0]
 80016b6:	f421 2140 	bic.w	r1, r1, #786432	; 0xc0000
 80016ba:	6019      	str	r1, [r3, #0]
 80016bc:	6819      	ldr	r1, [r3, #0]
 80016be:	f441 2100 	orr.w	r1, r1, #524288	; 0x80000
 80016c2:	6019      	str	r1, [r3, #0]
 80016c4:	6951      	ldr	r1, [r2, #20]
 80016c6:	f441 017f 	orr.w	r1, r1, #16711680	; 0xff0000
 80016ca:	6151      	str	r1, [r2, #20]
 80016cc:	6899      	ldr	r1, [r3, #8]
 80016ce:	f421 1140 	bic.w	r1, r1, #3145728	; 0x300000
 80016d2:	6099      	str	r1, [r3, #8]
 80016d4:	6899      	ldr	r1, [r3, #8]
 80016d6:	f441 1140 	orr.w	r1, r1, #3145728	; 0x300000
 80016da:	6099      	str	r1, [r3, #8]
 80016dc:	6819      	ldr	r1, [r3, #0]
 80016de:	f421 1140 	bic.w	r1, r1, #3145728	; 0x300000
 80016e2:	6019      	str	r1, [r3, #0]
 80016e4:	6819      	ldr	r1, [r3, #0]
 80016e6:	f441 1100 	orr.w	r1, r1, #2097152	; 0x200000
 80016ea:	6019      	str	r1, [r3, #0]
 80016ec:	6a59      	ldr	r1, [r3, #36]	; 0x24
 80016ee:	f021 01f0 	bic.w	r1, r1, #240	; 0xf0
 80016f2:	6259      	str	r1, [r3, #36]	; 0x24
 80016f4:	6a59      	ldr	r1, [r3, #36]	; 0x24
 80016f6:	f041 0170 	orr.w	r1, r1, #112	; 0x70
 80016fa:	6259      	str	r1, [r3, #36]	; 0x24
 80016fc:	6a59      	ldr	r1, [r3, #36]	; 0x24
 80016fe:	f421 6170 	bic.w	r1, r1, #3840	; 0xf00
 8001702:	6259      	str	r1, [r3, #36]	; 0x24
 8001704:	6a59      	ldr	r1, [r3, #36]	; 0x24
 8001706:	f441 61e0 	orr.w	r1, r1, #1792	; 0x700
 800170a:	6259      	str	r1, [r3, #36]	; 0x24
 800170c:	6993      	ldr	r3, [r2, #24]
 800170e:	f443 4380 	orr.w	r3, r3, #16384	; 0x4000
 8001712:	6193      	str	r3, [r2, #24]
 8001714:	f44f 31e1 	mov.w	r1, #115200	; 0x1c200
 8001718:	f000 bb42 	b.w	8001da0 <_Z10usart_initP13USART_TypeDefm>
 800171c:	40021000 	andmi	r1, r2, r0
 8001720:	40013800 	andmi	r3, r1, r0, lsl #16

08001724 <_ZN5UsartD1Ev>:
 8001724:	4770      	bx	lr
 8001726:	0000      	movs	r0, r0

08001728 <_ZN5Usart8put_charEc>:
 8001728:	4b04      	ldr	r3, [pc, #16]	; (800173c <_ZN5Usart8put_charEc+0x14>)
 800172a:	69da      	ldr	r2, [r3, #28]
 800172c:	0612      	lsls	r2, r2, #24
 800172e:	d401      	bmi.n	8001734 <_ZN5Usart8put_charEc+0xc>
 8001730:	bf00      	nop
 8001732:	e7fa      	b.n	800172a <_ZN5Usart8put_charEc+0x2>
 8001734:	b289      	uxth	r1, r1
 8001736:	8519      	strh	r1, [r3, #40]	; 0x28
 8001738:	4770      	bx	lr
 800173a:	bf00      	nop
 800173c:	40013800 	andmi	r3, r1, r0, lsl #16

08001740 <_ZN5MotorC1Ev>:
 8001740:	494c      	ldr	r1, [pc, #304]	; (8001874 <_ZN5MotorC1Ev+0x134>)
 8001742:	694b      	ldr	r3, [r1, #20]
 8001744:	f443 037f 	orr.w	r3, r3, #16711680	; 0xff0000
 8001748:	b530      	push	{r4, r5, lr}
 800174a:	614b      	str	r3, [r1, #20]
 800174c:	4b4a      	ldr	r3, [pc, #296]	; (8001878 <_ZN5MotorC1Ev+0x138>)
 800174e:	6003      	str	r3, [r0, #0]
 8001750:	689a      	ldr	r2, [r3, #8]
 8001752:	f422 7240 	bic.w	r2, r2, #768	; 0x300
 8001756:	609a      	str	r2, [r3, #8]
 8001758:	689a      	ldr	r2, [r3, #8]
 800175a:	f442 7240 	orr.w	r2, r2, #768	; 0x300
 800175e:	609a      	str	r2, [r3, #8]
 8001760:	889a      	ldrh	r2, [r3, #4]
 8001762:	f022 0210 	bic.w	r2, r2, #16
 8001766:	0412      	lsls	r2, r2, #16
 8001768:	0c12      	lsrs	r2, r2, #16
 800176a:	809a      	strh	r2, [r3, #4]
 800176c:	889a      	ldrh	r2, [r3, #4]
 800176e:	b292      	uxth	r2, r2
 8001770:	809a      	strh	r2, [r3, #4]
 8001772:	681a      	ldr	r2, [r3, #0]
 8001774:	f422 7240 	bic.w	r2, r2, #768	; 0x300
 8001778:	601a      	str	r2, [r3, #0]
 800177a:	681a      	ldr	r2, [r3, #0]
 800177c:	f442 7280 	orr.w	r2, r2, #256	; 0x100
 8001780:	601a      	str	r2, [r3, #0]
 8001782:	694a      	ldr	r2, [r1, #20]
 8001784:	f442 027f 	orr.w	r2, r2, #16711680	; 0xff0000
 8001788:	614a      	str	r2, [r1, #20]
 800178a:	689a      	ldr	r2, [r3, #8]
 800178c:	6043      	str	r3, [r0, #4]
 800178e:	f422 6240 	bic.w	r2, r2, #3072	; 0xc00
 8001792:	609a      	str	r2, [r3, #8]
 8001794:	689a      	ldr	r2, [r3, #8]
 8001796:	f442 6240 	orr.w	r2, r2, #3072	; 0xc00
 800179a:	609a      	str	r2, [r3, #8]
 800179c:	889a      	ldrh	r2, [r3, #4]
 800179e:	f022 0220 	bic.w	r2, r2, #32
 80017a2:	0412      	lsls	r2, r2, #16
 80017a4:	0c12      	lsrs	r2, r2, #16
 80017a6:	809a      	strh	r2, [r3, #4]
 80017a8:	889a      	ldrh	r2, [r3, #4]
 80017aa:	b292      	uxth	r2, r2
 80017ac:	809a      	strh	r2, [r3, #4]
 80017ae:	681a      	ldr	r2, [r3, #0]
 80017b0:	f422 6240 	bic.w	r2, r2, #3072	; 0xc00
 80017b4:	601a      	str	r2, [r3, #0]
 80017b6:	681a      	ldr	r2, [r3, #0]
 80017b8:	f442 6280 	orr.w	r2, r2, #1024	; 0x400
 80017bc:	601a      	str	r2, [r3, #0]
 80017be:	694a      	ldr	r2, [r1, #20]
 80017c0:	f442 027f 	orr.w	r2, r2, #16711680	; 0xff0000
 80017c4:	614a      	str	r2, [r1, #20]
 80017c6:	f04f 4290 	mov.w	r2, #1207959552	; 0x48000000
 80017ca:	6082      	str	r2, [r0, #8]
 80017cc:	6895      	ldr	r5, [r2, #8]
 80017ce:	f025 4540 	bic.w	r5, r5, #3221225472	; 0xc0000000
 80017d2:	6095      	str	r5, [r2, #8]
 80017d4:	6895      	ldr	r5, [r2, #8]
 80017d6:	f045 4540 	orr.w	r5, r5, #3221225472	; 0xc0000000
 80017da:	6095      	str	r5, [r2, #8]
 80017dc:	8895      	ldrh	r5, [r2, #4]
 80017de:	f3c5 050e 	ubfx	r5, r5, #0, #15
 80017e2:	8095      	strh	r5, [r2, #4]
 80017e4:	8895      	ldrh	r5, [r2, #4]
 80017e6:	b2ad      	uxth	r5, r5
 80017e8:	8095      	strh	r5, [r2, #4]
 80017ea:	6815      	ldr	r5, [r2, #0]
 80017ec:	f025 4540 	bic.w	r5, r5, #3221225472	; 0xc0000000
 80017f0:	6015      	str	r5, [r2, #0]
 80017f2:	6815      	ldr	r5, [r2, #0]
 80017f4:	f045 4580 	orr.w	r5, r5, #1073741824	; 0x40000000
 80017f8:	6015      	str	r5, [r2, #0]
 80017fa:	694a      	ldr	r2, [r1, #20]
 80017fc:	f442 027f 	orr.w	r2, r2, #16711680	; 0xff0000
 8001800:	614a      	str	r2, [r1, #20]
 8001802:	689a      	ldr	r2, [r3, #8]
 8001804:	60c3      	str	r3, [r0, #12]
 8001806:	f022 6240 	bic.w	r2, r2, #201326592	; 0xc000000
 800180a:	609a      	str	r2, [r3, #8]
 800180c:	689a      	ldr	r2, [r3, #8]
 800180e:	f042 6240 	orr.w	r2, r2, #201326592	; 0xc000000
 8001812:	609a      	str	r2, [r3, #8]
 8001814:	889a      	ldrh	r2, [r3, #4]
 8001816:	f422 5200 	bic.w	r2, r2, #8192	; 0x2000
 800181a:	0412      	lsls	r2, r2, #16
 800181c:	0c12      	lsrs	r2, r2, #16
 800181e:	809a      	strh	r2, [r3, #4]
 8001820:	889a      	ldrh	r2, [r3, #4]
 8001822:	b292      	uxth	r2, r2
 8001824:	809a      	strh	r2, [r3, #4]
 8001826:	681a      	ldr	r2, [r3, #0]
 8001828:	f022 6240 	bic.w	r2, r2, #201326592	; 0xc000000
 800182c:	601a      	str	r2, [r3, #0]
 800182e:	681a      	ldr	r2, [r3, #0]
 8001830:	f042 6280 	orr.w	r2, r2, #67108864	; 0x4000000
 8001834:	601a      	str	r2, [r3, #0]
 8001836:	694a      	ldr	r2, [r1, #20]
 8001838:	f442 027f 	orr.w	r2, r2, #16711680	; 0xff0000
 800183c:	614a      	str	r2, [r1, #20]
 800183e:	689a      	ldr	r2, [r3, #8]
 8001840:	6103      	str	r3, [r0, #16]
 8001842:	f022 5240 	bic.w	r2, r2, #805306368	; 0x30000000
 8001846:	609a      	str	r2, [r3, #8]
 8001848:	689a      	ldr	r2, [r3, #8]
 800184a:	f042 5240 	orr.w	r2, r2, #805306368	; 0x30000000
 800184e:	609a      	str	r2, [r3, #8]
 8001850:	889a      	ldrh	r2, [r3, #4]
 8001852:	f422 4280 	bic.w	r2, r2, #16384	; 0x4000
 8001856:	0412      	lsls	r2, r2, #16
 8001858:	0c12      	lsrs	r2, r2, #16
 800185a:	809a      	strh	r2, [r3, #4]
 800185c:	889a      	ldrh	r2, [r3, #4]
 800185e:	b292      	uxth	r2, r2
 8001860:	809a      	strh	r2, [r3, #4]
 8001862:	681a      	ldr	r2, [r3, #0]
 8001864:	f022 5240 	bic.w	r2, r2, #805306368	; 0x30000000
 8001868:	601a      	str	r2, [r3, #0]
 800186a:	681a      	ldr	r2, [r3, #0]
 800186c:	f042 5280 	orr.w	r2, r2, #268435456	; 0x10000000
 8001870:	601a      	str	r2, [r3, #0]
 8001872:	bd30      	pop	{r4, r5, pc}
 8001874:	40021000 	andmi	r1, r2, r0
 8001878:	48000400 	stmdami	r0, {sl}

0800187c <_ZN5MotorD1Ev>:
 800187c:	4770      	bx	lr
 800187e:	0000      	movs	r0, r0

08001880 <_ZN5Motor8pwm_initEv>:
 8001880:	68c2      	ldr	r2, [r0, #12]
 8001882:	6893      	ldr	r3, [r2, #8]
 8001884:	f023 6340 	bic.w	r3, r3, #201326592	; 0xc000000
 8001888:	6093      	str	r3, [r2, #8]
 800188a:	6893      	ldr	r3, [r2, #8]
 800188c:	f043 6340 	orr.w	r3, r3, #201326592	; 0xc000000
 8001890:	6093      	str	r3, [r2, #8]
 8001892:	6813      	ldr	r3, [r2, #0]
 8001894:	f023 6340 	bic.w	r3, r3, #201326592	; 0xc000000
 8001898:	6013      	str	r3, [r2, #0]
 800189a:	6813      	ldr	r3, [r2, #0]
 800189c:	f043 6300 	orr.w	r3, r3, #134217728	; 0x8000000
 80018a0:	6013      	str	r3, [r2, #0]
 80018a2:	6903      	ldr	r3, [r0, #16]
 80018a4:	6899      	ldr	r1, [r3, #8]
 80018a6:	f021 5140 	bic.w	r1, r1, #805306368	; 0x30000000
 80018aa:	6099      	str	r1, [r3, #8]
 80018ac:	6899      	ldr	r1, [r3, #8]
 80018ae:	f041 5140 	orr.w	r1, r1, #805306368	; 0x30000000
 80018b2:	6099      	str	r1, [r3, #8]
 80018b4:	6819      	ldr	r1, [r3, #0]
 80018b6:	f021 5140 	bic.w	r1, r1, #805306368	; 0x30000000
 80018ba:	6019      	str	r1, [r3, #0]
 80018bc:	6819      	ldr	r1, [r3, #0]
 80018be:	f041 5100 	orr.w	r1, r1, #536870912	; 0x20000000
 80018c2:	6019      	str	r1, [r3, #0]
 80018c4:	6a51      	ldr	r1, [r2, #36]	; 0x24
 80018c6:	f421 0170 	bic.w	r1, r1, #15728640	; 0xf00000
 80018ca:	6251      	str	r1, [r2, #36]	; 0x24
 80018cc:	6a51      	ldr	r1, [r2, #36]	; 0x24
 80018ce:	f441 01c0 	orr.w	r1, r1, #6291456	; 0x600000
 80018d2:	6251      	str	r1, [r2, #36]	; 0x24
 80018d4:	6a5a      	ldr	r2, [r3, #36]	; 0x24
 80018d6:	f022 6270 	bic.w	r2, r2, #251658240	; 0xf000000
 80018da:	625a      	str	r2, [r3, #36]	; 0x24
 80018dc:	6a5a      	ldr	r2, [r3, #36]	; 0x24
 80018de:	f042 62c0 	orr.w	r2, r2, #100663296	; 0x6000000
 80018e2:	625a      	str	r2, [r3, #36]	; 0x24
 80018e4:	4a10      	ldr	r2, [pc, #64]	; (8001928 <_ZN5Motor8pwm_initEv+0xa8>)
 80018e6:	6993      	ldr	r3, [r2, #24]
 80018e8:	f443 6300 	orr.w	r3, r3, #2048	; 0x800
 80018ec:	6193      	str	r3, [r2, #24]
 80018ee:	4b0f      	ldr	r3, [pc, #60]	; (800192c <_ZN5Motor8pwm_initEv+0xac>)
 80018f0:	2200      	movs	r2, #0
 80018f2:	f241 21bf 	movw	r1, #4799	; 0x12bf
 80018f6:	801a      	strh	r2, [r3, #0]
 80018f8:	62d9      	str	r1, [r3, #44]	; 0x2c
 80018fa:	2101      	movs	r1, #1
 80018fc:	851a      	strh	r2, [r3, #40]	; 0x28
 80018fe:	861a      	strh	r2, [r3, #48]	; 0x30
 8001900:	6159      	str	r1, [r3, #20]
 8001902:	635a      	str	r2, [r3, #52]	; 0x34
 8001904:	639a      	str	r2, [r3, #56]	; 0x38
 8001906:	f44f 7280 	mov.w	r2, #256	; 0x100
 800190a:	605a      	str	r2, [r3, #4]
 800190c:	f247 0270 	movw	r2, #28784	; 0x7070
 8001910:	619a      	str	r2, [r3, #24]
 8001912:	2277      	movs	r2, #119	; 0x77
 8001914:	621a      	str	r2, [r3, #32]
 8001916:	881a      	ldrh	r2, [r3, #0]
 8001918:	b292      	uxth	r2, r2
 800191a:	430a      	orrs	r2, r1
 800191c:	801a      	strh	r2, [r3, #0]
 800191e:	6c5a      	ldr	r2, [r3, #68]	; 0x44
 8001920:	f442 4200 	orr.w	r2, r2, #32768	; 0x8000
 8001924:	645a      	str	r2, [r3, #68]	; 0x44
 8001926:	4770      	bx	lr
 8001928:	40021000 	andmi	r1, r2, r0
 800192c:	40012c00 	andmi	r2, r1, r0, lsl #24

08001930 <_ZN5Motor4initEv>:
 8001930:	6801      	ldr	r1, [r0, #0]
 8001932:	6902      	ldr	r2, [r0, #16]
 8001934:	8d0b      	ldrh	r3, [r1, #40]	; 0x28
 8001936:	b29b      	uxth	r3, r3
 8001938:	f043 0310 	orr.w	r3, r3, #16
 800193c:	850b      	strh	r3, [r1, #40]	; 0x28
 800193e:	6841      	ldr	r1, [r0, #4]
 8001940:	8d0b      	ldrh	r3, [r1, #40]	; 0x28
 8001942:	b29b      	uxth	r3, r3
 8001944:	f043 0320 	orr.w	r3, r3, #32
 8001948:	850b      	strh	r3, [r1, #40]	; 0x28
 800194a:	6881      	ldr	r1, [r0, #8]
 800194c:	8d0b      	ldrh	r3, [r1, #40]	; 0x28
 800194e:	ea6f 4343 	mvn.w	r3, r3, lsl #17
 8001952:	ea6f 4353 	mvn.w	r3, r3, lsr #17
 8001956:	b29b      	uxth	r3, r3
 8001958:	850b      	strh	r3, [r1, #40]	; 0x28
 800195a:	68c1      	ldr	r1, [r0, #12]
 800195c:	8d0b      	ldrh	r3, [r1, #40]	; 0x28
 800195e:	b29b      	uxth	r3, r3
 8001960:	f443 5300 	orr.w	r3, r3, #8192	; 0x2000
 8001964:	850b      	strh	r3, [r1, #40]	; 0x28
 8001966:	8d13      	ldrh	r3, [r2, #40]	; 0x28
 8001968:	b29b      	uxth	r3, r3
 800196a:	f443 4380 	orr.w	r3, r3, #16384	; 0x4000
 800196e:	8513      	strh	r3, [r2, #40]	; 0x28
 8001970:	f7ff bf86 	b.w	8001880 <_ZN5Motor8pwm_initEv>

08001974 <_ZN7EncoderC1Ev>:
 8001974:	4a2f      	ldr	r2, [pc, #188]	; (8001a34 <_ZN7EncoderC1Ev+0xc0>)
 8001976:	6953      	ldr	r3, [r2, #20]
 8001978:	f443 037f 	orr.w	r3, r3, #16711680	; 0xff0000
 800197c:	b510      	push	{r4, lr}
 800197e:	6153      	str	r3, [r2, #20]
 8001980:	4b2d      	ldr	r3, [pc, #180]	; (8001a38 <_ZN7EncoderC1Ev+0xc4>)
 8001982:	6003      	str	r3, [r0, #0]
 8001984:	689c      	ldr	r4, [r3, #8]
 8001986:	f424 5440 	bic.w	r4, r4, #12288	; 0x3000
 800198a:	609c      	str	r4, [r3, #8]
 800198c:	689c      	ldr	r4, [r3, #8]
 800198e:	f444 5440 	orr.w	r4, r4, #12288	; 0x3000
 8001992:	609c      	str	r4, [r3, #8]
 8001994:	681c      	ldr	r4, [r3, #0]
 8001996:	f424 5440 	bic.w	r4, r4, #12288	; 0x3000
 800199a:	601c      	str	r4, [r3, #0]
 800199c:	681c      	ldr	r4, [r3, #0]
 800199e:	601c      	str	r4, [r3, #0]
 80019a0:	68dc      	ldr	r4, [r3, #12]
 80019a2:	f444 5480 	orr.w	r4, r4, #4096	; 0x1000
 80019a6:	60dc      	str	r4, [r3, #12]
 80019a8:	6954      	ldr	r4, [r2, #20]
 80019aa:	f444 047f 	orr.w	r4, r4, #16711680	; 0xff0000
 80019ae:	6154      	str	r4, [r2, #20]
 80019b0:	689c      	ldr	r4, [r3, #8]
 80019b2:	6043      	str	r3, [r0, #4]
 80019b4:	f424 4440 	bic.w	r4, r4, #49152	; 0xc000
 80019b8:	609c      	str	r4, [r3, #8]
 80019ba:	689c      	ldr	r4, [r3, #8]
 80019bc:	f444 4440 	orr.w	r4, r4, #49152	; 0xc000
 80019c0:	609c      	str	r4, [r3, #8]
 80019c2:	681c      	ldr	r4, [r3, #0]
 80019c4:	f424 4440 	bic.w	r4, r4, #49152	; 0xc000
 80019c8:	601c      	str	r4, [r3, #0]
 80019ca:	681c      	ldr	r4, [r3, #0]
 80019cc:	601c      	str	r4, [r3, #0]
 80019ce:	68dc      	ldr	r4, [r3, #12]
 80019d0:	f444 4480 	orr.w	r4, r4, #16384	; 0x4000
 80019d4:	60dc      	str	r4, [r3, #12]
 80019d6:	6954      	ldr	r4, [r2, #20]
 80019d8:	f444 047f 	orr.w	r4, r4, #16711680	; 0xff0000
 80019dc:	6154      	str	r4, [r2, #20]
 80019de:	689c      	ldr	r4, [r3, #8]
 80019e0:	6083      	str	r3, [r0, #8]
 80019e2:	f024 7440 	bic.w	r4, r4, #50331648	; 0x3000000
 80019e6:	609c      	str	r4, [r3, #8]
 80019e8:	689c      	ldr	r4, [r3, #8]
 80019ea:	f044 7440 	orr.w	r4, r4, #50331648	; 0x3000000
 80019ee:	609c      	str	r4, [r3, #8]
 80019f0:	681c      	ldr	r4, [r3, #0]
 80019f2:	f024 7440 	bic.w	r4, r4, #50331648	; 0x3000000
 80019f6:	601c      	str	r4, [r3, #0]
 80019f8:	681c      	ldr	r4, [r3, #0]
 80019fa:	601c      	str	r4, [r3, #0]
 80019fc:	68dc      	ldr	r4, [r3, #12]
 80019fe:	f044 7480 	orr.w	r4, r4, #16777216	; 0x1000000
 8001a02:	60dc      	str	r4, [r3, #12]
 8001a04:	6954      	ldr	r4, [r2, #20]
 8001a06:	f444 047f 	orr.w	r4, r4, #16711680	; 0xff0000
 8001a0a:	6154      	str	r4, [r2, #20]
 8001a0c:	689a      	ldr	r2, [r3, #8]
 8001a0e:	60c3      	str	r3, [r0, #12]
 8001a10:	f422 0240 	bic.w	r2, r2, #12582912	; 0xc00000
 8001a14:	609a      	str	r2, [r3, #8]
 8001a16:	689a      	ldr	r2, [r3, #8]
 8001a18:	f442 0240 	orr.w	r2, r2, #12582912	; 0xc00000
 8001a1c:	609a      	str	r2, [r3, #8]
 8001a1e:	681a      	ldr	r2, [r3, #0]
 8001a20:	f422 0240 	bic.w	r2, r2, #12582912	; 0xc00000
 8001a24:	601a      	str	r2, [r3, #0]
 8001a26:	681a      	ldr	r2, [r3, #0]
 8001a28:	601a      	str	r2, [r3, #0]
 8001a2a:	68da      	ldr	r2, [r3, #12]
 8001a2c:	f442 0280 	orr.w	r2, r2, #4194304	; 0x400000
 8001a30:	60da      	str	r2, [r3, #12]
 8001a32:	bd10      	pop	{r4, pc}
 8001a34:	40021000 	andmi	r1, r2, r0
 8001a38:	48000800 	stmdami	r0, {fp}

08001a3c <_ZN7EncoderD1Ev>:
 8001a3c:	4770      	bx	lr
 8001a3e:	0000      	movs	r0, r0

08001a40 <_ZN7Encoder4initEv>:
 8001a40:	4b16      	ldr	r3, [pc, #88]	; (8001a9c <_ZN7Encoder4initEv+0x5c>)
 8001a42:	4a17      	ldr	r2, [pc, #92]	; (8001aa0 <_ZN7Encoder4initEv+0x60>)
 8001a44:	b510      	push	{r4, lr}
 8001a46:	2400      	movs	r4, #0
 8001a48:	601c      	str	r4, [r3, #0]
 8001a4a:	4b16      	ldr	r3, [pc, #88]	; (8001aa4 <_ZN7Encoder4initEv+0x64>)
 8001a4c:	601c      	str	r4, [r3, #0]
 8001a4e:	6993      	ldr	r3, [r2, #24]
 8001a50:	f043 0301 	orr.w	r3, r3, #1
 8001a54:	6193      	str	r3, [r2, #24]
 8001a56:	2106      	movs	r1, #6
 8001a58:	2002      	movs	r0, #2
 8001a5a:	f000 f9bf 	bl	8001ddc <_Z16exti_line_confighh>
 8001a5e:	210c      	movs	r1, #12
 8001a60:	2002      	movs	r0, #2
 8001a62:	f000 f9bb 	bl	8001ddc <_Z16exti_line_confighh>
 8001a66:	2108      	movs	r1, #8
 8001a68:	2006      	movs	r0, #6
 8001a6a:	f000 f9cc 	bl	8001e06 <_Z14configure_extimm>
 8001a6e:	2108      	movs	r1, #8
 8001a70:	200c      	movs	r0, #12
 8001a72:	f000 f9c8 	bl	8001e06 <_Z14configure_extimm>
 8001a76:	4622      	mov	r2, r4
 8001a78:	4621      	mov	r1, r4
 8001a7a:	2017      	movs	r0, #23
 8001a7c:	f000 f916 	bl	8001cac <_Z9nvic_initmmm>
 8001a80:	4622      	mov	r2, r4
 8001a82:	4621      	mov	r1, r4
 8001a84:	2028      	movs	r0, #40	; 0x28
 8001a86:	f000 f911 	bl	8001cac <_Z9nvic_initmmm>
 8001a8a:	2006      	movs	r0, #6
 8001a8c:	f000 f99a 	bl	8001dc4 <_Z22exti_clear_pending_bitm>
 8001a90:	200c      	movs	r0, #12
 8001a92:	e8bd 4010 	ldmia.w	sp!, {r4, lr}
 8001a96:	f000 b995 	b.w	8001dc4 <_Z22exti_clear_pending_bitm>
 8001a9a:	bf00      	nop
 8001a9c:	200002d4 	ldrdcs	r0, [r0], -r4
 8001aa0:	40021000 	andmi	r1, r2, r0
 8001aa4:	200002d8 	ldrdcs	r0, [r0], -r8

08001aa8 <EXTI9_5_IRQHandler>:
 8001aa8:	4b09      	ldr	r3, [pc, #36]	; (8001ad0 <EXTI9_5_IRQHandler+0x28>)
 8001aaa:	8a1b      	ldrh	r3, [r3, #16]
 8001aac:	f013 03c0 	ands.w	r3, r3, #192	; 0xc0
 8001ab0:	d00b      	beq.n	8001aca <EXTI9_5_IRQHandler+0x22>
 8001ab2:	2bc0      	cmp	r3, #192	; 0xc0
 8001ab4:	bf0c      	ite	eq
 8001ab6:	2301      	moveq	r3, #1
 8001ab8:	f04f 33ff 	movne.w	r3, #4294967295	; 0xffffffff
 8001abc:	4a05      	ldr	r2, [pc, #20]	; (8001ad4 <EXTI9_5_IRQHandler+0x2c>)
 8001abe:	6811      	ldr	r1, [r2, #0]
 8001ac0:	2006      	movs	r0, #6
 8001ac2:	440b      	add	r3, r1
 8001ac4:	6013      	str	r3, [r2, #0]
 8001ac6:	f000 b97d 	b.w	8001dc4 <_Z22exti_clear_pending_bitm>
 8001aca:	2301      	movs	r3, #1
 8001acc:	e7f6      	b.n	8001abc <EXTI9_5_IRQHandler+0x14>
 8001ace:	bf00      	nop
 8001ad0:	48000800 	stmdami	r0, {fp}
 8001ad4:	200002d4 	ldrdcs	r0, [r0], -r4

08001ad8 <EXTI15_10_IRQHandler>:
 8001ad8:	4b0a      	ldr	r3, [pc, #40]	; (8001b04 <EXTI15_10_IRQHandler+0x2c>)
 8001ada:	8a1b      	ldrh	r3, [r3, #16]
 8001adc:	f413 53c0 	ands.w	r3, r3, #6144	; 0x1800
 8001ae0:	d00c      	beq.n	8001afc <EXTI15_10_IRQHandler+0x24>
 8001ae2:	f5b3 5fc0 	cmp.w	r3, #6144	; 0x1800
 8001ae6:	bf0c      	ite	eq
 8001ae8:	f04f 33ff 	moveq.w	r3, #4294967295	; 0xffffffff
 8001aec:	2301      	movne	r3, #1
 8001aee:	4a06      	ldr	r2, [pc, #24]	; (8001b08 <EXTI15_10_IRQHandler+0x30>)
 8001af0:	6811      	ldr	r1, [r2, #0]
 8001af2:	200c      	movs	r0, #12
 8001af4:	440b      	add	r3, r1
 8001af6:	6013      	str	r3, [r2, #0]
 8001af8:	f000 b964 	b.w	8001dc4 <_Z22exti_clear_pending_bitm>
 8001afc:	f04f 33ff 	mov.w	r3, #4294967295	; 0xffffffff
 8001b00:	e7f5      	b.n	8001aee <EXTI15_10_IRQHandler+0x16>
 8001b02:	bf00      	nop
 8001b04:	48000800 	stmdami	r0, {fp}
 8001b08:	200002d8 	ldrdcs	r0, [r0], -r8

08001b0c <_Z16RCC_ADCCLKConfigm>:
 8001b0c:	0f03      	lsrs	r3, r0, #28
 8001b0e:	4b06      	ldr	r3, [pc, #24]	; (8001b28 <_Z16RCC_ADCCLKConfigm+0x1c>)
 8001b10:	6ada      	ldr	r2, [r3, #44]	; 0x2c
 8001b12:	bf14      	ite	ne
 8001b14:	f422 5278 	bicne.w	r2, r2, #15872	; 0x3e00
 8001b18:	f422 72f8 	biceq.w	r2, r2, #496	; 0x1f0
 8001b1c:	62da      	str	r2, [r3, #44]	; 0x2c
 8001b1e:	6ada      	ldr	r2, [r3, #44]	; 0x2c
 8001b20:	4310      	orrs	r0, r2
 8001b22:	62d8      	str	r0, [r3, #44]	; 0x2c
 8001b24:	4770      	bx	lr
 8001b26:	bf00      	nop
 8001b28:	40021000 	andmi	r1, r2, r0

08001b2c <_Z24ADC_RegularChannelConfigP11ADC_TypeDefhhh>:
 8001b2c:	2a04      	cmp	r2, #4
 8001b2e:	b530      	push	{r4, r5, lr}
 8001b30:	dc1c      	bgt.n	8001b6c <_Z24ADC_RegularChannelConfigP11ADC_TypeDefhhh+0x40>
 8001b32:	eb02 0242 	add.w	r2, r2, r2, lsl #1
 8001b36:	6b04      	ldr	r4, [r0, #48]	; 0x30
 8001b38:	0052      	lsls	r2, r2, #1
 8001b3a:	251f      	movs	r5, #31
 8001b3c:	4095      	lsls	r5, r2
 8001b3e:	ea24 0405 	bic.w	r4, r4, r5
 8001b42:	fa01 f202 	lsl.w	r2, r1, r2
 8001b46:	4322      	orrs	r2, r4
 8001b48:	6302      	str	r2, [r0, #48]	; 0x30
 8001b4a:	2909      	cmp	r1, #9
 8001b4c:	dd39      	ble.n	8001bc2 <_Z24ADC_RegularChannelConfigP11ADC_TypeDefhhh+0x96>
 8001b4e:	390a      	subs	r1, #10
 8001b50:	6982      	ldr	r2, [r0, #24]
 8001b52:	6982      	ldr	r2, [r0, #24]
 8001b54:	eb01 0141 	add.w	r1, r1, r1, lsl #1
 8001b58:	2407      	movs	r4, #7
 8001b5a:	408c      	lsls	r4, r1
 8001b5c:	ea22 0204 	bic.w	r2, r2, r4
 8001b60:	6182      	str	r2, [r0, #24]
 8001b62:	6982      	ldr	r2, [r0, #24]
 8001b64:	408b      	lsls	r3, r1
 8001b66:	4313      	orrs	r3, r2
 8001b68:	6183      	str	r3, [r0, #24]
 8001b6a:	bd30      	pop	{r4, r5, pc}
 8001b6c:	2a09      	cmp	r2, #9
 8001b6e:	dc0c      	bgt.n	8001b8a <_Z24ADC_RegularChannelConfigP11ADC_TypeDefhhh+0x5e>
 8001b70:	2406      	movs	r4, #6
 8001b72:	3a05      	subs	r2, #5
 8001b74:	4362      	muls	r2, r4
 8001b76:	6b45      	ldr	r5, [r0, #52]	; 0x34
 8001b78:	241f      	movs	r4, #31
 8001b7a:	4094      	lsls	r4, r2
 8001b7c:	ea25 0404 	bic.w	r4, r5, r4
 8001b80:	fa01 f202 	lsl.w	r2, r1, r2
 8001b84:	4322      	orrs	r2, r4
 8001b86:	6342      	str	r2, [r0, #52]	; 0x34
 8001b88:	e7df      	b.n	8001b4a <_Z24ADC_RegularChannelConfigP11ADC_TypeDefhhh+0x1e>
 8001b8a:	2a0e      	cmp	r2, #14
 8001b8c:	f04f 0406 	mov.w	r4, #6
 8001b90:	dc0b      	bgt.n	8001baa <_Z24ADC_RegularChannelConfigP11ADC_TypeDefhhh+0x7e>
 8001b92:	3a0a      	subs	r2, #10
 8001b94:	4362      	muls	r2, r4
 8001b96:	6b85      	ldr	r5, [r0, #56]	; 0x38
 8001b98:	241f      	movs	r4, #31
 8001b9a:	4094      	lsls	r4, r2
 8001b9c:	ea25 0404 	bic.w	r4, r5, r4
 8001ba0:	fa01 f202 	lsl.w	r2, r1, r2
 8001ba4:	4322      	orrs	r2, r4
 8001ba6:	6382      	str	r2, [r0, #56]	; 0x38
 8001ba8:	e7cf      	b.n	8001b4a <_Z24ADC_RegularChannelConfigP11ADC_TypeDefhhh+0x1e>
 8001baa:	3a0f      	subs	r2, #15
 8001bac:	4362      	muls	r2, r4
 8001bae:	6bc5      	ldr	r5, [r0, #60]	; 0x3c
 8001bb0:	241f      	movs	r4, #31
 8001bb2:	4094      	lsls	r4, r2
 8001bb4:	ea25 0404 	bic.w	r4, r5, r4
 8001bb8:	fa01 f202 	lsl.w	r2, r1, r2
 8001bbc:	4322      	orrs	r2, r4
 8001bbe:	63c2      	str	r2, [r0, #60]	; 0x3c
 8001bc0:	e7c3      	b.n	8001b4a <_Z24ADC_RegularChannelConfigP11ADC_TypeDefhhh+0x1e>
 8001bc2:	3901      	subs	r1, #1
 8001bc4:	6942      	ldr	r2, [r0, #20]
 8001bc6:	6942      	ldr	r2, [r0, #20]
 8001bc8:	eb01 0141 	add.w	r1, r1, r1, lsl #1
 8001bcc:	2438      	movs	r4, #56	; 0x38
 8001bce:	408c      	lsls	r4, r1
 8001bd0:	ea22 0204 	bic.w	r2, r2, r4
 8001bd4:	6142      	str	r2, [r0, #20]
 8001bd6:	6942      	ldr	r2, [r0, #20]
 8001bd8:	3103      	adds	r1, #3
 8001bda:	fa03 f101 	lsl.w	r1, r3, r1
 8001bde:	4311      	orrs	r1, r2
 8001be0:	6141      	str	r1, [r0, #20]
 8001be2:	bd30      	pop	{r4, r5, pc}

08001be4 <_Z8adc_initv>:
 8001be4:	b570      	push	{r4, r5, r6, lr}
 8001be6:	f44f 7088 	mov.w	r0, #272	; 0x110
 8001bea:	f7ff ff8f 	bl	8001b0c <_Z16RCC_ADCCLKConfigm>
 8001bee:	4919      	ldr	r1, [pc, #100]	; (8001c54 <_Z8adc_initv+0x70>)
 8001bf0:	4819      	ldr	r0, [pc, #100]	; (8001c58 <_Z8adc_initv+0x74>)
 8001bf2:	694b      	ldr	r3, [r1, #20]
 8001bf4:	4d19      	ldr	r5, [pc, #100]	; (8001c5c <_Z8adc_initv+0x78>)
 8001bf6:	4c1a      	ldr	r4, [pc, #104]	; (8001c60 <_Z8adc_initv+0x7c>)
 8001bf8:	f043 5380 	orr.w	r3, r3, #268435456	; 0x10000000
 8001bfc:	614b      	str	r3, [r1, #20]
 8001bfe:	f7ff ff85 	bl	8001b0c <_Z16RCC_ADCCLKConfigm>
 8001c02:	694b      	ldr	r3, [r1, #20]
 8001c04:	f04f 46a0 	mov.w	r6, #1342177280	; 0x50000000
 8001c08:	f043 5300 	orr.w	r3, r3, #536870912	; 0x20000000
 8001c0c:	614b      	str	r3, [r1, #20]
 8001c0e:	2201      	movs	r2, #1
 8001c10:	2300      	movs	r3, #0
 8001c12:	60f3      	str	r3, [r6, #12]
 8001c14:	4611      	mov	r1, r2
 8001c16:	60eb      	str	r3, [r5, #12]
 8001c18:	4630      	mov	r0, r6
 8001c1a:	60e3      	str	r3, [r4, #12]
 8001c1c:	2302      	movs	r3, #2
 8001c1e:	f7ff ff85 	bl	8001b2c <_Z24ADC_RegularChannelConfigP11ADC_TypeDefhhh>
 8001c22:	2201      	movs	r2, #1
 8001c24:	4611      	mov	r1, r2
 8001c26:	2302      	movs	r3, #2
 8001c28:	4628      	mov	r0, r5
 8001c2a:	f7ff ff7f 	bl	8001b2c <_Z24ADC_RegularChannelConfigP11ADC_TypeDefhhh>
 8001c2e:	2302      	movs	r3, #2
 8001c30:	2201      	movs	r2, #1
 8001c32:	210c      	movs	r1, #12
 8001c34:	4620      	mov	r0, r4
 8001c36:	f7ff ff79 	bl	8001b2c <_Z24ADC_RegularChannelConfigP11ADC_TypeDefhhh>
 8001c3a:	68b3      	ldr	r3, [r6, #8]
 8001c3c:	f043 0301 	orr.w	r3, r3, #1
 8001c40:	60b3      	str	r3, [r6, #8]
 8001c42:	68ab      	ldr	r3, [r5, #8]
 8001c44:	f043 0301 	orr.w	r3, r3, #1
 8001c48:	60ab      	str	r3, [r5, #8]
 8001c4a:	68a3      	ldr	r3, [r4, #8]
 8001c4c:	f043 0301 	orr.w	r3, r3, #1
 8001c50:	60a3      	str	r3, [r4, #8]
 8001c52:	bd70      	pop	{r4, r5, r6, pc}
 8001c54:	40021000 	andmi	r1, r2, r0
 8001c58:	10002200 	andne	r2, r0, r0, lsl #4
 8001c5c:	50000100 	andpl	r0, r0, r0, lsl #2
 8001c60:	50000400 	andpl	r0, r0, r0, lsl #8

08001c64 <_Z8adc_readi>:
 8001c64:	3801      	subs	r0, #1
 8001c66:	2809      	cmp	r0, #9
 8001c68:	bf98      	it	ls
 8001c6a:	4b0e      	ldrls	r3, [pc, #56]	; (8001ca4 <_Z8adc_readi+0x40>)
 8001c6c:	b510      	push	{r4, lr}
 8001c6e:	bf9b      	ittet	ls
 8001c70:	f853 4020 	ldrls.w	r4, [r3, r0, lsl #2]
 8001c74:	4b0c      	ldrls	r3, [pc, #48]	; (8001ca8 <_Z8adc_readi+0x44>)
 8001c76:	f04f 44a0 	movhi.w	r4, #1342177280	; 0x50000000
 8001c7a:	5c19      	ldrbls	r1, [r3, r0]
 8001c7c:	f04f 0301 	mov.w	r3, #1
 8001c80:	461a      	mov	r2, r3
 8001c82:	bf88      	it	hi
 8001c84:	2101      	movhi	r1, #1
 8001c86:	4620      	mov	r0, r4
 8001c88:	f7ff ff50 	bl	8001b2c <_Z24ADC_RegularChannelConfigP11ADC_TypeDefhhh>
 8001c8c:	68a3      	ldr	r3, [r4, #8]
 8001c8e:	f043 0304 	orr.w	r3, r3, #4
 8001c92:	60a3      	str	r3, [r4, #8]
 8001c94:	6823      	ldr	r3, [r4, #0]
 8001c96:	075b      	lsls	r3, r3, #29
 8001c98:	d401      	bmi.n	8001c9e <_Z8adc_readi+0x3a>
 8001c9a:	bf00      	nop
 8001c9c:	e7fa      	b.n	8001c94 <_Z8adc_readi+0x30>
 8001c9e:	6c20      	ldr	r0, [r4, #64]	; 0x40
 8001ca0:	bd10      	pop	{r4, pc}
 8001ca2:	bf00      	nop
 8001ca4:	08002000 	stmdaeq	r0, {sp}
 8001ca8:	08002028 	stmdaeq	r0, {r3, r5, sp}

08001cac <_Z9nvic_initmmm>:
 8001cac:	4b0e      	ldr	r3, [pc, #56]	; (8001ce8 <_Z9nvic_initmmm+0x3c>)
 8001cae:	68db      	ldr	r3, [r3, #12]
 8001cb0:	43db      	mvns	r3, r3
 8001cb2:	b510      	push	{r4, lr}
 8001cb4:	f3c3 2402 	ubfx	r4, r3, #8, #3
 8001cb8:	f1c4 0304 	rsb	r3, r4, #4
 8001cbc:	b2db      	uxtb	r3, r3
 8001cbe:	4099      	lsls	r1, r3
 8001cc0:	230f      	movs	r3, #15
 8001cc2:	4123      	asrs	r3, r4
 8001cc4:	4013      	ands	r3, r2
 8001cc6:	4a09      	ldr	r2, [pc, #36]	; (8001cec <_Z9nvic_initmmm+0x40>)
 8001cc8:	430b      	orrs	r3, r1
 8001cca:	011b      	lsls	r3, r3, #4
 8001ccc:	1811      	adds	r1, r2, r0
 8001cce:	f003 03f0 	and.w	r3, r3, #240	; 0xf0
 8001cd2:	f881 3300 	strb.w	r3, [r1, #768]	; 0x300
 8001cd6:	0941      	lsrs	r1, r0, #5
 8001cd8:	2301      	movs	r3, #1
 8001cda:	f000 001f 	and.w	r0, r0, #31
 8001cde:	fa03 f000 	lsl.w	r0, r3, r0
 8001ce2:	f842 0021 	str.w	r0, [r2, r1, lsl #2]
 8001ce6:	bd10      	pop	{r4, pc}
 8001ce8:	e000ed00 	and	lr, r0, r0, lsl #26
 8001cec:	e000e100 	and	lr, r0, r0, lsl #2

08001cf0 <_Z10timer_initP11TIM_TypeDefmmmm>:
 8001cf0:	b530      	push	{r4, r5, lr}
 8001cf2:	8805      	ldrh	r5, [r0, #0]
 8001cf4:	b2ac      	uxth	r4, r5
 8001cf6:	4d28      	ldr	r5, [pc, #160]	; (8001d98 <_Z10timer_initP11TIM_TypeDefmmmm+0xa8>)
 8001cf8:	42a8      	cmp	r0, r5
 8001cfa:	d012      	beq.n	8001d22 <_Z10timer_initP11TIM_TypeDefmmmm+0x32>
 8001cfc:	f505 6500 	add.w	r5, r5, #2048	; 0x800
 8001d00:	42a8      	cmp	r0, r5
 8001d02:	d00e      	beq.n	8001d22 <_Z10timer_initP11TIM_TypeDefmmmm+0x32>
 8001d04:	f1b0 4f80 	cmp.w	r0, #1073741824	; 0x40000000
 8001d08:	d00b      	beq.n	8001d22 <_Z10timer_initP11TIM_TypeDefmmmm+0x32>
 8001d0a:	f5a5 3598 	sub.w	r5, r5, #77824	; 0x13000
 8001d0e:	42a8      	cmp	r0, r5
 8001d10:	d007      	beq.n	8001d22 <_Z10timer_initP11TIM_TypeDefmmmm+0x32>
 8001d12:	f505 6580 	add.w	r5, r5, #1024	; 0x400
 8001d16:	42a8      	cmp	r0, r5
 8001d18:	d003      	beq.n	8001d22 <_Z10timer_initP11TIM_TypeDefmmmm+0x32>
 8001d1a:	f505 35a4 	add.w	r5, r5, #83968	; 0x14800
 8001d1e:	42a8      	cmp	r0, r5
 8001d20:	d103      	bne.n	8001d2a <_Z10timer_initP11TIM_TypeDefmmmm+0x3a>
 8001d22:	f024 0470 	bic.w	r4, r4, #112	; 0x70
 8001d26:	430c      	orrs	r4, r1
 8001d28:	b2a4      	uxth	r4, r4
 8001d2a:	491c      	ldr	r1, [pc, #112]	; (8001d9c <_Z10timer_initP11TIM_TypeDefmmmm+0xac>)
 8001d2c:	4288      	cmp	r0, r1
 8001d2e:	d008      	beq.n	8001d42 <_Z10timer_initP11TIM_TypeDefmmmm+0x52>
 8001d30:	f501 6180 	add.w	r1, r1, #1024	; 0x400
 8001d34:	4288      	cmp	r0, r1
 8001d36:	bf1f      	itttt	ne
 8001d38:	f424 7440 	bicne.w	r4, r4, #768	; 0x300
 8001d3c:	b2a4      	uxthne	r4, r4
 8001d3e:	4314      	orrne	r4, r2
 8001d40:	b2a4      	uxthne	r4, r4
 8001d42:	8004      	strh	r4, [r0, #0]
 8001d44:	62c3      	str	r3, [r0, #44]	; 0x2c
 8001d46:	f8bd 300c 	ldrh.w	r3, [sp, #12]
 8001d4a:	8503      	strh	r3, [r0, #40]	; 0x28
 8001d4c:	4b12      	ldr	r3, [pc, #72]	; (8001d98 <_Z10timer_initP11TIM_TypeDefmmmm+0xa8>)
 8001d4e:	4298      	cmp	r0, r3
 8001d50:	d013      	beq.n	8001d7a <_Z10timer_initP11TIM_TypeDefmmmm+0x8a>
 8001d52:	f503 6300 	add.w	r3, r3, #2048	; 0x800
 8001d56:	4298      	cmp	r0, r3
 8001d58:	d00f      	beq.n	8001d7a <_Z10timer_initP11TIM_TypeDefmmmm+0x8a>
 8001d5a:	f503 6340 	add.w	r3, r3, #3072	; 0xc00
 8001d5e:	4298      	cmp	r0, r3
 8001d60:	d00b      	beq.n	8001d7a <_Z10timer_initP11TIM_TypeDefmmmm+0x8a>
 8001d62:	f503 6380 	add.w	r3, r3, #1024	; 0x400
 8001d66:	4298      	cmp	r0, r3
 8001d68:	d007      	beq.n	8001d7a <_Z10timer_initP11TIM_TypeDefmmmm+0x8a>
 8001d6a:	f503 6380 	add.w	r3, r3, #1024	; 0x400
 8001d6e:	4298      	cmp	r0, r3
 8001d70:	d003      	beq.n	8001d7a <_Z10timer_initP11TIM_TypeDefmmmm+0x8a>
 8001d72:	f503 6300 	add.w	r3, r3, #2048	; 0x800
 8001d76:	4298      	cmp	r0, r3
 8001d78:	d101      	bne.n	8001d7e <_Z10timer_initP11TIM_TypeDefmmmm+0x8e>
 8001d7a:	2300      	movs	r3, #0
 8001d7c:	8603      	strh	r3, [r0, #48]	; 0x30
 8001d7e:	2301      	movs	r3, #1
 8001d80:	6143      	str	r3, [r0, #20]
 8001d82:	8803      	ldrh	r3, [r0, #0]
 8001d84:	b29b      	uxth	r3, r3
 8001d86:	f043 0301 	orr.w	r3, r3, #1
 8001d8a:	8003      	strh	r3, [r0, #0]
 8001d8c:	68c3      	ldr	r3, [r0, #12]
 8001d8e:	f043 0301 	orr.w	r3, r3, #1
 8001d92:	60c3      	str	r3, [r0, #12]
 8001d94:	bd30      	pop	{r4, r5, pc}
 8001d96:	bf00      	nop
 8001d98:	40012c00 	andmi	r2, r1, r0, lsl #24
 8001d9c:	40001000 	andmi	r1, r0, r0

08001da0 <_Z10usart_initP13USART_TypeDefm>:
 8001da0:	2300      	movs	r3, #0
 8001da2:	220c      	movs	r2, #12
 8001da4:	6043      	str	r3, [r0, #4]
 8001da6:	6002      	str	r2, [r0, #0]
 8001da8:	6083      	str	r3, [r0, #8]
 8001daa:	4b05      	ldr	r3, [pc, #20]	; (8001dc0 <_Z10usart_initP13USART_TypeDefm+0x20>)
 8001dac:	fbb3 f1f1 	udiv	r1, r3, r1
 8001db0:	b289      	uxth	r1, r1
 8001db2:	8181      	strh	r1, [r0, #12]
 8001db4:	6803      	ldr	r3, [r0, #0]
 8001db6:	f043 0301 	orr.w	r3, r3, #1
 8001dba:	6003      	str	r3, [r0, #0]
 8001dbc:	4770      	bx	lr
 8001dbe:	bf00      	nop
 8001dc0:	044aa200 	strbeq	sl, [sl], #-512	; 0xfffffe00

08001dc4 <_Z22exti_clear_pending_bitm>:
 8001dc4:	f020 021f 	bic.w	r2, r0, #31
 8001dc8:	2301      	movs	r3, #1
 8001dca:	f000 001f 	and.w	r0, r0, #31
 8001dce:	fa03 f000 	lsl.w	r0, r3, r0
 8001dd2:	4b01      	ldr	r3, [pc, #4]	; (8001dd8 <_Z22exti_clear_pending_bitm+0x14>)
 8001dd4:	50d0      	str	r0, [r2, r3]
 8001dd6:	4770      	bx	lr
 8001dd8:	40010414 	andmi	r0, r1, r4, lsl r4

08001ddc <_Z16exti_line_confighh>:
 8001ddc:	f001 0303 	and.w	r3, r1, #3
 8001de0:	f001 01fc 	and.w	r1, r1, #252	; 0xfc
 8001de4:	f101 4180 	add.w	r1, r1, #1073741824	; 0x40000000
 8001de8:	f501 3180 	add.w	r1, r1, #65536	; 0x10000
 8001dec:	b510      	push	{r4, lr}
 8001dee:	688a      	ldr	r2, [r1, #8]
 8001df0:	009b      	lsls	r3, r3, #2
 8001df2:	240f      	movs	r4, #15
 8001df4:	409c      	lsls	r4, r3
 8001df6:	ea22 0204 	bic.w	r2, r2, r4
 8001dfa:	608a      	str	r2, [r1, #8]
 8001dfc:	688a      	ldr	r2, [r1, #8]
 8001dfe:	4098      	lsls	r0, r3
 8001e00:	4310      	orrs	r0, r2
 8001e02:	6088      	str	r0, [r1, #8]
 8001e04:	bd10      	pop	{r4, pc}

08001e06 <_Z14configure_extimm>:
 8001e06:	f020 031f 	bic.w	r3, r0, #31
 8001e0a:	f103 4380 	add.w	r3, r3, #1073741824	; 0x40000000
 8001e0e:	f503 3382 	add.w	r3, r3, #66560	; 0x10400
 8001e12:	2201      	movs	r2, #1
 8001e14:	f000 001f 	and.w	r0, r0, #31
 8001e18:	b530      	push	{r4, r5, lr}
 8001e1a:	fa02 f000 	lsl.w	r0, r2, r0
 8001e1e:	681c      	ldr	r4, [r3, #0]
 8001e20:	43c2      	mvns	r2, r0
 8001e22:	4014      	ands	r4, r2
 8001e24:	601c      	str	r4, [r3, #0]
 8001e26:	685d      	ldr	r5, [r3, #4]
 8001e28:	4015      	ands	r5, r2
 8001e2a:	605d      	str	r5, [r3, #4]
 8001e2c:	681d      	ldr	r5, [r3, #0]
 8001e2e:	4305      	orrs	r5, r0
 8001e30:	601d      	str	r5, [r3, #0]
 8001e32:	689d      	ldr	r5, [r3, #8]
 8001e34:	4015      	ands	r5, r2
 8001e36:	609d      	str	r5, [r3, #8]
 8001e38:	68dd      	ldr	r5, [r3, #12]
 8001e3a:	f103 4440 	add.w	r4, r3, #3221225472	; 0xc0000000
 8001e3e:	402a      	ands	r2, r5
 8001e40:	2910      	cmp	r1, #16
 8001e42:	f5a4 3482 	sub.w	r4, r4, #66560	; 0x10400
 8001e46:	60da      	str	r2, [r3, #12]
 8001e48:	d106      	bne.n	8001e58 <_Z14configure_extimm+0x52>
 8001e4a:	689a      	ldr	r2, [r3, #8]
 8001e4c:	4302      	orrs	r2, r0
 8001e4e:	609a      	str	r2, [r3, #8]
 8001e50:	68da      	ldr	r2, [r3, #12]
 8001e52:	4310      	orrs	r0, r2
 8001e54:	60d8      	str	r0, [r3, #12]
 8001e56:	bd30      	pop	{r4, r5, pc}
 8001e58:	f101 4180 	add.w	r1, r1, #1073741824	; 0x40000000
 8001e5c:	f501 3182 	add.w	r1, r1, #66560	; 0x10400
 8001e60:	590b      	ldr	r3, [r1, r4]
 8001e62:	4318      	orrs	r0, r3
 8001e64:	5108      	str	r0, [r1, r4]
 8001e66:	bd30      	pop	{r4, r5, pc}

08001e68 <_ZTV13MotorControll>:
 8001e68:	00000000 	andeq	r0, r0, r0
 8001e6c:	00000000 	andeq	r0, r0, r0
 8001e70:	08000321 	stmdaeq	r0, {r0, r5, r8, r9}
 8001e74:	08000339 	stmdaeq	r0, {r0, r3, r4, r5, r8, r9}
 8001e78:	0800031d 	stmdaeq	r0, {r0, r2, r3, r4, r8, r9}

08001e7c <_ZTV14DistanceSensor>:
 8001e7c:	00000000 	andeq	r0, r0, r0
 8001e80:	00000000 	andeq	r0, r0, r0
 8001e84:	080004e9 	stmdaeq	r0, {r0, r3, r5, r6, r7, sl}
 8001e88:	080004eb 	stmdaeq	r0, {r0, r1, r3, r5, r6, r7, sl}
 8001e8c:	080005d7 	stmdaeq	r0, {r0, r1, r2, r4, r6, r7, r8, sl}

08001e90 <_ZTV4TI2CILh1ELh7ELh6ELh10ELh1EE>:
 8001e90:	00000000 	andeq	r0, r0, r0
 8001e94:	00000000 	andeq	r0, r0, r0
 8001e98:	08000689 	stmdaeq	r0, {r0, r3, r7, r9, sl}
 8001e9c:	0800069d 	stmdaeq	r0, {r0, r2, r3, r4, r7, r9, sl}
 8001ea0:	08000c8b 	stmdaeq	r0, {r0, r1, r3, r7, sl, fp}
 8001ea4:	08000c45 	stmdaeq	r0, {r0, r2, r6, sl, fp}
 8001ea8:	08000aed 	stmdaeq	r0, {r0, r2, r3, r5, r6, r7, r9, fp}
 8001eac:	08000d7b 	stmdaeq	r0, {r0, r1, r3, r4, r5, r6, r8, sl, fp}
 8001eb0:	08000cd1 	stmdaeq	r0, {r0, r4, r6, r7, sl, fp}
 8001eb4:	74736509 	ldrbtvc	r6, [r3], #-1289	; 0xfffffaf7
 8001eb8:	756d695f 	strbvc	r6, [sp, #-2399]!	; 0xfffff6a1
 8001ebc:	6e65735f 	mcrvs	3, 3, r7, cr5, cr15, {2}
 8001ec0:	0a726f73 	beq	9c9dc94 <_sidata+0x1c9bc58>
 8001ec4:	203a2000 	eorscs	r2, sl, r0
 8001ec8:	65740a00 	ldrbvs	r0, [r4, #-2560]!	; 0xfffff600
 8001ecc:	6c5f7473 	cfldrdvs	mvd7, [pc], {115}	; 0x73
 8001ed0:	5f656e69 	svcpl	0x00656e69
 8001ed4:	736e6573 	cmnvc	lr, #482344960	; 0x1cc00000
 8001ed8:	000a726f 	andeq	r7, sl, pc, ror #4
 8001edc:	23232323 			; <UNDEFINED> instruction: 0x23232323
 8001ee0:	0a0a0a23 	beq	8284774 <_sidata+0x282738>
 8001ee4:	72657400 	rsbvc	r7, r5, #0, 8
 8001ee8:	616e696d 	cmnvs	lr, sp, ror #18
 8001eec:	6e69206c 	cdpvs	0, 6, cr2, cr9, cr12, {3}
 8001ef0:	64207469 	strtvs	r7, [r0], #-1129	; 0xfffffb97
 8001ef4:	0a656e6f 	beq	995d8b8 <_sidata+0x195b87c>
 8001ef8:	6d697400 	cfstrdvs	mvd7, [r9, #-0]
 8001efc:	69207265 	stmdbvs	r0!, {r0, r2, r5, r6, r9, ip, sp, lr}
 8001f00:	2074696e 	rsbscs	r6, r4, lr, ror #18
 8001f04:	656e6f64 	strbvs	r6, [lr, #-3940]!	; 0xfffff09c
 8001f08:	6564000a 	strbvs	r0, [r4, #-10]!
 8001f0c:	2079616c 	rsbscs	r6, r9, ip, ror #2
 8001f10:	20303032 	eorscs	r3, r0, r2, lsr r0
 8001f14:	0020736d 	eoreq	r7, r0, sp, ror #6
 8001f18:	20633269 	rsbcs	r3, r3, r9, ror #4
 8001f1c:	74696e69 	strbtvc	r6, [r9], #-3689	; 0xfffff197
 8001f20:	6e6f6420 	cdpvs	4, 6, cr6, cr15, cr0, {1}
 8001f24:	69000a65 	stmdbvs	r0, {r0, r2, r5, r6, r9, fp}
 8001f28:	6920756d 	stmdbvs	r0!, {r0, r2, r3, r5, r6, r8, sl, ip, sp, lr}
 8001f2c:	2074696e 	rsbscs	r6, r4, lr, ror #18
 8001f30:	656e6f64 	strbvs	r6, [lr, #-3940]!	; 0xfffff09c
 8001f34:	74697720 	strbtvc	r7, [r9], #-1824	; 0xfffff8e0
 8001f38:	6c002068 	stcvs	0, cr2, [r0], {104}	; 0x68
 8001f3c:	20656e69 	rsbcs	r6, r5, r9, ror #28
 8001f40:	736e6573 	cmnvc	lr, #482344960	; 0x1cc00000
 8001f44:	6920726f 	stmdbvs	r0!, {r0, r1, r2, r3, r5, r6, r9, ip, sp, lr}
 8001f48:	2074696e 	rsbscs	r6, r4, lr, ror #18
 8001f4c:	656e6f64 	strbvs	r6, [lr, #-3940]!	; 0xfffff09c
 8001f50:	6e65000a 	cdpvs	0, 6, cr0, cr5, cr10, {0}
 8001f54:	65646f63 	strbvs	r6, [r4, #-3939]!	; 0xfffff09d
 8001f58:	65732072 	ldrbvs	r2, [r3, #-114]!	; 0xffffff8e
 8001f5c:	726f736e 	rsbvc	r7, pc, #-1207959551	; 0xb8000001
 8001f60:	696e6920 	stmdbvs	lr!, {r5, r8, fp, sp, lr}^
 8001f64:	6f642074 	svcvs	0x00642074
 8001f68:	000a656e 	andeq	r6, sl, lr, ror #10
 8001f6c:	6f746f6d 	svcvs	0x00746f6d
 8001f70:	6f632072 	svcvs	0x00632072
 8001f74:	6f72746e 	svcvs	0x0072746e
 8001f78:	69206c6c 	stmdbvs	r0!, {r2, r3, r5, r6, sl, fp, sp, lr}
 8001f7c:	2074696e 	rsbscs	r6, r4, lr, ror #18
 8001f80:	656e6f64 	strbvs	r6, [lr, #-3940]!	; 0xfffff09c
 8001f84:	7973000a 	ldmdbvc	r3!, {r1, r3}^
 8001f88:	6d657473 	cfstrdvs	mvd7, [r5, #-460]!	; 0xfffffe34
 8001f8c:	696e6920 	stmdbvs	lr!, {r5, r8, fp, sp, lr}^
 8001f90:	6f642074 	svcvs	0x00642074
 8001f94:	000a656e 	andeq	r6, sl, lr, ror #10
 8001f98:	65757274 	ldrbvs	r7, [r5, #-628]!	; 0xfffffd8c
 8001f9c:	6c616600 	stclvs	6, cr6, [r1], #-0
 8001fa0:	00006573 	andeq	r6, r0, r3, ror r5

08001fa4 <_ZTV7Drivers>:
 8001fa4:	00000000 	andeq	r0, r0, r0
 8001fa8:	00000000 	andeq	r0, r0, r0
 8001fac:	08000677 	stmdaeq	r0, {r0, r1, r2, r4, r5, r6, r9, sl}
 8001fb0:	08000679 	stmdaeq	r0, {r0, r3, r4, r5, r6, r9, sl}

08001fb4 <_ZTV13I2C_Interface>:
 8001fb4:	00000000 	andeq	r0, r0, r0
 8001fb8:	00000000 	andeq	r0, r0, r0
 8001fbc:	00000000 	andeq	r0, r0, r0
 8001fc0:	00000000 	andeq	r0, r0, r0
 8001fc4:	08001649 	stmdaeq	r0, {r0, r3, r6, r9, sl, ip}
 8001fc8:	08001649 	stmdaeq	r0, {r0, r3, r6, r9, sl, ip}
 8001fcc:	08000f05 	stmdaeq	r0, {r0, r2, r8, r9, sl, fp}
 8001fd0:	08001649 	stmdaeq	r0, {r0, r3, r6, r9, sl, ip}
 8001fd4:	08001649 	stmdaeq	r0, {r0, r3, r6, r9, sl, ip}

08001fd8 <_ZTV3IMU>:
 8001fd8:	00000000 	andeq	r0, r0, r0
 8001fdc:	00000000 	andeq	r0, r0, r0
 8001fe0:	08000fb5 	stmdaeq	r0, {r0, r2, r4, r5, r7, r8, r9, sl, fp}
 8001fe4:	08000fb7 	stmdaeq	r0, {r0, r1, r2, r4, r5, r7, r8, r9, sl, fp}
 8001fe8:	0800114d 	stmdaeq	r0, {r0, r2, r3, r6, r8, ip}

08001fec <_ZTV10LineSensor>:
 8001fec:	00000000 	andeq	r0, r0, r0
 8001ff0:	00000000 	andeq	r0, r0, r0
 8001ff4:	08001277 	stmdaeq	r0, {r0, r1, r2, r4, r5, r6, r9, ip}
 8001ff8:	08001279 	stmdaeq	r0, {r0, r3, r4, r5, r6, r9, ip}
 8001ffc:	08001511 	stmdaeq	r0, {r0, r4, r8, sl, ip}

08002000 <CSWTCH.7>:
 8002000:	50000000 	andpl	r0, r0, r0
 8002004:	50000000 	andpl	r0, r0, r0
 8002008:	50000000 	andpl	r0, r0, r0
 800200c:	50000100 	andpl	r0, r0, r0, lsl #2
 8002010:	50000100 	andpl	r0, r0, r0, lsl #2
 8002014:	50000100 	andpl	r0, r0, r0, lsl #2
 8002018:	50000100 	andpl	r0, r0, r0, lsl #2
 800201c:	50000400 	andpl	r0, r0, r0, lsl #8
 8002020:	50000400 	andpl	r0, r0, r0, lsl #8
 8002024:	50000000 	andpl	r0, r0, r0

08002028 <CSWTCH.8>:
 8002028:	01040302 	tsteq	r4, r2, lsl #6
 800202c:	0c040302 	stceq	3, cr0, [r4], {2}
 8002030:	00000601 	andeq	r0, r0, r1, lsl #12

Disassembly of section .init_array:

08002034 <__init_array_start>:
 8002034:	08000e11 	stmdaeq	r0, {r0, r4, r9, sl, fp}
 8002038:	0800166d 	stmdaeq	r0, {r0, r2, r3, r5, r6, r9, sl, ip}

Disassembly of section .bss:

20000000 <_sbss>:
20000000:	00000000 	andeq	r0, r0, r0

20000004 <g_timers>:
20000004:	00000000 	andeq	r0, r0, r0
20000008:	00000000 	andeq	r0, r0, r0
2000000c:	00000000 	andeq	r0, r0, r0
20000010:	00000000 	andeq	r0, r0, r0
20000014:	00000000 	andeq	r0, r0, r0
20000018:	00000000 	andeq	r0, r0, r0
2000001c:	00000000 	andeq	r0, r0, r0
20000020:	00000000 	andeq	r0, r0, r0
20000024:	00000000 	andeq	r0, r0, r0
20000028:	00000000 	andeq	r0, r0, r0
2000002c:	00000000 	andeq	r0, r0, r0
20000030:	00000000 	andeq	r0, r0, r0
20000034:	00000000 	andeq	r0, r0, r0
20000038:	00000000 	andeq	r0, r0, r0
2000003c:	00000000 	andeq	r0, r0, r0
20000040:	00000000 	andeq	r0, r0, r0
20000044:	00000000 	andeq	r0, r0, r0
20000048:	00000000 	andeq	r0, r0, r0
2000004c:	00000000 	andeq	r0, r0, r0
20000050:	00000000 	andeq	r0, r0, r0
20000054:	00000000 	andeq	r0, r0, r0
20000058:	00000000 	andeq	r0, r0, r0
2000005c:	00000000 	andeq	r0, r0, r0
20000060:	00000000 	andeq	r0, r0, r0
20000064:	00000000 	andeq	r0, r0, r0
20000068:	00000000 	andeq	r0, r0, r0
2000006c:	00000000 	andeq	r0, r0, r0
20000070:	00000000 	andeq	r0, r0, r0
20000074:	00000000 	andeq	r0, r0, r0
20000078:	00000000 	andeq	r0, r0, r0
2000007c:	00000000 	andeq	r0, r0, r0
20000080:	00000000 	andeq	r0, r0, r0
20000084:	00000000 	andeq	r0, r0, r0
20000088:	00000000 	andeq	r0, r0, r0
2000008c:	00000000 	andeq	r0, r0, r0
20000090:	00000000 	andeq	r0, r0, r0
20000094:	00000000 	andeq	r0, r0, r0
20000098:	00000000 	andeq	r0, r0, r0
2000009c:	00000000 	andeq	r0, r0, r0
200000a0:	00000000 	andeq	r0, r0, r0
200000a4:	00000000 	andeq	r0, r0, r0
200000a8:	00000000 	andeq	r0, r0, r0
200000ac:	00000000 	andeq	r0, r0, r0
200000b0:	00000000 	andeq	r0, r0, r0
200000b4:	00000000 	andeq	r0, r0, r0
200000b8:	00000000 	andeq	r0, r0, r0
200000bc:	00000000 	andeq	r0, r0, r0
200000c0:	00000000 	andeq	r0, r0, r0
200000c4:	00000000 	andeq	r0, r0, r0
200000c8:	00000000 	andeq	r0, r0, r0
200000cc:	00000000 	andeq	r0, r0, r0
200000d0:	00000000 	andeq	r0, r0, r0
200000d4:	00000000 	andeq	r0, r0, r0
200000d8:	00000000 	andeq	r0, r0, r0
200000dc:	00000000 	andeq	r0, r0, r0
200000e0:	00000000 	andeq	r0, r0, r0
200000e4:	00000000 	andeq	r0, r0, r0
200000e8:	00000000 	andeq	r0, r0, r0
200000ec:	00000000 	andeq	r0, r0, r0
200000f0:	00000000 	andeq	r0, r0, r0
200000f4:	00000000 	andeq	r0, r0, r0
200000f8:	00000000 	andeq	r0, r0, r0
200000fc:	00000000 	andeq	r0, r0, r0
20000100:	00000000 	andeq	r0, r0, r0
20000104:	00000000 	andeq	r0, r0, r0
20000108:	00000000 	andeq	r0, r0, r0
2000010c:	00000000 	andeq	r0, r0, r0
20000110:	00000000 	andeq	r0, r0, r0
20000114:	00000000 	andeq	r0, r0, r0
20000118:	00000000 	andeq	r0, r0, r0
2000011c:	00000000 	andeq	r0, r0, r0
20000120:	00000000 	andeq	r0, r0, r0
20000124:	00000000 	andeq	r0, r0, r0
20000128:	00000000 	andeq	r0, r0, r0
2000012c:	00000000 	andeq	r0, r0, r0
20000130:	00000000 	andeq	r0, r0, r0
20000134:	00000000 	andeq	r0, r0, r0
20000138:	00000000 	andeq	r0, r0, r0
2000013c:	00000000 	andeq	r0, r0, r0
20000140:	00000000 	andeq	r0, r0, r0

20000144 <distance_sensor>:
20000144:	00000000 	andeq	r0, r0, r0
20000148:	00000000 	andeq	r0, r0, r0
2000014c:	00000000 	andeq	r0, r0, r0
20000150:	00000000 	andeq	r0, r0, r0
20000154:	00000000 	andeq	r0, r0, r0
20000158:	00000000 	andeq	r0, r0, r0
2000015c:	00000000 	andeq	r0, r0, r0
20000160:	00000000 	andeq	r0, r0, r0
20000164:	00000000 	andeq	r0, r0, r0
20000168:	00000000 	andeq	r0, r0, r0
2000016c:	00000000 	andeq	r0, r0, r0
20000170:	00000000 	andeq	r0, r0, r0
20000174:	00000000 	andeq	r0, r0, r0
20000178:	00000000 	andeq	r0, r0, r0
2000017c:	00000000 	andeq	r0, r0, r0
20000180:	00000000 	andeq	r0, r0, r0
20000184:	00000000 	andeq	r0, r0, r0

20000188 <encoder_sensor>:
20000188:	00000000 	andeq	r0, r0, r0
2000018c:	00000000 	andeq	r0, r0, r0
20000190:	00000000 	andeq	r0, r0, r0
20000194:	00000000 	andeq	r0, r0, r0

20000198 <i2c>:
20000198:	00000000 	andeq	r0, r0, r0
2000019c:	00000000 	andeq	r0, r0, r0
200001a0:	00000000 	andeq	r0, r0, r0
200001a4:	00000000 	andeq	r0, r0, r0

200001a8 <imu_sensor>:
200001a8:	00000000 	andeq	r0, r0, r0
200001ac:	00000000 	andeq	r0, r0, r0
200001b0:	00000000 	andeq	r0, r0, r0
200001b4:	00000000 	andeq	r0, r0, r0
200001b8:	00000000 	andeq	r0, r0, r0
200001bc:	00000000 	andeq	r0, r0, r0
200001c0:	00000000 	andeq	r0, r0, r0
200001c4:	00000000 	andeq	r0, r0, r0
200001c8:	00000000 	andeq	r0, r0, r0
200001cc:	00000000 	andeq	r0, r0, r0
200001d0:	00000000 	andeq	r0, r0, r0
200001d4:	00000000 	andeq	r0, r0, r0
200001d8:	00000000 	andeq	r0, r0, r0
200001dc:	00000000 	andeq	r0, r0, r0
200001e0:	00000000 	andeq	r0, r0, r0
200001e4:	00000000 	andeq	r0, r0, r0
200001e8:	00000000 	andeq	r0, r0, r0

200001ec <line_sensor>:
200001ec:	00000000 	andeq	r0, r0, r0
200001f0:	00000000 	andeq	r0, r0, r0
200001f4:	00000000 	andeq	r0, r0, r0
200001f8:	00000000 	andeq	r0, r0, r0
200001fc:	00000000 	andeq	r0, r0, r0
20000200:	00000000 	andeq	r0, r0, r0
20000204:	00000000 	andeq	r0, r0, r0
20000208:	00000000 	andeq	r0, r0, r0
2000020c:	00000000 	andeq	r0, r0, r0
20000210:	00000000 	andeq	r0, r0, r0
20000214:	00000000 	andeq	r0, r0, r0
20000218:	00000000 	andeq	r0, r0, r0
2000021c:	00000000 	andeq	r0, r0, r0
20000220:	00000000 	andeq	r0, r0, r0
20000224:	00000000 	andeq	r0, r0, r0
20000228:	00000000 	andeq	r0, r0, r0
2000022c:	00000000 	andeq	r0, r0, r0
20000230:	00000000 	andeq	r0, r0, r0
20000234:	00000000 	andeq	r0, r0, r0
20000238:	00000000 	andeq	r0, r0, r0
2000023c:	00000000 	andeq	r0, r0, r0
20000240:	00000000 	andeq	r0, r0, r0
20000244:	00000000 	andeq	r0, r0, r0
20000248:	00000000 	andeq	r0, r0, r0
2000024c:	00000000 	andeq	r0, r0, r0
20000250:	00000000 	andeq	r0, r0, r0
20000254:	00000000 	andeq	r0, r0, r0
20000258:	00000000 	andeq	r0, r0, r0
2000025c:	00000000 	andeq	r0, r0, r0
20000260:	00000000 	andeq	r0, r0, r0
20000264:	00000000 	andeq	r0, r0, r0
20000268:	00000000 	andeq	r0, r0, r0
2000026c:	00000000 	andeq	r0, r0, r0
20000270:	00000000 	andeq	r0, r0, r0
20000274:	00000000 	andeq	r0, r0, r0
20000278:	00000000 	andeq	r0, r0, r0
2000027c:	00000000 	andeq	r0, r0, r0
20000280:	00000000 	andeq	r0, r0, r0
20000284:	00000000 	andeq	r0, r0, r0
20000288:	00000000 	andeq	r0, r0, r0
2000028c:	00000000 	andeq	r0, r0, r0
20000290:	00000000 	andeq	r0, r0, r0
20000294:	00000000 	andeq	r0, r0, r0
20000298:	00000000 	andeq	r0, r0, r0
2000029c:	00000000 	andeq	r0, r0, r0
200002a0:	00000000 	andeq	r0, r0, r0
200002a4:	00000000 	andeq	r0, r0, r0

200002a8 <motor_controll>:
200002a8:	00000000 	andeq	r0, r0, r0
200002ac:	00000000 	andeq	r0, r0, r0
200002b0:	00000000 	andeq	r0, r0, r0
200002b4:	00000000 	andeq	r0, r0, r0
200002b8:	00000000 	andeq	r0, r0, r0
200002bc:	00000000 	andeq	r0, r0, r0

200002c0 <terminal>:
200002c0:	00000000 	andeq	r0, r0, r0

200002c4 <timer>:
200002c4:	00000000 	andeq	r0, r0, r0

200002c8 <__dso_handle>:
200002c8:	00000000 	andeq	r0, r0, r0

200002cc <drivers>:
200002cc:	00000000 	andeq	r0, r0, r0
200002d0:	00000000 	andeq	r0, r0, r0

200002d4 <g_left_encoder>:
200002d4:	00000000 	andeq	r0, r0, r0

200002d8 <g_right_encoder>:
200002d8:	00000000 	andeq	r0, r0, r0

Disassembly of section .comment:

00000000 <.comment>:
   0:	3a434347 	bcc	10d0d24 <__text_size__+0x10cee78>
   4:	35312820 	ldrcc	r2, [r1, #-2080]!	; 0xfffff7e0
   8:	332e363a 			; <UNDEFINED> instruction: 0x332e363a
   c:	732b312e 			; <UNDEFINED> instruction: 0x732b312e
  10:	35326e76 	ldrcc	r6, [r2, #-3702]!	; 0xfffff18a
  14:	39333033 	ldmdbcc	r3!, {r0, r1, r4, r5, ip, sp}
  18:	7562312d 	strbvc	r3, [r2, #-301]!	; 0xfffffed3
  1c:	31646c69 	cmncc	r4, r9, ror #24
  20:	2e362029 	cdpcs	0, 3, cr2, cr6, cr9, {1}
  24:	20312e33 	eorscs	r2, r1, r3, lsr lr
  28:	37313032 			; <UNDEFINED> instruction: 0x37313032
  2c:	30323630 	eorscc	r3, r2, r0, lsr r6
  30:	Address 0x0000000000000030 is out of bounds.


Disassembly of section .ARM.attributes:

00000000 <.ARM.attributes>:
   0:	00003441 	andeq	r3, r0, r1, asr #8
   4:	61656100 	cmnvs	r5, r0, lsl #2
   8:	01006962 	tsteq	r0, r2, ror #18
   c:	0000002a 	andeq	r0, r0, sl, lsr #32
  10:	726f4305 	rsbvc	r4, pc, #335544320	; 0x14000000
  14:	2d786574 	cfldr64cs	mvdx6, [r8, #-464]!	; 0xfffffe30
  18:	0600344d 	streq	r3, [r0], -sp, asr #8
  1c:	094d070d 	stmdbeq	sp, {r0, r2, r3, r8, r9, sl}^
  20:	12020a02 	andne	r0, r2, #8192	; 0x2000
  24:	15011404 	strne	r1, [r1, #-1028]	; 0xfffffbfc
  28:	18031701 	stmdane	r3, {r0, r8, r9, sl, ip}
  2c:	1a011901 	bne	46438 <__text_size__+0x4458c>
  30:	22041e01 	andcs	r1, r4, #1, 28
  34:	Address 0x0000000000000034 is out of bounds.

