
bin/main.elf:     file format elf32-littlearm


Disassembly of section .isr_vector:

08000000 <InterruptVector>:
 8000000:	20008000 	andcs	r8, r0, r0
 8000004:	080002c9 	stmdaeq	r0, {r0, r3, r6, r7, r9}
 8000008:	080002b9 	stmdaeq	r0, {r0, r3, r4, r5, r7, r9}
 800000c:	0800029d 	stmdaeq	r0, {r0, r2, r3, r4, r7, r9}
 8000010:	080002b9 	stmdaeq	r0, {r0, r3, r4, r5, r7, r9}
 8000014:	080002b9 	stmdaeq	r0, {r0, r3, r4, r5, r7, r9}
 8000018:	080002b9 	stmdaeq	r0, {r0, r3, r4, r5, r7, r9}
 800001c:	00000000 	andeq	r0, r0, r0
 8000020:	00000000 	andeq	r0, r0, r0
 8000024:	00000000 	andeq	r0, r0, r0
 8000028:	00000000 	andeq	r0, r0, r0
 800002c:	080002b9 	stmdaeq	r0, {r0, r3, r4, r5, r7, r9}
 8000030:	080002b9 	stmdaeq	r0, {r0, r3, r4, r5, r7, r9}
 8000034:	00000000 	andeq	r0, r0, r0
 8000038:	080002b9 	stmdaeq	r0, {r0, r3, r4, r5, r7, r9}
 800003c:	080002b9 	stmdaeq	r0, {r0, r3, r4, r5, r7, r9}
 8000040:	080002b9 	stmdaeq	r0, {r0, r3, r4, r5, r7, r9}
 8000044:	080002b9 	stmdaeq	r0, {r0, r3, r4, r5, r7, r9}
 8000048:	080002b9 	stmdaeq	r0, {r0, r3, r4, r5, r7, r9}
 800004c:	080002b9 	stmdaeq	r0, {r0, r3, r4, r5, r7, r9}
 8000050:	080002b9 	stmdaeq	r0, {r0, r3, r4, r5, r7, r9}
 8000054:	080002b9 	stmdaeq	r0, {r0, r3, r4, r5, r7, r9}
 8000058:	080002b9 	stmdaeq	r0, {r0, r3, r4, r5, r7, r9}
 800005c:	080002b9 	stmdaeq	r0, {r0, r3, r4, r5, r7, r9}
 8000060:	080002b9 	stmdaeq	r0, {r0, r3, r4, r5, r7, r9}
 8000064:	080002b9 	stmdaeq	r0, {r0, r3, r4, r5, r7, r9}
 8000068:	080002b9 	stmdaeq	r0, {r0, r3, r4, r5, r7, r9}
 800006c:	080002b9 	stmdaeq	r0, {r0, r3, r4, r5, r7, r9}
 8000070:	080002b9 	stmdaeq	r0, {r0, r3, r4, r5, r7, r9}
 8000074:	080002b9 	stmdaeq	r0, {r0, r3, r4, r5, r7, r9}
 8000078:	080002b9 	stmdaeq	r0, {r0, r3, r4, r5, r7, r9}
 800007c:	080002b9 	stmdaeq	r0, {r0, r3, r4, r5, r7, r9}
 8000080:	080002b9 	stmdaeq	r0, {r0, r3, r4, r5, r7, r9}
 8000084:	080002b9 	stmdaeq	r0, {r0, r3, r4, r5, r7, r9}
 8000088:	080002b9 	stmdaeq	r0, {r0, r3, r4, r5, r7, r9}
 800008c:	080002b9 	stmdaeq	r0, {r0, r3, r4, r5, r7, r9}
 8000090:	080002b9 	stmdaeq	r0, {r0, r3, r4, r5, r7, r9}
 8000094:	080002b9 	stmdaeq	r0, {r0, r3, r4, r5, r7, r9}
 8000098:	080002b9 	stmdaeq	r0, {r0, r3, r4, r5, r7, r9}
 800009c:	08000e99 	stmdaeq	r0, {r0, r3, r4, r7, r9, sl, fp}
 80000a0:	080002b9 	stmdaeq	r0, {r0, r3, r4, r5, r7, r9}
 80000a4:	080002b9 	stmdaeq	r0, {r0, r3, r4, r5, r7, r9}
 80000a8:	080002b9 	stmdaeq	r0, {r0, r3, r4, r5, r7, r9}
 80000ac:	080002b9 	stmdaeq	r0, {r0, r3, r4, r5, r7, r9}
 80000b0:	08000b89 	stmdaeq	r0, {r0, r3, r7, r8, r9, fp}
 80000b4:	080002b9 	stmdaeq	r0, {r0, r3, r4, r5, r7, r9}
 80000b8:	080002b9 	stmdaeq	r0, {r0, r3, r4, r5, r7, r9}
 80000bc:	080002b9 	stmdaeq	r0, {r0, r3, r4, r5, r7, r9}
 80000c0:	080002b9 	stmdaeq	r0, {r0, r3, r4, r5, r7, r9}
 80000c4:	080002b9 	stmdaeq	r0, {r0, r3, r4, r5, r7, r9}
 80000c8:	080002b9 	stmdaeq	r0, {r0, r3, r4, r5, r7, r9}
 80000cc:	080002b9 	stmdaeq	r0, {r0, r3, r4, r5, r7, r9}
 80000d0:	080002b9 	stmdaeq	r0, {r0, r3, r4, r5, r7, r9}
 80000d4:	080002b9 	stmdaeq	r0, {r0, r3, r4, r5, r7, r9}
 80000d8:	080002b9 	stmdaeq	r0, {r0, r3, r4, r5, r7, r9}
 80000dc:	080002b9 	stmdaeq	r0, {r0, r3, r4, r5, r7, r9}
 80000e0:	08000ec9 	stmdaeq	r0, {r0, r3, r6, r7, r9, sl, fp}
 80000e4:	080002b9 	stmdaeq	r0, {r0, r3, r4, r5, r7, r9}
 80000e8:	080002b9 	stmdaeq	r0, {r0, r3, r4, r5, r7, r9}
 80000ec:	080002b9 	stmdaeq	r0, {r0, r3, r4, r5, r7, r9}
 80000f0:	080002b9 	stmdaeq	r0, {r0, r3, r4, r5, r7, r9}
 80000f4:	080002b9 	stmdaeq	r0, {r0, r3, r4, r5, r7, r9}
 80000f8:	080002b9 	stmdaeq	r0, {r0, r3, r4, r5, r7, r9}
 80000fc:	080002b9 	stmdaeq	r0, {r0, r3, r4, r5, r7, r9}
 8000100:	00000000 	andeq	r0, r0, r0
 8000104:	00000000 	andeq	r0, r0, r0
 8000108:	00000000 	andeq	r0, r0, r0
 800010c:	080002b9 	stmdaeq	r0, {r0, r3, r4, r5, r7, r9}
 8000110:	080002b9 	stmdaeq	r0, {r0, r3, r4, r5, r7, r9}
 8000114:	080002b9 	stmdaeq	r0, {r0, r3, r4, r5, r7, r9}
 8000118:	080002b9 	stmdaeq	r0, {r0, r3, r4, r5, r7, r9}
 800011c:	080002b9 	stmdaeq	r0, {r0, r3, r4, r5, r7, r9}
 8000120:	080002b9 	stmdaeq	r0, {r0, r3, r4, r5, r7, r9}
 8000124:	080002b9 	stmdaeq	r0, {r0, r3, r4, r5, r7, r9}
 8000128:	080002b9 	stmdaeq	r0, {r0, r3, r4, r5, r7, r9}
 800012c:	080002b9 	stmdaeq	r0, {r0, r3, r4, r5, r7, r9}
 8000130:	080002b9 	stmdaeq	r0, {r0, r3, r4, r5, r7, r9}
 8000134:	080002b9 	stmdaeq	r0, {r0, r3, r4, r5, r7, r9}
 8000138:	00000000 	andeq	r0, r0, r0
 800013c:	00000000 	andeq	r0, r0, r0
 8000140:	080002b9 	stmdaeq	r0, {r0, r3, r4, r5, r7, r9}
 8000144:	080002b9 	stmdaeq	r0, {r0, r3, r4, r5, r7, r9}
 8000148:	080002b9 	stmdaeq	r0, {r0, r3, r4, r5, r7, r9}
 800014c:	00000000 	andeq	r0, r0, r0
 8000150:	00000000 	andeq	r0, r0, r0
 8000154:	00000000 	andeq	r0, r0, r0
 8000158:	00000000 	andeq	r0, r0, r0
 800015c:	00000000 	andeq	r0, r0, r0
 8000160:	00000000 	andeq	r0, r0, r0
 8000164:	00000000 	andeq	r0, r0, r0
 8000168:	080002b9 	stmdaeq	r0, {r0, r3, r4, r5, r7, r9}
 800016c:	080002b9 	stmdaeq	r0, {r0, r3, r4, r5, r7, r9}
 8000170:	080002b9 	stmdaeq	r0, {r0, r3, r4, r5, r7, r9}
 8000174:	00000000 	andeq	r0, r0, r0
 8000178:	00000000 	andeq	r0, r0, r0
 800017c:	00000000 	andeq	r0, r0, r0
 8000180:	00000000 	andeq	r0, r0, r0
 8000184:	080002b9 	stmdaeq	r0, {r0, r3, r4, r5, r7, r9}

Disassembly of section .init_array:

08000188 <__frame_dummy_init_array_entry>:
 8000188:	08000240 	stmdaeq	r0, {r6, r9}
 800018c:	08000a1d 	stmdaeq	r0, {r0, r2, r3, r4, r9, fp}
 8000190:	08000abd 	stmdaeq	r0, {r0, r2, r3, r4, r5, r7, r9, fp}

Disassembly of section .text:

08000194 <deregister_tm_clones>:
 8000194:	e59f301c 	ldr	r3, [pc, #28]	; 80001b8 <__init_array_end+0x24>
 8000198:	e59f001c 	ldr	r0, [pc, #28]	; 80001bc <__init_array_end+0x28>
 800019c:	e0433000 	sub	r3, r3, r0
 80001a0:	e3530006 	cmp	r3, #6
 80001a4:	912fff1e 	bxls	lr
 80001a8:	e59f3010 	ldr	r3, [pc, #16]	; 80001c0 <__init_array_end+0x2c>
 80001ac:	e3530000 	cmp	r3, #0
 80001b0:	012fff1e 	bxeq	lr
 80001b4:	e12fff13 	bx	r3
 80001b8:	20000007 	andcs	r0, r0, r7
 80001bc:	20000004 	andcs	r0, r0, r4
 80001c0:	00000000 	andeq	r0, r0, r0

080001c4 <register_tm_clones>:
 80001c4:	e59f1024 	ldr	r1, [pc, #36]	; 80001f0 <register_tm_clones+0x2c>
 80001c8:	e59f0024 	ldr	r0, [pc, #36]	; 80001f4 <register_tm_clones+0x30>
 80001cc:	e0411000 	sub	r1, r1, r0
 80001d0:	e1a01141 	asr	r1, r1, #2
 80001d4:	e0811fa1 	add	r1, r1, r1, lsr #31
 80001d8:	e1b010c1 	asrs	r1, r1, #1
 80001dc:	012fff1e 	bxeq	lr
 80001e0:	e59f3010 	ldr	r3, [pc, #16]	; 80001f8 <register_tm_clones+0x34>
 80001e4:	e3530000 	cmp	r3, #0
 80001e8:	012fff1e 	bxeq	lr
 80001ec:	e12fff13 	bx	r3
 80001f0:	20000004 	andcs	r0, r0, r4
 80001f4:	20000004 	andcs	r0, r0, r4
 80001f8:	00000000 	andeq	r0, r0, r0

080001fc <__do_global_dtors_aux>:
 80001fc:	e92d4010 	push	{r4, lr}
 8000200:	e59f402c 	ldr	r4, [pc, #44]	; 8000234 <__do_global_dtors_aux+0x38>
 8000204:	e5d43000 	ldrb	r3, [r4]
 8000208:	e3530000 	cmp	r3, #0
 800020c:	1a000006 	bne	800022c <__do_global_dtors_aux+0x30>
 8000210:	ebffffdf 	bl	8000194 <deregister_tm_clones>
 8000214:	e59f301c 	ldr	r3, [pc, #28]	; 8000238 <__do_global_dtors_aux+0x3c>
 8000218:	e3530000 	cmp	r3, #0
 800021c:	159f0018 	ldrne	r0, [pc, #24]	; 800023c <__do_global_dtors_aux+0x40>
 8000220:	11a00000 	movne	r0, r0
 8000224:	e3a03001 	mov	r3, #1
 8000228:	e5c43000 	strb	r3, [r4]
 800022c:	e8bd4010 	pop	{r4, lr}
 8000230:	e12fff1e 	bx	lr
 8000234:	20000004 	andcs	r0, r0, r4
 8000238:	00000000 	andeq	r0, r0, r0
 800023c:	08000188 	stmdaeq	r0, {r3, r7, r8}

08000240 <frame_dummy>:
 8000240:	e59f3040 	ldr	r3, [pc, #64]	; 8000288 <frame_dummy+0x48>
 8000244:	e3530000 	cmp	r3, #0
 8000248:	e92d4010 	push	{r4, lr}
 800024c:	159f1038 	ldrne	r1, [pc, #56]	; 800028c <frame_dummy+0x4c>
 8000250:	159f0038 	ldrne	r0, [pc, #56]	; 8000290 <frame_dummy+0x50>
 8000254:	11a00000 	movne	r0, r0
 8000258:	e59f0034 	ldr	r0, [pc, #52]	; 8000294 <frame_dummy+0x54>
 800025c:	e5903000 	ldr	r3, [r0]
 8000260:	e3530000 	cmp	r3, #0
 8000264:	1a000001 	bne	8000270 <frame_dummy+0x30>
 8000268:	e8bd4010 	pop	{r4, lr}
 800026c:	eaffffd4 	b	80001c4 <register_tm_clones>
 8000270:	e59f3020 	ldr	r3, [pc, #32]	; 8000298 <frame_dummy+0x58>
 8000274:	e3530000 	cmp	r3, #0
 8000278:	0afffffa 	beq	8000268 <frame_dummy+0x28>
 800027c:	e1a0e00f 	mov	lr, pc
 8000280:	e12fff13 	bx	r3
 8000284:	eafffff7 	b	8000268 <frame_dummy+0x28>
 8000288:	00000000 	andeq	r0, r0, r0
 800028c:	20000008 	andcs	r0, r0, r8
 8000290:	08000188 	stmdaeq	r0, {r3, r7, r8}
 8000294:	20000004 	andcs	r0, r0, r4
 8000298:	00000000 	andeq	r0, r0, r0

0800029c <HardFault_Handler>:
 800029c:	4668      	mov	r0, sp
 800029e:	f020 0107 	bic.w	r1, r0, #7
 80002a2:	4a04      	ldr	r2, [pc, #16]	; (80002b4 <HardFault_Handler+0x18>)
 80002a4:	468d      	mov	sp, r1
 80002a6:	bf00      	nop
 80002a8:	8d13      	ldrh	r3, [r2, #40]	; 0x28
 80002aa:	b29b      	uxth	r3, r3
 80002ac:	f443 4300 	orr.w	r3, r3, #32768	; 0x8000
 80002b0:	8513      	strh	r3, [r2, #40]	; 0x28
 80002b2:	e7f8      	b.n	80002a6 <HardFault_Handler+0xa>
 80002b4:	48000400 	stmdami	r0, {sl}

080002b8 <Default_Handler>:
 80002b8:	4668      	mov	r0, sp
 80002ba:	f020 0107 	bic.w	r1, r0, #7
 80002be:	468d      	mov	sp, r1
 80002c0:	b508      	push	{r3, lr}
 80002c2:	f7ff ffeb 	bl	800029c <HardFault_Handler>
 80002c6:	0000      	movs	r0, r0

080002c8 <Reset_Handler>:
 80002c8:	490e      	ldr	r1, [pc, #56]	; (8000304 <Reset_Handler+0x3c>)
 80002ca:	4a0f      	ldr	r2, [pc, #60]	; (8000308 <Reset_Handler+0x40>)
 80002cc:	480f      	ldr	r0, [pc, #60]	; (800030c <Reset_Handler+0x44>)
 80002ce:	1a52      	subs	r2, r2, r1
 80002d0:	1092      	asrs	r2, r2, #2
 80002d2:	2300      	movs	r3, #0
 80002d4:	429a      	cmp	r2, r3
 80002d6:	d10e      	bne.n	80002f6 <Reset_Handler+0x2e>
 80002d8:	4a0d      	ldr	r2, [pc, #52]	; (8000310 <Reset_Handler+0x48>)
 80002da:	f8d2 3088 	ldr.w	r3, [r2, #136]	; 0x88
 80002de:	f443 0370 	orr.w	r3, r3, #15728640	; 0xf00000
 80002e2:	f8c2 3088 	str.w	r3, [r2, #136]	; 0x88
 80002e6:	f502 720c 	add.w	r2, r2, #560	; 0x230
 80002ea:	6853      	ldr	r3, [r2, #4]
 80002ec:	f043 4340 	orr.w	r3, r3, #3221225472	; 0xc0000000
 80002f0:	6053      	str	r3, [r2, #4]
 80002f2:	f000 b88d 	b.w	8000410 <main>
 80002f6:	f850 4023 	ldr.w	r4, [r0, r3, lsl #2]
 80002fa:	f841 4023 	str.w	r4, [r1, r3, lsl #2]
 80002fe:	3301      	adds	r3, #1
 8000300:	e7e8      	b.n	80002d4 <Reset_Handler+0xc>
 8000302:	bf00      	nop
 8000304:	20000000 	andcs	r0, r0, r0
 8000308:	20000004 	andcs	r0, r0, r4
 800030c:	08001250 	stmdaeq	r0, {r4, r6, r9, ip}
 8000310:	e000ed00 	and	lr, r0, r0, lsl #26

08000314 <SystemInit>:
 8000314:	4a39      	ldr	r2, [pc, #228]	; (80003fc <SystemInit+0xe8>)
 8000316:	f8d2 3088 	ldr.w	r3, [r2, #136]	; 0x88
 800031a:	f443 0370 	orr.w	r3, r3, #15728640	; 0xf00000
 800031e:	f8c2 3088 	str.w	r3, [r2, #136]	; 0x88
 8000322:	4b37      	ldr	r3, [pc, #220]	; (8000400 <SystemInit+0xec>)
 8000324:	681a      	ldr	r2, [r3, #0]
 8000326:	f042 0201 	orr.w	r2, r2, #1
 800032a:	601a      	str	r2, [r3, #0]
 800032c:	6859      	ldr	r1, [r3, #4]
 800032e:	4a35      	ldr	r2, [pc, #212]	; (8000404 <SystemInit+0xf0>)
 8000330:	400a      	ands	r2, r1
 8000332:	605a      	str	r2, [r3, #4]
 8000334:	681a      	ldr	r2, [r3, #0]
 8000336:	f022 7284 	bic.w	r2, r2, #17301504	; 0x1080000
 800033a:	f422 3280 	bic.w	r2, r2, #65536	; 0x10000
 800033e:	601a      	str	r2, [r3, #0]
 8000340:	681a      	ldr	r2, [r3, #0]
 8000342:	f422 2280 	bic.w	r2, r2, #262144	; 0x40000
 8000346:	601a      	str	r2, [r3, #0]
 8000348:	685a      	ldr	r2, [r3, #4]
 800034a:	f422 02fe 	bic.w	r2, r2, #8323072	; 0x7f0000
 800034e:	605a      	str	r2, [r3, #4]
 8000350:	6ada      	ldr	r2, [r3, #44]	; 0x2c
 8000352:	f022 020f 	bic.w	r2, r2, #15
 8000356:	62da      	str	r2, [r3, #44]	; 0x2c
 8000358:	6b19      	ldr	r1, [r3, #48]	; 0x30
 800035a:	4a2b      	ldr	r2, [pc, #172]	; (8000408 <SystemInit+0xf4>)
 800035c:	b082      	sub	sp, #8
 800035e:	400a      	ands	r2, r1
 8000360:	631a      	str	r2, [r3, #48]	; 0x30
 8000362:	2200      	movs	r2, #0
 8000364:	609a      	str	r2, [r3, #8]
 8000366:	9200      	str	r2, [sp, #0]
 8000368:	9201      	str	r2, [sp, #4]
 800036a:	681a      	ldr	r2, [r3, #0]
 800036c:	f442 3280 	orr.w	r2, r2, #65536	; 0x10000
 8000370:	601a      	str	r2, [r3, #0]
 8000372:	681a      	ldr	r2, [r3, #0]
 8000374:	f402 3200 	and.w	r2, r2, #131072	; 0x20000
 8000378:	9201      	str	r2, [sp, #4]
 800037a:	9a00      	ldr	r2, [sp, #0]
 800037c:	3201      	adds	r2, #1
 800037e:	9200      	str	r2, [sp, #0]
 8000380:	9a01      	ldr	r2, [sp, #4]
 8000382:	b91a      	cbnz	r2, 800038c <SystemInit+0x78>
 8000384:	9a00      	ldr	r2, [sp, #0]
 8000386:	f5b2 4fa0 	cmp.w	r2, #20480	; 0x5000
 800038a:	d1f2      	bne.n	8000372 <SystemInit+0x5e>
 800038c:	681a      	ldr	r2, [r3, #0]
 800038e:	f412 3200 	ands.w	r2, r2, #131072	; 0x20000
 8000392:	bf18      	it	ne
 8000394:	2201      	movne	r2, #1
 8000396:	9201      	str	r2, [sp, #4]
 8000398:	9a01      	ldr	r2, [sp, #4]
 800039a:	2a01      	cmp	r2, #1
 800039c:	d005      	beq.n	80003aa <SystemInit+0x96>
 800039e:	4b17      	ldr	r3, [pc, #92]	; (80003fc <SystemInit+0xe8>)
 80003a0:	f04f 6200 	mov.w	r2, #134217728	; 0x8000000
 80003a4:	609a      	str	r2, [r3, #8]
 80003a6:	b002      	add	sp, #8
 80003a8:	4770      	bx	lr
 80003aa:	4a18      	ldr	r2, [pc, #96]	; (800040c <SystemInit+0xf8>)
 80003ac:	2112      	movs	r1, #18
 80003ae:	6011      	str	r1, [r2, #0]
 80003b0:	685a      	ldr	r2, [r3, #4]
 80003b2:	605a      	str	r2, [r3, #4]
 80003b4:	685a      	ldr	r2, [r3, #4]
 80003b6:	605a      	str	r2, [r3, #4]
 80003b8:	685a      	ldr	r2, [r3, #4]
 80003ba:	f442 6280 	orr.w	r2, r2, #1024	; 0x400
 80003be:	605a      	str	r2, [r3, #4]
 80003c0:	685a      	ldr	r2, [r3, #4]
 80003c2:	f422 127c 	bic.w	r2, r2, #4128768	; 0x3f0000
 80003c6:	605a      	str	r2, [r3, #4]
 80003c8:	685a      	ldr	r2, [r3, #4]
 80003ca:	f442 12e8 	orr.w	r2, r2, #1900544	; 0x1d0000
 80003ce:	605a      	str	r2, [r3, #4]
 80003d0:	681a      	ldr	r2, [r3, #0]
 80003d2:	f042 7280 	orr.w	r2, r2, #16777216	; 0x1000000
 80003d6:	601a      	str	r2, [r3, #0]
 80003d8:	681a      	ldr	r2, [r3, #0]
 80003da:	0192      	lsls	r2, r2, #6
 80003dc:	d5fc      	bpl.n	80003d8 <SystemInit+0xc4>
 80003de:	685a      	ldr	r2, [r3, #4]
 80003e0:	f022 0203 	bic.w	r2, r2, #3
 80003e4:	605a      	str	r2, [r3, #4]
 80003e6:	685a      	ldr	r2, [r3, #4]
 80003e8:	f042 0202 	orr.w	r2, r2, #2
 80003ec:	605a      	str	r2, [r3, #4]
 80003ee:	685a      	ldr	r2, [r3, #4]
 80003f0:	f002 020c 	and.w	r2, r2, #12
 80003f4:	2a08      	cmp	r2, #8
 80003f6:	d1fa      	bne.n	80003ee <SystemInit+0xda>
 80003f8:	e7d1      	b.n	800039e <SystemInit+0x8a>
 80003fa:	bf00      	nop
 80003fc:	e000ed00 	and	lr, r0, r0, lsl #26
 8000400:	40021000 	andmi	r1, r2, r0
 8000404:	f87fc00c 			; <UNDEFINED> instruction: 0xf87fc00c
 8000408:	ff00fccc 			; <UNDEFINED> instruction: 0xff00fccc
 800040c:	40022000 	andmi	r2, r2, r0

08000410 <main>:
 8000410:	b508      	push	{r3, lr}
 8000412:	f000 f8fb 	bl	800060c <_Z12drivers_initv>
 8000416:	e7fe      	b.n	8000416 <main+0x6>

08000418 <_ZN4TI2CILh1ELh7ELh6ELh10ELh1EE9write_regEhhh>:
 8000418:	e92d 41f0 	stmdb	sp!, {r4, r5, r6, r7, r8, lr}
 800041c:	461d      	mov	r5, r3
 800041e:	6803      	ldr	r3, [r0, #0]
 8000420:	4604      	mov	r4, r0
 8000422:	681b      	ldr	r3, [r3, #0]
 8000424:	4616      	mov	r6, r2
 8000426:	460f      	mov	r7, r1
 8000428:	4798      	blx	r3
 800042a:	6823      	ldr	r3, [r4, #0]
 800042c:	4639      	mov	r1, r7
 800042e:	68db      	ldr	r3, [r3, #12]
 8000430:	4620      	mov	r0, r4
 8000432:	4798      	blx	r3
 8000434:	6823      	ldr	r3, [r4, #0]
 8000436:	4631      	mov	r1, r6
 8000438:	68db      	ldr	r3, [r3, #12]
 800043a:	4620      	mov	r0, r4
 800043c:	4798      	blx	r3
 800043e:	6823      	ldr	r3, [r4, #0]
 8000440:	4629      	mov	r1, r5
 8000442:	68da      	ldr	r2, [r3, #12]
 8000444:	4620      	mov	r0, r4
 8000446:	4790      	blx	r2
 8000448:	6823      	ldr	r3, [r4, #0]
 800044a:	4620      	mov	r0, r4
 800044c:	685b      	ldr	r3, [r3, #4]
 800044e:	e8bd 41f0 	ldmia.w	sp!, {r4, r5, r6, r7, r8, lr}
 8000452:	4718      	bx	r3

08000454 <_ZN4TI2CILh1ELh7ELh6ELh10ELh1EE4initEv>:
 8000454:	6842      	ldr	r2, [r0, #4]
 8000456:	8d13      	ldrh	r3, [r2, #40]	; 0x28
 8000458:	b29b      	uxth	r3, r3
 800045a:	f043 0380 	orr.w	r3, r3, #128	; 0x80
 800045e:	8513      	strh	r3, [r2, #40]	; 0x28
 8000460:	6882      	ldr	r2, [r0, #8]
 8000462:	8d13      	ldrh	r3, [r2, #40]	; 0x28
 8000464:	b29b      	uxth	r3, r3
 8000466:	f043 0340 	orr.w	r3, r3, #64	; 0x40
 800046a:	8513      	strh	r3, [r2, #40]	; 0x28
 800046c:	4770      	bx	lr

0800046e <_ZN4TI2CILh1ELh7ELh6ELh10ELh1EE15write_reg_16bitEhhj>:
 800046e:	e92d 41f0 	stmdb	sp!, {r4, r5, r6, r7, r8, lr}
 8000472:	461d      	mov	r5, r3
 8000474:	6803      	ldr	r3, [r0, #0]
 8000476:	4604      	mov	r4, r0
 8000478:	681b      	ldr	r3, [r3, #0]
 800047a:	4616      	mov	r6, r2
 800047c:	460f      	mov	r7, r1
 800047e:	4798      	blx	r3
 8000480:	6823      	ldr	r3, [r4, #0]
 8000482:	4639      	mov	r1, r7
 8000484:	68db      	ldr	r3, [r3, #12]
 8000486:	4620      	mov	r0, r4
 8000488:	4798      	blx	r3
 800048a:	6823      	ldr	r3, [r4, #0]
 800048c:	4631      	mov	r1, r6
 800048e:	68db      	ldr	r3, [r3, #12]
 8000490:	4620      	mov	r0, r4
 8000492:	4798      	blx	r3
 8000494:	6823      	ldr	r3, [r4, #0]
 8000496:	f3c5 2107 	ubfx	r1, r5, #8, #8
 800049a:	68db      	ldr	r3, [r3, #12]
 800049c:	4620      	mov	r0, r4
 800049e:	4798      	blx	r3
 80004a0:	6823      	ldr	r3, [r4, #0]
 80004a2:	b2e9      	uxtb	r1, r5
 80004a4:	68db      	ldr	r3, [r3, #12]
 80004a6:	4620      	mov	r0, r4
 80004a8:	4798      	blx	r3
 80004aa:	6823      	ldr	r3, [r4, #0]
 80004ac:	4620      	mov	r0, r4
 80004ae:	685b      	ldr	r3, [r3, #4]
 80004b0:	e8bd 41f0 	ldmia.w	sp!, {r4, r5, r6, r7, r8, lr}
 80004b4:	4718      	bx	r3

080004b6 <_ZN4TI2CILh1ELh7ELh6ELh10ELh1EE15write_reg_multiEhhPhj>:
 80004b6:	e92d 41f0 	stmdb	sp!, {r4, r5, r6, r7, r8, lr}
 80004ba:	461d      	mov	r5, r3
 80004bc:	6803      	ldr	r3, [r0, #0]
 80004be:	9e06      	ldr	r6, [sp, #24]
 80004c0:	681b      	ldr	r3, [r3, #0]
 80004c2:	4604      	mov	r4, r0
 80004c4:	4617      	mov	r7, r2
 80004c6:	4688      	mov	r8, r1
 80004c8:	4798      	blx	r3
 80004ca:	6823      	ldr	r3, [r4, #0]
 80004cc:	4641      	mov	r1, r8
 80004ce:	68db      	ldr	r3, [r3, #12]
 80004d0:	4620      	mov	r0, r4
 80004d2:	4798      	blx	r3
 80004d4:	6823      	ldr	r3, [r4, #0]
 80004d6:	4639      	mov	r1, r7
 80004d8:	68db      	ldr	r3, [r3, #12]
 80004da:	4620      	mov	r0, r4
 80004dc:	4798      	blx	r3
 80004de:	442e      	add	r6, r5
 80004e0:	42b5      	cmp	r5, r6
 80004e2:	6823      	ldr	r3, [r4, #0]
 80004e4:	d005      	beq.n	80004f2 <_ZN4TI2CILh1ELh7ELh6ELh10ELh1EE15write_reg_multiEhhPhj+0x3c>
 80004e6:	68db      	ldr	r3, [r3, #12]
 80004e8:	f815 1b01 	ldrb.w	r1, [r5], #1
 80004ec:	4620      	mov	r0, r4
 80004ee:	4798      	blx	r3
 80004f0:	e7f6      	b.n	80004e0 <_ZN4TI2CILh1ELh7ELh6ELh10ELh1EE15write_reg_multiEhhPhj+0x2a>
 80004f2:	4620      	mov	r0, r4
 80004f4:	685b      	ldr	r3, [r3, #4]
 80004f6:	e8bd 41f0 	ldmia.w	sp!, {r4, r5, r6, r7, r8, lr}
 80004fa:	4718      	bx	r3

080004fc <_ZN4TI2CILh1ELh7ELh6ELh10ELh1EE8read_regEhh>:
 80004fc:	6803      	ldr	r3, [r0, #0]
 80004fe:	b570      	push	{r4, r5, r6, lr}
 8000500:	4604      	mov	r4, r0
 8000502:	681b      	ldr	r3, [r3, #0]
 8000504:	4616      	mov	r6, r2
 8000506:	460d      	mov	r5, r1
 8000508:	4798      	blx	r3
 800050a:	6823      	ldr	r3, [r4, #0]
 800050c:	4629      	mov	r1, r5
 800050e:	68db      	ldr	r3, [r3, #12]
 8000510:	4620      	mov	r0, r4
 8000512:	4798      	blx	r3
 8000514:	6823      	ldr	r3, [r4, #0]
 8000516:	4631      	mov	r1, r6
 8000518:	68db      	ldr	r3, [r3, #12]
 800051a:	4620      	mov	r0, r4
 800051c:	4798      	blx	r3
 800051e:	6823      	ldr	r3, [r4, #0]
 8000520:	4620      	mov	r0, r4
 8000522:	681b      	ldr	r3, [r3, #0]
 8000524:	4798      	blx	r3
 8000526:	6823      	ldr	r3, [r4, #0]
 8000528:	f045 0101 	orr.w	r1, r5, #1
 800052c:	68db      	ldr	r3, [r3, #12]
 800052e:	4620      	mov	r0, r4
 8000530:	4798      	blx	r3
 8000532:	6823      	ldr	r3, [r4, #0]
 8000534:	2100      	movs	r1, #0
 8000536:	691b      	ldr	r3, [r3, #16]
 8000538:	4620      	mov	r0, r4
 800053a:	4798      	blx	r3
 800053c:	6823      	ldr	r3, [r4, #0]
 800053e:	4605      	mov	r5, r0
 8000540:	685b      	ldr	r3, [r3, #4]
 8000542:	4620      	mov	r0, r4
 8000544:	4798      	blx	r3
 8000546:	4628      	mov	r0, r5
 8000548:	bd70      	pop	{r4, r5, r6, pc}

0800054a <_ZN4TI2CILh1ELh7ELh6ELh10ELh1EE14read_reg_16bitEhh>:
 800054a:	6803      	ldr	r3, [r0, #0]
 800054c:	b570      	push	{r4, r5, r6, lr}
 800054e:	4604      	mov	r4, r0
 8000550:	681b      	ldr	r3, [r3, #0]
 8000552:	4616      	mov	r6, r2
 8000554:	460d      	mov	r5, r1
 8000556:	4798      	blx	r3
 8000558:	6823      	ldr	r3, [r4, #0]
 800055a:	4629      	mov	r1, r5
 800055c:	68db      	ldr	r3, [r3, #12]
 800055e:	4620      	mov	r0, r4
 8000560:	4798      	blx	r3
 8000562:	6823      	ldr	r3, [r4, #0]
 8000564:	4631      	mov	r1, r6
 8000566:	68db      	ldr	r3, [r3, #12]
 8000568:	4620      	mov	r0, r4
 800056a:	4798      	blx	r3
 800056c:	6823      	ldr	r3, [r4, #0]
 800056e:	4620      	mov	r0, r4
 8000570:	681b      	ldr	r3, [r3, #0]
 8000572:	4798      	blx	r3
 8000574:	6823      	ldr	r3, [r4, #0]
 8000576:	f045 0101 	orr.w	r1, r5, #1
 800057a:	68db      	ldr	r3, [r3, #12]
 800057c:	4620      	mov	r0, r4
 800057e:	4798      	blx	r3
 8000580:	6823      	ldr	r3, [r4, #0]
 8000582:	2101      	movs	r1, #1
 8000584:	691b      	ldr	r3, [r3, #16]
 8000586:	4620      	mov	r0, r4
 8000588:	4798      	blx	r3
 800058a:	6823      	ldr	r3, [r4, #0]
 800058c:	2100      	movs	r1, #0
 800058e:	0205      	lsls	r5, r0, #8
 8000590:	691b      	ldr	r3, [r3, #16]
 8000592:	4620      	mov	r0, r4
 8000594:	4798      	blx	r3
 8000596:	6823      	ldr	r3, [r4, #0]
 8000598:	4305      	orrs	r5, r0
 800059a:	685b      	ldr	r3, [r3, #4]
 800059c:	4620      	mov	r0, r4
 800059e:	4798      	blx	r3
 80005a0:	4628      	mov	r0, r5
 80005a2:	bd70      	pop	{r4, r5, r6, pc}

080005a4 <_ZN4TI2CILh1ELh7ELh6ELh10ELh1EE14read_reg_multiEhhPhj>:
 80005a4:	e92d 41f0 	stmdb	sp!, {r4, r5, r6, r7, r8, lr}
 80005a8:	461d      	mov	r5, r3
 80005aa:	6803      	ldr	r3, [r0, #0]
 80005ac:	9e06      	ldr	r6, [sp, #24]
 80005ae:	681b      	ldr	r3, [r3, #0]
 80005b0:	4604      	mov	r4, r0
 80005b2:	4690      	mov	r8, r2
 80005b4:	460f      	mov	r7, r1
 80005b6:	4798      	blx	r3
 80005b8:	6823      	ldr	r3, [r4, #0]
 80005ba:	4639      	mov	r1, r7
 80005bc:	68db      	ldr	r3, [r3, #12]
 80005be:	4620      	mov	r0, r4
 80005c0:	4798      	blx	r3
 80005c2:	6823      	ldr	r3, [r4, #0]
 80005c4:	4641      	mov	r1, r8
 80005c6:	68db      	ldr	r3, [r3, #12]
 80005c8:	4620      	mov	r0, r4
 80005ca:	4798      	blx	r3
 80005cc:	6823      	ldr	r3, [r4, #0]
 80005ce:	4620      	mov	r0, r4
 80005d0:	681b      	ldr	r3, [r3, #0]
 80005d2:	4798      	blx	r3
 80005d4:	6823      	ldr	r3, [r4, #0]
 80005d6:	f047 0101 	orr.w	r1, r7, #1
 80005da:	68db      	ldr	r3, [r3, #12]
 80005dc:	4620      	mov	r0, r4
 80005de:	4798      	blx	r3
 80005e0:	442e      	add	r6, r5
 80005e2:	42b5      	cmp	r5, r6
 80005e4:	6823      	ldr	r3, [r4, #0]
 80005e6:	d006      	beq.n	80005f6 <_ZN4TI2CILh1ELh7ELh6ELh10ELh1EE14read_reg_multiEhhPhj+0x52>
 80005e8:	691b      	ldr	r3, [r3, #16]
 80005ea:	2101      	movs	r1, #1
 80005ec:	4620      	mov	r0, r4
 80005ee:	4798      	blx	r3
 80005f0:	f805 0b01 	strb.w	r0, [r5], #1
 80005f4:	e7f5      	b.n	80005e2 <_ZN4TI2CILh1ELh7ELh6ELh10ELh1EE14read_reg_multiEhhPhj+0x3e>
 80005f6:	4620      	mov	r0, r4
 80005f8:	685b      	ldr	r3, [r3, #4]
 80005fa:	e8bd 41f0 	ldmia.w	sp!, {r4, r5, r6, r7, r8, lr}
 80005fe:	4718      	bx	r3

08000600 <_ZN4TI2CILh1ELh7ELh6ELh10ELh1EE5delayEv.isra.0>:
 8000600:	230b      	movs	r3, #11
 8000602:	3b01      	subs	r3, #1
 8000604:	d001      	beq.n	800060a <_ZN4TI2CILh1ELh7ELh6ELh10ELh1EE5delayEv.isra.0+0xa>
 8000606:	bf00      	nop
 8000608:	e7fb      	b.n	8000602 <_ZN4TI2CILh1ELh7ELh6ELh10ELh1EE5delayEv.isra.0+0x2>
 800060a:	4770      	bx	lr

0800060c <_Z12drivers_initv>:
 800060c:	4a2f      	ldr	r2, [pc, #188]	; (80006cc <_Z12drivers_initv+0xc0>)
 800060e:	4c30      	ldr	r4, [pc, #192]	; (80006d0 <_Z12drivers_initv+0xc4>)
 8000610:	4d30      	ldr	r5, [pc, #192]	; (80006d4 <_Z12drivers_initv+0xc8>)
 8000612:	b508      	push	{r3, lr}
 8000614:	6953      	ldr	r3, [r2, #20]
 8000616:	f443 037f 	orr.w	r3, r3, #16711680	; 0xff0000
 800061a:	6153      	str	r3, [r2, #20]
 800061c:	68a3      	ldr	r3, [r4, #8]
 800061e:	f023 4340 	bic.w	r3, r3, #3221225472	; 0xc0000000
 8000622:	60a3      	str	r3, [r4, #8]
 8000624:	68a3      	ldr	r3, [r4, #8]
 8000626:	f043 4340 	orr.w	r3, r3, #3221225472	; 0xc0000000
 800062a:	60a3      	str	r3, [r4, #8]
 800062c:	88a3      	ldrh	r3, [r4, #4]
 800062e:	f3c3 030e 	ubfx	r3, r3, #0, #15
 8000632:	80a3      	strh	r3, [r4, #4]
 8000634:	88a3      	ldrh	r3, [r4, #4]
 8000636:	b29b      	uxth	r3, r3
 8000638:	80a3      	strh	r3, [r4, #4]
 800063a:	6823      	ldr	r3, [r4, #0]
 800063c:	f023 4340 	bic.w	r3, r3, #3221225472	; 0xc0000000
 8000640:	6023      	str	r3, [r4, #0]
 8000642:	6823      	ldr	r3, [r4, #0]
 8000644:	f043 4380 	orr.w	r3, r3, #1073741824	; 0x40000000
 8000648:	6023      	str	r3, [r4, #0]
 800064a:	69a3      	ldr	r3, [r4, #24]
 800064c:	f443 4300 	orr.w	r3, r3, #32768	; 0x8000
 8000650:	61a3      	str	r3, [r4, #24]
 8000652:	f7ff fe5f 	bl	8000314 <SystemInit>
 8000656:	4820      	ldr	r0, [pc, #128]	; (80006d8 <_Z12drivers_initv+0xcc>)
 8000658:	f000 fbc8 	bl	8000dec <_ZN5Usart4initEv>
 800065c:	491f      	ldr	r1, [pc, #124]	; (80006dc <_Z12drivers_initv+0xd0>)
 800065e:	481e      	ldr	r0, [pc, #120]	; (80006d8 <_Z12drivers_initv+0xcc>)
 8000660:	f000 fae7 	bl	8000c32 <_ZN8Terminal4putsEPKc>
 8000664:	481b      	ldr	r0, [pc, #108]	; (80006d4 <_Z12drivers_initv+0xc8>)
 8000666:	f000 fa3b 	bl	8000ae0 <_ZN5Timer4initEv>
 800066a:	491d      	ldr	r1, [pc, #116]	; (80006e0 <_Z12drivers_initv+0xd4>)
 800066c:	481a      	ldr	r0, [pc, #104]	; (80006d8 <_Z12drivers_initv+0xcc>)
 800066e:	f000 fae0 	bl	8000c32 <_ZN8Terminal4putsEPKc>
 8000672:	491c      	ldr	r1, [pc, #112]	; (80006e4 <_Z12drivers_initv+0xd8>)
 8000674:	4818      	ldr	r0, [pc, #96]	; (80006d8 <_Z12drivers_initv+0xcc>)
 8000676:	f000 fadc 	bl	8000c32 <_ZN8Terminal4putsEPKc>
 800067a:	f44f 717a 	mov.w	r1, #1000	; 0x3e8
 800067e:	4815      	ldr	r0, [pc, #84]	; (80006d4 <_Z12drivers_initv+0xc8>)
 8000680:	f000 fa70 	bl	8000b64 <_ZN5Timer8delay_msEj>
 8000684:	4918      	ldr	r1, [pc, #96]	; (80006e8 <_Z12drivers_initv+0xdc>)
 8000686:	4814      	ldr	r0, [pc, #80]	; (80006d8 <_Z12drivers_initv+0xcc>)
 8000688:	f000 fad3 	bl	8000c32 <_ZN8Terminal4putsEPKc>
 800068c:	4817      	ldr	r0, [pc, #92]	; (80006ec <_Z12drivers_initv+0xe0>)
 800068e:	f7ff fee1 	bl	8000454 <_ZN4TI2CILh1ELh7ELh6ELh10ELh1EE4initEv>
 8000692:	4917      	ldr	r1, [pc, #92]	; (80006f0 <_Z12drivers_initv+0xe4>)
 8000694:	4810      	ldr	r0, [pc, #64]	; (80006d8 <_Z12drivers_initv+0xcc>)
 8000696:	f000 facc 	bl	8000c32 <_ZN8Terminal4putsEPKc>
 800069a:	2303      	movs	r3, #3
 800069c:	2202      	movs	r2, #2
 800069e:	2101      	movs	r1, #1
 80006a0:	4812      	ldr	r0, [pc, #72]	; (80006ec <_Z12drivers_initv+0xe0>)
 80006a2:	f7ff feb9 	bl	8000418 <_ZN4TI2CILh1ELh7ELh6ELh10ELh1EE9write_regEhhh>
 80006a6:	69a3      	ldr	r3, [r4, #24]
 80006a8:	f443 4300 	orr.w	r3, r3, #32768	; 0x8000
 80006ac:	61a3      	str	r3, [r4, #24]
 80006ae:	4628      	mov	r0, r5
 80006b0:	2164      	movs	r1, #100	; 0x64
 80006b2:	f000 fa57 	bl	8000b64 <_ZN5Timer8delay_msEj>
 80006b6:	8d23      	ldrh	r3, [r4, #40]	; 0x28
 80006b8:	b29b      	uxth	r3, r3
 80006ba:	f443 4300 	orr.w	r3, r3, #32768	; 0x8000
 80006be:	8523      	strh	r3, [r4, #40]	; 0x28
 80006c0:	f44f 7161 	mov.w	r1, #900	; 0x384
 80006c4:	4628      	mov	r0, r5
 80006c6:	f000 fa4d 	bl	8000b64 <_ZN5Timer8delay_msEj>
 80006ca:	e7ec      	b.n	80006a6 <_Z12drivers_initv+0x9a>
 80006cc:	40021000 	andmi	r1, r2, r0
 80006d0:	48000400 	stmdami	r0, {sl}
 80006d4:	20000070 	andcs	r0, r0, r0, ror r0
 80006d8:	2000006c 	andcs	r0, r0, ip, rrx
 80006dc:	08001204 	stmdaeq	r0, {r2, r9, ip}
 80006e0:	08001208 	stmdaeq	r0, {r3, r9, ip}
 80006e4:	08001219 	stmdaeq	r0, {r0, r3, r4, r9, ip}
 80006e8:	08001231 	stmdaeq	r0, {r0, r4, r5, r9, ip}
 80006ec:	20000020 	andcs	r0, r0, r0, lsr #32
 80006f0:	08001228 	stmdaeq	r0, {r3, r5, r9, ip}

080006f4 <_ZN5TGpioILh1ELh7ELh1EE8set_modeEh>:
 80006f4:	b9d1      	cbnz	r1, 800072c <_ZN5TGpioILh1ELh7ELh1EE8set_modeEh+0x38>
 80006f6:	6803      	ldr	r3, [r0, #0]
 80006f8:	689a      	ldr	r2, [r3, #8]
 80006fa:	f422 4240 	bic.w	r2, r2, #49152	; 0xc000
 80006fe:	609a      	str	r2, [r3, #8]
 8000700:	689a      	ldr	r2, [r3, #8]
 8000702:	f442 4240 	orr.w	r2, r2, #49152	; 0xc000
 8000706:	609a      	str	r2, [r3, #8]
 8000708:	889a      	ldrh	r2, [r3, #4]
 800070a:	f022 0280 	bic.w	r2, r2, #128	; 0x80
 800070e:	0412      	lsls	r2, r2, #16
 8000710:	0c12      	lsrs	r2, r2, #16
 8000712:	809a      	strh	r2, [r3, #4]
 8000714:	889a      	ldrh	r2, [r3, #4]
 8000716:	b292      	uxth	r2, r2
 8000718:	809a      	strh	r2, [r3, #4]
 800071a:	681a      	ldr	r2, [r3, #0]
 800071c:	f422 4240 	bic.w	r2, r2, #49152	; 0xc000
 8000720:	601a      	str	r2, [r3, #0]
 8000722:	681a      	ldr	r2, [r3, #0]
 8000724:	f442 4280 	orr.w	r2, r2, #16384	; 0x4000
 8000728:	601a      	str	r2, [r3, #0]
 800072a:	4770      	bx	lr
 800072c:	2901      	cmp	r1, #1
 800072e:	d10e      	bne.n	800074e <_ZN5TGpioILh1ELh7ELh1EE8set_modeEh+0x5a>
 8000730:	6803      	ldr	r3, [r0, #0]
 8000732:	689a      	ldr	r2, [r3, #8]
 8000734:	f422 4240 	bic.w	r2, r2, #49152	; 0xc000
 8000738:	609a      	str	r2, [r3, #8]
 800073a:	689a      	ldr	r2, [r3, #8]
 800073c:	f442 4240 	orr.w	r2, r2, #49152	; 0xc000
 8000740:	609a      	str	r2, [r3, #8]
 8000742:	681a      	ldr	r2, [r3, #0]
 8000744:	f422 4240 	bic.w	r2, r2, #49152	; 0xc000
 8000748:	601a      	str	r2, [r3, #0]
 800074a:	681a      	ldr	r2, [r3, #0]
 800074c:	e7ec      	b.n	8000728 <_ZN5TGpioILh1ELh7ELh1EE8set_modeEh+0x34>
 800074e:	2902      	cmp	r1, #2
 8000750:	d113      	bne.n	800077a <_ZN5TGpioILh1ELh7ELh1EE8set_modeEh+0x86>
 8000752:	6803      	ldr	r3, [r0, #0]
 8000754:	689a      	ldr	r2, [r3, #8]
 8000756:	f422 4240 	bic.w	r2, r2, #49152	; 0xc000
 800075a:	609a      	str	r2, [r3, #8]
 800075c:	689a      	ldr	r2, [r3, #8]
 800075e:	f442 4240 	orr.w	r2, r2, #49152	; 0xc000
 8000762:	609a      	str	r2, [r3, #8]
 8000764:	681a      	ldr	r2, [r3, #0]
 8000766:	f422 4240 	bic.w	r2, r2, #49152	; 0xc000
 800076a:	601a      	str	r2, [r3, #0]
 800076c:	681a      	ldr	r2, [r3, #0]
 800076e:	601a      	str	r2, [r3, #0]
 8000770:	68da      	ldr	r2, [r3, #12]
 8000772:	f442 4280 	orr.w	r2, r2, #16384	; 0x4000
 8000776:	60da      	str	r2, [r3, #12]
 8000778:	4770      	bx	lr
 800077a:	2903      	cmp	r1, #3
 800077c:	d110      	bne.n	80007a0 <_ZN5TGpioILh1ELh7ELh1EE8set_modeEh+0xac>
 800077e:	6803      	ldr	r3, [r0, #0]
 8000780:	689a      	ldr	r2, [r3, #8]
 8000782:	f422 4240 	bic.w	r2, r2, #49152	; 0xc000
 8000786:	609a      	str	r2, [r3, #8]
 8000788:	689a      	ldr	r2, [r3, #8]
 800078a:	f442 4240 	orr.w	r2, r2, #49152	; 0xc000
 800078e:	609a      	str	r2, [r3, #8]
 8000790:	681a      	ldr	r2, [r3, #0]
 8000792:	f422 4240 	bic.w	r2, r2, #49152	; 0xc000
 8000796:	601a      	str	r2, [r3, #0]
 8000798:	681a      	ldr	r2, [r3, #0]
 800079a:	f442 4200 	orr.w	r2, r2, #32768	; 0x8000
 800079e:	e7c3      	b.n	8000728 <_ZN5TGpioILh1ELh7ELh1EE8set_modeEh+0x34>
 80007a0:	2904      	cmp	r1, #4
 80007a2:	d1c2      	bne.n	800072a <_ZN5TGpioILh1ELh7ELh1EE8set_modeEh+0x36>
 80007a4:	6803      	ldr	r3, [r0, #0]
 80007a6:	681a      	ldr	r2, [r3, #0]
 80007a8:	f422 4240 	bic.w	r2, r2, #49152	; 0xc000
 80007ac:	601a      	str	r2, [r3, #0]
 80007ae:	681a      	ldr	r2, [r3, #0]
 80007b0:	f442 4240 	orr.w	r2, r2, #49152	; 0xc000
 80007b4:	e7b8      	b.n	8000728 <_ZN5TGpioILh1ELh7ELh1EE8set_modeEh+0x34>

080007b6 <_ZN5TGpioILh1ELh6ELh1EE8set_modeEh>:
 80007b6:	b9d1      	cbnz	r1, 80007ee <_ZN5TGpioILh1ELh6ELh1EE8set_modeEh+0x38>
 80007b8:	6803      	ldr	r3, [r0, #0]
 80007ba:	689a      	ldr	r2, [r3, #8]
 80007bc:	f422 5240 	bic.w	r2, r2, #12288	; 0x3000
 80007c0:	609a      	str	r2, [r3, #8]
 80007c2:	689a      	ldr	r2, [r3, #8]
 80007c4:	f442 5240 	orr.w	r2, r2, #12288	; 0x3000
 80007c8:	609a      	str	r2, [r3, #8]
 80007ca:	889a      	ldrh	r2, [r3, #4]
 80007cc:	f022 0240 	bic.w	r2, r2, #64	; 0x40
 80007d0:	0412      	lsls	r2, r2, #16
 80007d2:	0c12      	lsrs	r2, r2, #16
 80007d4:	809a      	strh	r2, [r3, #4]
 80007d6:	889a      	ldrh	r2, [r3, #4]
 80007d8:	b292      	uxth	r2, r2
 80007da:	809a      	strh	r2, [r3, #4]
 80007dc:	681a      	ldr	r2, [r3, #0]
 80007de:	f422 5240 	bic.w	r2, r2, #12288	; 0x3000
 80007e2:	601a      	str	r2, [r3, #0]
 80007e4:	681a      	ldr	r2, [r3, #0]
 80007e6:	f442 5280 	orr.w	r2, r2, #4096	; 0x1000
 80007ea:	601a      	str	r2, [r3, #0]
 80007ec:	4770      	bx	lr
 80007ee:	2901      	cmp	r1, #1
 80007f0:	d10e      	bne.n	8000810 <_ZN5TGpioILh1ELh6ELh1EE8set_modeEh+0x5a>
 80007f2:	6803      	ldr	r3, [r0, #0]
 80007f4:	689a      	ldr	r2, [r3, #8]
 80007f6:	f422 5240 	bic.w	r2, r2, #12288	; 0x3000
 80007fa:	609a      	str	r2, [r3, #8]
 80007fc:	689a      	ldr	r2, [r3, #8]
 80007fe:	f442 5240 	orr.w	r2, r2, #12288	; 0x3000
 8000802:	609a      	str	r2, [r3, #8]
 8000804:	681a      	ldr	r2, [r3, #0]
 8000806:	f422 5240 	bic.w	r2, r2, #12288	; 0x3000
 800080a:	601a      	str	r2, [r3, #0]
 800080c:	681a      	ldr	r2, [r3, #0]
 800080e:	e7ec      	b.n	80007ea <_ZN5TGpioILh1ELh6ELh1EE8set_modeEh+0x34>
 8000810:	2902      	cmp	r1, #2
 8000812:	d113      	bne.n	800083c <_ZN5TGpioILh1ELh6ELh1EE8set_modeEh+0x86>
 8000814:	6803      	ldr	r3, [r0, #0]
 8000816:	689a      	ldr	r2, [r3, #8]
 8000818:	f422 5240 	bic.w	r2, r2, #12288	; 0x3000
 800081c:	609a      	str	r2, [r3, #8]
 800081e:	689a      	ldr	r2, [r3, #8]
 8000820:	f442 5240 	orr.w	r2, r2, #12288	; 0x3000
 8000824:	609a      	str	r2, [r3, #8]
 8000826:	681a      	ldr	r2, [r3, #0]
 8000828:	f422 5240 	bic.w	r2, r2, #12288	; 0x3000
 800082c:	601a      	str	r2, [r3, #0]
 800082e:	681a      	ldr	r2, [r3, #0]
 8000830:	601a      	str	r2, [r3, #0]
 8000832:	68da      	ldr	r2, [r3, #12]
 8000834:	f442 5280 	orr.w	r2, r2, #4096	; 0x1000
 8000838:	60da      	str	r2, [r3, #12]
 800083a:	4770      	bx	lr
 800083c:	2903      	cmp	r1, #3
 800083e:	d110      	bne.n	8000862 <_ZN5TGpioILh1ELh6ELh1EE8set_modeEh+0xac>
 8000840:	6803      	ldr	r3, [r0, #0]
 8000842:	689a      	ldr	r2, [r3, #8]
 8000844:	f422 5240 	bic.w	r2, r2, #12288	; 0x3000
 8000848:	609a      	str	r2, [r3, #8]
 800084a:	689a      	ldr	r2, [r3, #8]
 800084c:	f442 5240 	orr.w	r2, r2, #12288	; 0x3000
 8000850:	609a      	str	r2, [r3, #8]
 8000852:	681a      	ldr	r2, [r3, #0]
 8000854:	f422 5240 	bic.w	r2, r2, #12288	; 0x3000
 8000858:	601a      	str	r2, [r3, #0]
 800085a:	681a      	ldr	r2, [r3, #0]
 800085c:	f442 5200 	orr.w	r2, r2, #8192	; 0x2000
 8000860:	e7c3      	b.n	80007ea <_ZN5TGpioILh1ELh6ELh1EE8set_modeEh+0x34>
 8000862:	2904      	cmp	r1, #4
 8000864:	d1c2      	bne.n	80007ec <_ZN5TGpioILh1ELh6ELh1EE8set_modeEh+0x36>
 8000866:	6803      	ldr	r3, [r0, #0]
 8000868:	681a      	ldr	r2, [r3, #0]
 800086a:	f422 5240 	bic.w	r2, r2, #12288	; 0x3000
 800086e:	601a      	str	r2, [r3, #0]
 8000870:	681a      	ldr	r2, [r3, #0]
 8000872:	f442 5240 	orr.w	r2, r2, #12288	; 0x3000
 8000876:	e7b8      	b.n	80007ea <_ZN5TGpioILh1ELh6ELh1EE8set_modeEh+0x34>

08000878 <_ZN4TI2CILh1ELh7ELh6ELh10ELh1EE5startEv>:
 8000878:	b538      	push	{r3, r4, r5, lr}
 800087a:	f100 0508 	add.w	r5, r0, #8
 800087e:	4604      	mov	r4, r0
 8000880:	3404      	adds	r4, #4
 8000882:	4628      	mov	r0, r5
 8000884:	2101      	movs	r1, #1
 8000886:	f7ff ff96 	bl	80007b6 <_ZN5TGpioILh1ELh6ELh1EE8set_modeEh>
 800088a:	4620      	mov	r0, r4
 800088c:	2101      	movs	r1, #1
 800088e:	f7ff ff31 	bl	80006f4 <_ZN5TGpioILh1ELh7ELh1EE8set_modeEh>
 8000892:	4628      	mov	r0, r5
 8000894:	2101      	movs	r1, #1
 8000896:	f7ff ff8e 	bl	80007b6 <_ZN5TGpioILh1ELh6ELh1EE8set_modeEh>
 800089a:	4620      	mov	r0, r4
 800089c:	2100      	movs	r1, #0
 800089e:	f7ff ff29 	bl	80006f4 <_ZN5TGpioILh1ELh7ELh1EE8set_modeEh>
 80008a2:	4628      	mov	r0, r5
 80008a4:	2100      	movs	r1, #0
 80008a6:	f7ff ff86 	bl	80007b6 <_ZN5TGpioILh1ELh6ELh1EE8set_modeEh>
 80008aa:	4620      	mov	r0, r4
 80008ac:	2101      	movs	r1, #1
 80008ae:	f7ff ff21 	bl	80006f4 <_ZN5TGpioILh1ELh7ELh1EE8set_modeEh>
 80008b2:	e8bd 4038 	ldmia.w	sp!, {r3, r4, r5, lr}
 80008b6:	f7ff bea3 	b.w	8000600 <_ZN4TI2CILh1ELh7ELh6ELh10ELh1EE5delayEv.isra.0>

080008ba <_ZN4TI2CILh1ELh7ELh6ELh10ELh1EE4stopEv>:
 80008ba:	b538      	push	{r3, r4, r5, lr}
 80008bc:	f100 0508 	add.w	r5, r0, #8
 80008c0:	4604      	mov	r4, r0
 80008c2:	3404      	adds	r4, #4
 80008c4:	4628      	mov	r0, r5
 80008c6:	2100      	movs	r1, #0
 80008c8:	f7ff ff75 	bl	80007b6 <_ZN5TGpioILh1ELh6ELh1EE8set_modeEh>
 80008cc:	4620      	mov	r0, r4
 80008ce:	2100      	movs	r1, #0
 80008d0:	f7ff ff10 	bl	80006f4 <_ZN5TGpioILh1ELh7ELh1EE8set_modeEh>
 80008d4:	4628      	mov	r0, r5
 80008d6:	2101      	movs	r1, #1
 80008d8:	f7ff ff6d 	bl	80007b6 <_ZN5TGpioILh1ELh6ELh1EE8set_modeEh>
 80008dc:	4620      	mov	r0, r4
 80008de:	2100      	movs	r1, #0
 80008e0:	f7ff ff08 	bl	80006f4 <_ZN5TGpioILh1ELh7ELh1EE8set_modeEh>
 80008e4:	4628      	mov	r0, r5
 80008e6:	2101      	movs	r1, #1
 80008e8:	f7ff ff65 	bl	80007b6 <_ZN5TGpioILh1ELh6ELh1EE8set_modeEh>
 80008ec:	4620      	mov	r0, r4
 80008ee:	2101      	movs	r1, #1
 80008f0:	f7ff ff00 	bl	80006f4 <_ZN5TGpioILh1ELh7ELh1EE8set_modeEh>
 80008f4:	e8bd 4038 	ldmia.w	sp!, {r3, r4, r5, lr}
 80008f8:	f7ff be82 	b.w	8000600 <_ZN4TI2CILh1ELh7ELh6ELh10ELh1EE5delayEv.isra.0>

080008fc <_ZN4TI2CILh1ELh7ELh6ELh10ELh1EE5writeEh>:
 80008fc:	e92d 41f0 	stmdb	sp!, {r4, r5, r6, r7, r8, lr}
 8000900:	4607      	mov	r7, r0
 8000902:	460c      	mov	r4, r1
 8000904:	2609      	movs	r6, #9
 8000906:	f100 0508 	add.w	r5, r0, #8
 800090a:	f100 0804 	add.w	r8, r0, #4
 800090e:	3e01      	subs	r6, #1
 8000910:	d017      	beq.n	8000942 <_ZN4TI2CILh1ELh7ELh6ELh10ELh1EE5writeEh+0x46>
 8000912:	2100      	movs	r1, #0
 8000914:	4628      	mov	r0, r5
 8000916:	f7ff ff4e 	bl	80007b6 <_ZN5TGpioILh1ELh6ELh1EE8set_modeEh>
 800091a:	f7ff fe71 	bl	8000600 <_ZN4TI2CILh1ELh7ELh6ELh10ELh1EE5delayEv.isra.0>
 800091e:	0623      	lsls	r3, r4, #24
 8000920:	bf4c      	ite	mi
 8000922:	2101      	movmi	r1, #1
 8000924:	2100      	movpl	r1, #0
 8000926:	4640      	mov	r0, r8
 8000928:	f7ff fee4 	bl	80006f4 <_ZN5TGpioILh1ELh7ELh1EE8set_modeEh>
 800092c:	0064      	lsls	r4, r4, #1
 800092e:	f7ff fe67 	bl	8000600 <_ZN4TI2CILh1ELh7ELh6ELh10ELh1EE5delayEv.isra.0>
 8000932:	2101      	movs	r1, #1
 8000934:	4628      	mov	r0, r5
 8000936:	f7ff ff3e 	bl	80007b6 <_ZN5TGpioILh1ELh6ELh1EE8set_modeEh>
 800093a:	b2e4      	uxtb	r4, r4
 800093c:	f7ff fe60 	bl	8000600 <_ZN4TI2CILh1ELh7ELh6ELh10ELh1EE5delayEv.isra.0>
 8000940:	e7e5      	b.n	800090e <_ZN4TI2CILh1ELh7ELh6ELh10ELh1EE5writeEh+0x12>
 8000942:	4631      	mov	r1, r6
 8000944:	4628      	mov	r0, r5
 8000946:	f7ff ff36 	bl	80007b6 <_ZN5TGpioILh1ELh6ELh1EE8set_modeEh>
 800094a:	f7ff fe59 	bl	8000600 <_ZN4TI2CILh1ELh7ELh6ELh10ELh1EE5delayEv.isra.0>
 800094e:	4640      	mov	r0, r8
 8000950:	2101      	movs	r1, #1
 8000952:	f7ff fecf 	bl	80006f4 <_ZN5TGpioILh1ELh7ELh1EE8set_modeEh>
 8000956:	f7ff fe53 	bl	8000600 <_ZN4TI2CILh1ELh7ELh6ELh10ELh1EE5delayEv.isra.0>
 800095a:	4628      	mov	r0, r5
 800095c:	2101      	movs	r1, #1
 800095e:	f7ff ff2a 	bl	80007b6 <_ZN5TGpioILh1ELh6ELh1EE8set_modeEh>
 8000962:	f7ff fe4d 	bl	8000600 <_ZN4TI2CILh1ELh7ELh6ELh10ELh1EE5delayEv.isra.0>
 8000966:	687b      	ldr	r3, [r7, #4]
 8000968:	8a1c      	ldrh	r4, [r3, #16]
 800096a:	4628      	mov	r0, r5
 800096c:	4631      	mov	r1, r6
 800096e:	b2a4      	uxth	r4, r4
 8000970:	f7ff ff21 	bl	80007b6 <_ZN5TGpioILh1ELh6ELh1EE8set_modeEh>
 8000974:	f7ff fe44 	bl	8000600 <_ZN4TI2CILh1ELh7ELh6ELh10ELh1EE5delayEv.isra.0>
 8000978:	f084 0080 	eor.w	r0, r4, #128	; 0x80
 800097c:	f3c0 10c0 	ubfx	r0, r0, #7, #1
 8000980:	e8bd 81f0 	ldmia.w	sp!, {r4, r5, r6, r7, r8, pc}

08000984 <_ZN4TI2CILh1ELh7ELh6ELh10ELh1EE4readEh>:
 8000984:	e92d 43f8 	stmdb	sp!, {r3, r4, r5, r6, r7, r8, r9, lr}
 8000988:	4680      	mov	r8, r0
 800098a:	1d06      	adds	r6, r0, #4
 800098c:	4630      	mov	r0, r6
 800098e:	4689      	mov	r9, r1
 8000990:	f108 0508 	add.w	r5, r8, #8
 8000994:	2101      	movs	r1, #1
 8000996:	f7ff fead 	bl	80006f4 <_ZN5TGpioILh1ELh7ELh1EE8set_modeEh>
 800099a:	2100      	movs	r1, #0
 800099c:	4628      	mov	r0, r5
 800099e:	f7ff ff0a 	bl	80007b6 <_ZN5TGpioILh1ELh6ELh1EE8set_modeEh>
 80009a2:	f7ff fe2d 	bl	8000600 <_ZN4TI2CILh1ELh7ELh6ELh10ELh1EE5delayEv.isra.0>
 80009a6:	2709      	movs	r7, #9
 80009a8:	2400      	movs	r4, #0
 80009aa:	3f01      	subs	r7, #1
 80009ac:	d016      	beq.n	80009dc <_ZN4TI2CILh1ELh7ELh6ELh10ELh1EE4readEh+0x58>
 80009ae:	4628      	mov	r0, r5
 80009b0:	2101      	movs	r1, #1
 80009b2:	f7ff ff00 	bl	80007b6 <_ZN5TGpioILh1ELh6ELh1EE8set_modeEh>
 80009b6:	f7ff fe23 	bl	8000600 <_ZN4TI2CILh1ELh7ELh6ELh10ELh1EE5delayEv.isra.0>
 80009ba:	f8d8 3004 	ldr.w	r3, [r8, #4]
 80009be:	8a1b      	ldrh	r3, [r3, #16]
 80009c0:	0064      	lsls	r4, r4, #1
 80009c2:	061b      	lsls	r3, r3, #24
 80009c4:	b2e4      	uxtb	r4, r4
 80009c6:	f04f 0100 	mov.w	r1, #0
 80009ca:	4628      	mov	r0, r5
 80009cc:	bf48      	it	mi
 80009ce:	f044 0401 	orrmi.w	r4, r4, #1
 80009d2:	f7ff fef0 	bl	80007b6 <_ZN5TGpioILh1ELh6ELh1EE8set_modeEh>
 80009d6:	f7ff fe13 	bl	8000600 <_ZN4TI2CILh1ELh7ELh6ELh10ELh1EE5delayEv.isra.0>
 80009da:	e7e6      	b.n	80009aa <_ZN4TI2CILh1ELh7ELh6ELh10ELh1EE4readEh+0x26>
 80009dc:	f1b9 0f00 	cmp.w	r9, #0
 80009e0:	d01a      	beq.n	8000a18 <_ZN4TI2CILh1ELh7ELh6ELh10ELh1EE4readEh+0x94>
 80009e2:	4639      	mov	r1, r7
 80009e4:	4630      	mov	r0, r6
 80009e6:	f7ff fe85 	bl	80006f4 <_ZN5TGpioILh1ELh7ELh1EE8set_modeEh>
 80009ea:	f7ff fe09 	bl	8000600 <_ZN4TI2CILh1ELh7ELh6ELh10ELh1EE5delayEv.isra.0>
 80009ee:	4628      	mov	r0, r5
 80009f0:	2101      	movs	r1, #1
 80009f2:	f7ff fee0 	bl	80007b6 <_ZN5TGpioILh1ELh6ELh1EE8set_modeEh>
 80009f6:	f7ff fe03 	bl	8000600 <_ZN4TI2CILh1ELh7ELh6ELh10ELh1EE5delayEv.isra.0>
 80009fa:	4628      	mov	r0, r5
 80009fc:	2100      	movs	r1, #0
 80009fe:	f7ff feda 	bl	80007b6 <_ZN5TGpioILh1ELh6ELh1EE8set_modeEh>
 8000a02:	f7ff fdfd 	bl	8000600 <_ZN4TI2CILh1ELh7ELh6ELh10ELh1EE5delayEv.isra.0>
 8000a06:	4630      	mov	r0, r6
 8000a08:	2101      	movs	r1, #1
 8000a0a:	f7ff fe73 	bl	80006f4 <_ZN5TGpioILh1ELh7ELh1EE8set_modeEh>
 8000a0e:	f7ff fdf7 	bl	8000600 <_ZN4TI2CILh1ELh7ELh6ELh10ELh1EE5delayEv.isra.0>
 8000a12:	4620      	mov	r0, r4
 8000a14:	e8bd 83f8 	ldmia.w	sp!, {r3, r4, r5, r6, r7, r8, r9, pc}
 8000a18:	2101      	movs	r1, #1
 8000a1a:	e7e3      	b.n	80009e4 <_ZN4TI2CILh1ELh7ELh6ELh10ELh1EE4readEh+0x60>

08000a1c <_GLOBAL__sub_I_terminal>:
 8000a1c:	b5f8      	push	{r3, r4, r5, r6, r7, lr}
 8000a1e:	4c1b      	ldr	r4, [pc, #108]	; (8000a8c <_GLOBAL__sub_I_terminal+0x70>)
 8000a20:	4e1b      	ldr	r6, [pc, #108]	; (8000a90 <_GLOBAL__sub_I_terminal+0x74>)
 8000a22:	4d1c      	ldr	r5, [pc, #112]	; (8000a94 <_GLOBAL__sub_I_terminal+0x78>)
 8000a24:	4f1c      	ldr	r7, [pc, #112]	; (8000a98 <_GLOBAL__sub_I_terminal+0x7c>)
 8000a26:	4620      	mov	r0, r4
 8000a28:	f000 f8ec 	bl	8000c04 <_ZN8TerminalC1Ev>
 8000a2c:	4620      	mov	r0, r4
 8000a2e:	4c1b      	ldr	r4, [pc, #108]	; (8000a9c <_GLOBAL__sub_I_terminal+0x80>)
 8000a30:	491b      	ldr	r1, [pc, #108]	; (8000aa0 <_GLOBAL__sub_I_terminal+0x84>)
 8000a32:	4632      	mov	r2, r6
 8000a34:	f000 fafa 	bl	800102c <__aeabi_atexit>
 8000a38:	4620      	mov	r0, r4
 8000a3a:	f000 f84f 	bl	8000adc <_ZN5TimerC1Ev>
 8000a3e:	4632      	mov	r2, r6
 8000a40:	4918      	ldr	r1, [pc, #96]	; (8000aa4 <_GLOBAL__sub_I_terminal+0x88>)
 8000a42:	4620      	mov	r0, r4
 8000a44:	4c18      	ldr	r4, [pc, #96]	; (8000aa8 <_GLOBAL__sub_I_terminal+0x8c>)
 8000a46:	f000 faf1 	bl	800102c <__aeabi_atexit>
 8000a4a:	4b18      	ldr	r3, [pc, #96]	; (8000aac <_GLOBAL__sub_I_terminal+0x90>)
 8000a4c:	6023      	str	r3, [r4, #0]
 8000a4e:	696b      	ldr	r3, [r5, #20]
 8000a50:	4620      	mov	r0, r4
 8000a52:	f443 037f 	orr.w	r3, r3, #16711680	; 0xff0000
 8000a56:	616b      	str	r3, [r5, #20]
 8000a58:	2101      	movs	r1, #1
 8000a5a:	f840 7f04 	str.w	r7, [r0, #4]!
 8000a5e:	f7ff fe49 	bl	80006f4 <_ZN5TGpioILh1ELh7ELh1EE8set_modeEh>
 8000a62:	696b      	ldr	r3, [r5, #20]
 8000a64:	4620      	mov	r0, r4
 8000a66:	f443 037f 	orr.w	r3, r3, #16711680	; 0xff0000
 8000a6a:	4c11      	ldr	r4, [pc, #68]	; (8000ab0 <_GLOBAL__sub_I_terminal+0x94>)
 8000a6c:	616b      	str	r3, [r5, #20]
 8000a6e:	2101      	movs	r1, #1
 8000a70:	f840 7f08 	str.w	r7, [r0, #8]!
 8000a74:	f7ff fe9f 	bl	80007b6 <_ZN5TGpioILh1ELh6ELh1EE8set_modeEh>
 8000a78:	4620      	mov	r0, r4
 8000a7a:	f000 f8e5 	bl	8000c48 <_ZN3IMUC1Ev>
 8000a7e:	4632      	mov	r2, r6
 8000a80:	4620      	mov	r0, r4
 8000a82:	490c      	ldr	r1, [pc, #48]	; (8000ab4 <_GLOBAL__sub_I_terminal+0x98>)
 8000a84:	e8bd 40f8 	ldmia.w	sp!, {r3, r4, r5, r6, r7, lr}
 8000a88:	f000 bad0 	b.w	800102c <__aeabi_atexit>
 8000a8c:	2000006c 	andcs	r0, r0, ip, rrx
 8000a90:	20000000 	andcs	r0, r0, r0
 8000a94:	40021000 	andmi	r1, r2, r0
 8000a98:	48000400 	stmdami	r0, {sl}
 8000a9c:	20000070 	andcs	r0, r0, r0, ror r0
 8000aa0:	08000c11 	stmdaeq	r0, {r0, r4, sl, fp}
 8000aa4:	08000b49 	stmdaeq	r0, {r0, r3, r6, r8, r9, fp}
 8000aa8:	20000020 	andcs	r0, r0, r0, lsr #32
 8000aac:	080011d8 	stmdaeq	r0, {r3, r4, r6, r7, r8, ip}
 8000ab0:	2000002c 	andcs	r0, r0, ip, lsr #32
 8000ab4:	08000c37 	stmdaeq	r0, {r0, r1, r2, r4, r5, sl, fp}

08000ab8 <_ZN3MemD1Ev>:
 8000ab8:	4770      	bx	lr

08000aba <_ZdlPv>:
 8000aba:	4770      	bx	lr

08000abc <_GLOBAL__sub_I_mem>:
 8000abc:	4803      	ldr	r0, [pc, #12]	; (8000acc <_GLOBAL__sub_I_mem+0x10>)
 8000abe:	4b04      	ldr	r3, [pc, #16]	; (8000ad0 <_GLOBAL__sub_I_mem+0x14>)
 8000ac0:	4a04      	ldr	r2, [pc, #16]	; (8000ad4 <_GLOBAL__sub_I_mem+0x18>)
 8000ac2:	4905      	ldr	r1, [pc, #20]	; (8000ad8 <_GLOBAL__sub_I_mem+0x1c>)
 8000ac4:	6003      	str	r3, [r0, #0]
 8000ac6:	f000 bab1 	b.w	800102c <__aeabi_atexit>
 8000aca:	bf00      	nop
 8000acc:	20000074 	andcs	r0, r0, r4, ror r0
 8000ad0:	2000049c 	mulcs	r0, ip, r4
 8000ad4:	20000000 	andcs	r0, r0, r0
 8000ad8:	08000ab9 	stmdaeq	r0, {r0, r3, r4, r5, r7, r9, fp}

08000adc <_ZN5TimerC1Ev>:
 8000adc:	4770      	bx	lr
 8000ade:	0000      	movs	r0, r0

08000ae0 <_ZN5Timer4initEv>:
 8000ae0:	b5f7      	push	{r0, r1, r2, r4, r5, r6, r7, lr}
 8000ae2:	2200      	movs	r2, #0
 8000ae4:	4d15      	ldr	r5, [pc, #84]	; (8000b3c <_ZN5Timer4initEv+0x5c>)
 8000ae6:	2714      	movs	r7, #20
 8000ae8:	4613      	mov	r3, r2
 8000aea:	f44f 767a 	mov.w	r6, #1000	; 0x3e8
 8000aee:	fb07 f402 	mul.w	r4, r7, r2
 8000af2:	1929      	adds	r1, r5, r4
 8000af4:	3201      	adds	r2, #1
 8000af6:	2a20      	cmp	r2, #32
 8000af8:	512b      	str	r3, [r5, r4]
 8000afa:	604b      	str	r3, [r1, #4]
 8000afc:	608e      	str	r6, [r1, #8]
 8000afe:	60cb      	str	r3, [r1, #12]
 8000b00:	740b      	strb	r3, [r1, #16]
 8000b02:	744b      	strb	r3, [r1, #17]
 8000b04:	d1f3      	bne.n	8000aee <_ZN5Timer4initEv+0xe>
 8000b06:	4a0e      	ldr	r2, [pc, #56]	; (8000b40 <_ZN5Timer4initEv+0x60>)
 8000b08:	6013      	str	r3, [r2, #0]
 8000b0a:	4a0e      	ldr	r2, [pc, #56]	; (8000b44 <_ZN5Timer4initEv+0x64>)
 8000b0c:	6003      	str	r3, [r0, #0]
 8000b0e:	69d3      	ldr	r3, [r2, #28]
 8000b10:	f043 0301 	orr.w	r3, r3, #1
 8000b14:	61d3      	str	r3, [r2, #28]
 8000b16:	2200      	movs	r2, #0
 8000b18:	f44f 7334 	mov.w	r3, #720	; 0x2d0
 8000b1c:	9300      	str	r3, [sp, #0]
 8000b1e:	4611      	mov	r1, r2
 8000b20:	2363      	movs	r3, #99	; 0x63
 8000b22:	f04f 4080 	mov.w	r0, #1073741824	; 0x40000000
 8000b26:	f000 fa0b 	bl	8000f40 <_Z10timer_initP11TIM_TypeDefmmmm>
 8000b2a:	2201      	movs	r2, #1
 8000b2c:	2100      	movs	r1, #0
 8000b2e:	201c      	movs	r0, #28
 8000b30:	f000 f9e4 	bl	8000efc <_Z9nvic_initmmm>
 8000b34:	b662      	cpsie	i
 8000b36:	b003      	add	sp, #12
 8000b38:	bdf0      	pop	{r4, r5, r6, r7, pc}
 8000b3a:	bf00      	nop
 8000b3c:	2000007c 	andcs	r0, r0, ip, ror r0
 8000b40:	20000078 	andcs	r0, r0, r8, ror r0
 8000b44:	40021000 	andmi	r1, r2, r0

08000b48 <_ZN5TimerD1Ev>:
 8000b48:	4770      	bx	lr
 8000b4a:	0000      	movs	r0, r0

08000b4c <_ZN5Timer8get_timeEv>:
 8000b4c:	b082      	sub	sp, #8
 8000b4e:	b672      	cpsid	i
 8000b50:	4b03      	ldr	r3, [pc, #12]	; (8000b60 <_ZN5Timer8get_timeEv+0x14>)
 8000b52:	681b      	ldr	r3, [r3, #0]
 8000b54:	9301      	str	r3, [sp, #4]
 8000b56:	b662      	cpsie	i
 8000b58:	9801      	ldr	r0, [sp, #4]
 8000b5a:	b002      	add	sp, #8
 8000b5c:	4770      	bx	lr
 8000b5e:	bf00      	nop
 8000b60:	20000078 	andcs	r0, r0, r8, ror r0

08000b64 <_ZN5Timer8delay_msEj>:
 8000b64:	b507      	push	{r0, r1, r2, lr}
 8000b66:	4602      	mov	r2, r0
 8000b68:	f7ff fff0 	bl	8000b4c <_ZN5Timer8get_timeEv>
 8000b6c:	4401      	add	r1, r0
 8000b6e:	9101      	str	r1, [sp, #4]
 8000b70:	4610      	mov	r0, r2
 8000b72:	f7ff ffeb 	bl	8000b4c <_ZN5Timer8get_timeEv>
 8000b76:	9b01      	ldr	r3, [sp, #4]
 8000b78:	4298      	cmp	r0, r3
 8000b7a:	d201      	bcs.n	8000b80 <_ZN5Timer8delay_msEj+0x1c>
 8000b7c:	bf00      	nop
 8000b7e:	e7f7      	b.n	8000b70 <_ZN5Timer8delay_msEj+0xc>
 8000b80:	b003      	add	sp, #12
 8000b82:	f85d fb04 	ldr.w	pc, [sp], #4
 8000b86:	0000      	movs	r0, r0

08000b88 <TIM2_IRQHandler>:
 8000b88:	b5f8      	push	{r3, r4, r5, r6, r7, lr}
 8000b8a:	f04f 4380 	mov.w	r3, #1073741824	; 0x40000000
 8000b8e:	691a      	ldr	r2, [r3, #16]
 8000b90:	07d2      	lsls	r2, r2, #31
 8000b92:	d514      	bpl.n	8000bbe <TIM2_IRQHandler+0x36>
 8000b94:	4f19      	ldr	r7, [pc, #100]	; (8000bfc <TIM2_IRQHandler+0x74>)
 8000b96:	f64f 72fe 	movw	r2, #65534	; 0xfffe
 8000b9a:	611a      	str	r2, [r3, #16]
 8000b9c:	2400      	movs	r4, #0
 8000b9e:	2614      	movs	r6, #20
 8000ba0:	463d      	mov	r5, r7
 8000ba2:	fb06 7304 	mla	r3, r6, r4, r7
 8000ba6:	68da      	ldr	r2, [r3, #12]
 8000ba8:	b152      	cbz	r2, 8000bc0 <TIM2_IRQHandler+0x38>
 8000baa:	68da      	ldr	r2, [r3, #12]
 8000bac:	3a01      	subs	r2, #1
 8000bae:	60da      	str	r2, [r3, #12]
 8000bb0:	3401      	adds	r4, #1
 8000bb2:	2c20      	cmp	r4, #32
 8000bb4:	d1f5      	bne.n	8000ba2 <TIM2_IRQHandler+0x1a>
 8000bb6:	4a12      	ldr	r2, [pc, #72]	; (8000c00 <TIM2_IRQHandler+0x78>)
 8000bb8:	6813      	ldr	r3, [r2, #0]
 8000bba:	3301      	adds	r3, #1
 8000bbc:	6013      	str	r3, [r2, #0]
 8000bbe:	bdf8      	pop	{r3, r4, r5, r6, r7, pc}
 8000bc0:	689a      	ldr	r2, [r3, #8]
 8000bc2:	60da      	str	r2, [r3, #12]
 8000bc4:	7c1a      	ldrb	r2, [r3, #16]
 8000bc6:	2aff      	cmp	r2, #255	; 0xff
 8000bc8:	bf1f      	itttt	ne
 8000bca:	7c1a      	ldrbne	r2, [r3, #16]
 8000bcc:	3201      	addne	r2, #1
 8000bce:	b2d2      	uxtbne	r2, r2
 8000bd0:	741a      	strbne	r2, [r3, #16]
 8000bd2:	fb06 f304 	mul.w	r3, r6, r4
 8000bd6:	18ea      	adds	r2, r5, r3
 8000bd8:	7c52      	ldrb	r2, [r2, #17]
 8000bda:	2a00      	cmp	r2, #0
 8000bdc:	d1e8      	bne.n	8000bb0 <TIM2_IRQHandler+0x28>
 8000bde:	58ea      	ldr	r2, [r5, r3]
 8000be0:	b10a      	cbz	r2, 8000be6 <TIM2_IRQHandler+0x5e>
 8000be2:	58eb      	ldr	r3, [r5, r3]
 8000be4:	4798      	blx	r3
 8000be6:	fb06 5304 	mla	r3, r6, r4, r5
 8000bea:	685a      	ldr	r2, [r3, #4]
 8000bec:	2a00      	cmp	r2, #0
 8000bee:	d0df      	beq.n	8000bb0 <TIM2_IRQHandler+0x28>
 8000bf0:	6858      	ldr	r0, [r3, #4]
 8000bf2:	6803      	ldr	r3, [r0, #0]
 8000bf4:	689b      	ldr	r3, [r3, #8]
 8000bf6:	4798      	blx	r3
 8000bf8:	e7da      	b.n	8000bb0 <TIM2_IRQHandler+0x28>
 8000bfa:	bf00      	nop
 8000bfc:	2000007c 	andcs	r0, r0, ip, ror r0
 8000c00:	20000078 	andcs	r0, r0, r8, ror r0

08000c04 <_ZN8TerminalC1Ev>:
 8000c04:	b510      	push	{r4, lr}
 8000c06:	4604      	mov	r4, r0
 8000c08:	f000 f8ef 	bl	8000dea <_ZN5UsartC1Ev>
 8000c0c:	4620      	mov	r0, r4
 8000c0e:	bd10      	pop	{r4, pc}

08000c10 <_ZN8TerminalD1Ev>:
 8000c10:	b510      	push	{r4, lr}
 8000c12:	4604      	mov	r4, r0
 8000c14:	f000 f932 	bl	8000e7c <_ZN5UsartD1Ev>
 8000c18:	4620      	mov	r0, r4
 8000c1a:	bd10      	pop	{r4, pc}

08000c1c <_ZN8Terminal4putsEPc>:
 8000c1c:	b538      	push	{r3, r4, r5, lr}
 8000c1e:	4605      	mov	r5, r0
 8000c20:	1e4c      	subs	r4, r1, #1
 8000c22:	f814 1f01 	ldrb.w	r1, [r4, #1]!
 8000c26:	b119      	cbz	r1, 8000c30 <_ZN8Terminal4putsEPc+0x14>
 8000c28:	4628      	mov	r0, r5
 8000c2a:	f000 f929 	bl	8000e80 <_ZN5Usart8put_charEc>
 8000c2e:	e7f8      	b.n	8000c22 <_ZN8Terminal4putsEPc+0x6>
 8000c30:	bd38      	pop	{r3, r4, r5, pc}

08000c32 <_ZN8Terminal4putsEPKc>:
 8000c32:	f7ff bff3 	b.w	8000c1c <_ZN8Terminal4putsEPc>

08000c36 <_ZN3IMUD1Ev>:
 8000c36:	4770      	bx	lr

08000c38 <_ZN3IMUD0Ev>:
 8000c38:	b510      	push	{r4, lr}
 8000c3a:	2140      	movs	r1, #64	; 0x40
 8000c3c:	4604      	mov	r4, r0
 8000c3e:	f000 fa03 	bl	8001048 <_ZdlPvj>
 8000c42:	4620      	mov	r0, r4
 8000c44:	bd10      	pop	{r4, pc}
 8000c46:	0000      	movs	r0, r0

08000c48 <_ZN3IMUC1Ev>:
 8000c48:	4b01      	ldr	r3, [pc, #4]	; (8000c50 <_ZN3IMUC1Ev+0x8>)
 8000c4a:	6003      	str	r3, [r0, #0]
 8000c4c:	4770      	bx	lr
 8000c4e:	bf00      	nop
 8000c50:	08001240 	stmdaeq	r0, {r6, r9, ip}

08000c54 <_ZN3IMU4readEb>:
 8000c54:	e92d 41f0 	stmdb	sp!, {r4, r5, r6, r7, r8, lr}
 8000c58:	4604      	mov	r4, r0
 8000c5a:	6bc0      	ldr	r0, [r0, #60]	; 0x3c
 8000c5c:	6803      	ldr	r3, [r0, #0]
 8000c5e:	220f      	movs	r2, #15
 8000c60:	6a1b      	ldr	r3, [r3, #32]
 8000c62:	460f      	mov	r7, r1
 8000c64:	21d4      	movs	r1, #212	; 0xd4
 8000c66:	4798      	blx	r3
 8000c68:	2868      	cmp	r0, #104	; 0x68
 8000c6a:	6be0      	ldr	r0, [r4, #60]	; 0x3c
 8000c6c:	bf0c      	ite	eq
 8000c6e:	2301      	moveq	r3, #1
 8000c70:	2300      	movne	r3, #0
 8000c72:	6363      	str	r3, [r4, #52]	; 0x34
 8000c74:	6803      	ldr	r3, [r0, #0]
 8000c76:	681b      	ldr	r3, [r3, #0]
 8000c78:	4798      	blx	r3
 8000c7a:	6be0      	ldr	r0, [r4, #60]	; 0x3c
 8000c7c:	6803      	ldr	r3, [r0, #0]
 8000c7e:	21d4      	movs	r1, #212	; 0xd4
 8000c80:	68db      	ldr	r3, [r3, #12]
 8000c82:	4798      	blx	r3
 8000c84:	6be0      	ldr	r0, [r4, #60]	; 0x3c
 8000c86:	6803      	ldr	r3, [r0, #0]
 8000c88:	2119      	movs	r1, #25
 8000c8a:	68db      	ldr	r3, [r3, #12]
 8000c8c:	4798      	blx	r3
 8000c8e:	6be0      	ldr	r0, [r4, #60]	; 0x3c
 8000c90:	6803      	ldr	r3, [r0, #0]
 8000c92:	681b      	ldr	r3, [r3, #0]
 8000c94:	4798      	blx	r3
 8000c96:	6be0      	ldr	r0, [r4, #60]	; 0x3c
 8000c98:	6803      	ldr	r3, [r0, #0]
 8000c9a:	21d5      	movs	r1, #213	; 0xd5
 8000c9c:	68db      	ldr	r3, [r3, #12]
 8000c9e:	4798      	blx	r3
 8000ca0:	6be0      	ldr	r0, [r4, #60]	; 0x3c
 8000ca2:	6803      	ldr	r3, [r0, #0]
 8000ca4:	2101      	movs	r1, #1
 8000ca6:	691b      	ldr	r3, [r3, #16]
 8000ca8:	4798      	blx	r3
 8000caa:	0200      	lsls	r0, r0, #8
 8000cac:	fa0f f880 	sxth.w	r8, r0
 8000cb0:	6be0      	ldr	r0, [r4, #60]	; 0x3c
 8000cb2:	6803      	ldr	r3, [r0, #0]
 8000cb4:	2101      	movs	r1, #1
 8000cb6:	691b      	ldr	r3, [r3, #16]
 8000cb8:	4798      	blx	r3
 8000cba:	ea48 0800 	orr.w	r8, r8, r0
 8000cbe:	6be0      	ldr	r0, [r4, #60]	; 0x3c
 8000cc0:	6803      	ldr	r3, [r0, #0]
 8000cc2:	2101      	movs	r1, #1
 8000cc4:	691b      	ldr	r3, [r3, #16]
 8000cc6:	4798      	blx	r3
 8000cc8:	0200      	lsls	r0, r0, #8
 8000cca:	b206      	sxth	r6, r0
 8000ccc:	6be0      	ldr	r0, [r4, #60]	; 0x3c
 8000cce:	6803      	ldr	r3, [r0, #0]
 8000cd0:	2101      	movs	r1, #1
 8000cd2:	691b      	ldr	r3, [r3, #16]
 8000cd4:	4798      	blx	r3
 8000cd6:	4306      	orrs	r6, r0
 8000cd8:	6be0      	ldr	r0, [r4, #60]	; 0x3c
 8000cda:	6803      	ldr	r3, [r0, #0]
 8000cdc:	2101      	movs	r1, #1
 8000cde:	691b      	ldr	r3, [r3, #16]
 8000ce0:	4798      	blx	r3
 8000ce2:	0200      	lsls	r0, r0, #8
 8000ce4:	b205      	sxth	r5, r0
 8000ce6:	6be0      	ldr	r0, [r4, #60]	; 0x3c
 8000ce8:	6803      	ldr	r3, [r0, #0]
 8000cea:	2100      	movs	r1, #0
 8000cec:	691b      	ldr	r3, [r3, #16]
 8000cee:	4798      	blx	r3
 8000cf0:	4305      	orrs	r5, r0
 8000cf2:	6be0      	ldr	r0, [r4, #60]	; 0x3c
 8000cf4:	6803      	ldr	r3, [r0, #0]
 8000cf6:	685b      	ldr	r3, [r3, #4]
 8000cf8:	fa0f f888 	sxth.w	r8, r8
 8000cfc:	b236      	sxth	r6, r6
 8000cfe:	b22d      	sxth	r5, r5
 8000d00:	4798      	blx	r3
 8000d02:	b147      	cbz	r7, 8000d16 <_ZN3IMU4readEb+0xc2>
 8000d04:	6aa3      	ldr	r3, [r4, #40]	; 0x28
 8000d06:	4443      	add	r3, r8
 8000d08:	62a3      	str	r3, [r4, #40]	; 0x28
 8000d0a:	6ae3      	ldr	r3, [r4, #44]	; 0x2c
 8000d0c:	4433      	add	r3, r6
 8000d0e:	62e3      	str	r3, [r4, #44]	; 0x2c
 8000d10:	6b23      	ldr	r3, [r4, #48]	; 0x30
 8000d12:	442b      	add	r3, r5
 8000d14:	6323      	str	r3, [r4, #48]	; 0x30
 8000d16:	6aa3      	ldr	r3, [r4, #40]	; 0x28
 8000d18:	69e1      	ldr	r1, [r4, #28]
 8000d1a:	6b22      	ldr	r2, [r4, #48]	; 0x30
 8000d1c:	6ae0      	ldr	r0, [r4, #44]	; 0x2c
 8000d1e:	eba8 0303 	sub.w	r3, r8, r3
 8000d22:	1aad      	subs	r5, r5, r2
 8000d24:	6123      	str	r3, [r4, #16]
 8000d26:	2219      	movs	r2, #25
 8000d28:	fb93 f3f2 	sdiv	r3, r3, r2
 8000d2c:	eb01 0343 	add.w	r3, r1, r3, lsl #1
 8000d30:	61e3      	str	r3, [r4, #28]
 8000d32:	6a23      	ldr	r3, [r4, #32]
 8000d34:	61a5      	str	r5, [r4, #24]
 8000d36:	1a30      	subs	r0, r6, r0
 8000d38:	6160      	str	r0, [r4, #20]
 8000d3a:	fb90 f0f2 	sdiv	r0, r0, r2
 8000d3e:	eb03 0040 	add.w	r0, r3, r0, lsl #1
 8000d42:	6220      	str	r0, [r4, #32]
 8000d44:	6a63      	ldr	r3, [r4, #36]	; 0x24
 8000d46:	6be0      	ldr	r0, [r4, #60]	; 0x3c
 8000d48:	fb95 f5f2 	sdiv	r5, r5, r2
 8000d4c:	eb03 0545 	add.w	r5, r3, r5, lsl #1
 8000d50:	6803      	ldr	r3, [r0, #0]
 8000d52:	6265      	str	r5, [r4, #36]	; 0x24
 8000d54:	681b      	ldr	r3, [r3, #0]
 8000d56:	4798      	blx	r3
 8000d58:	6be0      	ldr	r0, [r4, #60]	; 0x3c
 8000d5a:	6803      	ldr	r3, [r0, #0]
 8000d5c:	21d4      	movs	r1, #212	; 0xd4
 8000d5e:	68db      	ldr	r3, [r3, #12]
 8000d60:	4798      	blx	r3
 8000d62:	6be0      	ldr	r0, [r4, #60]	; 0x3c
 8000d64:	6803      	ldr	r3, [r0, #0]
 8000d66:	2129      	movs	r1, #41	; 0x29
 8000d68:	68db      	ldr	r3, [r3, #12]
 8000d6a:	4798      	blx	r3
 8000d6c:	6be0      	ldr	r0, [r4, #60]	; 0x3c
 8000d6e:	6803      	ldr	r3, [r0, #0]
 8000d70:	681b      	ldr	r3, [r3, #0]
 8000d72:	4798      	blx	r3
 8000d74:	6be0      	ldr	r0, [r4, #60]	; 0x3c
 8000d76:	6803      	ldr	r3, [r0, #0]
 8000d78:	21d5      	movs	r1, #213	; 0xd5
 8000d7a:	68db      	ldr	r3, [r3, #12]
 8000d7c:	4798      	blx	r3
 8000d7e:	6be0      	ldr	r0, [r4, #60]	; 0x3c
 8000d80:	6803      	ldr	r3, [r0, #0]
 8000d82:	2101      	movs	r1, #1
 8000d84:	691b      	ldr	r3, [r3, #16]
 8000d86:	4798      	blx	r3
 8000d88:	0200      	lsls	r0, r0, #8
 8000d8a:	b207      	sxth	r7, r0
 8000d8c:	6be0      	ldr	r0, [r4, #60]	; 0x3c
 8000d8e:	6803      	ldr	r3, [r0, #0]
 8000d90:	2101      	movs	r1, #1
 8000d92:	691b      	ldr	r3, [r3, #16]
 8000d94:	4798      	blx	r3
 8000d96:	4307      	orrs	r7, r0
 8000d98:	6be0      	ldr	r0, [r4, #60]	; 0x3c
 8000d9a:	6803      	ldr	r3, [r0, #0]
 8000d9c:	2101      	movs	r1, #1
 8000d9e:	691b      	ldr	r3, [r3, #16]
 8000da0:	4798      	blx	r3
 8000da2:	0200      	lsls	r0, r0, #8
 8000da4:	b206      	sxth	r6, r0
 8000da6:	6be0      	ldr	r0, [r4, #60]	; 0x3c
 8000da8:	6803      	ldr	r3, [r0, #0]
 8000daa:	2101      	movs	r1, #1
 8000dac:	691b      	ldr	r3, [r3, #16]
 8000dae:	4798      	blx	r3
 8000db0:	4306      	orrs	r6, r0
 8000db2:	6be0      	ldr	r0, [r4, #60]	; 0x3c
 8000db4:	6803      	ldr	r3, [r0, #0]
 8000db6:	2101      	movs	r1, #1
 8000db8:	691b      	ldr	r3, [r3, #16]
 8000dba:	4798      	blx	r3
 8000dbc:	0200      	lsls	r0, r0, #8
 8000dbe:	b205      	sxth	r5, r0
 8000dc0:	6be0      	ldr	r0, [r4, #60]	; 0x3c
 8000dc2:	6803      	ldr	r3, [r0, #0]
 8000dc4:	2100      	movs	r1, #0
 8000dc6:	691b      	ldr	r3, [r3, #16]
 8000dc8:	4798      	blx	r3
 8000dca:	4305      	orrs	r5, r0
 8000dcc:	6be0      	ldr	r0, [r4, #60]	; 0x3c
 8000dce:	6803      	ldr	r3, [r0, #0]
 8000dd0:	b23f      	sxth	r7, r7
 8000dd2:	b236      	sxth	r6, r6
 8000dd4:	b22d      	sxth	r5, r5
 8000dd6:	685b      	ldr	r3, [r3, #4]
 8000dd8:	4798      	blx	r3
 8000dda:	6067      	str	r7, [r4, #4]
 8000ddc:	60a6      	str	r6, [r4, #8]
 8000dde:	60e5      	str	r5, [r4, #12]
 8000de0:	e8bd 81f0 	ldmia.w	sp!, {r4, r5, r6, r7, r8, pc}

08000de4 <_ZN3IMU4mainEv>:
 8000de4:	2100      	movs	r1, #0
 8000de6:	f7ff bf35 	b.w	8000c54 <_ZN3IMU4readEb>

08000dea <_ZN5UsartC1Ev>:
 8000dea:	4770      	bx	lr

08000dec <_ZN5Usart4initEv>:
 8000dec:	4a21      	ldr	r2, [pc, #132]	; (8000e74 <_ZN5Usart4initEv+0x88>)
 8000dee:	4822      	ldr	r0, [pc, #136]	; (8000e78 <_ZN5Usart4initEv+0x8c>)
 8000df0:	6953      	ldr	r3, [r2, #20]
 8000df2:	f443 037f 	orr.w	r3, r3, #16711680	; 0xff0000
 8000df6:	6153      	str	r3, [r2, #20]
 8000df8:	f04f 4390 	mov.w	r3, #1207959552	; 0x48000000
 8000dfc:	6899      	ldr	r1, [r3, #8]
 8000dfe:	f421 2140 	bic.w	r1, r1, #786432	; 0xc0000
 8000e02:	6099      	str	r1, [r3, #8]
 8000e04:	6899      	ldr	r1, [r3, #8]
 8000e06:	f441 2140 	orr.w	r1, r1, #786432	; 0xc0000
 8000e0a:	6099      	str	r1, [r3, #8]
 8000e0c:	6819      	ldr	r1, [r3, #0]
 8000e0e:	f421 2140 	bic.w	r1, r1, #786432	; 0xc0000
 8000e12:	6019      	str	r1, [r3, #0]
 8000e14:	6819      	ldr	r1, [r3, #0]
 8000e16:	f441 2100 	orr.w	r1, r1, #524288	; 0x80000
 8000e1a:	6019      	str	r1, [r3, #0]
 8000e1c:	6951      	ldr	r1, [r2, #20]
 8000e1e:	f441 017f 	orr.w	r1, r1, #16711680	; 0xff0000
 8000e22:	6151      	str	r1, [r2, #20]
 8000e24:	6899      	ldr	r1, [r3, #8]
 8000e26:	f421 1140 	bic.w	r1, r1, #3145728	; 0x300000
 8000e2a:	6099      	str	r1, [r3, #8]
 8000e2c:	6899      	ldr	r1, [r3, #8]
 8000e2e:	f441 1140 	orr.w	r1, r1, #3145728	; 0x300000
 8000e32:	6099      	str	r1, [r3, #8]
 8000e34:	6819      	ldr	r1, [r3, #0]
 8000e36:	f421 1140 	bic.w	r1, r1, #3145728	; 0x300000
 8000e3a:	6019      	str	r1, [r3, #0]
 8000e3c:	6819      	ldr	r1, [r3, #0]
 8000e3e:	f441 1100 	orr.w	r1, r1, #2097152	; 0x200000
 8000e42:	6019      	str	r1, [r3, #0]
 8000e44:	6a59      	ldr	r1, [r3, #36]	; 0x24
 8000e46:	f021 01f0 	bic.w	r1, r1, #240	; 0xf0
 8000e4a:	6259      	str	r1, [r3, #36]	; 0x24
 8000e4c:	6a59      	ldr	r1, [r3, #36]	; 0x24
 8000e4e:	f041 0170 	orr.w	r1, r1, #112	; 0x70
 8000e52:	6259      	str	r1, [r3, #36]	; 0x24
 8000e54:	6a59      	ldr	r1, [r3, #36]	; 0x24
 8000e56:	f421 6170 	bic.w	r1, r1, #3840	; 0xf00
 8000e5a:	6259      	str	r1, [r3, #36]	; 0x24
 8000e5c:	6a59      	ldr	r1, [r3, #36]	; 0x24
 8000e5e:	f441 61e0 	orr.w	r1, r1, #1792	; 0x700
 8000e62:	6259      	str	r1, [r3, #36]	; 0x24
 8000e64:	6993      	ldr	r3, [r2, #24]
 8000e66:	f443 4380 	orr.w	r3, r3, #16384	; 0x4000
 8000e6a:	6193      	str	r3, [r2, #24]
 8000e6c:	f44f 31e1 	mov.w	r1, #115200	; 0x1c200
 8000e70:	f000 b8be 	b.w	8000ff0 <_Z10usart_initP13USART_TypeDefm>
 8000e74:	40021000 	andmi	r1, r2, r0
 8000e78:	40013800 	andmi	r3, r1, r0, lsl #16

08000e7c <_ZN5UsartD1Ev>:
 8000e7c:	4770      	bx	lr
 8000e7e:	0000      	movs	r0, r0

08000e80 <_ZN5Usart8put_charEc>:
 8000e80:	4b04      	ldr	r3, [pc, #16]	; (8000e94 <_ZN5Usart8put_charEc+0x14>)
 8000e82:	69da      	ldr	r2, [r3, #28]
 8000e84:	0612      	lsls	r2, r2, #24
 8000e86:	d401      	bmi.n	8000e8c <_ZN5Usart8put_charEc+0xc>
 8000e88:	bf00      	nop
 8000e8a:	e7fa      	b.n	8000e82 <_ZN5Usart8put_charEc+0x2>
 8000e8c:	b289      	uxth	r1, r1
 8000e8e:	8519      	strh	r1, [r3, #40]	; 0x28
 8000e90:	4770      	bx	lr
 8000e92:	bf00      	nop
 8000e94:	40013800 	andmi	r3, r1, r0, lsl #16

08000e98 <EXTI9_5_IRQHandler>:
 8000e98:	4b09      	ldr	r3, [pc, #36]	; (8000ec0 <EXTI9_5_IRQHandler+0x28>)
 8000e9a:	8a1b      	ldrh	r3, [r3, #16]
 8000e9c:	f013 03c0 	ands.w	r3, r3, #192	; 0xc0
 8000ea0:	d00b      	beq.n	8000eba <EXTI9_5_IRQHandler+0x22>
 8000ea2:	2bc0      	cmp	r3, #192	; 0xc0
 8000ea4:	bf0c      	ite	eq
 8000ea6:	2301      	moveq	r3, #1
 8000ea8:	f04f 33ff 	movne.w	r3, #4294967295	; 0xffffffff
 8000eac:	4a05      	ldr	r2, [pc, #20]	; (8000ec4 <EXTI9_5_IRQHandler+0x2c>)
 8000eae:	6811      	ldr	r1, [r2, #0]
 8000eb0:	2006      	movs	r0, #6
 8000eb2:	440b      	add	r3, r1
 8000eb4:	6013      	str	r3, [r2, #0]
 8000eb6:	f000 b8ad 	b.w	8001014 <_Z22exti_clear_pending_bitm>
 8000eba:	2301      	movs	r3, #1
 8000ebc:	e7f6      	b.n	8000eac <EXTI9_5_IRQHandler+0x14>
 8000ebe:	bf00      	nop
 8000ec0:	48000800 	stmdami	r0, {fp}
 8000ec4:	200002fc 	strdcs	r0, [r0], -ip

08000ec8 <EXTI15_10_IRQHandler>:
 8000ec8:	4b0a      	ldr	r3, [pc, #40]	; (8000ef4 <EXTI15_10_IRQHandler+0x2c>)
 8000eca:	8a1b      	ldrh	r3, [r3, #16]
 8000ecc:	f413 53c0 	ands.w	r3, r3, #6144	; 0x1800
 8000ed0:	d00c      	beq.n	8000eec <EXTI15_10_IRQHandler+0x24>
 8000ed2:	f5b3 5fc0 	cmp.w	r3, #6144	; 0x1800
 8000ed6:	bf0c      	ite	eq
 8000ed8:	f04f 33ff 	moveq.w	r3, #4294967295	; 0xffffffff
 8000edc:	2301      	movne	r3, #1
 8000ede:	4a06      	ldr	r2, [pc, #24]	; (8000ef8 <EXTI15_10_IRQHandler+0x30>)
 8000ee0:	6811      	ldr	r1, [r2, #0]
 8000ee2:	200c      	movs	r0, #12
 8000ee4:	440b      	add	r3, r1
 8000ee6:	6013      	str	r3, [r2, #0]
 8000ee8:	f000 b894 	b.w	8001014 <_Z22exti_clear_pending_bitm>
 8000eec:	f04f 33ff 	mov.w	r3, #4294967295	; 0xffffffff
 8000ef0:	e7f5      	b.n	8000ede <EXTI15_10_IRQHandler+0x16>
 8000ef2:	bf00      	nop
 8000ef4:	48000800 	stmdami	r0, {fp}
 8000ef8:	20000300 	andcs	r0, r0, r0, lsl #6

08000efc <_Z9nvic_initmmm>:
 8000efc:	4b0e      	ldr	r3, [pc, #56]	; (8000f38 <_Z9nvic_initmmm+0x3c>)
 8000efe:	68db      	ldr	r3, [r3, #12]
 8000f00:	43db      	mvns	r3, r3
 8000f02:	b510      	push	{r4, lr}
 8000f04:	f3c3 2402 	ubfx	r4, r3, #8, #3
 8000f08:	f1c4 0304 	rsb	r3, r4, #4
 8000f0c:	b2db      	uxtb	r3, r3
 8000f0e:	4099      	lsls	r1, r3
 8000f10:	230f      	movs	r3, #15
 8000f12:	4123      	asrs	r3, r4
 8000f14:	4013      	ands	r3, r2
 8000f16:	4a09      	ldr	r2, [pc, #36]	; (8000f3c <_Z9nvic_initmmm+0x40>)
 8000f18:	430b      	orrs	r3, r1
 8000f1a:	011b      	lsls	r3, r3, #4
 8000f1c:	1811      	adds	r1, r2, r0
 8000f1e:	f003 03f0 	and.w	r3, r3, #240	; 0xf0
 8000f22:	f881 3300 	strb.w	r3, [r1, #768]	; 0x300
 8000f26:	0941      	lsrs	r1, r0, #5
 8000f28:	2301      	movs	r3, #1
 8000f2a:	f000 001f 	and.w	r0, r0, #31
 8000f2e:	fa03 f000 	lsl.w	r0, r3, r0
 8000f32:	f842 0021 	str.w	r0, [r2, r1, lsl #2]
 8000f36:	bd10      	pop	{r4, pc}
 8000f38:	e000ed00 	and	lr, r0, r0, lsl #26
 8000f3c:	e000e100 	and	lr, r0, r0, lsl #2

08000f40 <_Z10timer_initP11TIM_TypeDefmmmm>:
 8000f40:	b530      	push	{r4, r5, lr}
 8000f42:	8805      	ldrh	r5, [r0, #0]
 8000f44:	b2ac      	uxth	r4, r5
 8000f46:	4d28      	ldr	r5, [pc, #160]	; (8000fe8 <_Z10timer_initP11TIM_TypeDefmmmm+0xa8>)
 8000f48:	42a8      	cmp	r0, r5
 8000f4a:	d012      	beq.n	8000f72 <_Z10timer_initP11TIM_TypeDefmmmm+0x32>
 8000f4c:	f505 6500 	add.w	r5, r5, #2048	; 0x800
 8000f50:	42a8      	cmp	r0, r5
 8000f52:	d00e      	beq.n	8000f72 <_Z10timer_initP11TIM_TypeDefmmmm+0x32>
 8000f54:	f1b0 4f80 	cmp.w	r0, #1073741824	; 0x40000000
 8000f58:	d00b      	beq.n	8000f72 <_Z10timer_initP11TIM_TypeDefmmmm+0x32>
 8000f5a:	f5a5 3598 	sub.w	r5, r5, #77824	; 0x13000
 8000f5e:	42a8      	cmp	r0, r5
 8000f60:	d007      	beq.n	8000f72 <_Z10timer_initP11TIM_TypeDefmmmm+0x32>
 8000f62:	f505 6580 	add.w	r5, r5, #1024	; 0x400
 8000f66:	42a8      	cmp	r0, r5
 8000f68:	d003      	beq.n	8000f72 <_Z10timer_initP11TIM_TypeDefmmmm+0x32>
 8000f6a:	f505 35a4 	add.w	r5, r5, #83968	; 0x14800
 8000f6e:	42a8      	cmp	r0, r5
 8000f70:	d103      	bne.n	8000f7a <_Z10timer_initP11TIM_TypeDefmmmm+0x3a>
 8000f72:	f024 0470 	bic.w	r4, r4, #112	; 0x70
 8000f76:	430c      	orrs	r4, r1
 8000f78:	b2a4      	uxth	r4, r4
 8000f7a:	491c      	ldr	r1, [pc, #112]	; (8000fec <_Z10timer_initP11TIM_TypeDefmmmm+0xac>)
 8000f7c:	4288      	cmp	r0, r1
 8000f7e:	d008      	beq.n	8000f92 <_Z10timer_initP11TIM_TypeDefmmmm+0x52>
 8000f80:	f501 6180 	add.w	r1, r1, #1024	; 0x400
 8000f84:	4288      	cmp	r0, r1
 8000f86:	bf1f      	itttt	ne
 8000f88:	f424 7440 	bicne.w	r4, r4, #768	; 0x300
 8000f8c:	b2a4      	uxthne	r4, r4
 8000f8e:	4314      	orrne	r4, r2
 8000f90:	b2a4      	uxthne	r4, r4
 8000f92:	8004      	strh	r4, [r0, #0]
 8000f94:	62c3      	str	r3, [r0, #44]	; 0x2c
 8000f96:	f8bd 300c 	ldrh.w	r3, [sp, #12]
 8000f9a:	8503      	strh	r3, [r0, #40]	; 0x28
 8000f9c:	4b12      	ldr	r3, [pc, #72]	; (8000fe8 <_Z10timer_initP11TIM_TypeDefmmmm+0xa8>)
 8000f9e:	4298      	cmp	r0, r3
 8000fa0:	d013      	beq.n	8000fca <_Z10timer_initP11TIM_TypeDefmmmm+0x8a>
 8000fa2:	f503 6300 	add.w	r3, r3, #2048	; 0x800
 8000fa6:	4298      	cmp	r0, r3
 8000fa8:	d00f      	beq.n	8000fca <_Z10timer_initP11TIM_TypeDefmmmm+0x8a>
 8000faa:	f503 6340 	add.w	r3, r3, #3072	; 0xc00
 8000fae:	4298      	cmp	r0, r3
 8000fb0:	d00b      	beq.n	8000fca <_Z10timer_initP11TIM_TypeDefmmmm+0x8a>
 8000fb2:	f503 6380 	add.w	r3, r3, #1024	; 0x400
 8000fb6:	4298      	cmp	r0, r3
 8000fb8:	d007      	beq.n	8000fca <_Z10timer_initP11TIM_TypeDefmmmm+0x8a>
 8000fba:	f503 6380 	add.w	r3, r3, #1024	; 0x400
 8000fbe:	4298      	cmp	r0, r3
 8000fc0:	d003      	beq.n	8000fca <_Z10timer_initP11TIM_TypeDefmmmm+0x8a>
 8000fc2:	f503 6300 	add.w	r3, r3, #2048	; 0x800
 8000fc6:	4298      	cmp	r0, r3
 8000fc8:	d101      	bne.n	8000fce <_Z10timer_initP11TIM_TypeDefmmmm+0x8e>
 8000fca:	2300      	movs	r3, #0
 8000fcc:	8603      	strh	r3, [r0, #48]	; 0x30
 8000fce:	2301      	movs	r3, #1
 8000fd0:	6143      	str	r3, [r0, #20]
 8000fd2:	8803      	ldrh	r3, [r0, #0]
 8000fd4:	b29b      	uxth	r3, r3
 8000fd6:	f043 0301 	orr.w	r3, r3, #1
 8000fda:	8003      	strh	r3, [r0, #0]
 8000fdc:	68c3      	ldr	r3, [r0, #12]
 8000fde:	f043 0301 	orr.w	r3, r3, #1
 8000fe2:	60c3      	str	r3, [r0, #12]
 8000fe4:	bd30      	pop	{r4, r5, pc}
 8000fe6:	bf00      	nop
 8000fe8:	40012c00 	andmi	r2, r1, r0, lsl #24
 8000fec:	40001000 	andmi	r1, r0, r0

08000ff0 <_Z10usart_initP13USART_TypeDefm>:
 8000ff0:	2300      	movs	r3, #0
 8000ff2:	220c      	movs	r2, #12
 8000ff4:	6043      	str	r3, [r0, #4]
 8000ff6:	6002      	str	r2, [r0, #0]
 8000ff8:	6083      	str	r3, [r0, #8]
 8000ffa:	4b05      	ldr	r3, [pc, #20]	; (8001010 <_Z10usart_initP13USART_TypeDefm+0x20>)
 8000ffc:	fbb3 f1f1 	udiv	r1, r3, r1
 8001000:	b289      	uxth	r1, r1
 8001002:	8181      	strh	r1, [r0, #12]
 8001004:	6803      	ldr	r3, [r0, #0]
 8001006:	f043 0301 	orr.w	r3, r3, #1
 800100a:	6003      	str	r3, [r0, #0]
 800100c:	4770      	bx	lr
 800100e:	bf00      	nop
 8001010:	047868c0 	ldrbteq	r6, [r8], #-2240	; 0xfffff740

08001014 <_Z22exti_clear_pending_bitm>:
 8001014:	f020 021f 	bic.w	r2, r0, #31
 8001018:	2301      	movs	r3, #1
 800101a:	f000 001f 	and.w	r0, r0, #31
 800101e:	fa03 f000 	lsl.w	r0, r3, r0
 8001022:	4b01      	ldr	r3, [pc, #4]	; (8001028 <_Z22exti_clear_pending_bitm+0x14>)
 8001024:	50d0      	str	r0, [r2, r3]
 8001026:	4770      	bx	lr
 8001028:	40010414 	andmi	r0, r1, r4, lsl r4

0800102c <__aeabi_atexit>:
 800102c:	e1a03001 	mov	r3, r1
 8001030:	e92d4010 	push	{r4, lr}
 8001034:	e1a01000 	mov	r1, r0
 8001038:	e1a00003 	mov	r0, r3
 800103c:	eb000005 	bl	8001058 <__cxa_atexit>
 8001040:	e8bd4010 	pop	{r4, lr}
 8001044:	e12fff1e 	bx	lr

08001048 <_ZdlPvj>:
 8001048:	e92d4010 	push	{r4, lr}
 800104c:	fbfffe99 	blx	8000aba <_ZdlPv>
 8001050:	e8bd4010 	pop	{r4, lr}
 8001054:	e12fff1e 	bx	lr

08001058 <__cxa_atexit>:
 8001058:	e59fc02c 	ldr	ip, [pc, #44]	; 800108c <__cxa_atexit+0x34>
 800105c:	e35c0000 	cmp	ip, #0
 8001060:	0a000007 	beq	8001084 <__cxa_atexit+0x2c>
 8001064:	e92d4010 	push	{r4, lr}
 8001068:	e1a03002 	mov	r3, r2
 800106c:	e1a02001 	mov	r2, r1
 8001070:	e1a01000 	mov	r1, r0
 8001074:	e3a00002 	mov	r0, #2
 8001078:	eb000004 	bl	8001090 <__register_exitproc>
 800107c:	e8bd4010 	pop	{r4, lr}
 8001080:	e12fff1e 	bx	lr
 8001084:	e1a0000c 	mov	r0, ip
 8001088:	e12fff1e 	bx	lr
 800108c:	08001090 	stmdaeq	r0, {r4, r7, ip}

08001090 <__register_exitproc>:
 8001090:	e92d47f0 	push	{r4, r5, r6, r7, r8, r9, sl, lr}
 8001094:	e59f5124 	ldr	r5, [pc, #292]	; 80011c0 <__register_exitproc+0x130>
 8001098:	e5954000 	ldr	r4, [r5]
 800109c:	e3540000 	cmp	r4, #0
 80010a0:	e1a06000 	mov	r6, r0
 80010a4:	e1a07001 	mov	r7, r1
 80010a8:	e1a09002 	mov	r9, r2
 80010ac:	e1a08003 	mov	r8, r3
 80010b0:	0a00002b 	beq	8001164 <__register_exitproc+0xd4>
 80010b4:	e594c004 	ldr	ip, [r4, #4]
 80010b8:	e35c001f 	cmp	ip, #31
 80010bc:	da000010 	ble	8001104 <__register_exitproc+0x74>
 80010c0:	e59f30fc 	ldr	r3, [pc, #252]	; 80011c4 <__register_exitproc+0x134>
 80010c4:	e3530000 	cmp	r3, #0
 80010c8:	0a00003a 	beq	80011b8 <__register_exitproc+0x128>
 80010cc:	e3a0008c 	mov	r0, #140	; 0x8c
 80010d0:	e1a00000 	nop			; (mov r0, r0)
 80010d4:	e2504000 	subs	r4, r0, #0
 80010d8:	0a000036 	beq	80011b8 <__register_exitproc+0x128>
 80010dc:	e3a03000 	mov	r3, #0
 80010e0:	e5952000 	ldr	r2, [r5]
 80010e4:	e1560003 	cmp	r6, r3
 80010e8:	e884000c 	stm	r4, {r2, r3}
 80010ec:	e5843088 	str	r3, [r4, #136]	; 0x88
 80010f0:	e5854000 	str	r4, [r5]
 80010f4:	1a000024 	bne	800118c <__register_exitproc+0xfc>
 80010f8:	e1a0c006 	mov	ip, r6
 80010fc:	e3a03001 	mov	r3, #1
 8001100:	ea000011 	b	800114c <__register_exitproc+0xbc>
 8001104:	e3560000 	cmp	r6, #0
 8001108:	0a00000e 	beq	8001148 <__register_exitproc+0xb8>
 800110c:	e5940088 	ldr	r0, [r4, #136]	; 0x88
 8001110:	e3500000 	cmp	r0, #0
 8001114:	0a000019 	beq	8001180 <__register_exitproc+0xf0>
 8001118:	e5903100 	ldr	r3, [r0, #256]	; 0x100
 800111c:	e3a0e001 	mov	lr, #1
 8001120:	e1a0ec1e 	lsl	lr, lr, ip
 8001124:	e18e3003 	orr	r3, lr, r3
 8001128:	e080210c 	add	r2, r0, ip, lsl #2
 800112c:	e780910c 	str	r9, [r0, ip, lsl #2]
 8001130:	e5803100 	str	r3, [r0, #256]	; 0x100
 8001134:	e5828080 	str	r8, [r2, #128]	; 0x80
 8001138:	e3560002 	cmp	r6, #2
 800113c:	05903104 	ldreq	r3, [r0, #260]	; 0x104
 8001140:	0183e00e 	orreq	lr, r3, lr
 8001144:	0580e104 	streq	lr, [r0, #260]	; 0x104
 8001148:	e28c3001 	add	r3, ip, #1
 800114c:	e3a00000 	mov	r0, #0
 8001150:	e28cc002 	add	ip, ip, #2
 8001154:	e5843004 	str	r3, [r4, #4]
 8001158:	e784710c 	str	r7, [r4, ip, lsl #2]
 800115c:	e8bd47f0 	pop	{r4, r5, r6, r7, r8, r9, sl, lr}
 8001160:	e12fff1e 	bx	lr
 8001164:	e59f305c 	ldr	r3, [pc, #92]	; 80011c8 <__register_exitproc+0x138>
 8001168:	e3530000 	cmp	r3, #0
 800116c:	e59f4058 	ldr	r4, [pc, #88]	; 80011cc <__register_exitproc+0x13c>
 8001170:	15933000 	ldrne	r3, [r3]
 8001174:	e5854000 	str	r4, [r5]
 8001178:	15843088 	strne	r3, [r4, #136]	; 0x88
 800117c:	eaffffcc 	b	80010b4 <__register_exitproc+0x24>
 8001180:	e59f303c 	ldr	r3, [pc, #60]	; 80011c4 <__register_exitproc+0x134>
 8001184:	e3530000 	cmp	r3, #0
 8001188:	0a00000a 	beq	80011b8 <__register_exitproc+0x128>
 800118c:	e3a00f42 	mov	r0, #264	; 0x108
 8001190:	e1a00000 	nop			; (mov r0, r0)
 8001194:	e3500000 	cmp	r0, #0
 8001198:	0a000006 	beq	80011b8 <__register_exitproc+0x128>
 800119c:	e3a02000 	mov	r2, #0
 80011a0:	e594c004 	ldr	ip, [r4, #4]
 80011a4:	e5802100 	str	r2, [r0, #256]	; 0x100
 80011a8:	e5802104 	str	r2, [r0, #260]	; 0x104
 80011ac:	e1a03002 	mov	r3, r2
 80011b0:	e5840088 	str	r0, [r4, #136]	; 0x88
 80011b4:	eaffffd8 	b	800111c <__register_exitproc+0x8c>
 80011b8:	e3e00000 	mvn	r0, #0
 80011bc:	eaffffe6 	b	800115c <__register_exitproc+0xcc>
 80011c0:	20000498 	mulcs	r0, r8, r4
 80011c4:	00000000 	andeq	r0, r0, r0
 80011c8:	0800124c 	stmdaeq	r0, {r2, r3, r6, r9, ip}
 80011cc:	2000040c 	andcs	r0, r0, ip, lsl #8

080011d0 <_ZTV4TI2CILh1ELh7ELh6ELh10ELh1EE>:
 80011d0:	00000000 	andeq	r0, r0, r0
 80011d4:	00000000 	andeq	r0, r0, r0
 80011d8:	08000879 	stmdaeq	r0, {r0, r3, r4, r5, r6, fp}
 80011dc:	080008bb 	stmdaeq	r0, {r0, r1, r3, r4, r5, r7, fp}
 80011e0:	08000455 	stmdaeq	r0, {r0, r2, r4, r6, sl}
 80011e4:	080008fd 	stmdaeq	r0, {r0, r2, r3, r4, r5, r6, r7, fp}
 80011e8:	08000985 	stmdaeq	r0, {r0, r2, r7, r8, fp}
 80011ec:	08000419 	stmdaeq	r0, {r0, r3, r4, sl}
 80011f0:	0800046f 	stmdaeq	r0, {r0, r1, r2, r3, r5, r6, sl}
 80011f4:	080004b7 	stmdaeq	r0, {r0, r1, r2, r4, r5, r7, sl}
 80011f8:	080004fd 	stmdaeq	r0, {r0, r2, r3, r4, r5, r6, r7, sl}
 80011fc:	0800054b 	stmdaeq	r0, {r0, r1, r3, r6, r8, sl}
 8001200:	080005a5 	stmdaeq	r0, {r0, r2, r5, r7, r8, sl}
 8001204:	000a0a0a 	andeq	r0, sl, sl, lsl #20
 8001208:	656d6974 	strbvs	r6, [sp, #-2420]!	; 0xfffff68c
 800120c:	6e692072 	mcrvs	0, 3, r2, cr9, cr2, {3}
 8001210:	64207469 	strtvs	r7, [r0], #-1129	; 0xfffffb97
 8001214:	0a656e6f 	beq	995cbd8 <__log_flash_address__+0x1940bd8>
 8001218:	6c656400 	cfstrdvs	mvd6, [r5], #-0
 800121c:	31207961 			; <UNDEFINED> instruction: 0x31207961
 8001220:	20303030 	eorscs	r3, r0, r0, lsr r0
 8001224:	0020736d 	eoreq	r7, r0, sp, ror #6
 8001228:	20633269 	rsbcs	r3, r3, r9, ror #4
 800122c:	74696e69 	strbtvc	r6, [r9], #-3689	; 0xfffff197
 8001230:	6e6f6420 	cdpvs	4, 6, cr6, cr15, cr0, {1}
 8001234:	00000a65 	andeq	r0, r0, r5, ror #20

08001238 <_ZTV3IMU>:
 8001238:	00000000 	andeq	r0, r0, r0
 800123c:	00000000 	andeq	r0, r0, r0
 8001240:	08000c37 	stmdaeq	r0, {r0, r1, r2, r4, r5, sl, fp}
 8001244:	08000c39 	stmdaeq	r0, {r0, r3, r4, r5, sl, fp}
 8001248:	08000de5 	stmdaeq	r0, {r0, r2, r5, r6, r7, r8, sl, fp}

0800124c <__on_exit_args>:
 800124c:	20000304 	andcs	r0, r0, r4, lsl #6

Disassembly of section .init:

08001250 <_init>:
 8001250:	e1a0c00d 	mov	ip, sp
 8001254:	e92ddff8 	push	{r3, r4, r5, r6, r7, r8, r9, sl, fp, ip, lr, pc}
 8001258:	e24cb004 	sub	fp, ip, #4

Disassembly of section .fini:

0800125c <_fini>:
 800125c:	e1a0c00d 	mov	ip, sp
 8001260:	e92ddff8 	push	{r3, r4, r5, r6, r7, r8, r9, sl, fp, ip, lr, pc}
 8001264:	e24cb004 	sub	fp, ip, #4

Disassembly of section .data:

20000000 <__data_start__>:
20000000:	00000000 	andeq	r0, r0, r0

Disassembly of section .bss:

20000004 <__bss_start__>:
20000004:	00000000 	andeq	r0, r0, r0

20000008 <object.6562>:
20000008:	00000000 	andeq	r0, r0, r0
2000000c:	00000000 	andeq	r0, r0, r0
20000010:	00000000 	andeq	r0, r0, r0
20000014:	00000000 	andeq	r0, r0, r0
20000018:	00000000 	andeq	r0, r0, r0
2000001c:	00000000 	andeq	r0, r0, r0

20000020 <i2c>:
20000020:	00000000 	andeq	r0, r0, r0
20000024:	00000000 	andeq	r0, r0, r0
20000028:	00000000 	andeq	r0, r0, r0

2000002c <imu>:
2000002c:	00000000 	andeq	r0, r0, r0
20000030:	00000000 	andeq	r0, r0, r0
20000034:	00000000 	andeq	r0, r0, r0
20000038:	00000000 	andeq	r0, r0, r0
2000003c:	00000000 	andeq	r0, r0, r0
20000040:	00000000 	andeq	r0, r0, r0
20000044:	00000000 	andeq	r0, r0, r0
20000048:	00000000 	andeq	r0, r0, r0
2000004c:	00000000 	andeq	r0, r0, r0
20000050:	00000000 	andeq	r0, r0, r0
20000054:	00000000 	andeq	r0, r0, r0
20000058:	00000000 	andeq	r0, r0, r0
2000005c:	00000000 	andeq	r0, r0, r0
20000060:	00000000 	andeq	r0, r0, r0
20000064:	00000000 	andeq	r0, r0, r0
20000068:	00000000 	andeq	r0, r0, r0

2000006c <terminal>:
2000006c:	00000000 	andeq	r0, r0, r0

20000070 <timer>:
20000070:	00000000 	andeq	r0, r0, r0

20000074 <mem>:
20000074:	00000000 	andeq	r0, r0, r0

20000078 <g_time>:
20000078:	00000000 	andeq	r0, r0, r0

2000007c <g_timers>:
2000007c:	00000000 	andeq	r0, r0, r0
20000080:	00000000 	andeq	r0, r0, r0
20000084:	00000000 	andeq	r0, r0, r0
20000088:	00000000 	andeq	r0, r0, r0
2000008c:	00000000 	andeq	r0, r0, r0
20000090:	00000000 	andeq	r0, r0, r0
20000094:	00000000 	andeq	r0, r0, r0
20000098:	00000000 	andeq	r0, r0, r0
2000009c:	00000000 	andeq	r0, r0, r0
200000a0:	00000000 	andeq	r0, r0, r0
200000a4:	00000000 	andeq	r0, r0, r0
200000a8:	00000000 	andeq	r0, r0, r0
200000ac:	00000000 	andeq	r0, r0, r0
200000b0:	00000000 	andeq	r0, r0, r0
200000b4:	00000000 	andeq	r0, r0, r0
200000b8:	00000000 	andeq	r0, r0, r0
200000bc:	00000000 	andeq	r0, r0, r0
200000c0:	00000000 	andeq	r0, r0, r0
200000c4:	00000000 	andeq	r0, r0, r0
200000c8:	00000000 	andeq	r0, r0, r0
200000cc:	00000000 	andeq	r0, r0, r0
200000d0:	00000000 	andeq	r0, r0, r0
200000d4:	00000000 	andeq	r0, r0, r0
200000d8:	00000000 	andeq	r0, r0, r0
200000dc:	00000000 	andeq	r0, r0, r0
200000e0:	00000000 	andeq	r0, r0, r0
200000e4:	00000000 	andeq	r0, r0, r0
200000e8:	00000000 	andeq	r0, r0, r0
200000ec:	00000000 	andeq	r0, r0, r0
200000f0:	00000000 	andeq	r0, r0, r0
200000f4:	00000000 	andeq	r0, r0, r0
200000f8:	00000000 	andeq	r0, r0, r0
200000fc:	00000000 	andeq	r0, r0, r0
20000100:	00000000 	andeq	r0, r0, r0
20000104:	00000000 	andeq	r0, r0, r0
20000108:	00000000 	andeq	r0, r0, r0
2000010c:	00000000 	andeq	r0, r0, r0
20000110:	00000000 	andeq	r0, r0, r0
20000114:	00000000 	andeq	r0, r0, r0
20000118:	00000000 	andeq	r0, r0, r0
2000011c:	00000000 	andeq	r0, r0, r0
20000120:	00000000 	andeq	r0, r0, r0
20000124:	00000000 	andeq	r0, r0, r0
20000128:	00000000 	andeq	r0, r0, r0
2000012c:	00000000 	andeq	r0, r0, r0
20000130:	00000000 	andeq	r0, r0, r0
20000134:	00000000 	andeq	r0, r0, r0
20000138:	00000000 	andeq	r0, r0, r0
2000013c:	00000000 	andeq	r0, r0, r0
20000140:	00000000 	andeq	r0, r0, r0
20000144:	00000000 	andeq	r0, r0, r0
20000148:	00000000 	andeq	r0, r0, r0
2000014c:	00000000 	andeq	r0, r0, r0
20000150:	00000000 	andeq	r0, r0, r0
20000154:	00000000 	andeq	r0, r0, r0
20000158:	00000000 	andeq	r0, r0, r0
2000015c:	00000000 	andeq	r0, r0, r0
20000160:	00000000 	andeq	r0, r0, r0
20000164:	00000000 	andeq	r0, r0, r0
20000168:	00000000 	andeq	r0, r0, r0
2000016c:	00000000 	andeq	r0, r0, r0
20000170:	00000000 	andeq	r0, r0, r0
20000174:	00000000 	andeq	r0, r0, r0
20000178:	00000000 	andeq	r0, r0, r0
2000017c:	00000000 	andeq	r0, r0, r0
20000180:	00000000 	andeq	r0, r0, r0
20000184:	00000000 	andeq	r0, r0, r0
20000188:	00000000 	andeq	r0, r0, r0
2000018c:	00000000 	andeq	r0, r0, r0
20000190:	00000000 	andeq	r0, r0, r0
20000194:	00000000 	andeq	r0, r0, r0
20000198:	00000000 	andeq	r0, r0, r0
2000019c:	00000000 	andeq	r0, r0, r0
200001a0:	00000000 	andeq	r0, r0, r0
200001a4:	00000000 	andeq	r0, r0, r0
200001a8:	00000000 	andeq	r0, r0, r0
200001ac:	00000000 	andeq	r0, r0, r0
200001b0:	00000000 	andeq	r0, r0, r0
200001b4:	00000000 	andeq	r0, r0, r0
200001b8:	00000000 	andeq	r0, r0, r0
200001bc:	00000000 	andeq	r0, r0, r0
200001c0:	00000000 	andeq	r0, r0, r0
200001c4:	00000000 	andeq	r0, r0, r0
200001c8:	00000000 	andeq	r0, r0, r0
200001cc:	00000000 	andeq	r0, r0, r0
200001d0:	00000000 	andeq	r0, r0, r0
200001d4:	00000000 	andeq	r0, r0, r0
200001d8:	00000000 	andeq	r0, r0, r0
200001dc:	00000000 	andeq	r0, r0, r0
200001e0:	00000000 	andeq	r0, r0, r0
200001e4:	00000000 	andeq	r0, r0, r0
200001e8:	00000000 	andeq	r0, r0, r0
200001ec:	00000000 	andeq	r0, r0, r0
200001f0:	00000000 	andeq	r0, r0, r0
200001f4:	00000000 	andeq	r0, r0, r0
200001f8:	00000000 	andeq	r0, r0, r0
200001fc:	00000000 	andeq	r0, r0, r0
20000200:	00000000 	andeq	r0, r0, r0
20000204:	00000000 	andeq	r0, r0, r0
20000208:	00000000 	andeq	r0, r0, r0
2000020c:	00000000 	andeq	r0, r0, r0
20000210:	00000000 	andeq	r0, r0, r0
20000214:	00000000 	andeq	r0, r0, r0
20000218:	00000000 	andeq	r0, r0, r0
2000021c:	00000000 	andeq	r0, r0, r0
20000220:	00000000 	andeq	r0, r0, r0
20000224:	00000000 	andeq	r0, r0, r0
20000228:	00000000 	andeq	r0, r0, r0
2000022c:	00000000 	andeq	r0, r0, r0
20000230:	00000000 	andeq	r0, r0, r0
20000234:	00000000 	andeq	r0, r0, r0
20000238:	00000000 	andeq	r0, r0, r0
2000023c:	00000000 	andeq	r0, r0, r0
20000240:	00000000 	andeq	r0, r0, r0
20000244:	00000000 	andeq	r0, r0, r0
20000248:	00000000 	andeq	r0, r0, r0
2000024c:	00000000 	andeq	r0, r0, r0
20000250:	00000000 	andeq	r0, r0, r0
20000254:	00000000 	andeq	r0, r0, r0
20000258:	00000000 	andeq	r0, r0, r0
2000025c:	00000000 	andeq	r0, r0, r0
20000260:	00000000 	andeq	r0, r0, r0
20000264:	00000000 	andeq	r0, r0, r0
20000268:	00000000 	andeq	r0, r0, r0
2000026c:	00000000 	andeq	r0, r0, r0
20000270:	00000000 	andeq	r0, r0, r0
20000274:	00000000 	andeq	r0, r0, r0
20000278:	00000000 	andeq	r0, r0, r0
2000027c:	00000000 	andeq	r0, r0, r0
20000280:	00000000 	andeq	r0, r0, r0
20000284:	00000000 	andeq	r0, r0, r0
20000288:	00000000 	andeq	r0, r0, r0
2000028c:	00000000 	andeq	r0, r0, r0
20000290:	00000000 	andeq	r0, r0, r0
20000294:	00000000 	andeq	r0, r0, r0
20000298:	00000000 	andeq	r0, r0, r0
2000029c:	00000000 	andeq	r0, r0, r0
200002a0:	00000000 	andeq	r0, r0, r0
200002a4:	00000000 	andeq	r0, r0, r0
200002a8:	00000000 	andeq	r0, r0, r0
200002ac:	00000000 	andeq	r0, r0, r0
200002b0:	00000000 	andeq	r0, r0, r0
200002b4:	00000000 	andeq	r0, r0, r0
200002b8:	00000000 	andeq	r0, r0, r0
200002bc:	00000000 	andeq	r0, r0, r0
200002c0:	00000000 	andeq	r0, r0, r0
200002c4:	00000000 	andeq	r0, r0, r0
200002c8:	00000000 	andeq	r0, r0, r0
200002cc:	00000000 	andeq	r0, r0, r0
200002d0:	00000000 	andeq	r0, r0, r0
200002d4:	00000000 	andeq	r0, r0, r0
200002d8:	00000000 	andeq	r0, r0, r0
200002dc:	00000000 	andeq	r0, r0, r0
200002e0:	00000000 	andeq	r0, r0, r0
200002e4:	00000000 	andeq	r0, r0, r0
200002e8:	00000000 	andeq	r0, r0, r0
200002ec:	00000000 	andeq	r0, r0, r0
200002f0:	00000000 	andeq	r0, r0, r0
200002f4:	00000000 	andeq	r0, r0, r0
200002f8:	00000000 	andeq	r0, r0, r0

200002fc <g_left_encoder>:
200002fc:	00000000 	andeq	r0, r0, r0

20000300 <g_right_encoder>:
20000300:	00000000 	andeq	r0, r0, r0

20000304 <_on_exit_args_instance>:
20000304:	00000000 	andeq	r0, r0, r0
20000308:	00000000 	andeq	r0, r0, r0
2000030c:	00000000 	andeq	r0, r0, r0
20000310:	00000000 	andeq	r0, r0, r0
20000314:	00000000 	andeq	r0, r0, r0
20000318:	00000000 	andeq	r0, r0, r0
2000031c:	00000000 	andeq	r0, r0, r0
20000320:	00000000 	andeq	r0, r0, r0
20000324:	00000000 	andeq	r0, r0, r0
20000328:	00000000 	andeq	r0, r0, r0
2000032c:	00000000 	andeq	r0, r0, r0
20000330:	00000000 	andeq	r0, r0, r0
20000334:	00000000 	andeq	r0, r0, r0
20000338:	00000000 	andeq	r0, r0, r0
2000033c:	00000000 	andeq	r0, r0, r0
20000340:	00000000 	andeq	r0, r0, r0
20000344:	00000000 	andeq	r0, r0, r0
20000348:	00000000 	andeq	r0, r0, r0
2000034c:	00000000 	andeq	r0, r0, r0
20000350:	00000000 	andeq	r0, r0, r0
20000354:	00000000 	andeq	r0, r0, r0
20000358:	00000000 	andeq	r0, r0, r0
2000035c:	00000000 	andeq	r0, r0, r0
20000360:	00000000 	andeq	r0, r0, r0
20000364:	00000000 	andeq	r0, r0, r0
20000368:	00000000 	andeq	r0, r0, r0
2000036c:	00000000 	andeq	r0, r0, r0
20000370:	00000000 	andeq	r0, r0, r0
20000374:	00000000 	andeq	r0, r0, r0
20000378:	00000000 	andeq	r0, r0, r0
2000037c:	00000000 	andeq	r0, r0, r0
20000380:	00000000 	andeq	r0, r0, r0
20000384:	00000000 	andeq	r0, r0, r0
20000388:	00000000 	andeq	r0, r0, r0
2000038c:	00000000 	andeq	r0, r0, r0
20000390:	00000000 	andeq	r0, r0, r0
20000394:	00000000 	andeq	r0, r0, r0
20000398:	00000000 	andeq	r0, r0, r0
2000039c:	00000000 	andeq	r0, r0, r0
200003a0:	00000000 	andeq	r0, r0, r0
200003a4:	00000000 	andeq	r0, r0, r0
200003a8:	00000000 	andeq	r0, r0, r0
200003ac:	00000000 	andeq	r0, r0, r0
200003b0:	00000000 	andeq	r0, r0, r0
200003b4:	00000000 	andeq	r0, r0, r0
200003b8:	00000000 	andeq	r0, r0, r0
200003bc:	00000000 	andeq	r0, r0, r0
200003c0:	00000000 	andeq	r0, r0, r0
200003c4:	00000000 	andeq	r0, r0, r0
200003c8:	00000000 	andeq	r0, r0, r0
200003cc:	00000000 	andeq	r0, r0, r0
200003d0:	00000000 	andeq	r0, r0, r0
200003d4:	00000000 	andeq	r0, r0, r0
200003d8:	00000000 	andeq	r0, r0, r0
200003dc:	00000000 	andeq	r0, r0, r0
200003e0:	00000000 	andeq	r0, r0, r0
200003e4:	00000000 	andeq	r0, r0, r0
200003e8:	00000000 	andeq	r0, r0, r0
200003ec:	00000000 	andeq	r0, r0, r0
200003f0:	00000000 	andeq	r0, r0, r0
200003f4:	00000000 	andeq	r0, r0, r0
200003f8:	00000000 	andeq	r0, r0, r0
200003fc:	00000000 	andeq	r0, r0, r0
20000400:	00000000 	andeq	r0, r0, r0
20000404:	00000000 	andeq	r0, r0, r0
20000408:	00000000 	andeq	r0, r0, r0

2000040c <_global_atexit0>:
2000040c:	00000000 	andeq	r0, r0, r0
20000410:	00000000 	andeq	r0, r0, r0
20000414:	00000000 	andeq	r0, r0, r0
20000418:	00000000 	andeq	r0, r0, r0
2000041c:	00000000 	andeq	r0, r0, r0
20000420:	00000000 	andeq	r0, r0, r0
20000424:	00000000 	andeq	r0, r0, r0
20000428:	00000000 	andeq	r0, r0, r0
2000042c:	00000000 	andeq	r0, r0, r0
20000430:	00000000 	andeq	r0, r0, r0
20000434:	00000000 	andeq	r0, r0, r0
20000438:	00000000 	andeq	r0, r0, r0
2000043c:	00000000 	andeq	r0, r0, r0
20000440:	00000000 	andeq	r0, r0, r0
20000444:	00000000 	andeq	r0, r0, r0
20000448:	00000000 	andeq	r0, r0, r0
2000044c:	00000000 	andeq	r0, r0, r0
20000450:	00000000 	andeq	r0, r0, r0
20000454:	00000000 	andeq	r0, r0, r0
20000458:	00000000 	andeq	r0, r0, r0
2000045c:	00000000 	andeq	r0, r0, r0
20000460:	00000000 	andeq	r0, r0, r0
20000464:	00000000 	andeq	r0, r0, r0
20000468:	00000000 	andeq	r0, r0, r0
2000046c:	00000000 	andeq	r0, r0, r0
20000470:	00000000 	andeq	r0, r0, r0
20000474:	00000000 	andeq	r0, r0, r0
20000478:	00000000 	andeq	r0, r0, r0
2000047c:	00000000 	andeq	r0, r0, r0
20000480:	00000000 	andeq	r0, r0, r0
20000484:	00000000 	andeq	r0, r0, r0
20000488:	00000000 	andeq	r0, r0, r0
2000048c:	00000000 	andeq	r0, r0, r0
20000490:	00000000 	andeq	r0, r0, r0
20000494:	00000000 	andeq	r0, r0, r0

20000498 <_global_atexit>:
20000498:	00000000 	andeq	r0, r0, r0

Disassembly of section .ARM.attributes:

00000000 <.ARM.attributes>:
   0:	00003241 	andeq	r3, r0, r1, asr #4
   4:	61656100 	cmnvs	r5, r0, lsl #2
   8:	01006962 	tsteq	r0, r2, ror #18
   c:	00000028 	andeq	r0, r0, r8, lsr #32
  10:	726f4305 	rsbvc	r4, pc, #335544320	; 0x14000000
  14:	2d786574 	cfldr64cs	mvdx6, [r8, #-464]!	; 0xfffffe30
  18:	0600344d 	streq	r3, [r0], -sp, asr #8
  1c:	084d070d 	stmdaeq	sp, {r0, r2, r3, r8, r9, sl}^
  20:	0a020901 	beq	8242c <__ram_size__+0x7a42c>
  24:	14041202 	strne	r1, [r4], #-514	; 0xfffffdfe
  28:	17011501 	strne	r1, [r1, -r1, lsl #10]
  2c:	1a011803 	bne	46040 <__ram_size__+0x3e040>
  30:	Address 0x0000000000000030 is out of bounds.


Disassembly of section .comment:

00000000 <.comment>:
   0:	3a434347 	bcc	10d0d24 <__ram_size__+0x10c8d24>
   4:	35312820 	ldrcc	r2, [r1, #-2080]!	; 0xfffff7e0
   8:	332e363a 			; <UNDEFINED> instruction: 0x332e363a
   c:	732b312e 			; <UNDEFINED> instruction: 0x732b312e
  10:	35326e76 	ldrcc	r6, [r2, #-3702]!	; 0xfffff18a
  14:	39333033 	ldmdbcc	r3!, {r0, r1, r4, r5, ip, sp}
  18:	7562312d 	strbvc	r3, [r2, #-301]!	; 0xfffffed3
  1c:	31646c69 	cmncc	r4, r9, ror #24
  20:	2e362029 	cdpcs	0, 3, cr2, cr6, cr9, {1}
  24:	20312e33 	eorscs	r2, r1, r3, lsr lr
  28:	37313032 			; <UNDEFINED> instruction: 0x37313032
  2c:	30323630 	eorscc	r3, r2, r0, lsr r6
  30:	43434700 	movtmi	r4, #14080	; 0x3700
  34:	3128203a 			; <UNDEFINED> instruction: 0x3128203a
  38:	2e363a35 			; <UNDEFINED> instruction: 0x2e363a35
  3c:	2b312e33 	blcs	c4b910 <__ram_size__+0xc43910>
  40:	326e7673 	rsbcc	r7, lr, #120586240	; 0x7300000
  44:	33303335 	teqcc	r0, #-738197504	; 0xd4000000
  48:	29312d39 	ldmdbcs	r1!, {r0, r3, r4, r5, r8, sl, fp, sp}
  4c:	332e3620 			; <UNDEFINED> instruction: 0x332e3620
  50:	3220312e 	eorcc	r3, r0, #-2147483637	; 0x8000000b
  54:	30373130 	eorscc	r3, r7, r0, lsr r1
  58:	00303236 	eorseq	r3, r0, r6, lsr r2
  5c:	3a434347 	bcc	10d0d80 <__ram_size__+0x10c8d80>
  60:	35312820 	ldrcc	r2, [r1, #-2080]!	; 0xfffff7e0
  64:	342e353a 	strtcc	r3, [lr], #-1338	; 0xfffffac6
  68:	732b312e 			; <UNDEFINED> instruction: 0x732b312e
  6c:	34326e76 	ldrtcc	r6, [r2], #-3702	; 0xfffff18a
  70:	35353131 	ldrcc	r3, [r5, #-305]!	; 0xfffffecf
  74:	2029312d 	eorcs	r3, r9, sp, lsr #2
  78:	2e342e35 	mrccs	14, 1, r2, cr4, cr5, {1}
  7c:	30322031 	eorscc	r2, r2, r1, lsr r0
  80:	39303631 	ldmdbcc	r0!, {r0, r4, r5, r9, sl, ip, sp}
  84:	Address 0x0000000000000084 is out of bounds.


Disassembly of section .debug_info:

00000000 <.debug_info>:
   0:	00000145 	andeq	r0, r0, r5, asr #2
   4:	00000004 	andeq	r0, r0, r4
   8:	01040000 	mrseq	r0, (UNDEF: 4)
   c:	00000126 	andeq	r0, r0, r6, lsr #2
  10:	00007304 	andeq	r7, r0, r4, lsl #6
  14:	0000c600 	andeq	ip, r0, r0, lsl #12
  18:	00000000 	andeq	r0, r0, r0
  1c:	00000000 	andeq	r0, r0, r0
  20:	00000000 	andeq	r0, r0, r0
  24:	05040200 	streq	r0, [r4, #-512]	; 0xfffffe00
  28:	00746e69 	rsbseq	r6, r4, r9, ror #28
  2c:	a5070403 	strge	r0, [r7, #-1027]	; 0xfffffbfd
  30:	03000003 	movweq	r0, #3
  34:	00a50508 	adceq	r0, r5, r8, lsl #10
  38:	08030000 	stmdaeq	r3, {}	; <UNPREDICTABLE>
  3c:	0000ba04 	andeq	fp, r0, r4, lsl #20
  40:	00240400 	eoreq	r0, r4, r0, lsl #8
  44:	73050000 	movwvc	r0, #20480	; 0x5000
  48:	03006474 	movweq	r6, #1140	; 0x474
  4c:	00006000 	andeq	r6, r0, r0
  50:	00050600 	andeq	r0, r5, r0, lsl #12
  54:	df020000 	svcle	0x00020000
  58:	51df0207 	bicspl	r0, pc, r7, lsl #4
  5c:	00000000 	andeq	r0, r0, r0
  60:	00001a08 	andeq	r1, r0, r8, lsl #20
  64:	7ae10200 	bvc	ff84086c <_estack+0xdf83886c>
  68:	06000000 	streq	r0, [r0], -r0
  6c:	00000005 	andeq	r0, r0, r5
  70:	0207e302 	andeq	lr, r7, #134217728	; 0x8000000
  74:	00006be3 	andeq	r6, r0, r3, ror #23
  78:	44080000 	strmi	r0, [r8], #-0
  7c:	03000000 	movweq	r0, #0
  80:	00009100 	andeq	r9, r0, r0, lsl #2
  84:	000d0900 	andeq	r0, sp, r0, lsl #18
  88:	000d0000 	andeq	r0, sp, r0
  8c:	83040000 	movwhi	r0, #16384	; 0x4000
  90:	08010300 	stmdaeq	r1, {r8, r9}
  94:	00000036 	andeq	r0, r0, r6, lsr r0
  98:	aa050403 	bge	1410ac <__ram_size__+0x1390ac>
  9c:	03000000 	movweq	r0, #0
  a0:	00000201 	andeq	r0, r0, r1, lsl #4
  a4:	610a0000 	mrsvs	r0, (UNDEF: 10)
  a8:	04006962 	streq	r6, [r0], #-2402	; 0xfffff69e
  ac:	007a02ac 	rsbseq	r0, sl, ip, lsr #5
  b0:	69080000 	stmdbvs	r8, {}	; <UNPREDICTABLE>
  b4:	01000000 	mrseq	r0, (UNDEF: 0)
  b8:	0000d91c 	andeq	sp, r0, ip, lsl r9
  bc:	004f0b00 	subeq	r0, pc, r0, lsl #22
  c0:	1f010000 	svcne	0x00010000
  c4:	00000025 	andeq	r0, r0, r5, lsr #32
  c8:	0000d90c 	andeq	sp, r0, ip, lsl #18
  cc:	00db0c00 	sbcseq	r0, fp, r0, lsl #24
  d0:	d90c0000 	stmdble	ip, {}	; <UNPREDICTABLE>
  d4:	00000000 	andeq	r0, r0, r0
  d8:	0e040d00 	cdpeq	13, 0, cr0, cr4, cr0, {0}
  dc:	0000e104 	andeq	lr, r0, r4, lsl #2
  e0:	00ec0f00 	rsceq	r0, ip, r0, lsl #30
  e4:	d90c0000 	stmdble	ip, {}	; <UNPREDICTABLE>
  e8:	00000000 	andeq	r0, r0, r0
  ec:	0000bd10 	andeq	fp, r0, r0, lsl sp
  f0:	00102c00 	andseq	r2, r0, r0, lsl #24
  f4:	00001c08 	andeq	r1, r0, r8, lsl #24
  f8:	119c0100 	orrsne	r0, ip, r0, lsl #2
  fc:	000000b3 	strheq	r0, [r0], -r3
 100:	00d91f01 	sbcseq	r1, r9, r1, lsl #30
 104:	00000000 	andeq	r0, r0, r0
 108:	5e110000 	cdppl	0, 1, cr0, cr1, cr0, {0}
 10c:	01000000 	mrseq	r0, (UNDEF: 0)
 110:	0000db20 	andeq	sp, r0, r0, lsr #22
 114:	00002c00 	andeq	r2, r0, r0, lsl #24
 118:	03461100 	movteq	r1, #24832	; 0x6100
 11c:	21010000 	mrscs	r0, (UNDEF: 1)
 120:	000000d9 	ldrdeq	r0, [r0], -r9
 124:	00000058 	andeq	r0, r0, r8, asr r0
 128:	00104012 	andseq	r4, r0, r2, lsl r0
 12c:	00008508 	andeq	r8, r0, r8, lsl #10
 130:	50011300 	andpl	r1, r1, r0, lsl #6
 134:	5101f303 	tstpl	r1, r3, lsl #6	; <UNPREDICTABLE>
 138:	03510113 	cmpeq	r1, #-1073741820	; 0xc0000004
 13c:	135001f3 	cmpne	r0, #-1073741764	; 0xc000003c
 140:	f3035201 	vhsub.u8	d5, d3, d1
 144:	00005201 	andeq	r5, r0, r1, lsl #4
 148:	0000fa00 	andeq	pc, r0, r0, lsl #20
 14c:	e4000400 	str	r0, [r0], #-1024	; 0xfffffc00
 150:	04000000 	streq	r0, [r0], #-0
 154:	00022801 	andeq	r2, r2, r1, lsl #16
 158:	01f90400 	mvnseq	r0, r0, lsl #8
 15c:	00c60000 	sbceq	r0, r6, r0
 160:	00100000 	andseq	r0, r0, r0
 164:	00000000 	andeq	r0, r0, r0
 168:	01590000 	cmpeq	r9, r0
 16c:	73020000 	movwvc	r0, #8192	; 0x2000
 170:	03006474 	movweq	r6, #1140	; 0x474
 174:	00008400 	andeq	r8, r0, r0, lsl #8
 178:	00050300 	andeq	r0, r5, r0, lsl #6
 17c:	df020000 	svcle	0x00020000
 180:	30df0204 	sbcscc	r0, pc, r4, lsl #4
 184:	05000000 	streq	r0, [r0, #-0]
 188:	000001d7 	ldrdeq	r0, [r0], -r7
 18c:	64520401 	ldrbvs	r0, [r2], #-1025	; 0xfffffbff
 190:	06000000 	streq	r0, [r0], -r0
 194:	000001d7 	ldrdeq	r0, [r0], -r7
 198:	01bc5504 			; <UNDEFINED> instruction: 0x01bc5504
 19c:	009e0000 	addseq	r0, lr, r0
 1a0:	005d0000 	subseq	r0, sp, r0
 1a4:	9e070000 	cdpls	0, 0, cr0, cr7, cr0, {0}
 1a8:	00000000 	andeq	r0, r0, r0
 1ac:	003e0800 	eorseq	r0, lr, r0, lsl #16
 1b0:	d4090000 	strle	r0, [r9], #-0
 1b4:	04000002 	streq	r0, [r0], #-2
 1b8:	0002cf59 	andeq	ip, r2, r9, asr pc
 1bc:	00006400 	andeq	r6, r0, r0, lsl #8
 1c0:	01d00a00 	bicseq	r0, r0, r0, lsl #20
 1c4:	c9020000 	stmdbgt	r2, {}	; <UNPREDICTABLE>
 1c8:	000000e7 	andeq	r0, r0, r7, ror #1
 1cc:	001a0b00 	andseq	r0, sl, r0, lsl #22
 1d0:	e1020000 	mrs	r0, (UNDEF: 2)
 1d4:	0000009e 	muleq	r0, lr, r0
 1d8:	00000503 	andeq	r0, r0, r3, lsl #10
 1dc:	04e30200 	strbteq	r0, [r3], #512	; 0x200
 1e0:	008fe302 	addeq	lr, pc, r2, lsl #6
 1e4:	0c000000 	stceq	0, cr0, [r0], {-0}
 1e8:	00003e04 	andeq	r3, r0, r4, lsl #28
 1ec:	01e10d00 	mvneq	r0, r0, lsl #26
 1f0:	1e010000 	cdpne	0, 0, cr0, cr1, cr0, {0}
 1f4:	000001f1 	strdeq	r0, [r0], -r1
 1f8:	08001048 	stmdaeq	r0, {r3, r6, ip}
 1fc:	00000010 	andeq	r0, r0, r0, lsl r0
 200:	00e59c01 	rsceq	r9, r5, r1, lsl #24
 204:	700e0000 	andvc	r0, lr, r0
 208:	01007274 	tsteq	r0, r4, ror r2
 20c:	0000e51e 	andeq	lr, r0, lr, lsl r5
 210:	00007900 	andeq	r7, r0, r0, lsl #18
 214:	00780f00 	rsbseq	r0, r8, r0, lsl #30
 218:	51010000 	mrspl	r0, (UNDEF: 1)
 21c:	00105010 	andseq	r5, r0, r0, lsl r0
 220:	0000ee08 	andeq	lr, r0, r8, lsl #28
 224:	50011100 	andpl	r1, r1, r0, lsl #2
 228:	5001f303 	andpl	pc, r1, r3, lsl #6
 22c:	04120000 	ldreq	r0, [r2], #-0
 230:	a5070413 	strge	r0, [r7, #-1043]	; 0xfffffbed
 234:	14000003 	strne	r0, [r0], #-3
 238:	000002c8 	andeq	r0, r0, r8, asr #5
 23c:	000001e1 	andeq	r0, r0, r1, ror #3
 240:	02c87804 	sbceq	r7, r8, #4, 16	; 0x40000
 244:	df000000 	svcle	0x00000000
 248:	04000001 	streq	r0, [r0], #-1
 24c:	0001f500 	andeq	pc, r1, r0, lsl #10
 250:	64010400 	strvs	r0, [r1], #-1024	; 0xfffffc00
 254:	0c000003 	stceq	0, cr0, [r0], {3}
 258:	000002dc 	ldrdeq	r0, [r0], -ip
 25c:	000003b2 			; <UNDEFINED> instruction: 0x000003b2
 260:	08001058 	stmdaeq	r0, {r3, r4, r6, ip}
 264:	00000038 	andeq	r0, r0, r8, lsr r0
 268:	0000024e 	andeq	r0, r0, lr, asr #4
 26c:	69050402 	stmdbvs	r5, {r1, sl}
 270:	0300746e 	movweq	r7, #1134	; 0x46e
 274:	03a50704 			; <UNDEFINED> instruction: 0x03a50704
 278:	08030000 	stmdaeq	r3, {}	; <UNPREDICTABLE>
 27c:	0000a505 	andeq	sl, r0, r5, lsl #10
 280:	04080300 	streq	r0, [r8], #-768	; 0xfffffd00
 284:	000000ba 	strheq	r0, [r0], -sl
 288:	38060103 	stmdacc	r6, {r0, r1, r8}
 28c:	03000000 	movweq	r0, #0
 290:	00360801 	eorseq	r0, r6, r1, lsl #16
 294:	02030000 	andeq	r0, r3, #0
 298:	00043705 	andeq	r3, r4, r5, lsl #14
 29c:	07020300 	streq	r0, [r2, -r0, lsl #6]
 2a0:	00000351 	andeq	r0, r0, r1, asr r3
 2a4:	aa050403 	bge	1412b8 <__ram_size__+0x1392b8>
 2a8:	03000000 	movweq	r0, #0
 2ac:	03a00704 	moveq	r0, #4, 14	; 0x100000
 2b0:	08030000 	stmdaeq	r3, {}	; <UNPREDICTABLE>
 2b4:	00039b07 	andeq	r9, r3, r7, lsl #22
 2b8:	07040300 	streq	r0, [r4, -r0, lsl #6]
 2bc:	0000041d 	andeq	r0, r0, sp, lsl r4
 2c0:	01030404 	tsteq	r3, r4, lsl #8
 2c4:	00003f08 	andeq	r3, r0, r8, lsl #30
 2c8:	04260500 	strteq	r0, [r6], #-1280	; 0xfffffb00
 2cc:	16020000 	strne	r0, [r2], -r0
 2d0:	00000064 	andeq	r0, r0, r4, rrx
 2d4:	00031506 	andeq	r1, r3, r6, lsl #10
 2d8:	02010800 	andeq	r0, r1, #0, 16
 2dc:	0000cd48 	andeq	ip, r0, r8, asr #26
 2e0:	04550700 	ldrbeq	r0, [r5], #-1792	; 0xfffff900
 2e4:	49020000 	stmdbmi	r2, {}	; <UNPREDICTABLE>
 2e8:	000000cd 	andeq	r0, r0, sp, asr #1
 2ec:	03450700 	movteq	r0, #22272	; 0x5700
 2f0:	4a020000 	bmi	802f8 <__ram_size__+0x782f8>
 2f4:	000000cd 	andeq	r0, r0, sp, asr #1
 2f8:	030b0880 	movweq	r0, #47232	; 0xb880
 2fc:	4c020000 	stcmi	0, cr0, [r2], {-0}
 300:	00000082 	andeq	r0, r0, r2, lsl #1
 304:	15080100 	strne	r0, [r8, #-256]	; 0xffffff00
 308:	02000004 	andeq	r0, r0, #4
 30c:	0000824f 	andeq	r8, r0, pc, asr #4
 310:	00010400 	andeq	r0, r1, r0, lsl #8
 314:	00007909 	andeq	r7, r0, r9, lsl #18
 318:	0000dd00 	andeq	sp, r0, r0, lsl #26
 31c:	00720a00 	rsbseq	r0, r2, r0, lsl #20
 320:	001f0000 	andseq	r0, pc, r0
 324:	00e3040b 	rsceq	r0, r3, fp, lsl #8
 328:	0b0c0000 	bleq	300330 <__ram_size__+0x2f8330>
 32c:	00008d04 	andeq	r8, r0, r4, lsl #26
 330:	f0040b00 			; <UNDEFINED> instruction: 0xf0040b00
 334:	0d000000 	stceq	0, cr0, [r0, #-0]
 338:	0003360e 	andeq	r3, r3, lr, lsl #12
 33c:	00480100 	subeq	r0, r8, r0, lsl #2
 340:	05040000 	streq	r0, [r4, #-0]
 344:	00000114 	andeq	r0, r0, r4, lsl r1
 348:	00038f0f 	andeq	r8, r3, pc, lsl #30
 34c:	090f0000 	stmdbeq	pc, {}	; <UNPREDICTABLE>
 350:	01000004 	tsteq	r0, r4
 354:	00042e0f 	andeq	r2, r4, pc, lsl #28
 358:	10000200 	andne	r0, r0, r0, lsl #4
 35c:	0000000d 	andeq	r0, r0, sp
 360:	00251901 	eoreq	r1, r5, r1, lsl #18
 364:	10580000 	subsne	r0, r8, r0
 368:	00380800 	eorseq	r0, r8, r0, lsl #16
 36c:	9c010000 	stcls	0, cr0, [r1], {-0}
 370:	000001a0 	andeq	r0, r0, r0, lsr #3
 374:	006e6611 	rsbeq	r6, lr, r1, lsl r6
 378:	01ab1901 			; <UNDEFINED> instruction: 0x01ab1901
 37c:	009a0000 	addseq	r0, sl, r0
 380:	61110000 	tstvs	r1, r0
 384:	01006772 	tsteq	r0, r2, ror r7
 388:	00007919 	andeq	r7, r0, r9, lsl r9
 38c:	0000df00 	andeq	sp, r0, r0, lsl #30
 390:	00641100 	rsbeq	r1, r4, r0, lsl #2
 394:	00791901 	rsbseq	r1, r9, r1, lsl #18
 398:	01160000 	tsteq	r6, r0
 39c:	41120000 	tstmi	r2, r0
 3a0:	01000004 	tsteq	r0, r4
 3a4:	00002521 	andeq	r2, r0, r1, lsr #10
 3a8:	00017b00 	andeq	r7, r1, r0, lsl #22
 3ac:	00251300 	eoreq	r1, r5, r0, lsl #6
 3b0:	dd130000 	ldcle	0, cr0, [r3, #-0]
 3b4:	13000000 	movwne	r0, #0
 3b8:	00000079 	andeq	r0, r0, r9, ror r0
 3bc:	00007913 	andeq	r7, r0, r3, lsl r9
 3c0:	7c140000 	ldcvc	0, cr0, [r4], {-0}
 3c4:	d7080010 	smladle	r8, r0, r0, r0
 3c8:	15000001 	strne	r0, [r0, #-1]
 3cc:	32015001 	andcc	r5, r1, #1
 3d0:	03510115 	cmpeq	r1, #1073741829	; 0x40000005
 3d4:	155001f3 	ldrbne	r0, [r0, #-499]	; 0xfffffe0d
 3d8:	f3035201 	vhsub.u8	d5, d3, d1
 3dc:	01155101 	tsteq	r5, r1, lsl #2
 3e0:	01f30353 	mvnseq	r0, r3, asr r3
 3e4:	16000052 			; <UNDEFINED> instruction: 0x16000052
 3e8:	000001ab 	andeq	r0, r0, fp, lsr #3
 3ec:	00007913 	andeq	r7, r0, r3, lsl r9
 3f0:	040b0000 	streq	r0, [fp], #-0
 3f4:	000001a0 	andeq	r0, r0, r0, lsr #3
 3f8:	00031417 	andeq	r1, r3, r7, lsl r4
 3fc:	bc080300 	stclt	3, cr0, [r8], {-0}
 400:	18000001 	stmdane	r0, {r0}
 404:	000000e4 	andeq	r0, r0, r4, ror #1
 408:	00032319 	andeq	r2, r3, r9, lsl r3
 40c:	d2100100 	andsle	r0, r0, #0, 2
 410:	05000001 	streq	r0, [r0, #-1]
 414:	00000003 	andeq	r0, r0, r3
 418:	00ea1800 	rsceq	r1, sl, r0, lsl #16
 41c:	411a0000 	tstmi	sl, r0
 420:	41000004 	tstmi	r0, r4
 424:	01000004 	tsteq	r0, r4
 428:	00ff0021 	rscseq	r0, pc, r1, lsr #32
 42c:	00040000 	andeq	r0, r4, r0
 430:	00000342 	andeq	r0, r0, r2, asr #6
 434:	03640104 	cmneq	r4, #4, 2
 438:	5d0c0000 	stcpl	0, cr0, [ip, #-0]
 43c:	b2000004 	andlt	r0, r0, #4
 440:	21000003 	tstcs	r0, r3
 444:	02000003 	andeq	r0, r0, #3
 448:	6e690504 	cdpvs	5, 6, cr0, cr9, cr4, {0}
 44c:	04030074 	streq	r0, [r3], #-116	; 0xffffff8c
 450:	0003a507 	andeq	sl, r3, r7, lsl #10
 454:	05080300 	streq	r0, [r8, #-768]	; 0xfffffd00
 458:	000000a5 	andeq	r0, r0, r5, lsr #1
 45c:	ba040803 	blt	102470 <__ram_size__+0xfa470>
 460:	03000000 	movweq	r0, #0
 464:	00380601 	eorseq	r0, r8, r1, lsl #12
 468:	01030000 	mrseq	r0, (UNDEF: 3)
 46c:	00003608 	andeq	r3, r0, r8, lsl #12
 470:	05020300 	streq	r0, [r2, #-768]	; 0xfffffd00
 474:	00000437 	andeq	r0, r0, r7, lsr r4
 478:	51070203 	tstpl	r7, r3, lsl #4
 47c:	03000003 	movweq	r0, #3
 480:	00aa0504 	adceq	r0, sl, r4, lsl #10
 484:	04030000 	streq	r0, [r3], #-0
 488:	0003a007 	andeq	sl, r3, r7
 48c:	07080300 	streq	r0, [r8, -r0, lsl #6]
 490:	0000039b 	muleq	r0, fp, r3
 494:	1d070403 	cfstrsne	mvf0, [r7, #-12]
 498:	04000004 	streq	r0, [r0], #-4
 49c:	08010304 	stmdaeq	r1, {r2, r8, r9}
 4a0:	0000003f 	andeq	r0, r0, pc, lsr r0
 4a4:	00042605 	andeq	r2, r4, r5, lsl #12
 4a8:	5c160100 	ldfpls	f0, [r6], {-0}
 4ac:	06000000 	streq	r0, [r0], -r0
 4b0:	00000315 	andeq	r0, r0, r5, lsl r3
 4b4:	48010108 	stmdami	r1, {r3, r8}
 4b8:	000000c5 	andeq	r0, r0, r5, asr #1
 4bc:	00045507 	andeq	r5, r4, r7, lsl #10
 4c0:	c5490100 	strbgt	r0, [r9, #-256]	; 0xffffff00
 4c4:	00000000 	andeq	r0, r0, r0
 4c8:	00034507 	andeq	r4, r3, r7, lsl #10
 4cc:	c54a0100 	strbgt	r0, [sl, #-256]	; 0xffffff00
 4d0:	80000000 	andhi	r0, r0, r0
 4d4:	00030b08 	andeq	r0, r3, r8, lsl #22
 4d8:	7a4c0100 	bvc	13008e0 <__ram_size__+0x12f88e0>
 4dc:	00000000 	andeq	r0, r0, r0
 4e0:	04150801 	ldreq	r0, [r5], #-2049	; 0xfffff7ff
 4e4:	4f010000 	svcmi	0x00010000
 4e8:	0000007a 	andeq	r0, r0, sl, ror r0
 4ec:	09000104 	stmdbeq	r0, {r2, r8}
 4f0:	00000071 	andeq	r0, r0, r1, ror r0
 4f4:	000000d5 	ldrdeq	r0, [r0], -r5
 4f8:	00006a0a 	andeq	r6, r0, sl, lsl #20
 4fc:	0b001f00 	bleq	8104 <__ram_size__+0x104>
 500:	00008504 	andeq	r8, r0, r4, lsl #10
 504:	048e0c00 	streq	r0, [lr], #3072	; 0xc00
 508:	1a020000 	bne	80510 <__ram_size__+0x78510>
 50c:	00000085 	andeq	r0, r0, r5, lsl #1
 510:	03040305 	movweq	r0, #17157	; 0x4305
 514:	140d2000 	strne	r2, [sp], #-0
 518:	02000003 	andeq	r0, r0, #3
 51c:	0000fd1c 	andeq	pc, r0, ip, lsl sp	; <UNPREDICTABLE>
 520:	4c030500 	cfstr32mi	mvfx0, [r3], {-0}
 524:	0e080012 	mcreq	0, 0, r0, cr8, cr2, {0}
 528:	000000d5 	ldrdeq	r0, [r0], -r5
 52c:	00025a00 	andeq	r5, r2, r0, lsl #20
 530:	eb000400 	bl	1538 <__text_size__+0x47c>
 534:	04000003 	streq	r0, [r0], #-3
 538:	00036401 	andeq	r6, r3, r1, lsl #8
 53c:	04b50c00 	ldrteq	r0, [r5], #3072	; 0xc00
 540:	03b20000 			; <UNDEFINED> instruction: 0x03b20000
 544:	10900000 	addsne	r0, r0, r0
 548:	01400800 	cmpeq	r0, r0, lsl #16
 54c:	03c00000 	biceq	r0, r0, #0
 550:	04020000 	streq	r0, [r2], #-0
 554:	746e6905 	strbtvc	r6, [lr], #-2309	; 0xfffff6fb
 558:	07040300 	streq	r0, [r4, -r0, lsl #6]
 55c:	000003a5 	andeq	r0, r0, r5, lsr #7
 560:	a5050803 	strge	r0, [r5, #-2051]	; 0xfffff7fd
 564:	03000000 	movweq	r0, #0
 568:	00ba0408 	adcseq	r0, sl, r8, lsl #8
 56c:	01030000 	mrseq	r0, (UNDEF: 3)
 570:	00003806 	andeq	r3, r0, r6, lsl #16
 574:	08010300 	stmdaeq	r1, {r8, r9}
 578:	00000036 	andeq	r0, r0, r6, lsr r0
 57c:	37050203 	strcc	r0, [r5, -r3, lsl #4]
 580:	03000004 	movweq	r0, #4
 584:	03510702 	cmpeq	r1, #524288	; 0x80000
 588:	04030000 	streq	r0, [r3], #-0
 58c:	0000aa05 	andeq	sl, r0, r5, lsl #20
 590:	07040300 	streq	r0, [r4, -r0, lsl #6]
 594:	000003a0 	andeq	r0, r0, r0, lsr #7
 598:	9b070803 	blls	1c25ac <__ram_size__+0x1ba5ac>
 59c:	03000003 	movweq	r0, #3
 5a0:	041d0704 	ldreq	r0, [sp], #-1796	; 0xfffff8fc
 5a4:	04040000 	streq	r0, [r4], #-0
 5a8:	3f080103 	svccc	0x00080103
 5ac:	05000000 	streq	r0, [r0, #-0]
 5b0:	00000426 	andeq	r0, r0, r6, lsr #8
 5b4:	00641602 	rsbeq	r1, r4, r2, lsl #12
 5b8:	15060000 	strne	r0, [r6, #-0]
 5bc:	08000003 	stmdaeq	r0, {r0, r1}
 5c0:	cd480201 	sfmgt	f0, 2, [r8, #-4]
 5c4:	07000000 	streq	r0, [r0, -r0]
 5c8:	00000455 	andeq	r0, r0, r5, asr r4
 5cc:	00cd4902 	sbceq	r4, sp, r2, lsl #18
 5d0:	07000000 	streq	r0, [r0, -r0]
 5d4:	00000345 	andeq	r0, r0, r5, asr #6
 5d8:	00cd4a02 	sbceq	r4, sp, r2, lsl #20
 5dc:	08800000 	stmeq	r0, {}	; <UNPREDICTABLE>
 5e0:	0000030b 	andeq	r0, r0, fp, lsl #6
 5e4:	00824c02 	addeq	r4, r2, r2, lsl #24
 5e8:	01000000 	mrseq	r0, (UNDEF: 0)
 5ec:	00041508 	andeq	r1, r4, r8, lsl #10
 5f0:	824f0200 	subhi	r0, pc, #0, 4
 5f4:	04000000 	streq	r0, [r0], #-0
 5f8:	79090001 	stmdbvc	r9, {r0}
 5fc:	dd000000 	stcle	0, cr0, [r0, #-0]
 600:	0a000000 	beq	608 <__bss_size__+0x170>
 604:	00000072 	andeq	r0, r0, r2, ror r0
 608:	120b001f 	andne	r0, fp, #31
 60c:	8c000000 	stchi	0, cr0, [r0], {-0}
 610:	011a5302 	tsteq	sl, r2, lsl #6
 614:	f1070000 			; <UNDEFINED> instruction: 0xf1070000
 618:	02000004 	andeq	r0, r0, #4
 61c:	00011a54 	andeq	r1, r1, r4, asr sl
 620:	f7070000 			; <UNDEFINED> instruction: 0xf7070000
 624:	02000004 	andeq	r0, r0, #4
 628:	00002555 	andeq	r2, r0, r5, asr r5
 62c:	fc070400 	stc2	4, cr0, [r7], {-0}
 630:	02000004 	andeq	r0, r0, #4
 634:	00012056 	andeq	r2, r1, r6, asr r0
 638:	10070800 	andne	r0, r7, r0, lsl #16
 63c:	02000005 	andeq	r0, r0, #5
 640:	00013757 	andeq	r3, r1, r7, asr r7
 644:	0c008800 	stceq	8, cr8, [r0], {-0}
 648:	0000dd04 	andeq	sp, r0, r4, lsl #26
 64c:	01300900 	teqeq	r0, r0, lsl #18
 650:	01300000 	teqeq	r0, r0
 654:	720a0000 	andvc	r0, sl, #0
 658:	1f000000 	svcne	0x00000000
 65c:	36040c00 	strcc	r0, [r4], -r0, lsl #24
 660:	0d000001 	stceq	0, cr0, [r0, #-4]
 664:	008d040c 	addeq	r0, sp, ip, lsl #8
 668:	040c0000 	streq	r0, [ip], #-0
 66c:	00000143 	andeq	r0, r0, r3, asr #2
 670:	03360f0e 	teqeq	r6, #14, 30	; 0x38
 674:	48010000 	stmdami	r1, {}	; <UNPREDICTABLE>
 678:	03000000 	movweq	r0, #0
 67c:	00016705 	andeq	r6, r1, r5, lsl #14
 680:	038f1000 	orreq	r1, pc, #0
 684:	10000000 	andne	r0, r0, r0
 688:	00000409 	andeq	r0, r0, r9, lsl #8
 68c:	042e1001 	strteq	r1, [lr], #-1
 690:	00020000 	andeq	r0, r2, r0
 694:	00044111 	andeq	r4, r4, r1, lsl r1
 698:	25420100 	strbcs	r0, [r2, #-256]	; 0xffffff00
 69c:	90000000 	andls	r0, r0, r0
 6a0:	40080010 	andmi	r0, r8, r0, lsl r0
 6a4:	01000001 	tsteq	r0, r1
 6a8:	0002149c 	muleq	r2, ip, r4
 6ac:	04211200 	strteq	r1, [r1], #-512	; 0xfffffe00
 6b0:	42010000 	andmi	r0, r1, #0
 6b4:	00000025 	andeq	r0, r0, r5, lsr #32
 6b8:	0000014d 	andeq	r0, r0, sp, asr #2
 6bc:	006e6613 	rsbeq	r6, lr, r3, lsl r6
 6c0:	01304201 	teqeq	r0, r1, lsl #4
 6c4:	01a50000 			; <UNDEFINED> instruction: 0x01a50000
 6c8:	61130000 	tstvs	r3, r0
 6cc:	01006772 	tsteq	r0, r2, ror r7
 6d0:	00007942 	andeq	r7, r0, r2, asr #18
 6d4:	0001fd00 	andeq	pc, r1, r0, lsl #26
 6d8:	00641300 	rsbeq	r1, r4, r0, lsl #6
 6dc:	00794201 	rsbseq	r4, r9, r1, lsl #4
 6e0:	02550000 	subseq	r0, r5, #0
 6e4:	1e140000 	cdpne	0, 1, cr0, cr4, cr0, {0}
 6e8:	01000003 	tsteq	r0, r3
 6ec:	00013749 	andeq	r3, r1, r9, asr #14
 6f0:	00029700 	andeq	r9, r2, r0, lsl #14
 6f4:	00701500 	rsbseq	r1, r0, r0, lsl #10
 6f8:	011a4a01 	tsteq	sl, r1, lsl #20
 6fc:	02cc0000 	sbceq	r0, ip, #0
 700:	64160000 	ldrvs	r0, [r6], #-0
 704:	1c080011 	stcne	0, cr0, [r8], {17}
 708:	ee000000 	cdp	0, 0, cr0, cr0, cr0, {0}
 70c:	17000001 	strne	r0, [r0, -r1]
 710:	00000314 	andeq	r0, r0, r4, lsl r3
 714:	02145501 	andseq	r5, r4, #4194304	; 0x400000
 718:	18000000 	stmdane	r0, {}	; <UNPREDICTABLE>
 71c:	080010d4 	stmdaeq	r0, {r2, r4, r6, r7, ip}
 720:	00000252 	andeq	r0, r0, r2, asr r2
 724:	00000202 	andeq	r0, r0, r2, lsl #4
 728:	02500119 	subseq	r0, r0, #1073741830	; 0x40000006
 72c:	1a008c08 	bne	23754 <__ram_size__+0x1b754>
 730:	08001194 	stmdaeq	r0, {r2, r4, r7, r8, ip}
 734:	00000252 	andeq	r0, r0, r2, asr r2
 738:	03500119 	cmpeq	r0, #1073741830	; 0x40000006
 73c:	0001080a 	andeq	r0, r1, sl, lsl #16
 740:	01371b00 	teqeq	r7, r0, lsl #22
 744:	a51c0000 	ldrge	r0, [ip, #-0]
 748:	01000004 	tsteq	r0, r4
 74c:	0000dd37 	andeq	sp, r0, r7, lsr sp
 750:	0c030500 	cfstr32eq	mvfx0, [r3], {-0}
 754:	1d200004 	stcne	0, cr0, [r0, #-16]!
 758:	000004e2 	andeq	r0, r0, r2, ror #9
 75c:	1a031002 	bne	c476c <__ram_size__+0xbc76c>
 760:	1e000001 	cdpne	0, 0, cr0, cr0, cr1, {0}
 764:	00000501 	andeq	r0, r0, r1, lsl #10
 768:	013d2f01 	teqeq	sp, r1, lsl #30
 76c:	03050000 	movweq	r0, #20480	; 0x5000
 770:	00000000 	andeq	r0, r0, r0
 774:	00031417 	andeq	r1, r3, r7, lsl r4
 778:	14550100 	ldrbne	r0, [r5], #-256	; 0xffffff00
 77c:	1f000002 	svcne	0x00000002
 780:	00000522 	andeq	r0, r0, r2, lsr #10
 784:	00000522 	andeq	r0, r0, r2, lsr #10
 788:	3f006404 	svccc	0x00006404
 78c:	04000002 	streq	r0, [r0], #-2
 790:	00058700 	andeq	r8, r5, r0, lsl #14
 794:	64010400 	strvs	r0, [r1], #-1024	; 0xfffffc00
 798:	0c000003 	stceq	0, cr0, [r0], {3}
 79c:	00000537 	andeq	r0, r0, r7, lsr r5
 7a0:	000003b2 			; <UNDEFINED> instruction: 0x000003b2
 7a4:	00000000 	andeq	r0, r0, r0
 7a8:	00000178 	andeq	r0, r0, r8, ror r1
 7ac:	000004ff 	strdeq	r0, [r0], -pc	; <UNPREDICTABLE>
 7b0:	a5070402 	strge	r0, [r7, #-1026]	; 0xfffffbfe
 7b4:	03000003 	movweq	r0, #3
 7b8:	6e690504 	cdpvs	5, 6, cr0, cr9, cr4, {0}
 7bc:	08020074 	stmdaeq	r2, {r2, r4, r5, r6}
 7c0:	0000a505 	andeq	sl, r0, r5, lsl #10
 7c4:	04080200 	streq	r0, [r8], #-512	; 0xfffffe00
 7c8:	000000ba 	strheq	r0, [r0], -sl
 7cc:	38060102 	stmdacc	r6, {r1, r8}
 7d0:	02000000 	andeq	r0, r0, #0
 7d4:	00360801 	eorseq	r0, r6, r1, lsl #16
 7d8:	02020000 	andeq	r0, r2, #0
 7dc:	00043705 	andeq	r3, r4, r5, lsl #14
 7e0:	07020200 	streq	r0, [r2, -r0, lsl #4]
 7e4:	00000351 	andeq	r0, r0, r1, asr r3
 7e8:	aa050402 	bge	1417f8 <__ram_size__+0x1397f8>
 7ec:	02000000 	andeq	r0, r0, #0
 7f0:	03a00704 	moveq	r0, #4, 14	; 0x100000
 7f4:	08020000 	stmdaeq	r2, {}	; <UNPREDICTABLE>
 7f8:	00039b07 	andeq	r9, r3, r7, lsl #22
 7fc:	07040200 	streq	r0, [r4, -r0, lsl #4]
 800:	0000041d 	andeq	r0, r0, sp, lsl r4
 804:	01020404 	tsteq	r2, r4, lsl #8
 808:	00003f08 	andeq	r3, r0, r8, lsl #30
 80c:	04260500 	strteq	r0, [r6], #-1280	; 0xfffffb00
 810:	16020000 	strne	r0, [r2], -r0
 814:	00000064 	andeq	r0, r0, r4, rrx
 818:	00031506 	andeq	r1, r3, r6, lsl #10
 81c:	02010800 	andeq	r0, r1, #0, 16
 820:	0000cd48 	andeq	ip, r0, r8, asr #26
 824:	04550700 	ldrbeq	r0, [r5], #-1792	; 0xfffff900
 828:	49020000 	stmdbmi	r2, {}	; <UNPREDICTABLE>
 82c:	000000cd 	andeq	r0, r0, sp, asr #1
 830:	03450700 	movteq	r0, #22272	; 0x5700
 834:	4a020000 	bmi	8083c <__ram_size__+0x7883c>
 838:	000000cd 	andeq	r0, r0, sp, asr #1
 83c:	030b0880 	movweq	r0, #47232	; 0xb880
 840:	4c020000 	stcmi	0, cr0, [r2], {-0}
 844:	00000082 	andeq	r0, r0, r2, lsl #1
 848:	15080100 	strne	r0, [r8, #-256]	; 0xffffff00
 84c:	02000004 	andeq	r0, r0, #4
 850:	0000824f 	andeq	r8, r0, pc, asr #4
 854:	00010400 	andeq	r0, r1, r0, lsl #8
 858:	00007909 	andeq	r7, r0, r9, lsl #18
 85c:	0000dd00 	andeq	sp, r0, r0, lsl #26
 860:	00720a00 	rsbseq	r0, r2, r0, lsl #20
 864:	001f0000 	andseq	r0, pc, r0
 868:	0000120b 	andeq	r1, r0, fp, lsl #4
 86c:	53028c00 	movwpl	r8, #11264	; 0x2c00
 870:	0000011a 	andeq	r0, r0, sl, lsl r1
 874:	0004f107 	andeq	pc, r4, r7, lsl #2
 878:	1a540200 	bne	1501080 <__ram_size__+0x14f9080>
 87c:	00000001 	andeq	r0, r0, r1
 880:	0004f707 	andeq	pc, r4, r7, lsl #14
 884:	2c550200 	lfmcs	f0, 2, [r5], {-0}
 888:	04000000 	streq	r0, [r0], #-0
 88c:	0004fc07 	andeq	pc, r4, r7, lsl #24
 890:	20560200 	subscs	r0, r6, r0, lsl #4
 894:	08000001 	stmdaeq	r0, {r0}
 898:	00051007 	andeq	r1, r5, r7
 89c:	37570200 	ldrbcc	r0, [r7, -r0, lsl #4]
 8a0:	88000001 	stmdahi	r0, {r0}
 8a4:	dd040c00 	stcle	12, cr0, [r4, #-0]
 8a8:	09000000 	stmdbeq	r0, {}	; <UNPREDICTABLE>
 8ac:	00000130 	andeq	r0, r0, r0, lsr r1
 8b0:	00000130 	andeq	r0, r0, r0, lsr r1
 8b4:	0000720a 	andeq	r7, r0, sl, lsl #4
 8b8:	0c001f00 	stceq	15, cr1, [r0], {-0}
 8bc:	00013604 	andeq	r3, r1, r4, lsl #12
 8c0:	040c0d00 	streq	r0, [ip], #-3328	; 0xfffff300
 8c4:	0000008d 	andeq	r0, r0, sp, lsl #1
 8c8:	0005690e 	andeq	r6, r5, lr, lsl #18
 8cc:	00420100 	subeq	r0, r2, r0, lsl #2
 8d0:	78000000 	stmdavc	r0, {}	; <UNPREDICTABLE>
 8d4:	01000001 	tsteq	r0, r1
 8d8:	0002139c 	muleq	r2, ip, r3
 8dc:	05820f00 	streq	r0, [r2, #3840]	; 0xf00
 8e0:	42010000 	andmi	r0, r1, #0
 8e4:	0000002c 	andeq	r0, r0, ip, lsr #32
 8e8:	00000310 	andeq	r0, r0, r0, lsl r3
 8ec:	01006410 	tsteq	r0, r0, lsl r4
 8f0:	00007942 	andeq	r7, r0, r2, asr #18
 8f4:	00032f00 	andeq	r2, r3, r0, lsl #30
 8f8:	00701100 	rsbseq	r1, r0, r0, lsl #2
 8fc:	011a4501 	tsteq	sl, r1, lsl #10
 900:	03660000 	cmneq	r6, #0
 904:	8c120000 	ldchi	0, cr0, [r2], {-0}
 908:	01000005 	tsteq	r0, r5
 90c:	00021346 	andeq	r1, r2, r6, asr #6
 910:	0003a700 	andeq	sl, r3, r0, lsl #14
 914:	031e1200 	tsteq	lr, #0, 4
 918:	47010000 	strmi	r0, [r1, -r0]
 91c:	00000137 	andeq	r0, r0, r7, lsr r1
 920:	000003d5 	ldrdeq	r0, [r0], -r5
 924:	01006e11 	tsteq	r0, r1, lsl lr
 928:	00002c48 	andeq	r2, r0, r8, asr #24
 92c:	0003f300 	andeq	pc, r3, r0, lsl #6
 930:	00691100 	rsbeq	r1, r9, r0, lsl #2
 934:	002c4901 	eoreq	r4, ip, r1, lsl #18
 938:	04060000 	streq	r0, [r6], #-0
 93c:	66110000 	ldrvs	r0, [r1], -r0
 940:	4a01006e 	bmi	40b00 <__ram_size__+0x38b00>
 944:	00000130 	andeq	r0, r0, r0, lsr r1
 948:	0000043b 	andeq	r0, r0, fp, lsr r4
 94c:	00057a13 	andeq	r7, r5, r3, lsl sl
 950:	14510100 	ldrbne	r0, [r1], #-256	; 0xffffff00
 954:	00000020 	andeq	r0, r0, r0, lsr #32
 958:	000001ee 	andeq	r0, r0, lr, ror #3
 95c:	646e6911 	strbtvs	r6, [lr], #-2321	; 0xfffff6ef
 960:	2c5e0100 	ldfcse	f0, [lr], {-0}
 964:	64000000 	strvs	r0, [r0], #-0
 968:	15000004 	strne	r0, [r0, #-4]
 96c:	00000000 	andeq	r0, r0, r0
 970:	03500116 	cmpeq	r0, #-2147483643	; 0x80000005
 974:	00064c91 	muleq	r6, r1, ip
 978:	00001700 	andeq	r1, r0, r0, lsl #14
 97c:	02370000 	eorseq	r0, r7, #0
 980:	02020000 	andeq	r0, r2, #0
 984:	01160000 	tsteq	r6, r0
 988:	00780250 	rsbseq	r0, r8, r0, asr r2
 98c:	00001800 	andeq	r1, r0, r0, lsl #16
 990:	02370000 	eorseq	r0, r7, #0
 994:	01160000 	tsteq	r6, r0
 998:	00790250 	rsbseq	r0, r9, r0, asr r2
 99c:	040c0000 	streq	r0, [ip], #-0
 9a0:	0000011a 	andeq	r0, r0, sl, lsl r1
 9a4:	00052919 	andeq	r2, r5, r9, lsl r9
 9a8:	2c0e0100 	stfcss	f0, [lr], {-0}
 9ac:	00000000 	andeq	r0, r0, r0
 9b0:	0004e21a 	andeq	lr, r4, sl, lsl r2
 9b4:	03100200 	tsteq	r0, #0, 4
 9b8:	0000011a 	andeq	r0, r0, sl, lsl r1
 9bc:	04980305 	ldreq	r0, [r8], #773	; 0x305
 9c0:	871b2000 	ldrhi	r2, [fp, -r0]
 9c4:	87000005 	strhi	r0, [r0, -r5]
 9c8:	03000005 	movweq	r0, #5
 9cc:	Address 0x00000000000009cc is out of bounds.


Disassembly of section .debug_abbrev:

00000000 <.debug_abbrev>:
   0:	25011101 	strcs	r1, [r1, #-257]	; 0xfffffeff
   4:	030b130e 	movweq	r1, #45838	; 0xb30e
   8:	550e1b0e 	strpl	r1, [lr, #-2830]	; 0xfffff4f2
   c:	10011117 	andne	r1, r1, r7, lsl r1
  10:	02000017 	andeq	r0, r0, #23
  14:	0b0b0024 	bleq	2c00ac <__ram_size__+0x2b80ac>
  18:	08030b3e 	stmdaeq	r3, {r1, r2, r3, r4, r5, r8, r9, fp}
  1c:	24030000 	strcs	r0, [r3], #-0
  20:	3e0b0b00 	vmlacc.f64	d0, d11, d0
  24:	000e030b 	andeq	r0, lr, fp, lsl #6
  28:	003b0400 	eorseq	r0, fp, r0, lsl #8
  2c:	00000e03 	andeq	r0, r0, r3, lsl #28
  30:	03013905 	movweq	r3, #6405	; 0x1905
  34:	3b0b3a08 	blcc	2ce85c <__ram_size__+0x2c685c>
  38:	0013010b 	andseq	r0, r3, fp, lsl #2
  3c:	00390600 	eorseq	r0, r9, r0, lsl #12
  40:	0b3a0e03 	bleq	e83854 <__ram_size__+0xe7b854>
  44:	00000b3b 	andeq	r0, r0, fp, lsr fp
  48:	3a003a07 	bcc	e86c <__ram_size__+0x686c>
  4c:	180b3b0b 	stmdane	fp, {r0, r1, r3, r8, r9, fp, ip, sp}
  50:	08000013 	stmdaeq	r0, {r0, r1, r4}
  54:	0e030139 	mcreq	1, 0, r0, cr3, cr9, {1}
  58:	0b3b0b3a 	bleq	ec2d48 <__ram_size__+0xebad48>
  5c:	00001301 	andeq	r1, r0, r1, lsl #6
  60:	3f002e09 	svccc	0x00002e09
  64:	6e193c19 	mrcvs	12, 0, r3, cr9, cr9, {0}
  68:	3a0e030e 	bcc	380ca8 <__ram_size__+0x378ca8>
  6c:	000b3b0b 	andeq	r3, fp, fp, lsl #22
  70:	00080a00 	andeq	r0, r8, r0, lsl #20
  74:	0b3a0803 	bleq	e82088 <__ram_size__+0xe7a088>
  78:	1318053b 	tstne	r8, #247463936	; 0xec00000
  7c:	2e0b0000 	cdpcs	0, 0, cr0, cr11, cr0, {0}
  80:	03193f01 	tsteq	r9, #1, 30
  84:	3b0b3a0e 	blcc	2ce8c4 <__ram_size__+0x2c68c4>
  88:	3c13490b 			; <UNDEFINED> instruction: 0x3c13490b
  8c:	0c000019 	stceq	0, cr0, [r0], {25}
  90:	13490005 	movtne	r0, #36869	; 0x9005
  94:	0f0d0000 	svceq	0x000d0000
  98:	000b0b00 	andeq	r0, fp, r0, lsl #22
  9c:	000f0e00 	andeq	r0, pc, r0, lsl #28
  a0:	13490b0b 	movtne	r0, #39691	; 0x9b0b
  a4:	150f0000 	strne	r0, [pc, #-0]	; ac <__data_size__+0xa8>
  a8:	00130101 	andseq	r0, r3, r1, lsl #2
  ac:	012e1000 			; <UNDEFINED> instruction: 0x012e1000
  b0:	01111347 	tsteq	r1, r7, asr #6
  b4:	18400612 	stmdane	r0, {r1, r4, r9, sl}^
  b8:	00194297 	mulseq	r9, r7, r2
  bc:	00051100 	andeq	r1, r5, r0, lsl #2
  c0:	0b3a0e03 	bleq	e838d4 <__ram_size__+0xe7b8d4>
  c4:	13490b3b 	movtne	r0, #39739	; 0x9b3b
  c8:	00001702 	andeq	r1, r0, r2, lsl #14
  cc:	01828912 	orreq	r8, r2, r2, lsl r9
  d0:	31011101 	tstcc	r1, r1, lsl #2
  d4:	13000013 	movwne	r0, #19
  d8:	0001828a 	andeq	r8, r1, sl, lsl #5
  dc:	42911802 	addsmi	r1, r1, #131072	; 0x20000
  e0:	00000018 	andeq	r0, r0, r8, lsl r0
  e4:	25011101 	strcs	r1, [r1, #-257]	; 0xfffffeff
  e8:	030b130e 	movweq	r1, #45838	; 0xb30e
  ec:	550e1b0e 	strpl	r1, [lr, #-2830]	; 0xfffff4f2
  f0:	10011117 	andne	r1, r1, r7, lsl r1
  f4:	02000017 	andeq	r0, r0, #23
  f8:	08030139 	stmdaeq	r3, {r0, r3, r4, r5, r8}
  fc:	0b3b0b3a 	bleq	ec2dec <__ram_size__+0xebadec>
 100:	00001301 	andeq	r1, r0, r1, lsl #6
 104:	03003903 	movweq	r3, #2307	; 0x903
 108:	3b0b3a0e 	blcc	2ce948 <__ram_size__+0x2c6948>
 10c:	0400000b 	streq	r0, [r0], #-11
 110:	0b3a003a 	bleq	e80200 <__ram_size__+0xe78200>
 114:	13180b3b 	tstne	r8, #60416	; 0xec00
 118:	13050000 	movwne	r0, #20480	; 0x5000
 11c:	0b0e0301 	bleq	380d28 <__ram_size__+0x378d28>
 120:	3b0b3a0b 	blcc	2ce954 <__ram_size__+0x2c6954>
 124:	0013010b 	andseq	r0, r3, fp, lsl #2
 128:	012e0600 			; <UNDEFINED> instruction: 0x012e0600
 12c:	0e03193f 			; <UNDEFINED> instruction: 0x0e03193f
 130:	0b3b0b3a 	bleq	ec2e20 <__ram_size__+0xebae20>
 134:	13490e6e 	movtne	r0, #40558	; 0x9e6e
 138:	1963193c 	stmdbne	r3!, {r2, r3, r4, r5, r8, fp, ip}^
 13c:	00001364 	andeq	r1, r0, r4, ror #6
 140:	49000507 	stmdbmi	r0, {r0, r1, r2, r8, sl}
 144:	00193413 	andseq	r3, r9, r3, lsl r4
 148:	00260800 	eoreq	r0, r6, r0, lsl #16
 14c:	00001349 	andeq	r1, r0, r9, asr #6
 150:	03003409 	movweq	r3, #1033	; 0x409
 154:	3b0b3a0e 	blcc	2ce994 <__ram_size__+0x2c6994>
 158:	490e6e0b 	stmdbmi	lr, {r0, r1, r3, r9, sl, fp, sp, lr}
 15c:	3c193f13 	ldccc	15, cr3, [r9], {19}
 160:	0a000019 	beq	1cc <__isr_vector_size__+0x44>
 164:	0e030016 	mcreq	0, 0, r0, cr3, cr6, {0}
 168:	0b3b0b3a 	bleq	ec2e58 <__ram_size__+0xebae58>
 16c:	00001349 	andeq	r1, r0, r9, asr #6
 170:	0301390b 	movweq	r3, #6411	; 0x190b
 174:	3b0b3a0e 	blcc	2ce9b4 <__ram_size__+0x2c69b4>
 178:	0013010b 	andseq	r0, r3, fp, lsl #2
 17c:	000f0c00 	andeq	r0, pc, r0, lsl #24
 180:	13490b0b 	movtne	r0, #39691	; 0x9b0b
 184:	2e0d0000 	cdpcs	0, 0, cr0, cr13, cr0, {0}
 188:	03193f01 	tsteq	r9, #1, 30
 18c:	3b0b3a0e 	blcc	2ce9cc <__ram_size__+0x2c69cc>
 190:	110e6e0b 	tstne	lr, fp, lsl #28
 194:	40061201 	andmi	r1, r6, r1, lsl #4
 198:	19429718 	stmdbne	r2, {r3, r4, r8, r9, sl, ip, pc}^
 19c:	00001301 	andeq	r1, r0, r1, lsl #6
 1a0:	0300050e 	movweq	r0, #1294	; 0x50e
 1a4:	3b0b3a08 	blcc	2ce9cc <__ram_size__+0x2c69cc>
 1a8:	0213490b 	andseq	r4, r3, #180224	; 0x2c000
 1ac:	0f000017 	svceq	0x00000017
 1b0:	13490005 	movtne	r0, #36869	; 0x9005
 1b4:	00001802 	andeq	r1, r0, r2, lsl #16
 1b8:	01828910 	orreq	r8, r2, r0, lsl r9
 1bc:	31011101 	tstcc	r1, r1, lsl #2
 1c0:	11000013 	tstne	r0, r3, lsl r0
 1c4:	0001828a 	andeq	r8, r1, sl, lsl #5
 1c8:	42911802 	addsmi	r1, r1, #131072	; 0x20000
 1cc:	12000018 	andne	r0, r0, #24
 1d0:	0b0b000f 	bleq	2c0214 <__ram_size__+0x2b8214>
 1d4:	24130000 	ldrcs	r0, [r3], #-0
 1d8:	3e0b0b00 	vmlacc.f64	d0, d11, d0
 1dc:	000e030b 	andeq	r0, lr, fp, lsl #6
 1e0:	002e1400 	eoreq	r1, lr, r0, lsl #8
 1e4:	193c193f 	ldmdbne	ip!, {r0, r1, r2, r3, r4, r5, r8, fp, ip}
 1e8:	0e030e6e 	cdpeq	14, 0, cr0, cr3, cr14, {3}
 1ec:	0b3b0b3a 	bleq	ec2edc <__ram_size__+0xebaedc>
 1f0:	00000e6e 	andeq	r0, r0, lr, ror #28
 1f4:	01110100 	tsteq	r1, r0, lsl #2
 1f8:	0b130e25 	bleq	4c3a94 <__ram_size__+0x4bba94>
 1fc:	0e1b0e03 	cdpeq	14, 1, cr0, cr11, cr3, {0}
 200:	06120111 			; <UNDEFINED> instruction: 0x06120111
 204:	00001710 	andeq	r1, r0, r0, lsl r7
 208:	0b002402 	bleq	9218 <__ram_size__+0x1218>
 20c:	030b3e0b 	movweq	r3, #48651	; 0xbe0b
 210:	03000008 	movweq	r0, #8
 214:	0b0b0024 	bleq	2c02ac <__ram_size__+0x2b82ac>
 218:	0e030b3e 	vmoveq.16	d3[0], r0
 21c:	0f040000 	svceq	0x00040000
 220:	000b0b00 	andeq	r0, fp, r0, lsl #22
 224:	00160500 	andseq	r0, r6, r0, lsl #10
 228:	0b3a0e03 	bleq	e83a3c <__ram_size__+0xe7ba3c>
 22c:	13490b3b 	movtne	r0, #39739	; 0x9b3b
 230:	13060000 	movwne	r0, #24576	; 0x6000
 234:	0b0e0301 	bleq	380e40 <__ram_size__+0x378e40>
 238:	3b0b3a05 	blcc	2cea54 <__ram_size__+0x2c6a54>
 23c:	0013010b 	andseq	r0, r3, fp, lsl #2
 240:	000d0700 	andeq	r0, sp, r0, lsl #14
 244:	0b3a0e03 	bleq	e83a58 <__ram_size__+0xe7ba58>
 248:	13490b3b 	movtne	r0, #39739	; 0x9b3b
 24c:	00000b38 	andeq	r0, r0, r8, lsr fp
 250:	03000d08 	movweq	r0, #3336	; 0xd08
 254:	3b0b3a0e 	blcc	2cea94 <__ram_size__+0x2c6a94>
 258:	3813490b 	ldmdacc	r3, {r0, r1, r3, r8, fp, lr}
 25c:	09000005 	stmdbeq	r0, {r0, r2}
 260:	13490101 	movtne	r0, #37121	; 0x9101
 264:	00001301 	andeq	r1, r0, r1, lsl #6
 268:	4900210a 	stmdbmi	r0, {r1, r3, r8, sp}
 26c:	000b2f13 	andeq	r2, fp, r3, lsl pc
 270:	000f0b00 	andeq	r0, pc, r0, lsl #22
 274:	13490b0b 	movtne	r0, #39691	; 0x9b0b
 278:	150c0000 	strne	r0, [ip, #-0]
 27c:	00192700 	andseq	r2, r9, r0, lsl #14
 280:	00260d00 	eoreq	r0, r6, r0, lsl #26
 284:	040e0000 	streq	r0, [lr], #-0
 288:	0b0e0301 	bleq	380e94 <__ram_size__+0x378e94>
 28c:	3a13490b 	bcc	4d26c0 <__ram_size__+0x4ca6c0>
 290:	010b3b0b 	tsteq	fp, fp, lsl #22
 294:	0f000013 	svceq	0x00000013
 298:	0e030028 	cdpeq	0, 0, cr0, cr3, cr8, {1}
 29c:	00000b1c 	andeq	r0, r0, ip, lsl fp
 2a0:	3f012e10 	svccc	0x00012e10
 2a4:	3a0e0319 	bcc	380f10 <__ram_size__+0x378f10>
 2a8:	270b3b0b 	strcs	r3, [fp, -fp, lsl #22]
 2ac:	11134919 	tstne	r3, r9, lsl r9
 2b0:	40061201 	andmi	r1, r6, r1, lsl #4
 2b4:	19429718 	stmdbne	r2, {r3, r4, r8, r9, sl, ip, pc}^
 2b8:	00001301 	andeq	r1, r0, r1, lsl #6
 2bc:	03000511 	movweq	r0, #1297	; 0x511
 2c0:	3b0b3a08 	blcc	2ceae8 <__ram_size__+0x2c6ae8>
 2c4:	0213490b 	andseq	r4, r3, #180224	; 0x2c000
 2c8:	12000017 	andne	r0, r0, #23
 2cc:	193f012e 	ldmdbne	pc!, {r1, r2, r3, r5, r8}	; <UNPREDICTABLE>
 2d0:	0b3a0e03 	bleq	e83ae4 <__ram_size__+0xe7bae4>
 2d4:	19270b3b 	stmdbne	r7!, {r0, r1, r3, r4, r5, r8, r9, fp}
 2d8:	193c1349 	ldmdbne	ip!, {r0, r3, r6, r8, r9, ip}
 2dc:	00001301 	andeq	r1, r0, r1, lsl #6
 2e0:	49000513 	stmdbmi	r0, {r0, r1, r4, r8, sl}
 2e4:	14000013 	strne	r0, [r0], #-19	; 0xffffffed
 2e8:	01018289 	smlabbeq	r1, r9, r2, r8
 2ec:	13310111 	teqne	r1, #1073741828	; 0x40000004
 2f0:	8a150000 	bhi	5402f8 <__ram_size__+0x5382f8>
 2f4:	02000182 	andeq	r0, r0, #-2147483616	; 0x80000020
 2f8:	18429118 	stmdane	r2, {r3, r4, r8, ip, pc}^
 2fc:	15160000 	ldrne	r0, [r6, #-0]
 300:	01192701 	tsteq	r9, r1, lsl #14
 304:	17000013 	smladne	r0, r3, r0, r0
 308:	0e030034 	mcreq	0, 0, r0, cr3, cr4, {1}
 30c:	0b3b0b3a 	bleq	ec2ffc <__ram_size__+0xebaffc>
 310:	193f1349 	ldmdbne	pc!, {r0, r3, r6, r8, r9, ip}	; <UNPREDICTABLE>
 314:	0000193c 	andeq	r1, r0, ip, lsr r9
 318:	49002618 	stmdbmi	r0, {r3, r4, r9, sl, sp}
 31c:	19000013 	stmdbne	r0, {r0, r1, r4}
 320:	0e030034 	mcreq	0, 0, r0, cr3, cr4, {1}
 324:	0b3b0b3a 	bleq	ec3014 <__ram_size__+0xebb014>
 328:	193f1349 	ldmdbne	pc!, {r0, r3, r6, r8, r9, ip}	; <UNPREDICTABLE>
 32c:	00001802 	andeq	r1, r0, r2, lsl #16
 330:	3f002e1a 	svccc	0x00002e1a
 334:	6e193c19 	mrcvs	12, 0, r3, cr9, cr9, {0}
 338:	3a0e030e 	bcc	380f78 <__ram_size__+0x378f78>
 33c:	000b3b0b 	andeq	r3, fp, fp, lsl #22
 340:	11010000 	mrsne	r0, (UNDEF: 1)
 344:	130e2501 	movwne	r2, #58625	; 0xe501
 348:	1b0e030b 	blne	380f7c <__ram_size__+0x378f7c>
 34c:	0017100e 	andseq	r1, r7, lr
 350:	00240200 	eoreq	r0, r4, r0, lsl #4
 354:	0b3e0b0b 	bleq	f82f88 <__ram_size__+0xf7af88>
 358:	00000803 	andeq	r0, r0, r3, lsl #16
 35c:	0b002403 	bleq	9370 <__ram_size__+0x1370>
 360:	030b3e0b 	movweq	r3, #48651	; 0xbe0b
 364:	0400000e 	streq	r0, [r0], #-14
 368:	0b0b000f 	bleq	2c03ac <__ram_size__+0x2b83ac>
 36c:	16050000 	strne	r0, [r5], -r0
 370:	3a0e0300 	bcc	380f78 <__ram_size__+0x378f78>
 374:	490b3b0b 	stmdbmi	fp, {r0, r1, r3, r8, r9, fp, ip, sp}
 378:	06000013 			; <UNDEFINED> instruction: 0x06000013
 37c:	0e030113 	mcreq	1, 0, r0, cr3, cr3, {0}
 380:	0b3a050b 	bleq	e817b4 <__ram_size__+0xe797b4>
 384:	13010b3b 	movwne	r0, #6971	; 0x1b3b
 388:	0d070000 	stceq	0, cr0, [r7, #-0]
 38c:	3a0e0300 	bcc	380f94 <__ram_size__+0x378f94>
 390:	490b3b0b 	stmdbmi	fp, {r0, r1, r3, r8, r9, fp, ip, sp}
 394:	000b3813 	andeq	r3, fp, r3, lsl r8
 398:	000d0800 	andeq	r0, sp, r0, lsl #16
 39c:	0b3a0e03 	bleq	e83bb0 <__ram_size__+0xe7bbb0>
 3a0:	13490b3b 	movtne	r0, #39739	; 0x9b3b
 3a4:	00000538 	andeq	r0, r0, r8, lsr r5
 3a8:	49010109 	stmdbmi	r1, {r0, r3, r8}
 3ac:	00130113 	andseq	r0, r3, r3, lsl r1
 3b0:	00210a00 	eoreq	r0, r1, r0, lsl #20
 3b4:	0b2f1349 	bleq	bc50e0 <__ram_size__+0xbbd0e0>
 3b8:	0f0b0000 	svceq	0x000b0000
 3bc:	490b0b00 	stmdbmi	fp, {r8, r9, fp}
 3c0:	0c000013 	stceq	0, cr0, [r0], {19}
 3c4:	0e030034 	mcreq	0, 0, r0, cr3, cr4, {1}
 3c8:	0b3b0b3a 	bleq	ec30b8 <__ram_size__+0xebb0b8>
 3cc:	18021349 	stmdane	r2, {r0, r3, r6, r8, r9, ip}
 3d0:	340d0000 	strcc	r0, [sp], #-0
 3d4:	3a0e0300 	bcc	380fdc <__ram_size__+0x378fdc>
 3d8:	490b3b0b 	stmdbmi	fp, {r0, r1, r3, r8, r9, fp, ip, sp}
 3dc:	02193f13 	andseq	r3, r9, #19, 30	; 0x4c
 3e0:	0e000018 	mcreq	0, 0, r0, cr0, cr8, {0}
 3e4:	13490026 	movtne	r0, #36902	; 0x9026
 3e8:	01000000 	mrseq	r0, (UNDEF: 0)
 3ec:	0e250111 	mcreq	1, 1, r0, cr5, cr1, {0}
 3f0:	0e030b13 	vmoveq.32	d3[0], r0
 3f4:	01110e1b 	tsteq	r1, fp, lsl lr
 3f8:	17100612 			; <UNDEFINED> instruction: 0x17100612
 3fc:	24020000 	strcs	r0, [r2], #-0
 400:	3e0b0b00 	vmlacc.f64	d0, d11, d0
 404:	0008030b 	andeq	r0, r8, fp, lsl #6
 408:	00240300 	eoreq	r0, r4, r0, lsl #6
 40c:	0b3e0b0b 	bleq	f83040 <__ram_size__+0xf7b040>
 410:	00000e03 	andeq	r0, r0, r3, lsl #28
 414:	0b000f04 	bleq	402c <__log_flash_size__+0x2c>
 418:	0500000b 	streq	r0, [r0, #-11]
 41c:	0e030016 	mcreq	0, 0, r0, cr3, cr6, {0}
 420:	0b3b0b3a 	bleq	ec3110 <__ram_size__+0xebb110>
 424:	00001349 	andeq	r1, r0, r9, asr #6
 428:	03011306 	movweq	r1, #4870	; 0x1306
 42c:	3a050b0e 	bcc	14306c <__ram_size__+0x13b06c>
 430:	010b3b0b 	tsteq	fp, fp, lsl #22
 434:	07000013 	smladeq	r0, r3, r0, r0
 438:	0e03000d 	cdpeq	0, 0, cr0, cr3, cr13, {0}
 43c:	0b3b0b3a 	bleq	ec312c <__ram_size__+0xebb12c>
 440:	0b381349 	bleq	e0516c <__ram_size__+0xdfd16c>
 444:	0d080000 	stceq	0, cr0, [r8, #-0]
 448:	3a0e0300 	bcc	381050 <__ram_size__+0x379050>
 44c:	490b3b0b 	stmdbmi	fp, {r0, r1, r3, r8, r9, fp, ip, sp}
 450:	00053813 	andeq	r3, r5, r3, lsl r8
 454:	01010900 	tsteq	r1, r0, lsl #18
 458:	13011349 	movwne	r1, #4937	; 0x1349
 45c:	210a0000 	mrscs	r0, (UNDEF: 10)
 460:	2f134900 	svccs	0x00134900
 464:	0b00000b 	bleq	498 <__bss_size__>
 468:	0e030113 	mcreq	1, 0, r0, cr3, cr3, {0}
 46c:	0b3a0b0b 	bleq	e830a0 <__ram_size__+0xe7b0a0>
 470:	13010b3b 	movwne	r0, #6971	; 0x1b3b
 474:	0f0c0000 	svceq	0x000c0000
 478:	490b0b00 	stmdbmi	fp, {r8, r9, fp}
 47c:	0d000013 	stceq	0, cr0, [r0, #-76]	; 0xffffffb4
 480:	19270015 	stmdbne	r7!, {r0, r2, r4}
 484:	260e0000 	strcs	r0, [lr], -r0
 488:	0f000000 	svceq	0x00000000
 48c:	0e030104 	adfeqs	f0, f3, f4
 490:	13490b0b 	movtne	r0, #39691	; 0x9b0b
 494:	0b3b0b3a 	bleq	ec3184 <__ram_size__+0xebb184>
 498:	00001301 	andeq	r1, r0, r1, lsl #6
 49c:	03002810 	movweq	r2, #2064	; 0x810
 4a0:	000b1c0e 	andeq	r1, fp, lr, lsl #24
 4a4:	012e1100 			; <UNDEFINED> instruction: 0x012e1100
 4a8:	0e03193f 			; <UNDEFINED> instruction: 0x0e03193f
 4ac:	0b3b0b3a 	bleq	ec319c <__ram_size__+0xebb19c>
 4b0:	13491927 	movtne	r1, #39207	; 0x9927
 4b4:	06120111 			; <UNDEFINED> instruction: 0x06120111
 4b8:	42971840 	addsmi	r1, r7, #64, 16	; 0x400000
 4bc:	00130119 	andseq	r0, r3, r9, lsl r1
 4c0:	00051200 	andeq	r1, r5, r0, lsl #4
 4c4:	0b3a0e03 	bleq	e83cd8 <__ram_size__+0xe7bcd8>
 4c8:	13490b3b 	movtne	r0, #39739	; 0x9b3b
 4cc:	00001702 	andeq	r1, r0, r2, lsl #14
 4d0:	03000513 	movweq	r0, #1299	; 0x513
 4d4:	3b0b3a08 	blcc	2cecfc <__ram_size__+0x2c6cfc>
 4d8:	0213490b 	andseq	r4, r3, #180224	; 0x2c000
 4dc:	14000017 	strne	r0, [r0], #-23	; 0xffffffe9
 4e0:	0e030034 	mcreq	0, 0, r0, cr3, cr4, {1}
 4e4:	0b3b0b3a 	bleq	ec31d4 <__ram_size__+0xebb1d4>
 4e8:	17021349 	strne	r1, [r2, -r9, asr #6]
 4ec:	34150000 	ldrcc	r0, [r5], #-0
 4f0:	3a080300 	bcc	2010f8 <__ram_size__+0x1f90f8>
 4f4:	490b3b0b 	stmdbmi	fp, {r0, r1, r3, r8, r9, fp, ip, sp}
 4f8:	00170213 	andseq	r0, r7, r3, lsl r2
 4fc:	010b1600 	tsteq	fp, r0, lsl #12
 500:	06120111 			; <UNDEFINED> instruction: 0x06120111
 504:	00001301 	andeq	r1, r0, r1, lsl #6
 508:	03003417 	movweq	r3, #1047	; 0x417
 50c:	3b0b3a0e 	blcc	2ced4c <__ram_size__+0x2c6d4c>
 510:	3f13490b 	svccc	0x0013490b
 514:	00193c19 	andseq	r3, r9, r9, lsl ip
 518:	82891800 	addhi	r1, r9, #0, 16
 51c:	01110101 	tsteq	r1, r1, lsl #2
 520:	13011331 	movwne	r1, #4913	; 0x1331
 524:	8a190000 	bhi	64052c <__ram_size__+0x63852c>
 528:	02000182 	andeq	r0, r0, #-2147483616	; 0x80000020
 52c:	18429118 	stmdane	r2, {r3, r4, r8, ip, pc}^
 530:	891a0000 	ldmdbhi	sl, {}	; <UNPREDICTABLE>
 534:	11010182 	smlabbne	r1, r2, r1, r0
 538:	00133101 	andseq	r3, r3, r1, lsl #2
 53c:	00261b00 	eoreq	r1, r6, r0, lsl #22
 540:	00001349 	andeq	r1, r0, r9, asr #6
 544:	0300341c 	movweq	r3, #1052	; 0x41c
 548:	3b0b3a0e 	blcc	2ced88 <__ram_size__+0x2c6d88>
 54c:	0213490b 	andseq	r4, r3, #180224	; 0x2c000
 550:	1d000018 	stcne	0, cr0, [r0, #-96]	; 0xffffffa0
 554:	0e030034 	mcreq	0, 0, r0, cr3, cr4, {1}
 558:	053b0b3a 	ldreq	r0, [fp, #-2874]!	; 0xfffff4c6
 55c:	193f1349 	ldmdbne	pc!, {r0, r3, r6, r8, r9, ip}	; <UNPREDICTABLE>
 560:	0000193c 	andeq	r1, r0, ip, lsr r9
 564:	0300341e 	movweq	r3, #1054	; 0x41e
 568:	3b0b3a0e 	blcc	2ceda8 <__ram_size__+0x2c6da8>
 56c:	3f13490b 	svccc	0x0013490b
 570:	00180219 	andseq	r0, r8, r9, lsl r2
 574:	002e1f00 	eoreq	r1, lr, r0, lsl #30
 578:	193c193f 	ldmdbne	ip!, {r0, r1, r2, r3, r4, r5, r8, fp, ip}
 57c:	0e030e6e 	cdpeq	14, 0, cr0, cr3, cr14, {3}
 580:	0b3b0b3a 	bleq	ec3270 <__ram_size__+0xebb270>
 584:	01000000 	mrseq	r0, (UNDEF: 0)
 588:	0e250111 	mcreq	1, 1, r0, cr5, cr1, {0}
 58c:	0e030b13 	vmoveq.32	d3[0], r0
 590:	01110e1b 	tsteq	r1, fp, lsl lr
 594:	17100612 			; <UNDEFINED> instruction: 0x17100612
 598:	24020000 	strcs	r0, [r2], #-0
 59c:	3e0b0b00 	vmlacc.f64	d0, d11, d0
 5a0:	000e030b 	andeq	r0, lr, fp, lsl #6
 5a4:	00240300 	eoreq	r0, r4, r0, lsl #6
 5a8:	0b3e0b0b 	bleq	f831dc <__ram_size__+0xf7b1dc>
 5ac:	00000803 	andeq	r0, r0, r3, lsl #16
 5b0:	0b000f04 	bleq	41c8 <__log_flash_size__+0x1c8>
 5b4:	0500000b 	streq	r0, [r0, #-11]
 5b8:	0e030016 	mcreq	0, 0, r0, cr3, cr6, {0}
 5bc:	0b3b0b3a 	bleq	ec32ac <__ram_size__+0xebb2ac>
 5c0:	00001349 	andeq	r1, r0, r9, asr #6
 5c4:	03011306 	movweq	r1, #4870	; 0x1306
 5c8:	3a050b0e 	bcc	143208 <__ram_size__+0x13b208>
 5cc:	010b3b0b 	tsteq	fp, fp, lsl #22
 5d0:	07000013 	smladeq	r0, r3, r0, r0
 5d4:	0e03000d 	cdpeq	0, 0, cr0, cr3, cr13, {0}
 5d8:	0b3b0b3a 	bleq	ec32c8 <__ram_size__+0xebb2c8>
 5dc:	0b381349 	bleq	e05308 <__ram_size__+0xdfd308>
 5e0:	0d080000 	stceq	0, cr0, [r8, #-0]
 5e4:	3a0e0300 	bcc	3811ec <__ram_size__+0x3791ec>
 5e8:	490b3b0b 	stmdbmi	fp, {r0, r1, r3, r8, r9, fp, ip, sp}
 5ec:	00053813 	andeq	r3, r5, r3, lsl r8
 5f0:	01010900 	tsteq	r1, r0, lsl #18
 5f4:	13011349 	movwne	r1, #4937	; 0x1349
 5f8:	210a0000 	mrscs	r0, (UNDEF: 10)
 5fc:	2f134900 	svccs	0x00134900
 600:	0b00000b 	bleq	634 <__bss_size__+0x19c>
 604:	0e030113 	mcreq	1, 0, r0, cr3, cr3, {0}
 608:	0b3a0b0b 	bleq	e8323c <__ram_size__+0xe7b23c>
 60c:	13010b3b 	movwne	r0, #6971	; 0x1b3b
 610:	0f0c0000 	svceq	0x000c0000
 614:	490b0b00 	stmdbmi	fp, {r8, r9, fp}
 618:	0d000013 	stceq	0, cr0, [r0, #-76]	; 0xffffffb4
 61c:	19270015 	stmdbne	r7!, {r0, r2, r4}
 620:	2e0e0000 	cdpcs	0, 0, cr0, cr14, cr0, {0}
 624:	03193f01 	tsteq	r9, #1, 30
 628:	3b0b3a0e 	blcc	2cee68 <__ram_size__+0x2c6e68>
 62c:	1119270b 	tstne	r9, fp, lsl #14
 630:	40061201 	andmi	r1, r6, r1, lsl #4
 634:	19429618 	stmdbne	r2, {r3, r4, r9, sl, ip, pc}^
 638:	00001301 	andeq	r1, r0, r1, lsl #6
 63c:	0300050f 	movweq	r0, #1295	; 0x50f
 640:	3b0b3a0e 	blcc	2cee80 <__ram_size__+0x2c6e80>
 644:	0213490b 	andseq	r4, r3, #180224	; 0x2c000
 648:	10000017 	andne	r0, r0, r7, lsl r0
 64c:	08030005 	stmdaeq	r3, {r0, r2}
 650:	0b3b0b3a 	bleq	ec3340 <__ram_size__+0xebb340>
 654:	17021349 	strne	r1, [r2, -r9, asr #6]
 658:	34110000 	ldrcc	r0, [r1], #-0
 65c:	3a080300 	bcc	201264 <__ram_size__+0x1f9264>
 660:	490b3b0b 	stmdbmi	fp, {r0, r1, r3, r8, r9, fp, ip, sp}
 664:	00170213 	andseq	r0, r7, r3, lsl r2
 668:	00341200 	eorseq	r1, r4, r0, lsl #4
 66c:	0b3a0e03 	bleq	e83e80 <__ram_size__+0xe7be80>
 670:	13490b3b 	movtne	r0, #39739	; 0x9b3b
 674:	00001702 	andeq	r1, r0, r2, lsl #14
 678:	03000a13 	movweq	r0, #2579	; 0xa13
 67c:	3b0b3a0e 	blcc	2ceebc <__ram_size__+0x2c6ebc>
 680:	1400000b 	strne	r0, [r0], #-11
 684:	1755010b 	ldrbne	r0, [r5, -fp, lsl #2]
 688:	00001301 	andeq	r1, r0, r1, lsl #6
 68c:	01828915 	orreq	r8, r2, r5, lsl r9
 690:	00011101 	andeq	r1, r1, r1, lsl #2
 694:	828a1600 	addhi	r1, sl, #0, 12
 698:	18020001 	stmdane	r2, {r0}
 69c:	00184291 	mulseq	r8, r1, r2
 6a0:	82891700 	addhi	r1, r9, #0, 14
 6a4:	01110101 	tsteq	r1, r1, lsl #2
 6a8:	13011331 	movwne	r1, #4913	; 0x1331
 6ac:	89180000 	ldmdbhi	r8, {}	; <UNPREDICTABLE>
 6b0:	11010182 	smlabbne	r1, r2, r1, r0
 6b4:	00133101 	andseq	r3, r3, r1, lsl #2
 6b8:	00341900 	eorseq	r1, r4, r0, lsl #18
 6bc:	0b3a0e03 	bleq	e83ed0 <__ram_size__+0xe7bed0>
 6c0:	13490b3b 	movtne	r0, #39739	; 0x9b3b
 6c4:	00000b1c 	andeq	r0, r0, ip, lsl fp
 6c8:	0300341a 	movweq	r3, #1050	; 0x41a
 6cc:	3b0b3a0e 	blcc	2cef0c <__ram_size__+0x2c6f0c>
 6d0:	3f134905 	svccc	0x00134905
 6d4:	00180219 	andseq	r0, r8, r9, lsl r2
 6d8:	002e1b00 	eoreq	r1, lr, r0, lsl #22
 6dc:	193c193f 	ldmdbne	ip!, {r0, r1, r2, r3, r4, r5, r8, fp, ip}
 6e0:	0e030e6e 	cdpeq	14, 0, cr0, cr3, cr14, {3}
 6e4:	0b3b0b3a 	bleq	ec33d4 <__ram_size__+0xebb3d4>
 6e8:	Address 0x00000000000006e8 is out of bounds.


Disassembly of section .debug_loc:

00000000 <.debug_loc>:
   0:	0800102c 	stmdaeq	r0, {r2, r3, r5, ip}
   4:	0800103c 	stmdaeq	r0, {r2, r3, r4, r5, ip}
   8:	3c500001 	mrrccc	0, 0, r0, r0, cr1	; <UNPREDICTABLE>
   c:	3f080010 	svccc	0x00080010
  10:	01080010 	tsteq	r8, r0, lsl r0
  14:	103f5100 	eorsne	r5, pc, r0, lsl #2
  18:	10480800 	subne	r0, r8, r0, lsl #16
  1c:	00040800 	andeq	r0, r4, r0, lsl #16
  20:	9f5001f3 	svcls	0x005001f3
  24:	00000000 	andeq	r0, r0, r0
  28:	00000000 	andeq	r0, r0, r0
  2c:	0800102c 	stmdaeq	r0, {r2, r3, r5, ip}
  30:	08001038 	stmdaeq	r0, {r3, r4, r5, ip}
  34:	38510001 	ldmdacc	r1, {r0}^
  38:	3f080010 	svccc	0x00080010
  3c:	01080010 	tsteq	r8, r0, lsl r0
  40:	103f5300 	eorsne	r5, pc, r0, lsl #6
  44:	10480800 	subne	r0, r8, r0, lsl #16
  48:	00040800 	andeq	r0, r4, r0, lsl #16
  4c:	9f5101f3 	svcls	0x005101f3
  50:	00000000 	andeq	r0, r0, r0
  54:	00000000 	andeq	r0, r0, r0
  58:	0800102c 	stmdaeq	r0, {r2, r3, r5, ip}
  5c:	0800103f 	stmdaeq	r0, {r0, r1, r2, r3, r4, r5, ip}
  60:	3f520001 	svccc	0x00520001
  64:	48080010 	stmdami	r8, {r4}
  68:	04080010 	streq	r0, [r8], #-16
  6c:	5201f300 	andpl	pc, r1, #0, 6
  70:	0000009f 	muleq	r0, pc, r0	; <UNPREDICTABLE>
  74:	00000000 	andeq	r0, r0, r0
  78:	00104800 	andseq	r4, r0, r0, lsl #16
  7c:	00104f08 	andseq	r4, r0, r8, lsl #30
  80:	50000108 	andpl	r0, r0, r8, lsl #2
  84:	0800104f 	stmdaeq	r0, {r0, r1, r2, r3, r6, ip}
  88:	08001058 	stmdaeq	r0, {r3, r4, r6, ip}
  8c:	01f30004 	mvnseq	r0, r4
  90:	00009f50 	andeq	r9, r0, r0, asr pc
  94:	00000000 	andeq	r0, r0, r0
  98:	00000000 	andeq	r0, r0, r0
  9c:	00200000 	eoreq	r0, r0, r0
  a0:	00010000 	andeq	r0, r1, r0
  a4:	00002050 	andeq	r2, r0, r0, asr r0
  a8:	00002300 	andeq	r2, r0, r0, lsl #6
  ac:	51000100 	mrspl	r0, (UNDEF: 16)
  b0:	00000023 	andeq	r0, r0, r3, lsr #32
  b4:	0000002c 	andeq	r0, r0, ip, lsr #32
  b8:	01f30004 	mvnseq	r0, r4
  bc:	002c9f50 	eoreq	r9, ip, r0, asr pc
  c0:	00300000 	eorseq	r0, r0, r0
  c4:	00010000 	andeq	r0, r1, r0
  c8:	00003050 	andeq	r3, r0, r0, asr r0
  cc:	00003800 	andeq	r3, r0, r0, lsl #16
  d0:	f3000400 	vshl.u8	d0, d0, d0
  d4:	009f5001 	addseq	r5, pc, r1
  d8:	00000000 	andeq	r0, r0, r0
  dc:	00000000 	andeq	r0, r0, r0
  e0:	1c000000 	stcne	0, cr0, [r0], {-0}
  e4:	01000000 	mrseq	r0, (UNDEF: 0)
  e8:	001c5100 	andseq	r5, ip, r0, lsl #2
  ec:	00230000 	eoreq	r0, r3, r0
  f0:	00010000 	andeq	r0, r1, r0
  f4:	00002352 	andeq	r2, r0, r2, asr r3
  f8:	00002c00 	andeq	r2, r0, r0, lsl #24
  fc:	f3000400 	vshl.u8	d0, d0, d0
 100:	2c9f5101 	ldfcss	f5, [pc], {1}
 104:	38000000 	stmdacc	r0, {}	; <UNPREDICTABLE>
 108:	01000000 	mrseq	r0, (UNDEF: 0)
 10c:	00005100 	andeq	r5, r0, r0, lsl #2
 110:	00000000 	andeq	r0, r0, r0
 114:	00000000 	andeq	r0, r0, r0
 118:	00180000 	andseq	r0, r8, r0
 11c:	00010000 	andeq	r0, r1, r0
 120:	00001852 	andeq	r1, r0, r2, asr r8
 124:	00002300 	andeq	r2, r0, r0, lsl #6
 128:	53000100 	movwpl	r0, #256	; 0x100
 12c:	00000023 	andeq	r0, r0, r3, lsr #32
 130:	0000002c 	andeq	r0, r0, ip, lsr #32
 134:	01f30004 	mvnseq	r0, r4
 138:	002c9f52 	eoreq	r9, ip, r2, asr pc
 13c:	00380000 	eorseq	r0, r8, r0
 140:	00010000 	andeq	r0, r1, r0
 144:	00000052 	andeq	r0, r0, r2, asr r0
 148:	00000000 	andeq	r0, r0, r0
 14c:	00000000 	andeq	r0, r0, r0
 150:	00004000 	andeq	r4, r0, r0
 154:	50000100 	andpl	r0, r0, r0, lsl #2
 158:	00000040 	andeq	r0, r0, r0, asr #32
 15c:	00000074 	andeq	r0, r0, r4, ror r0
 160:	74560001 	ldrbvc	r0, [r6], #-1
 164:	80000000 	andhi	r0, r0, r0
 168:	01000000 	mrseq	r0, (UNDEF: 0)
 16c:	00805000 	addeq	r5, r0, r0
 170:	00d00000 	sbcseq	r0, r0, r0
 174:	00010000 	andeq	r0, r1, r0
 178:	0000d056 	andeq	sp, r0, r6, asr r0
 17c:	0000d400 	andeq	sp, r0, r0, lsl #8
 180:	f3000400 	vshl.u8	d0, d0, d0
 184:	d49f5001 	ldrle	r5, [pc], #1	; 18c <__isr_vector_size__+0x4>
 188:	f0000000 			; <UNDEFINED> instruction: 0xf0000000
 18c:	01000000 	mrseq	r0, (UNDEF: 0)
 190:	00f05000 	rscseq	r5, r0, r0
 194:	01400000 	mrseq	r0, (UNDEF: 64)
 198:	00010000 	andeq	r0, r1, r0
 19c:	00000056 	andeq	r0, r0, r6, asr r0
 1a0:	00000000 	andeq	r0, r0, r0
 1a4:	00000000 	andeq	r0, r0, r0
 1a8:	00004300 	andeq	r4, r0, r0, lsl #6
 1ac:	51000100 	mrspl	r0, (UNDEF: 16)
 1b0:	00000043 	andeq	r0, r0, r3, asr #32
 1b4:	00000074 	andeq	r0, r0, r4, ror r0
 1b8:	74570001 	ldrbvc	r0, [r7], #-1
 1bc:	8c000000 	stchi	0, cr0, [r0], {-0}
 1c0:	01000000 	mrseq	r0, (UNDEF: 0)
 1c4:	008c5100 	addeq	r5, ip, r0, lsl #2
 1c8:	00d00000 	sbcseq	r0, r0, r0
 1cc:	00010000 	andeq	r0, r1, r0
 1d0:	0000d057 	andeq	sp, r0, r7, asr r0
 1d4:	0000d400 	andeq	sp, r0, r0, lsl #8
 1d8:	f3000400 	vshl.u8	d0, d0, d0
 1dc:	d49f5101 	ldrle	r5, [pc], #257	; 1e4 <__isr_vector_size__+0x5c>
 1e0:	fc000000 	stc2	0, cr0, [r0], {-0}
 1e4:	01000000 	mrseq	r0, (UNDEF: 0)
 1e8:	00fc5100 	rscseq	r5, ip, r0, lsl #2
 1ec:	01400000 	mrseq	r0, (UNDEF: 64)
 1f0:	00010000 	andeq	r0, r1, r0
 1f4:	00000057 	andeq	r0, r0, r7, asr r0
 1f8:	00000000 	andeq	r0, r0, r0
 1fc:	00000000 	andeq	r0, r0, r0
 200:	00004300 	andeq	r4, r0, r0, lsl #6
 204:	52000100 	andpl	r0, r0, #0, 2
 208:	00000043 	andeq	r0, r0, r3, asr #32
 20c:	00000074 	andeq	r0, r0, r4, ror r0
 210:	74590001 	ldrbvc	r0, [r9], #-1
 214:	8c000000 	stchi	0, cr0, [r0], {-0}
 218:	01000000 	mrseq	r0, (UNDEF: 0)
 21c:	008c5200 	addeq	r5, ip, r0, lsl #4
 220:	00d00000 	sbcseq	r0, r0, r0
 224:	00010000 	andeq	r0, r1, r0
 228:	0000d059 	andeq	sp, r0, r9, asr r0
 22c:	0000d400 	andeq	sp, r0, r0, lsl #8
 230:	f3000400 	vshl.u8	d0, d0, d0
 234:	d49f5201 	ldrle	r5, [pc], #513	; 23c <__isr_vector_size__+0xb4>
 238:	fc000000 	stc2	0, cr0, [r0], {-0}
 23c:	01000000 	mrseq	r0, (UNDEF: 0)
 240:	00fc5200 	rscseq	r5, ip, r0, lsl #4
 244:	01400000 	mrseq	r0, (UNDEF: 64)
 248:	00010000 	andeq	r0, r1, r0
 24c:	00000059 	andeq	r0, r0, r9, asr r0
 250:	00000000 	andeq	r0, r0, r0
 254:	00000000 	andeq	r0, r0, r0
 258:	00002400 	andeq	r2, r0, r0, lsl #8
 25c:	53000100 	movwpl	r0, #256	; 0x100
 260:	00000024 	andeq	r0, r0, r4, lsr #32
 264:	000000d0 	ldrdeq	r0, [r0], -r0	; <UNPREDICTABLE>
 268:	d0580001 	subsle	r0, r8, r1
 26c:	d4000000 	strle	r0, [r0], #-0
 270:	04000000 	streq	r0, [r0], #-0
 274:	5301f300 	movwpl	pc, #4864	; 0x1300	; <UNPREDICTABLE>
 278:	0000d49f 	muleq	r0, pc, r4	; <UNPREDICTABLE>
 27c:	0000d800 	andeq	sp, r0, r0, lsl #16
 280:	53000100 	movwpl	r0, #256	; 0x100
 284:	000000d8 	ldrdeq	r0, [r0], -r8
 288:	00000140 	andeq	r0, r0, r0, asr #2
 28c:	00580001 	subseq	r0, r8, r1
 290:	00000000 	andeq	r0, r0, r0
 294:	80000000 	andhi	r0, r0, r0
 298:	b8000000 	stmdalt	r0, {}	; <UNPREDICTABLE>
 29c:	01000000 	mrseq	r0, (UNDEF: 0)
 2a0:	00f05000 	rscseq	r5, r0, r0
 2a4:	00fc0000 	rscseq	r0, ip, r0
 2a8:	00010000 	andeq	r0, r1, r0
 2ac:	0000fc50 	andeq	pc, r0, r0, asr ip	; <UNPREDICTABLE>
 2b0:	00010400 	andeq	r0, r1, r0, lsl #8
 2b4:	30000200 	andcc	r0, r0, r0, lsl #4
 2b8:	0001049f 	muleq	r1, pc, r4	; <UNPREDICTABLE>
 2bc:	00012800 	andeq	r2, r1, r0, lsl #16
 2c0:	50000100 	andpl	r0, r0, r0, lsl #2
 2c4:	00000000 	andeq	r0, r0, r0
 2c8:	00000000 	andeq	r0, r0, r0
 2cc:	0000000c 	andeq	r0, r0, ip
 2d0:	00000044 	andeq	r0, r0, r4, asr #32
 2d4:	44540001 	ldrbmi	r0, [r4], #-1
 2d8:	74000000 	strvc	r0, [r0], #-0
 2dc:	01000000 	mrseq	r0, (UNDEF: 0)
 2e0:	00745000 	rsbseq	r5, r4, r0
 2e4:	00d00000 	sbcseq	r0, r0, r0
 2e8:	00010000 	andeq	r0, r1, r0
 2ec:	0000d454 	andeq	sp, r0, r4, asr r4
 2f0:	0000f000 	andeq	pc, r0, r0
 2f4:	03000600 	movweq	r0, #1536	; 0x600
 2f8:	2000040c 	andcs	r0, r0, ip, lsl #8
 2fc:	0000f09f 	muleq	r0, pc, r0	; <UNPREDICTABLE>
 300:	00014000 	andeq	r4, r1, r0
 304:	54000100 	strpl	r0, [r0], #-256	; 0xffffff00
 308:	00000000 	andeq	r0, r0, r0
 30c:	00000000 	andeq	r0, r0, r0
 310:	00000000 	andeq	r0, r0, r0
 314:	00000010 	andeq	r0, r0, r0, lsl r0
 318:	10500001 	subsne	r0, r0, r1
 31c:	78000000 	stmdavc	r0, {}	; <UNPREDICTABLE>
 320:	02000001 	andeq	r0, r0, #1
 324:	004c9100 	subeq	r9, ip, r0, lsl #2
 328:	00000000 	andeq	r0, r0, r0
 32c:	00000000 	andeq	r0, r0, r0
 330:	10000000 	andne	r0, r0, r0
 334:	01000000 	mrseq	r0, (UNDEF: 0)
 338:	00105100 	andseq	r5, r0, r0, lsl #2
 33c:	01600000 	cmneq	r0, r0
 340:	00010000 	andeq	r0, r1, r0
 344:	00016057 	andeq	r6, r1, r7, asr r0
 348:	00016400 	andeq	r6, r1, r0, lsl #8
 34c:	f3000400 	vshl.u8	d0, d0, d0
 350:	649f5101 	ldrvs	r5, [pc], #257	; 358 <__isr_vector_size__+0x1d0>
 354:	78000001 	stmdavc	r0, {r0}
 358:	01000001 	tsteq	r0, r1
 35c:	00005700 	andeq	r5, r0, r0, lsl #14
 360:	00000000 	andeq	r0, r0, r0
 364:	00180000 	andseq	r0, r8, r0
 368:	014c0000 	mrseq	r0, (UNDEF: 76)
 36c:	00010000 	andeq	r0, r1, r0
 370:	00014c59 	andeq	r4, r1, r9, asr ip
 374:	00015000 	andeq	r5, r1, r0
 378:	7b000200 	blvc	b80 <__bss_size__+0x6e8>
 37c:	00015000 	andeq	r5, r1, r0
 380:	00016000 	andeq	r6, r1, r0
 384:	59000100 	stmdbpl	r0, {r8}
 388:	00000164 	andeq	r0, r0, r4, ror #2
 38c:	00000168 	andeq	r0, r0, r8, ror #2
 390:	68590001 	ldmdavs	r9, {r0}^
 394:	78000001 	stmdavc	r0, {r0}
 398:	02000001 	andeq	r0, r0, #1
 39c:	00007300 	andeq	r7, r0, r0, lsl #6
 3a0:	00000000 	andeq	r0, r0, r0
 3a4:	18000000 	stmdane	r0, {}	; <UNPREDICTABLE>
 3a8:	24000000 	strcs	r0, [r0], #-0
 3ac:	06000000 	streq	r0, [r0], -r0
 3b0:	04980300 	ldreq	r0, [r8], #768	; 0x300
 3b4:	249f2000 	ldrcs	r2, [pc], #0	; 3bc <__isr_vector_size__+0x234>
 3b8:	58000000 	stmdapl	r0, {}	; <UNPREDICTABLE>
 3bc:	01000001 	tsteq	r0, r1
 3c0:	01645b00 	cmneq	r4, r0, lsl #22
 3c4:	01780000 	cmneq	r8, r0
 3c8:	00010000 	andeq	r0, r1, r0
 3cc:	0000005b 	andeq	r0, r0, fp, asr r0
 3d0:	00000000 	andeq	r0, r0, r0
 3d4:	00003400 	andeq	r3, r0, r0, lsl #8
 3d8:	00015800 	andeq	r5, r1, r0, lsl #16
 3dc:	58000100 	stmdapl	r0, {r8}
 3e0:	00000164 	andeq	r0, r0, r4, ror #2
 3e4:	00000178 	andeq	r0, r0, r8, ror r1
 3e8:	00580001 	subseq	r0, r8, r1
 3ec:	00000000 	andeq	r0, r0, r0
 3f0:	48000000 	stmdami	r0, {}	; <UNPREDICTABLE>
 3f4:	10000000 	andne	r0, r0, r0
 3f8:	01000001 	tsteq	r0, r1
 3fc:	00005400 	andeq	r5, r0, r0, lsl #8
 400:	00000000 	andeq	r0, r0, r0
 404:	00480000 	subeq	r0, r8, r0
 408:	00600000 	rsbeq	r0, r0, r0
 40c:	00050000 	andeq	r0, r5, r0
 410:	24007431 	strcs	r7, [r0], #-1073	; 0xfffffbcf
 414:	0000609f 	muleq	r0, pc, r0	; <UNPREDICTABLE>
 418:	00007000 	andeq	r7, r0, r0
 41c:	31000500 	tstcc	r0, r0, lsl #10
 420:	9f240174 	svcls	0x00240174
 424:	00000070 	andeq	r0, r0, r0, ror r0
 428:	00000110 	andeq	r0, r0, r0, lsl r1
 42c:	74310005 	ldrtvc	r0, [r1], #-5
 430:	009f2400 	addseq	r2, pc, r0, lsl #8
 434:	00000000 	andeq	r0, r0, r0
 438:	8c000000 	stchi	0, cr0, [r0], {-0}
 43c:	d7000000 	strle	r0, [r0, -r0]
 440:	01000000 	mrseq	r0, (UNDEF: 0)
 444:	00f45300 	rscseq	r5, r4, r0, lsl #6
 448:	00fb0000 	rscseq	r0, fp, r0
 44c:	00010000 	andeq	r0, r1, r0
 450:	00010053 	andeq	r0, r1, r3, asr r0
 454:	00010b00 	andeq	r0, r1, r0, lsl #22
 458:	53000100 	movwpl	r0, #256	; 0x100
 45c:	00000000 	andeq	r0, r0, r0
 460:	00000000 	andeq	r0, r0, r0
 464:	000000a4 	andeq	r0, r0, r4, lsr #1
 468:	00000110 	andeq	r0, r0, r0, lsl r1
 46c:	005a0001 	subseq	r0, sl, r1
 470:	00000000 	andeq	r0, r0, r0
 474:	Address 0x0000000000000474 is out of bounds.


Disassembly of section .debug_aranges:

00000000 <.debug_aranges>:
   0:	0000001c 	andeq	r0, r0, ip, lsl r0
   4:	00000002 	andeq	r0, r0, r2
   8:	00040000 	andeq	r0, r4, r0
   c:	00000000 	andeq	r0, r0, r0
  10:	0800102c 	stmdaeq	r0, {r2, r3, r5, ip}
  14:	0000001c 	andeq	r0, r0, ip, lsl r0
  18:	00000000 	andeq	r0, r0, r0
  1c:	00000000 	andeq	r0, r0, r0
  20:	0000001c 	andeq	r0, r0, ip, lsl r0
  24:	01490002 	cmpeq	r9, r2
  28:	00040000 	andeq	r0, r4, r0
  2c:	00000000 	andeq	r0, r0, r0
  30:	08001048 	stmdaeq	r0, {r3, r6, ip}
  34:	00000010 	andeq	r0, r0, r0, lsl r0
  38:	00000000 	andeq	r0, r0, r0
  3c:	00000000 	andeq	r0, r0, r0
  40:	0000001c 	andeq	r0, r0, ip, lsl r0
  44:	02470002 	subeq	r0, r7, #2
  48:	00040000 	andeq	r0, r4, r0
  4c:	00000000 	andeq	r0, r0, r0
  50:	08001058 	stmdaeq	r0, {r3, r4, r6, ip}
  54:	00000038 	andeq	r0, r0, r8, lsr r0
  58:	00000000 	andeq	r0, r0, r0
  5c:	00000000 	andeq	r0, r0, r0
  60:	00000014 	andeq	r0, r0, r4, lsl r0
  64:	042a0002 	strteq	r0, [sl], #-2
  68:	00040000 	andeq	r0, r4, r0
  6c:	00000000 	andeq	r0, r0, r0
  70:	00000000 	andeq	r0, r0, r0
  74:	00000000 	andeq	r0, r0, r0
  78:	0000001c 	andeq	r0, r0, ip, lsl r0
  7c:	052d0002 	streq	r0, [sp, #-2]!
  80:	00040000 	andeq	r0, r4, r0
  84:	00000000 	andeq	r0, r0, r0
  88:	08001090 	stmdaeq	r0, {r4, r7, ip}
  8c:	00000140 	andeq	r0, r0, r0, asr #2
  90:	00000000 	andeq	r0, r0, r0
  94:	00000000 	andeq	r0, r0, r0
  98:	0000001c 	andeq	r0, r0, ip, lsl r0
  9c:	078b0002 	streq	r0, [fp, r2]
  a0:	00040000 	andeq	r0, r4, r0
  a4:	00000000 	andeq	r0, r0, r0
  a8:	00000000 	andeq	r0, r0, r0
  ac:	00000178 	andeq	r0, r0, r8, ror r1
  b0:	00000000 	andeq	r0, r0, r0
  b4:	00000000 	andeq	r0, r0, r0

Disassembly of section .debug_ranges:

00000000 <.debug_ranges>:
   0:	0800102c 	stmdaeq	r0, {r2, r3, r5, ip}
   4:	08001048 	stmdaeq	r0, {r3, r6, ip}
   8:	00000000 	andeq	r0, r0, r0
   c:	00000000 	andeq	r0, r0, r0
  10:	08001048 	stmdaeq	r0, {r3, r6, ip}
  14:	08001058 	stmdaeq	r0, {r3, r4, r6, ip}
  18:	00000000 	andeq	r0, r0, r0
  1c:	00000000 	andeq	r0, r0, r0
  20:	00000048 	andeq	r0, r0, r8, asr #32
  24:	0000005c 	andeq	r0, r0, ip, asr r0
  28:	00000070 	andeq	r0, r0, r0, ror r0
  2c:	00000110 	andeq	r0, r0, r0, lsl r1
  30:	00000000 	andeq	r0, r0, r0
  34:	00000000 	andeq	r0, r0, r0

Disassembly of section .debug_line:

00000000 <.debug_line>:
   0:	00000155 	andeq	r0, r0, r5, asr r1
   4:	013e0002 	teqeq	lr, r2
   8:	01020000 	mrseq	r0, (UNDEF: 2)
   c:	000d0efb 	strdeq	r0, [sp], -fp
  10:	01010101 	tsteq	r1, r1, lsl #2
  14:	01000000 	mrseq	r0, (UNDEF: 0)
  18:	2e010000 	cdpcs	0, 0, cr0, cr1, cr0, {0}
  1c:	2e2e2f2e 	cdpcs	15, 2, cr2, cr14, cr14, {1}
  20:	2f2e2e2f 	svccs	0x002e2e2f
  24:	2f637273 	svccs	0x00637273
  28:	7362696c 	cmnvc	r2, #108, 18	; 0x1b0000
  2c:	2b636474 	blcs	18d9204 <__ram_size__+0x18d1204>
  30:	33762d2b 	cmncc	r6, #2752	; 0xac0
  34:	62696c2f 	rsbvs	r6, r9, #12032	; 0x2f00
  38:	63707573 	cmnvs	r0, #482344960	; 0x1cc00000
  3c:	2f002b2b 	svccs	0x00002b2b
  40:	6c697562 	cfstr64vs	mvdx7, [r9], #-392	; 0xfffffe78
  44:	696c2f64 	stmdbvs	ip!, {r2, r5, r6, r8, r9, sl, fp, sp}^
  48:	64747362 	ldrbtvs	r7, [r4], #-866	; 0xfffffc9e
  4c:	2d2b2b63 	fstmdbxcs	fp!, {d2-d50}	;@ Deprecated
  50:	2d6d7261 	sfmcs	f7, 2, [sp, #-388]!	; 0xfffffe7c
  54:	656e6f6e 	strbvs	r6, [lr, #-3950]!	; 0xfffff092
  58:	6261652d 	rsbvs	r6, r1, #188743680	; 0xb400000
  5c:	4f792d69 	svcmi	0x00792d69
  60:	71766546 	cmnvc	r6, r6, asr #10
  64:	62696c2f 	rsbvs	r6, r9, #12032	; 0x2f00
  68:	63647473 	cmnvs	r4, #1929379840	; 0x73000000
  6c:	612d2b2b 			; <UNDEFINED> instruction: 0x612d2b2b
  70:	6e2d6d72 	mcrvs	13, 1, r6, cr13, cr2, {3}
  74:	2d656e6f 	stclcs	14, cr6, [r5, #-444]!	; 0xfffffe44
  78:	69626165 	stmdbvs	r2!, {r0, r2, r5, r6, r8, sp, lr}^
  7c:	2f30312d 	svccs	0x0030312d
  80:	6c697562 	cfstr64vs	mvdx7, [r9], #-392	; 0xfffffe78
  84:	616e5f64 	cmnvs	lr, r4, ror #30
  88:	6c2f6f6e 	stcvs	15, cr6, [pc], #-440	; fffffed8 <_estack+0xdfff7ed8>
  8c:	74736269 	ldrbtvc	r6, [r3], #-617	; 0xfffffd97
  90:	2b2b6364 	blcs	ad8e28 <__ram_size__+0xad0e28>
  94:	636e692f 	cmnvs	lr, #770048	; 0xbc000
  98:	6564756c 	strbvs	r7, [r4, #-1388]!	; 0xfffffa94
  9c:	6d72612f 	ldfvse	f6, [r2, #-188]!	; 0xffffff44
  a0:	6e6f6e2d 	cdpvs	14, 6, cr6, cr15, cr13, {1}
  a4:	61652d65 	cmnvs	r5, r5, ror #26
  a8:	622f6962 	eorvs	r6, pc, #1605632	; 0x188000
  ac:	00737469 	rsbseq	r7, r3, r9, ror #8
  b0:	6975622f 	ldmdbvs	r5!, {r0, r1, r2, r3, r5, r9, sp, lr}^
  b4:	6c2f646c 	cfstrsvs	mvf6, [pc], #-432	; ffffff0c <_estack+0xdfff7f0c>
  b8:	74736269 	ldrbtvc	r6, [r3], #-617	; 0xfffffd97
  bc:	2b2b6364 	blcs	ad8e54 <__ram_size__+0xad0e54>
  c0:	6d72612d 	ldfvse	f6, [r2, #-180]!	; 0xffffff4c
  c4:	6e6f6e2d 	cdpvs	14, 6, cr6, cr15, cr13, {1}
  c8:	61652d65 	cmnvs	r5, r5, ror #26
  cc:	792d6962 	pushvc	{r1, r5, r6, r8, fp, sp, lr}
  d0:	7665464f 	strbtvc	r4, [r5], -pc, asr #12
  d4:	696c2f71 	stmdbvs	ip!, {r0, r4, r5, r6, r8, r9, sl, fp, sp}^
  d8:	64747362 	ldrbtvs	r7, [r4], #-866	; 0xfffffc9e
  dc:	2d2b2b63 	fstmdbxcs	fp!, {d2-d50}	;@ Deprecated
  e0:	2d6d7261 	sfmcs	f7, 2, [sp, #-388]!	; 0xfffffe7c
  e4:	656e6f6e 	strbvs	r6, [lr, #-3950]!	; 0xfffff092
  e8:	6261652d 	rsbvs	r6, r1, #188743680	; 0xb400000
  ec:	30312d69 	eorscc	r2, r1, r9, ror #26
  f0:	6372732f 	cmnvs	r2, #-1140850688	; 0xbc000000
  f4:	62696c2f 	rsbvs	r6, r9, #12032	; 0x2f00
  f8:	63647473 	cmnvs	r4, #1929379840	; 0x73000000
  fc:	762d2b2b 	strtvc	r2, [sp], -fp, lsr #22
 100:	696c2f33 	stmdbvs	ip!, {r0, r1, r4, r5, r8, r9, sl, fp, sp}^
 104:	70757362 	rsbsvc	r7, r5, r2, ror #6
 108:	002b2b63 	eoreq	r2, fp, r3, ror #22
 10c:	65746100 	ldrbvs	r6, [r4, #-256]!	; 0xffffff00
 110:	5f746978 	svcpl	0x00746978
 114:	2e6d7261 	cdpcs	2, 6, cr7, cr13, cr1, {3}
 118:	01006363 	tsteq	r0, r3, ror #6
 11c:	2b630000 	blcs	18c0124 <__ram_size__+0x18b8124>
 120:	6e6f632b 	cdpvs	3, 6, cr6, cr15, cr11, {1}
 124:	2e676966 	vnmulcs.f16	s13, s14, s13	; <UNPREDICTABLE>
 128:	00020068 	andeq	r0, r2, r8, rrx
 12c:	75623c00 	strbvc	r3, [r2, #-3072]!	; 0xfffff400
 130:	2d746c69 	ldclcs	12, cr6, [r4, #-420]!	; 0xfffffe5c
 134:	003e6e69 	eorseq	r6, lr, r9, ror #28
 138:	63000000 	movwvs	r0, #0
 13c:	62617878 	rsbvs	r7, r1, #120, 16	; 0x780000
 140:	00682e69 	rsbeq	r2, r8, r9, ror #28
 144:	00000003 	andeq	r0, r0, r3
 148:	2c020500 	cfstr32cs	mvfx0, [r2], {-0}
 14c:	03080010 	movweq	r0, #32784	; 0x8010
 150:	674b0121 	strbvs	r0, [fp, -r1, lsr #2]
 154:	01000402 	tsteq	r0, r2, lsl #8
 158:	0000f101 	andeq	pc, r0, r1, lsl #2
 15c:	da000200 	ble	964 <__bss_size__+0x4cc>
 160:	02000000 	andeq	r0, r0, #0
 164:	0d0efb01 	vstreq	d15, [lr, #-4]
 168:	01010100 	mrseq	r0, (UNDEF: 17)
 16c:	00000001 	andeq	r0, r0, r1
 170:	01000001 	tsteq	r0, r1
 174:	2e2f2e2e 	cdpcs	14, 2, cr2, cr15, cr14, {1}
 178:	2e2e2f2e 	cdpcs	15, 2, cr2, cr14, cr14, {1}
 17c:	6372732f 	cmnvs	r2, #-1140850688	; 0xbc000000
 180:	62696c2f 	rsbvs	r6, r9, #12032	; 0x2f00
 184:	63647473 	cmnvs	r4, #1929379840	; 0x73000000
 188:	762d2b2b 	strtvc	r2, [sp], -fp, lsr #22
 18c:	696c2f33 	stmdbvs	ip!, {r0, r1, r4, r5, r8, r9, sl, fp, sp}^
 190:	70757362 	rsbsvc	r7, r5, r2, ror #6
 194:	002b2b63 	eoreq	r2, fp, r3, ror #22
 198:	6975622f 	ldmdbvs	r5!, {r0, r1, r2, r3, r5, r9, sp, lr}^
 19c:	6c2f646c 	cfstrsvs	mvf6, [pc], #-432	; fffffff4 <_estack+0xdfff7ff4>
 1a0:	74736269 	ldrbtvc	r6, [r3], #-617	; 0xfffffd97
 1a4:	2b2b6364 	blcs	ad8f3c <__ram_size__+0xad0f3c>
 1a8:	6d72612d 	ldfvse	f6, [r2, #-180]!	; 0xffffff4c
 1ac:	6e6f6e2d 	cdpvs	14, 6, cr6, cr15, cr13, {1}
 1b0:	61652d65 	cmnvs	r5, r5, ror #26
 1b4:	792d6962 	pushvc	{r1, r5, r6, r8, fp, sp, lr}
 1b8:	7665464f 	strbtvc	r4, [r5], -pc, asr #12
 1bc:	696c2f71 	stmdbvs	ip!, {r0, r4, r5, r6, r8, r9, sl, fp, sp}^
 1c0:	64747362 	ldrbtvs	r7, [r4], #-866	; 0xfffffc9e
 1c4:	2d2b2b63 	fstmdbxcs	fp!, {d2-d50}	;@ Deprecated
 1c8:	2d6d7261 	sfmcs	f7, 2, [sp, #-388]!	; 0xfffffe7c
 1cc:	656e6f6e 	strbvs	r6, [lr, #-3950]!	; 0xfffff092
 1d0:	6261652d 	rsbvs	r6, r1, #188743680	; 0xb400000
 1d4:	30312d69 	eorscc	r2, r1, r9, ror #26
 1d8:	6975622f 	ldmdbvs	r5!, {r0, r1, r2, r3, r5, r9, sp, lr}^
 1dc:	6e5f646c 	cdpvs	4, 5, cr6, cr15, cr12, {3}
 1e0:	2f6f6e61 	svccs	0x006f6e61
 1e4:	7362696c 	cmnvc	r2, #108, 18	; 0x1b0000
 1e8:	2b636474 	blcs	18d93c0 <__ram_size__+0x18d13c0>
 1ec:	6e692f2b 	cdpvs	15, 6, cr2, cr9, cr11, {1}
 1f0:	64756c63 	ldrbtvs	r6, [r5], #-3171	; 0xfffff39d
 1f4:	72612f65 	rsbvc	r2, r1, #404	; 0x194
 1f8:	6f6e2d6d 	svcvs	0x006e2d6d
 1fc:	652d656e 	strvs	r6, [sp, #-1390]!	; 0xfffffa92
 200:	2f696261 	svccs	0x00696261
 204:	73746962 	cmnvc	r4, #1605632	; 0x188000
 208:	65640000 	strbvs	r0, [r4, #-0]!
 20c:	706f5f6c 	rsbvc	r5, pc, ip, ror #30
 210:	63632e73 	cmnvs	r3, #1840	; 0x730
 214:	00000100 	andeq	r0, r0, r0, lsl #2
 218:	632b2b63 			; <UNDEFINED> instruction: 0x632b2b63
 21c:	69666e6f 	stmdbvs	r6!, {r0, r1, r2, r3, r5, r6, r9, sl, fp, sp, lr}^
 220:	00682e67 	rsbeq	r2, r8, r7, ror #28
 224:	3c000002 	stccc	0, cr0, [r0], {2}
 228:	6c697562 	cfstr64vs	mvdx7, [r9], #-392	; 0xfffffe78
 22c:	6e692d74 	mcrvs	13, 3, r2, cr9, cr4, {3}
 230:	0000003e 	andeq	r0, r0, lr, lsr r0
 234:	77656e00 	strbvc	r6, [r5, -r0, lsl #28]!
 238:	00000100 	andeq	r0, r0, r0, lsl #2
 23c:	02050000 	andeq	r0, r5, #0
 240:	08001048 	stmdaeq	r0, {r3, r6, ip}
 244:	2f011e03 	svccs	0x00011e03
 248:	0004022f 	andeq	r0, r4, pc, lsr #4
 24c:	00cf0101 	sbceq	r0, pc, r1, lsl #2
 250:	00020000 	andeq	r0, r2, r0
 254:	000000b1 	strheq	r0, [r0], -r1
 258:	0efb0102 	cdpeq	1, 15, cr0, cr11, cr2, {0}
 25c:	0101000d 	tsteq	r1, sp
 260:	00000101 	andeq	r0, r0, r1, lsl #2
 264:	00000100 	andeq	r0, r0, r0, lsl #2
 268:	2f2e2e01 	svccs	0x002e2e01
 26c:	2e2f2e2e 	cdpcs	14, 2, cr2, cr15, cr14, {1}
 270:	2e2e2f2e 	cdpcs	15, 2, cr2, cr14, cr14, {1}
 274:	2f2e2e2f 	svccs	0x002e2e2f
 278:	6c77656e 	cfldr64vs	mvdx6, [r7], #-440	; 0xfffffe48
 27c:	6c2f6269 	sfmvs	f6, 4, [pc], #-420	; e0 <__data_size__+0xdc>
 280:	2f636269 	svccs	0x00636269
 284:	6c647473 	cfstrdvs	mvd7, [r4], #-460	; 0xfffffe34
 288:	2f006269 	svccs	0x00006269
 28c:	6c697562 	cfstr64vs	mvdx7, [r9], #-392	; 0xfffffe78
 290:	656e2f64 	strbvs	r2, [lr, #-3940]!	; 0xfffff09c
 294:	62696c77 	rsbvs	r6, r9, #30464	; 0x7700
 298:	4a67382d 	bmi	19ce354 <__ram_size__+0x19c6354>
 29c:	2f52596c 	svccs	0x0052596c
 2a0:	6c77656e 	cfldr64vs	mvdx6, [r7], #-440	; 0xfffffe48
 2a4:	322d6269 	eorcc	r6, sp, #-1879048186	; 0x90000006
 2a8:	302e342e 	eorcc	r3, lr, lr, lsr #8
 2ac:	3130322e 	teqcc	r0, lr, lsr #4
 2b0:	32353036 	eorscc	r3, r5, #54	; 0x36
 2b4:	656e2f37 	strbvs	r2, [lr, #-3895]!	; 0xfffff0c9
 2b8:	62696c77 	rsbvs	r6, r9, #30464	; 0x7700
 2bc:	62696c2f 	rsbvs	r6, r9, #12032	; 0x2f00
 2c0:	6e692f63 	cdpvs	15, 6, cr2, cr9, cr3, {3}
 2c4:	64756c63 	ldrbtvs	r6, [r5], #-3171	; 0xfffff39d
 2c8:	79732f65 	ldmdbvc	r3!, {r0, r2, r5, r6, r8, r9, sl, fp, sp}^
 2cc:	63000073 	movwvs	r0, #115	; 0x73
 2d0:	615f6178 	cmpvs	pc, r8, ror r1	; <UNPREDICTABLE>
 2d4:	69786574 	ldmdbvs	r8!, {r2, r4, r5, r6, r8, sl, sp, lr}^
 2d8:	00632e74 	rsbeq	r2, r3, r4, ror lr
 2dc:	72000001 	andvc	r0, r0, #1
 2e0:	746e6565 	strbtvc	r6, [lr], #-1381	; 0xfffffa9b
 2e4:	0200682e 	andeq	r6, r0, #3014656	; 0x2e0000
 2e8:	6e6f0000 	cdpvs	0, 6, cr0, cr15, cr0, {0}
 2ec:	6978655f 	ldmdbvs	r8!, {r0, r1, r2, r3, r4, r6, r8, sl, sp, lr}^
 2f0:	72615f74 	rsbvc	r5, r1, #116, 30	; 0x1d0
 2f4:	682e7367 	stmdavs	lr!, {r0, r1, r2, r5, r6, r8, r9, ip, sp, lr}
 2f8:	00000100 	andeq	r0, r0, r0, lsl #2
 2fc:	78657461 	stmdavc	r5!, {r0, r5, r6, sl, ip, sp, lr}^
 300:	682e7469 	stmdavs	lr!, {r0, r3, r5, r6, sl, ip, sp, lr}
 304:	00000100 	andeq	r0, r0, r0, lsl #2
 308:	02050000 	andeq	r0, r5, #0
 30c:	08001058 	stmdaeq	r0, {r3, r4, r6, ip}
 310:	18011d03 	stmdane	r1, {r0, r1, r8, sl, fp, ip}
 314:	03667a03 	cmneq	r6, #12288	; 0x3000
 318:	464b820a 	strbmi	r8, [fp], -sl, lsl #4
 31c:	01000602 	tsteq	r0, r2, lsl #12
 320:	00009b01 	andeq	r9, r0, r1, lsl #22
 324:	95000200 	strls	r0, [r0, #-512]	; 0xfffffe00
 328:	02000000 	andeq	r0, r0, #0
 32c:	0d0efb01 	vstreq	d15, [lr, #-4]
 330:	01010100 	mrseq	r0, (UNDEF: 17)
 334:	00000001 	andeq	r0, r0, r1
 338:	01000001 	tsteq	r0, r1
 33c:	6975622f 	ldmdbvs	r5!, {r0, r1, r2, r3, r5, r9, sp, lr}^
 340:	6e2f646c 	cdpvs	4, 2, cr6, cr15, cr12, {3}
 344:	696c7765 	stmdbvs	ip!, {r0, r2, r5, r6, r8, r9, sl, ip, sp, lr}^
 348:	67382d62 	ldrvs	r2, [r8, -r2, ror #26]!
 34c:	52596c4a 	subspl	r6, r9, #18944	; 0x4a00
 350:	77656e2f 	strbvc	r6, [r5, -pc, lsr #28]!
 354:	2d62696c 			; <UNDEFINED> instruction: 0x2d62696c
 358:	2e342e32 	mrccs	14, 1, r2, cr4, cr2, {1}
 35c:	30322e30 	eorscc	r2, r2, r0, lsr lr
 360:	35303631 	ldrcc	r3, [r0, #-1585]!	; 0xfffff9cf
 364:	6e2f3732 	mcrvs	7, 1, r3, cr15, cr2, {1}
 368:	696c7765 	stmdbvs	ip!, {r0, r2, r5, r6, r8, r9, sl, ip, sp, lr}^
 36c:	696c2f62 	stmdbvs	ip!, {r1, r5, r6, r8, r9, sl, fp, sp}^
 370:	692f6362 	stmdbvs	pc!, {r1, r5, r6, r8, r9, sp, lr}	; <UNPREDICTABLE>
 374:	756c636e 	strbvc	r6, [ip, #-878]!	; 0xfffffc92
 378:	732f6564 			; <UNDEFINED> instruction: 0x732f6564
 37c:	2e007379 	mcrcs	3, 0, r7, cr0, cr9, {3}
 380:	2e2e2f2e 	cdpcs	15, 2, cr2, cr14, cr14, {1}
 384:	2f2e2e2f 	svccs	0x002e2e2f
 388:	2e2f2e2e 	cdpcs	14, 2, cr2, cr15, cr14, {1}
 38c:	656e2f2e 	strbvs	r2, [lr, #-3886]!	; 0xfffff0d2
 390:	62696c77 	rsbvs	r6, r9, #30464	; 0x7700
 394:	62696c2f 	rsbvs	r6, r9, #12032	; 0x2f00
 398:	74732f63 	ldrbtvc	r2, [r3], #-3939	; 0xfffff09d
 39c:	62696c64 	rsbvs	r6, r9, #100, 24	; 0x6400
 3a0:	65720000 	ldrbvs	r0, [r2, #-0]!
 3a4:	2e746e65 	cdpcs	14, 7, cr6, cr4, cr5, {3}
 3a8:	00010068 	andeq	r0, r1, r8, rrx
 3ac:	5f6e6f00 	svcpl	0x006e6f00
 3b0:	74697865 	strbtvc	r7, [r9], #-2149	; 0xfffff79b
 3b4:	6772615f 			; <UNDEFINED> instruction: 0x6772615f
 3b8:	00632e73 	rsbeq	r2, r3, r3, ror lr
 3bc:	00000002 	andeq	r0, r0, r2
 3c0:	0000013b 	andeq	r0, r0, fp, lsr r1
 3c4:	00e80002 	rsceq	r0, r8, r2
 3c8:	01020000 	mrseq	r0, (UNDEF: 2)
 3cc:	000d0efb 	strdeq	r0, [sp], -fp
 3d0:	01010101 	tsteq	r1, r1, lsl #2
 3d4:	01000000 	mrseq	r0, (UNDEF: 0)
 3d8:	2e010000 	cdpcs	0, 0, cr0, cr1, cr0, {0}
 3dc:	2e2e2f2e 	cdpcs	15, 2, cr2, cr14, cr14, {1}
 3e0:	2f2e2e2f 	svccs	0x002e2e2f
 3e4:	2e2f2e2e 	cdpcs	14, 2, cr2, cr15, cr14, {1}
 3e8:	656e2f2e 	strbvs	r2, [lr, #-3886]!	; 0xfffff0d2
 3ec:	62696c77 	rsbvs	r6, r9, #30464	; 0x7700
 3f0:	62696c2f 	rsbvs	r6, r9, #12032	; 0x2f00
 3f4:	74732f63 	ldrbtvc	r2, [r3], #-3939	; 0xfffff09d
 3f8:	62696c64 	rsbvs	r6, r9, #100, 24	; 0x6400
 3fc:	75622f00 	strbvc	r2, [r2, #-3840]!	; 0xfffff100
 400:	2f646c69 	svccs	0x00646c69
 404:	6c77656e 	cfldr64vs	mvdx6, [r7], #-440	; 0xfffffe48
 408:	382d6269 	stmdacc	sp!, {r0, r3, r5, r6, r9, sp, lr}
 40c:	596c4a67 	stmdbpl	ip!, {r0, r1, r2, r5, r6, r9, fp, lr}^
 410:	656e2f52 	strbvs	r2, [lr, #-3922]!	; 0xfffff0ae
 414:	62696c77 	rsbvs	r6, r9, #30464	; 0x7700
 418:	342e322d 	strtcc	r3, [lr], #-557	; 0xfffffdd3
 41c:	322e302e 	eorcc	r3, lr, #46	; 0x2e
 420:	30363130 	eorscc	r3, r6, r0, lsr r1
 424:	2f373235 	svccs	0x00373235
 428:	6c77656e 	cfldr64vs	mvdx6, [r7], #-440	; 0xfffffe48
 42c:	6c2f6269 	sfmvs	f6, 4, [pc], #-420	; 290 <__isr_vector_size__+0x108>
 430:	2f636269 	svccs	0x00636269
 434:	6c636e69 	stclvs	14, cr6, [r3], #-420	; 0xfffffe5c
 438:	2f656475 	svccs	0x00656475
 43c:	00737973 	rsbseq	r7, r3, r3, ror r9
 440:	6975622f 	ldmdbvs	r5!, {r0, r1, r2, r3, r5, r9, sp, lr}^
 444:	6e2f646c 	cdpvs	4, 2, cr6, cr15, cr12, {3}
 448:	696c7765 	stmdbvs	ip!, {r0, r2, r5, r6, r8, r9, sl, ip, sp, lr}^
 44c:	67382d62 	ldrvs	r2, [r8, -r2, ror #26]!
 450:	52596c4a 	subspl	r6, r9, #18944	; 0x4a00
 454:	77656e2f 	strbvc	r6, [r5, -pc, lsr #28]!
 458:	2d62696c 			; <UNDEFINED> instruction: 0x2d62696c
 45c:	2e342e32 	mrccs	14, 1, r2, cr4, cr2, {1}
 460:	30322e30 	eorscc	r2, r2, r0, lsr lr
 464:	35303631 	ldrcc	r3, [r0, #-1585]!	; 0xfffff9cf
 468:	6e2f3732 	mcrvs	7, 1, r3, cr15, cr2, {1}
 46c:	696c7765 	stmdbvs	ip!, {r0, r2, r5, r6, r8, r9, sl, ip, sp, lr}^
 470:	696c2f62 	stmdbvs	ip!, {r1, r5, r6, r8, r9, sl, fp, sp}^
 474:	692f6362 	stmdbvs	pc!, {r1, r5, r6, r8, r9, sp, lr}	; <UNPREDICTABLE>
 478:	756c636e 	strbvc	r6, [ip, #-878]!	; 0xfffffc92
 47c:	00006564 	andeq	r6, r0, r4, ror #10
 480:	74615f5f 	strbtvc	r5, [r1], #-3935	; 0xfffff0a1
 484:	74697865 	strbtvc	r7, [r9], #-2149	; 0xfffff79b
 488:	0100632e 	tsteq	r0, lr, lsr #6
 48c:	65720000 	ldrbvs	r0, [r2, #-0]!
 490:	2e746e65 	cdpcs	14, 7, cr6, cr4, cr5, {3}
 494:	00020068 	andeq	r0, r2, r8, rrx
 498:	65746100 	ldrbvs	r6, [r4, #-256]!	; 0xffffff00
 49c:	2e746978 			; <UNDEFINED> instruction: 0x2e746978
 4a0:	00010068 	andeq	r0, r1, r8, rrx
 4a4:	64747300 	ldrbtvs	r7, [r4], #-768	; 0xfffffd00
 4a8:	2e62696c 	vnmulcs.f16	s13, s4, s25	; <UNPREDICTABLE>
 4ac:	00030068 	andeq	r0, r3, r8, rrx
 4b0:	05000000 	streq	r0, [r0, #-0]
 4b4:	00109002 	andseq	r9, r0, r2
 4b8:	00c70308 	sbceq	r0, r7, r8, lsl #6
 4bc:	034b3601 	movteq	r3, #46593	; 0xb601
 4c0:	09032e77 	stmdbeq	r3, {r0, r1, r2, r4, r5, r6, r9, sl, fp, sp}
 4c4:	2e090382 	cdpcs	3, 0, cr0, cr9, cr2, {4}
 4c8:	6e660a03 	vmulvs.f32	s1, s12, s6
 4cc:	032f514b 			; <UNDEFINED> instruction: 0x032f514b
 4d0:	74032e0b 	strvc	r2, [r3], #-3595	; 0xfffff1f5
 4d4:	0329352e 			; <UNDEFINED> instruction: 0x0329352e
 4d8:	2fbd2e0a 	svccs	0x00bd2e0a
 4dc:	81661b03 	cmnhi	r6, r3, lsl #22
 4e0:	2f2f2f2f 	svccs	0x002f2f2f
 4e4:	036b2a88 	cmneq	fp, #136, 20	; 0x88000
 4e8:	474a7fad 	strbmi	r7, [sl, -sp, lsr #31]
 4ec:	03322a32 	teqeq	r2, #204800	; 0x32000
 4f0:	4c674a35 			; <UNDEFINED> instruction: 0x4c674a35
 4f4:	032f6751 			; <UNDEFINED> instruction: 0x032f6751
 4f8:	0c026651 	stceq	6, cr6, [r2], {81}	; 0x51
 4fc:	4a010100 	bmi	40904 <__ram_size__+0x38904>
 500:	02000001 	andeq	r0, r0, #1
 504:	0000e100 	andeq	lr, r0, r0, lsl #2
 508:	fb010200 	blx	40d12 <__ram_size__+0x38d12>
 50c:	01000d0e 	tsteq	r0, lr, lsl #26
 510:	00010101 	andeq	r0, r1, r1, lsl #2
 514:	00010000 	andeq	r0, r1, r0
 518:	2e2e0100 	sufcse	f0, f6, f0
 51c:	2f2e2e2f 	svccs	0x002e2e2f
 520:	2e2f2e2e 	cdpcs	14, 2, cr2, cr15, cr14, {1}
 524:	2e2e2f2e 	cdpcs	15, 2, cr2, cr14, cr14, {1}
 528:	77656e2f 	strbvc	r6, [r5, -pc, lsr #28]!
 52c:	2f62696c 	svccs	0x0062696c
 530:	6362696c 	cmnvs	r2, #108, 18	; 0x1b0000
 534:	6474732f 	ldrbtvs	r7, [r4], #-815	; 0xfffffcd1
 538:	0062696c 	rsbeq	r6, r2, ip, ror #18
 53c:	6975622f 	ldmdbvs	r5!, {r0, r1, r2, r3, r5, r9, sp, lr}^
 540:	6e2f646c 	cdpvs	4, 2, cr6, cr15, cr12, {3}
 544:	696c7765 	stmdbvs	ip!, {r0, r2, r5, r6, r8, r9, sl, ip, sp, lr}^
 548:	67382d62 	ldrvs	r2, [r8, -r2, ror #26]!
 54c:	52596c4a 	subspl	r6, r9, #18944	; 0x4a00
 550:	77656e2f 	strbvc	r6, [r5, -pc, lsr #28]!
 554:	2d62696c 			; <UNDEFINED> instruction: 0x2d62696c
 558:	2e342e32 	mrccs	14, 1, r2, cr4, cr2, {1}
 55c:	30322e30 	eorscc	r2, r2, r0, lsr lr
 560:	35303631 	ldrcc	r3, [r0, #-1585]!	; 0xfffff9cf
 564:	6e2f3732 	mcrvs	7, 1, r3, cr15, cr2, {1}
 568:	696c7765 	stmdbvs	ip!, {r0, r2, r5, r6, r8, r9, sl, ip, sp, lr}^
 56c:	696c2f62 	stmdbvs	ip!, {r1, r5, r6, r8, r9, sl, fp, sp}^
 570:	692f6362 	stmdbvs	pc!, {r1, r5, r6, r8, r9, sp, lr}	; <UNPREDICTABLE>
 574:	756c636e 	strbvc	r6, [ip, #-878]!	; 0xfffffc92
 578:	732f6564 			; <UNDEFINED> instruction: 0x732f6564
 57c:	2f007379 	svccs	0x00007379
 580:	6c697562 	cfstr64vs	mvdx7, [r9], #-392	; 0xfffffe78
 584:	656e2f64 	strbvs	r2, [lr, #-3940]!	; 0xfffff09c
 588:	62696c77 	rsbvs	r6, r9, #30464	; 0x7700
 58c:	4a67382d 	bmi	19ce648 <__ram_size__+0x19c6648>
 590:	2f52596c 	svccs	0x0052596c
 594:	6c77656e 	cfldr64vs	mvdx6, [r7], #-440	; 0xfffffe48
 598:	322d6269 	eorcc	r6, sp, #-1879048186	; 0x90000006
 59c:	302e342e 	eorcc	r3, lr, lr, lsr #8
 5a0:	3130322e 	teqcc	r0, lr, lsr #4
 5a4:	32353036 	eorscc	r3, r5, #54	; 0x36
 5a8:	656e2f37 	strbvs	r2, [lr, #-3895]!	; 0xfffff0c9
 5ac:	62696c77 	rsbvs	r6, r9, #30464	; 0x7700
 5b0:	62696c2f 	rsbvs	r6, r9, #12032	; 0x2f00
 5b4:	6e692f63 	cdpvs	15, 6, cr2, cr9, cr3, {3}
 5b8:	64756c63 	ldrbtvs	r6, [r5], #-3171	; 0xfffff39d
 5bc:	5f000065 	svcpl	0x00000065
 5c0:	6c61635f 	stclvs	3, cr6, [r1], #-380	; 0xfffffe84
 5c4:	74615f6c 	strbtvc	r5, [r1], #-3948	; 0xfffff094
 5c8:	74697865 	strbtvc	r7, [r9], #-2149	; 0xfffff79b
 5cc:	0100632e 	tsteq	r0, lr, lsr #6
 5d0:	65720000 	ldrbvs	r0, [r2, #-0]!
 5d4:	2e746e65 	cdpcs	14, 7, cr6, cr4, cr5, {3}
 5d8:	00020068 	andeq	r0, r2, r8, rrx
 5dc:	64747300 	ldrbtvs	r7, [r4], #-768	; 0xfffffd00
 5e0:	2e62696c 	vnmulcs.f16	s13, s4, s25	; <UNPREDICTABLE>
 5e4:	00030068 	andeq	r0, r3, r8, rrx
 5e8:	05000000 	streq	r0, [r0, #-0]
 5ec:	00000002 	andeq	r0, r0, r2
 5f0:	00c30300 	sbceq	r0, r3, r0, lsl #6
 5f4:	0f036601 	svceq	0x00036601
 5f8:	626d4c2e 	rsbvs	r4, sp, #11776	; 0x2e00
 5fc:	04020086 	streq	r0, [r2], #-134	; 0xffffff7a
 600:	02005101 	andeq	r5, r0, #1073741824	; 0x40000000
 604:	4a060204 	bmi	180e1c <__ram_size__+0x178e1c>
 608:	66790306 	ldrbtvs	r0, [r9], -r6, lsl #6
 60c:	2a6950a5 	bcs	1a548a8 <__ram_size__+0x1a4c8a8>
 610:	50313030 	eorspl	r3, r1, r0, lsr r0
 614:	0200312b 	andeq	r3, r0, #-1073741814	; 0xc000000a
 618:	2e060104 	adfcss	f0, f6, f4
 61c:	8967a006 	stmdbhi	r7!, {r1, r2, sp, pc}^
 620:	01040200 	mrseq	r0, R12_usr
 624:	03066606 	movweq	r6, #26118	; 0x6606
 628:	036a8277 	cmneq	sl, #1879048199	; 0x70000007
 62c:	006b820e 	rsbeq	r8, fp, lr, lsl #4
 630:	06010402 	streq	r0, [r1], -r2, lsl #8
 634:	2c4f0682 	mcrrcs	6, 8, r0, pc, cr2
 638:	4b4c1330 	blmi	1305300 <__ram_size__+0x12fd300>
 63c:	2e7fbf03 	cdpcs	15, 7, cr11, cr15, cr3, {0}
 640:	4a00ce03 	bmi	33e54 <__ram_size__+0x2be54>
 644:	2f667703 	svccs	0x00667703
 648:	01000802 	tsteq	r0, r2, lsl #16
 64c:	Address 0x000000000000064c is out of bounds.


Disassembly of section .debug_str:

00000000 <.debug_str>:
   0:	6c6f6f62 	stclvs	15, cr6, [pc], #-392	; fffffe80 <_estack+0xdfff7e80>
   4:	635f5f00 	cmpvs	pc, #0, 30
   8:	31317878 	teqcc	r1, r8, ror r8
   c:	635f5f00 	cmpvs	pc, #0, 30
  10:	615f6178 	cmpvs	pc, r8, ror r1	; <UNPREDICTABLE>
  14:	69786574 	ldmdbvs	r8!, {r2, r4, r5, r6, r8, sl, sp, lr}^
  18:	5f5f0074 	svcpl	0x005f0074
  1c:	5f756e67 	svcpl	0x00756e67
  20:	00787863 	rsbseq	r7, r8, r3, ror #16
  24:	6c636564 	cfstr64vs	mvdx6, [r3], #-400	; 0xfffffe70
  28:	65707974 	ldrbvs	r7, [r0, #-2420]!	; 0xfffff68c
  2c:	6c756e28 	ldclvs	14, cr6, [r5], #-160	; 0xffffff60
  30:	7274706c 	rsbsvc	r7, r4, #108	; 0x6c
  34:	6e750029 	cdpvs	0, 7, cr0, cr5, cr9, {1}
  38:	6e676973 			; <UNDEFINED> instruction: 0x6e676973
  3c:	63206465 			; <UNDEFINED> instruction: 0x63206465
  40:	00726168 	rsbseq	r6, r2, r8, ror #2
  44:	78635f5f 	stmdavc	r3!, {r0, r1, r2, r3, r4, r6, r8, r9, sl, fp, ip, lr}^
  48:	69626178 	stmdbvs	r2!, {r3, r4, r5, r6, r8, sp, lr}^
  4c:	5f003176 	svcpl	0x00003176
  50:	6165615f 	cmnvs	r5, pc, asr r1
  54:	615f6962 	cmpvs	pc, r2, ror #18
  58:	69786574 	ldmdbvs	r8!, {r2, r4, r5, r6, r8, sl, sp, lr}^
  5c:	65640074 	strbvs	r0, [r4, #-116]!	; 0xffffff8c
  60:	75727473 	ldrbvc	r7, [r2, #-1139]!	; 0xfffffb8d
  64:	726f7463 	rsbvc	r7, pc, #1660944384	; 0x63000000
  68:	615f5f00 	cmpvs	pc, r0, lsl #30
  6c:	69626165 	stmdbvs	r2!, {r0, r2, r5, r6, r8, sp, lr}^
  70:	2e003176 	mcrcs	1, 0, r3, cr0, cr6, {3}
  74:	2e2e2f2e 	cdpcs	15, 2, cr2, cr14, cr14, {1}
  78:	2f2e2e2f 	svccs	0x002e2e2f
  7c:	2f637273 	svccs	0x00637273
  80:	7362696c 	cmnvc	r2, #108, 18	; 0x1b0000
  84:	2b636474 	blcs	18d925c <__ram_size__+0x18d125c>
  88:	33762d2b 	cmncc	r6, #2752	; 0xac0
  8c:	62696c2f 	rsbvs	r6, r9, #12032	; 0x2f00
  90:	63707573 	cmnvs	r0, #482344960	; 0x1cc00000
  94:	612f2b2b 			; <UNDEFINED> instruction: 0x612f2b2b
  98:	69786574 	ldmdbvs	r8!, {r2, r4, r5, r6, r8, sl, sp, lr}^
  9c:	72615f74 	rsbvc	r5, r1, #116, 30	; 0x1d0
  a0:	63632e6d 	cmnvs	r3, #1744	; 0x6d0
  a4:	6e6f6c00 	cdpvs	12, 6, cr6, cr15, cr0, {0}
  a8:	6f6c2067 	svcvs	0x006c2067
  ac:	6920676e 	stmdbvs	r0!, {r1, r2, r3, r5, r6, r8, r9, sl, sp, lr}
  b0:	6f00746e 	svcvs	0x0000746e
  b4:	63656a62 	cmnvs	r5, #401408	; 0x62000
  b8:	6f6c0074 	svcvs	0x006c0074
  bc:	6420676e 	strtvs	r6, [r0], #-1902	; 0xfffff892
  c0:	6c62756f 	cfstr64vs	mvdx7, [r2], #-444	; 0xfffffe44
  c4:	622f0065 	eorvs	r0, pc, #101	; 0x65
  c8:	646c6975 	strbtvs	r6, [ip], #-2421	; 0xfffff68b
  cc:	62696c2f 	rsbvs	r6, r9, #12032	; 0x2f00
  d0:	63647473 	cmnvs	r4, #1929379840	; 0x73000000
  d4:	612d2b2b 			; <UNDEFINED> instruction: 0x612d2b2b
  d8:	6e2d6d72 	mcrvs	13, 1, r6, cr13, cr2, {3}
  dc:	2d656e6f 	stclcs	14, cr6, [r5, #-444]!	; 0xfffffe44
  e0:	69626165 	stmdbvs	r2!, {r0, r2, r5, r6, r8, sp, lr}^
  e4:	464f792d 	strbmi	r7, [pc], -sp, lsr #18
  e8:	2f717665 	svccs	0x00717665
  ec:	7362696c 	cmnvc	r2, #108, 18	; 0x1b0000
  f0:	2b636474 	blcs	18d92c8 <__ram_size__+0x18d12c8>
  f4:	72612d2b 	rsbvc	r2, r1, #2752	; 0xac0
  f8:	6f6e2d6d 	svcvs	0x006e2d6d
  fc:	652d656e 	strvs	r6, [sp, #-1390]!	; 0xfffffa92
 100:	2d696261 	sfmcs	f6, 2, [r9, #-388]!	; 0xfffffe7c
 104:	622f3031 	eorvs	r3, pc, #49	; 0x31
 108:	646c6975 	strbtvs	r6, [ip], #-2421	; 0xfffff68b
 10c:	6e616e5f 	mcrvs	14, 3, r6, cr1, cr15, {2}
 110:	696c2f6f 	stmdbvs	ip!, {r0, r1, r2, r3, r5, r6, r8, r9, sl, fp, sp}^
 114:	64747362 	ldrbtvs	r7, [r4], #-866	; 0xfffffc9e
 118:	2f2b2b63 	svccs	0x002b2b63
 11c:	7362696c 	cmnvc	r2, #108, 18	; 0x1b0000
 120:	2b637075 	blcs	18dc2fc <__ram_size__+0x18d42fc>
 124:	4e47002b 	cdpmi	0, 4, cr0, cr7, cr11, {1}
 128:	2b432055 	blcs	10c8284 <__ram_size__+0x10c0284>
 12c:	2034312b 	eorscs	r3, r4, fp, lsr #2
 130:	2e332e36 	mrccs	14, 1, r2, cr3, cr6, {1}
 134:	30322031 	eorscc	r2, r2, r1, lsr r0
 138:	36303731 			; <UNDEFINED> instruction: 0x36303731
 13c:	2d203032 	stccs	0, cr3, [r0, #-200]!	; 0xffffff38
 140:	4f2d2067 	svcmi	0x002d2067
 144:	662d2073 			; <UNDEFINED> instruction: 0x662d2073
 148:	692d6f6e 	pushvs	{r1, r2, r3, r5, r6, r8, r9, sl, fp, sp, lr}
 14c:	696c706d 	stmdbvs	ip!, {r0, r2, r3, r5, r6, ip, sp, lr}^
 150:	2d746963 			; <UNDEFINED> instruction: 0x2d746963
 154:	706d6574 	rsbvc	r6, sp, r4, ror r5
 158:	6574616c 	ldrbvs	r6, [r4, #-364]!	; 0xfffffe94
 15c:	662d2073 			; <UNDEFINED> instruction: 0x662d2073
 160:	646e6172 	strbtvs	r6, [lr], #-370	; 0xfffffe8e
 164:	732d6d6f 			; <UNDEFINED> instruction: 0x732d6d6f
 168:	3d646565 	cfstr64cc	mvdx6, [r4, #-404]!	; 0xfffffe6c
 16c:	78657461 	stmdavc	r5!, {r0, r5, r6, sl, ip, sp, lr}^
 170:	615f7469 	cmpvs	pc, r9, ror #8
 174:	6c2e6d72 	stcvs	13, cr6, [lr], #-456	; 0xfffffe38
 178:	662d206f 	strtvs	r2, [sp], -pc, rrx
 17c:	636e7566 	cmnvs	lr, #427819008	; 0x19800000
 180:	6e6f6974 			; <UNDEFINED> instruction: 0x6e6f6974
 184:	6365732d 	cmnvs	r5, #-1275068416	; 0xb4000000
 188:	6e6f6974 			; <UNDEFINED> instruction: 0x6e6f6974
 18c:	662d2073 			; <UNDEFINED> instruction: 0x662d2073
 190:	61746164 	cmnvs	r4, r4, ror #2
 194:	6365732d 	cmnvs	r5, #-1275068416	; 0xb4000000
 198:	6e6f6974 			; <UNDEFINED> instruction: 0x6e6f6974
 19c:	662d2073 			; <UNDEFINED> instruction: 0x662d2073
 1a0:	652d6f6e 	strvs	r6, [sp, #-3950]!	; 0xfffff092
 1a4:	70656378 	rsbvc	r6, r5, r8, ror r3
 1a8:	6e6f6974 			; <UNDEFINED> instruction: 0x6e6f6974
 1ac:	662d2073 			; <UNDEFINED> instruction: 0x662d2073
 1b0:	726f6873 	rsbvc	r6, pc, #7536640	; 0x730000
 1b4:	63772d74 	cmnvs	r7, #116, 26	; 0x1d00
 1b8:	00726168 	rsbseq	r6, r2, r8, ror #2
 1bc:	534e5a5f 	movtpl	r5, #59999	; 0xea5f
 1c0:	6f6e3974 	svcvs	0x006e3974
 1c4:	6f726874 	svcvs	0x00726874
 1c8:	43745f77 	cmnmi	r4, #476	; 0x1dc
 1cc:	00764534 	rsbseq	r4, r6, r4, lsr r5
 1d0:	657a6973 	ldrbvs	r6, [sl, #-2419]!	; 0xfffff68d
 1d4:	6e00745f 	cfmvsrvs	mvf0, r7
 1d8:	7268746f 	rsbvc	r7, r8, #1862270976	; 0x6f000000
 1dc:	745f776f 	ldrbvc	r7, [pc], #-1903	; 1e4 <__isr_vector_size__+0x5c>
 1e0:	65706f00 	ldrbvs	r6, [r0, #-3840]!	; 0xfffff100
 1e4:	6f746172 	svcvs	0x00746172
 1e8:	65642072 	strbvs	r2, [r4, #-114]!	; 0xffffff8e
 1ec:	6574656c 	ldrbvs	r6, [r4, #-1388]!	; 0xfffffa94
 1f0:	645a5f00 	ldrbvs	r5, [sl], #-3840	; 0xfffff100
 1f4:	6a76506c 	bvs	1d943ac <__ram_size__+0x1d8c3ac>
 1f8:	2f2e2e00 	svccs	0x002e2e00
 1fc:	2e2f2e2e 	cdpcs	14, 2, cr2, cr15, cr14, {1}
 200:	72732f2e 	rsbsvc	r2, r3, #46, 30	; 0xb8
 204:	696c2f63 	stmdbvs	ip!, {r0, r1, r5, r6, r8, r9, sl, fp, sp}^
 208:	64747362 	ldrbtvs	r7, [r4], #-866	; 0xfffffc9e
 20c:	2d2b2b63 	fstmdbxcs	fp!, {d2-d50}	;@ Deprecated
 210:	6c2f3376 	stcvs	3, cr3, [pc], #-472	; 40 <__data_size__+0x3c>
 214:	75736269 	ldrbvc	r6, [r3, #-617]!	; 0xfffffd97
 218:	2b2b6370 	blcs	ad8fe0 <__ram_size__+0xad0fe0>
 21c:	6c65642f 	cfstrdvs	mvd6, [r5], #-188	; 0xffffff44
 220:	73706f5f 	cmnvc	r0, #380	; 0x17c
 224:	0063632e 	rsbeq	r6, r3, lr, lsr #6
 228:	20554e47 	subscs	r4, r5, r7, asr #28
 22c:	312b2b43 			; <UNDEFINED> instruction: 0x312b2b43
 230:	2e362034 	mrccs	0, 1, r2, cr6, cr4, {1}
 234:	20312e33 	eorscs	r2, r1, r3, lsr lr
 238:	37313032 			; <UNDEFINED> instruction: 0x37313032
 23c:	30323630 	eorscc	r3, r2, r0, lsr r6
 240:	20672d20 	rsbcs	r2, r7, r0, lsr #26
 244:	20734f2d 	rsbscs	r4, r3, sp, lsr #30
 248:	6474732d 	ldrbtvs	r7, [r4], #-813	; 0xfffffcd3
 24c:	756e673d 	strbvc	r6, [lr, #-1853]!	; 0xfffff8c3
 250:	34312b2b 	ldrtcc	r2, [r1], #-2859	; 0xfffff4d5
 254:	6e662d20 	cdpvs	13, 6, cr2, cr6, cr0, {1}
 258:	6d692d6f 	stclvs	13, cr2, [r9, #-444]!	; 0xfffffe44
 25c:	63696c70 	cmnvs	r9, #112, 24	; 0x7000
 260:	742d7469 	strtvc	r7, [sp], #-1129	; 0xfffffb97
 264:	6c706d65 	ldclvs	13, cr6, [r0], #-404	; 0xfffffe6c
 268:	73657461 	cmnvc	r5, #1627389952	; 0x61000000
 26c:	72662d20 	rsbvc	r2, r6, #32, 26	; 0x800
 270:	6f646e61 	svcvs	0x00646e61
 274:	65732d6d 	ldrbvs	r2, [r3, #-3437]!	; 0xfffff293
 278:	643d6465 	ldrtvs	r6, [sp], #-1125	; 0xfffffb9b
 27c:	6f5f6c65 	svcvs	0x005f6c65
 280:	6c2e7370 	stcvs	3, cr7, [lr], #-448	; 0xfffffe40
 284:	662d206f 	strtvs	r2, [sp], -pc, rrx
 288:	636e7566 	cmnvs	lr, #427819008	; 0x19800000
 28c:	6e6f6974 			; <UNDEFINED> instruction: 0x6e6f6974
 290:	6365732d 	cmnvs	r5, #-1275068416	; 0xb4000000
 294:	6e6f6974 			; <UNDEFINED> instruction: 0x6e6f6974
 298:	662d2073 			; <UNDEFINED> instruction: 0x662d2073
 29c:	61746164 	cmnvs	r4, r4, ror #2
 2a0:	6365732d 	cmnvs	r5, #-1275068416	; 0xb4000000
 2a4:	6e6f6974 			; <UNDEFINED> instruction: 0x6e6f6974
 2a8:	662d2073 			; <UNDEFINED> instruction: 0x662d2073
 2ac:	652d6f6e 	strvs	r6, [sp, #-3950]!	; 0xfffff092
 2b0:	70656378 	rsbvc	r6, r5, r8, ror r3
 2b4:	6e6f6974 			; <UNDEFINED> instruction: 0x6e6f6974
 2b8:	662d2073 			; <UNDEFINED> instruction: 0x662d2073
 2bc:	726f6873 	rsbvc	r6, pc, #7536640	; 0x730000
 2c0:	63772d74 	cmnvs	r7, #116, 26	; 0x1d00
 2c4:	00726168 	rsbseq	r6, r2, r8, ror #2
 2c8:	6c645a5f 			; <UNDEFINED> instruction: 0x6c645a5f
 2cc:	5f007650 	svcpl	0x00007650
 2d0:	3774535a 			; <UNDEFINED> instruction: 0x3774535a
 2d4:	68746f6e 	ldmdavs	r4!, {r1, r2, r3, r5, r6, r8, r9, sl, fp, sp, lr}^
 2d8:	00776f72 	rsbseq	r6, r7, r2, ror pc
 2dc:	2e2f2e2e 	cdpcs	14, 2, cr2, cr15, cr14, {1}
 2e0:	2e2e2f2e 	cdpcs	15, 2, cr2, cr14, cr14, {1}
 2e4:	2f2e2e2f 	svccs	0x002e2e2f
 2e8:	6e2f2e2e 	cdpvs	14, 2, cr2, cr15, cr14, {1}
 2ec:	696c7765 	stmdbvs	ip!, {r0, r2, r5, r6, r8, r9, sl, ip, sp, lr}^
 2f0:	696c2f62 	stmdbvs	ip!, {r1, r5, r6, r8, r9, sl, fp, sp}^
 2f4:	732f6362 			; <UNDEFINED> instruction: 0x732f6362
 2f8:	696c6474 	stmdbvs	ip!, {r2, r4, r5, r6, sl, sp, lr}^
 2fc:	78632f62 	stmdavc	r3!, {r1, r5, r6, r8, r9, sl, fp, sp}^
 300:	74615f61 	strbtvc	r5, [r1], #-3937	; 0xfffff09f
 304:	74697865 	strbtvc	r7, [r9], #-2149	; 0xfffff79b
 308:	5f00632e 	svcpl	0x0000632e
 30c:	79746e66 	ldmdbvc	r4!, {r1, r2, r5, r6, r9, sl, fp, sp, lr}^
 310:	00736570 	rsbseq	r6, r3, r0, ror r5
 314:	6e6f5f5f 	mcrvs	15, 3, r5, cr15, cr15, {2}
 318:	6978655f 	ldmdbvs	r8!, {r0, r1, r2, r3, r4, r6, r8, sl, sp, lr}^
 31c:	72615f74 	rsbvc	r5, r1, #116, 30	; 0x1d0
 320:	5f007367 	svcpl	0x00007367
 324:	6178635f 	cmnvs	r8, pc, asr r3
 328:	6574615f 	ldrbvs	r6, [r4, #-351]!	; 0xfffffea1
 32c:	5f746978 	svcpl	0x00746978
 330:	6d6d7564 	cfstr64vs	mvdx7, [sp, #-400]!	; 0xfffffe70
 334:	5f5f0079 	svcpl	0x005f0079
 338:	78657461 	stmdavc	r5!, {r0, r5, r6, sl, ip, sp, lr}^
 33c:	745f7469 	ldrbvc	r7, [pc], #-1129	; 344 <__isr_vector_size__+0x1bc>
 340:	73657079 	cmnvc	r5, #121	; 0x79
 344:	73645f00 	cmnvc	r4, #0, 30
 348:	61685f6f 	cmnvs	r8, pc, ror #30
 34c:	656c646e 	strbvs	r6, [ip, #-1134]!	; 0xfffffb92
 350:	6f687300 	svcvs	0x00687300
 354:	75207472 	strvc	r7, [r0, #-1138]!	; 0xfffffb8e
 358:	6769736e 	strbvs	r7, [r9, -lr, ror #6]!
 35c:	2064656e 	rsbcs	r6, r4, lr, ror #10
 360:	00746e69 	rsbseq	r6, r4, r9, ror #28
 364:	20554e47 	subscs	r4, r5, r7, asr #28
 368:	20313143 	eorscs	r3, r1, r3, asr #2
 36c:	2e342e35 	mrccs	14, 1, r2, cr4, cr5, {1}
 370:	30322031 	eorscc	r2, r2, r1, lsr r0
 374:	39303631 	ldmdbcc	r0!, {r0, r4, r5, r9, sl, ip, sp}
 378:	2d203931 			; <UNDEFINED> instruction: 0x2d203931
 37c:	4f2d2067 	svcmi	0x002d2067
 380:	662d2032 			; <UNDEFINED> instruction: 0x662d2032
 384:	622d6f6e 	eorvs	r6, sp, #440	; 0x1b8
 388:	746c6975 	strbtvc	r6, [ip], #-2421	; 0xfffff68b
 38c:	5f006e69 	svcpl	0x00006e69
 390:	5f74655f 	svcpl	0x0074655f
 394:	78657461 	stmdavc	r5!, {r0, r5, r6, sl, ip, sp, lr}^
 398:	6c007469 	cfstrsvs	mvf7, [r0], {105}	; 0x69
 39c:	20676e6f 	rsbcs	r6, r7, pc, ror #28
 3a0:	676e6f6c 	strbvs	r6, [lr, -ip, ror #30]!
 3a4:	736e7520 	cmnvc	lr, #32, 10	; 0x8000000
 3a8:	656e6769 	strbvs	r6, [lr, #-1897]!	; 0xfffff897
 3ac:	6e692064 	cdpvs	0, 6, cr2, cr9, cr4, {3}
 3b0:	622f0074 	eorvs	r0, pc, #116	; 0x74
 3b4:	646c6975 	strbtvs	r6, [ip], #-2421	; 0xfffff68b
 3b8:	77656e2f 	strbvc	r6, [r5, -pc, lsr #28]!
 3bc:	2d62696c 			; <UNDEFINED> instruction: 0x2d62696c
 3c0:	6c4a6738 	mcrrvs	7, 3, r6, sl, cr8
 3c4:	6e2f5259 	mcrvs	2, 1, r5, cr15, cr9, {2}
 3c8:	696c7765 	stmdbvs	ip!, {r0, r2, r5, r6, r8, r9, sl, ip, sp, lr}^
 3cc:	2e322d62 	cdpcs	13, 3, cr2, cr2, cr2, {3}
 3d0:	2e302e34 	mrccs	14, 1, r2, cr0, cr4, {1}
 3d4:	36313032 			; <UNDEFINED> instruction: 0x36313032
 3d8:	37323530 			; <UNDEFINED> instruction: 0x37323530
 3dc:	6975622f 	ldmdbvs	r5!, {r0, r1, r2, r3, r5, r9, sp, lr}^
 3e0:	6e5f646c 	cdpvs	4, 5, cr6, cr15, cr12, {3}
 3e4:	2f6f6e61 	svccs	0x006f6e61
 3e8:	2d6d7261 	sfmcs	f7, 2, [sp, #-388]!	; 0xfffffe7c
 3ec:	656e6f6e 	strbvs	r6, [lr, #-3950]!	; 0xfffff092
 3f0:	6261652d 	rsbvs	r6, r1, #188743680	; 0xb400000
 3f4:	656e2f69 	strbvs	r2, [lr, #-3945]!	; 0xfffff097
 3f8:	62696c77 	rsbvs	r6, r9, #30464	; 0x7700
 3fc:	62696c2f 	rsbvs	r6, r9, #12032	; 0x2f00
 400:	74732f63 	ldrbtvc	r2, [r3], #-3939	; 0xfffff09d
 404:	62696c64 	rsbvs	r6, r9, #100, 24	; 0x6400
 408:	655f5f00 	ldrbvs	r5, [pc, #-3840]	; fffff510 <_estack+0xdfff7510>
 40c:	6e6f5f74 	mcrvs	15, 3, r5, cr15, cr4, {3}
 410:	74697865 	strbtvc	r7, [r9], #-2149	; 0xfffff79b
 414:	73695f00 	cmnvc	r9, #0, 30
 418:	6178635f 	cmnvs	r8, pc, asr r3
 41c:	7a697300 	bvc	1a5d024 <__ram_size__+0x1a55024>
 420:	70797465 	rsbsvc	r7, r9, r5, ror #8
 424:	5f5f0065 	svcpl	0x005f0065
 428:	6e6f4c55 	mcrvs	12, 3, r4, cr15, cr5, {2}
 42c:	5f5f0067 	svcpl	0x005f0067
 430:	635f7465 	cmpvs	pc, #1694498816	; 0x65000000
 434:	73006178 	movwvc	r6, #376	; 0x178
 438:	74726f68 	ldrbtvc	r6, [r2], #-3944	; 0xfffff098
 43c:	746e6920 	strbtvc	r6, [lr], #-2336	; 0xfffff6e0
 440:	725f5f00 	subsvc	r5, pc, #0, 30
 444:	73696765 	cmnvc	r9, #26476544	; 0x1940000
 448:	5f726574 	svcpl	0x00726574
 44c:	74697865 	strbtvc	r7, [r9], #-2149	; 0xfffff79b
 450:	636f7270 	cmnvs	pc, #112, 4
 454:	6e665f00 	cdpvs	15, 6, cr5, cr6, cr0, {0}
 458:	73677261 	cmnvc	r7, #268435462	; 0x10000006
 45c:	2f2e2e00 	svccs	0x002e2e00
 460:	2e2f2e2e 	cdpcs	14, 2, cr2, cr15, cr14, {1}
 464:	2e2e2f2e 	cdpcs	15, 2, cr2, cr14, cr14, {1}
 468:	2f2e2e2f 	svccs	0x002e2e2f
 46c:	6c77656e 	cfldr64vs	mvdx6, [r7], #-440	; 0xfffffe48
 470:	6c2f6269 	sfmvs	f6, 4, [pc], #-420	; 2d4 <__isr_vector_size__+0x14c>
 474:	2f636269 	svccs	0x00636269
 478:	6c647473 	cfstrdvs	mvd7, [r4], #-460	; 0xfffffe34
 47c:	6f2f6269 	svcvs	0x002f6269
 480:	78655f6e 	stmdavc	r5!, {r1, r2, r3, r5, r6, r8, r9, sl, fp, ip, lr}^
 484:	615f7469 	cmpvs	pc, r9, ror #8
 488:	2e736772 	mrccs	7, 3, r6, cr3, cr2, {3}
 48c:	6f5f0063 	svcvs	0x005f0063
 490:	78655f6e 	stmdavc	r5!, {r1, r2, r3, r5, r6, r8, r9, sl, fp, ip, lr}^
 494:	615f7469 	cmpvs	pc, r9, ror #8
 498:	5f736772 	svcpl	0x00736772
 49c:	74736e69 	ldrbtvc	r6, [r3], #-3689	; 0xfffff197
 4a0:	65636e61 	strbvs	r6, [r3, #-3681]!	; 0xfffff19f
 4a4:	6c675f00 	stclvs	15, cr5, [r7], #-0
 4a8:	6c61626f 	sfmvs	f6, 2, [r1], #-444	; 0xfffffe44
 4ac:	6574615f 	ldrbvs	r6, [r4, #-351]!	; 0xfffffea1
 4b0:	30746978 	rsbscc	r6, r4, r8, ror r9
 4b4:	2f2e2e00 	svccs	0x002e2e00
 4b8:	2e2f2e2e 	cdpcs	14, 2, cr2, cr15, cr14, {1}
 4bc:	2e2e2f2e 	cdpcs	15, 2, cr2, cr14, cr14, {1}
 4c0:	2f2e2e2f 	svccs	0x002e2e2f
 4c4:	6c77656e 	cfldr64vs	mvdx6, [r7], #-440	; 0xfffffe48
 4c8:	6c2f6269 	sfmvs	f6, 4, [pc], #-420	; 32c <__isr_vector_size__+0x1a4>
 4cc:	2f636269 	svccs	0x00636269
 4d0:	6c647473 	cfstrdvs	mvd7, [r4], #-460	; 0xfffffe34
 4d4:	5f2f6269 	svcpl	0x002f6269
 4d8:	6574615f 	ldrbvs	r6, [r4, #-351]!	; 0xfffffea1
 4dc:	2e746978 			; <UNDEFINED> instruction: 0x2e746978
 4e0:	675f0063 	ldrbvs	r0, [pc, -r3, rrx]
 4e4:	61626f6c 	cmnvs	r2, ip, ror #30
 4e8:	74615f6c 	strbtvc	r5, [r1], #-3948	; 0xfffff094
 4ec:	74697865 	strbtvc	r7, [r9], #-2149	; 0xfffff79b
 4f0:	656e5f00 	strbvs	r5, [lr, #-3840]!	; 0xfffff100
 4f4:	5f007478 	svcpl	0x00007478
 4f8:	00646e69 	rsbeq	r6, r4, r9, ror #28
 4fc:	736e665f 	cmnvc	lr, #99614720	; 0x5f00000
 500:	615f5f00 	cmpvs	pc, r0, lsl #30
 504:	69786574 	ldmdbvs	r8!, {r2, r4, r5, r6, r8, sl, sp, lr}^
 508:	75645f74 	strbvc	r5, [r4, #-3956]!	; 0xfffff08c
 50c:	00796d6d 	rsbseq	r6, r9, sp, ror #26
 510:	5f6e6f5f 	svcpl	0x006e6f5f
 514:	74697865 	strbtvc	r7, [r9], #-2149	; 0xfffff79b
 518:	6772615f 			; <UNDEFINED> instruction: 0x6772615f
 51c:	74705f73 	ldrbtvc	r5, [r0], #-3955	; 0xfffff08d
 520:	616d0072 	smcvs	53250	; 0xd002
 524:	636f6c6c 	cmnvs	pc, #108, 24	; 0x6c00
 528:	615f5f00 	cmpvs	pc, r0, lsl #30
 52c:	69786574 	ldmdbvs	r8!, {r2, r4, r5, r6, r8, sl, sp, lr}^
 530:	6f6c5f74 	svcvs	0x006c5f74
 534:	2e006b63 	vmlscs.f64	d6, d0, d19
 538:	2e2e2f2e 	cdpcs	15, 2, cr2, cr14, cr14, {1}
 53c:	2f2e2e2f 	svccs	0x002e2e2f
 540:	2e2f2e2e 	cdpcs	14, 2, cr2, cr15, cr14, {1}
 544:	656e2f2e 	strbvs	r2, [lr, #-3886]!	; 0xfffff0d2
 548:	62696c77 	rsbvs	r6, r9, #30464	; 0x7700
 54c:	62696c2f 	rsbvs	r6, r9, #12032	; 0x2f00
 550:	74732f63 	ldrbtvc	r2, [r3], #-3939	; 0xfffff09d
 554:	62696c64 	rsbvs	r6, r9, #100, 24	; 0x6400
 558:	635f5f2f 	cmpvs	pc, #47, 30	; 0xbc
 55c:	5f6c6c61 	svcpl	0x006c6c61
 560:	78657461 	stmdavc	r5!, {r0, r5, r6, sl, ip, sp, lr}^
 564:	632e7469 			; <UNDEFINED> instruction: 0x632e7469
 568:	635f5f00 	cmpvs	pc, #0, 30
 56c:	5f6c6c61 	svcpl	0x006c6c61
 570:	74697865 	strbtvc	r7, [r9], #-2149	; 0xfffff79b
 574:	636f7270 	cmnvs	pc, #112, 4
 578:	65720073 	ldrbvs	r0, [r2, #-115]!	; 0xffffff8d
 57c:	72617473 	rsbvc	r7, r1, #1929379840	; 0x73000000
 580:	6f630074 	svcvs	0x00630074
 584:	66006564 	strvs	r6, [r0], -r4, ror #10
 588:	00656572 	rsbeq	r6, r5, r2, ror r5
 58c:	7473616c 	ldrbtvc	r6, [r3], #-364	; 0xfffffe94
 590:	Address 0x0000000000000590 is out of bounds.


Disassembly of section .debug_frame:

00000000 <.debug_frame>:
   0:	0000000c 	andeq	r0, r0, ip
   4:	ffffffff 			; <UNDEFINED> instruction: 0xffffffff
   8:	7c020001 	stcvc	0, cr0, [r2], {1}
   c:	000d0c0e 	andeq	r0, sp, lr, lsl #24
  10:	00000018 	andeq	r0, r0, r8, lsl r0
  14:	00000000 	andeq	r0, r0, r0
  18:	0800102c 	stmdaeq	r0, {r2, r3, r5, ip}
  1c:	0000001c 	andeq	r0, r0, ip, lsl r0
  20:	84080e44 	strhi	r0, [r8], #-3652	; 0xfffff1bc
  24:	48018e02 	stmdami	r1, {r1, r9, sl, fp, pc}
  28:	000ec4ce 	andeq	ip, lr, lr, asr #9
  2c:	0000000c 	andeq	r0, r0, ip
  30:	ffffffff 			; <UNDEFINED> instruction: 0xffffffff
  34:	7c020001 	stcvc	0, cr0, [r2], {1}
  38:	000d0c0e 	andeq	r0, sp, lr, lsl #24
  3c:	00000018 	andeq	r0, r0, r8, lsl r0
  40:	0000002c 	andeq	r0, r0, ip, lsr #32
  44:	08001048 	stmdaeq	r0, {r3, r6, ip}
  48:	00000010 	andeq	r0, r0, r0, lsl r0
  4c:	84080e42 	strhi	r0, [r8], #-3650	; 0xfffff1be
  50:	44018e02 	strmi	r8, [r1], #-3586	; 0xfffff1fe
  54:	000ec4ce 	andeq	ip, lr, lr, asr #9
  58:	0000000c 	andeq	r0, r0, ip
  5c:	ffffffff 			; <UNDEFINED> instruction: 0xffffffff
  60:	7c020001 	stcvc	0, cr0, [r2], {1}
  64:	000d0c0e 	andeq	r0, sp, lr, lsl #24
  68:	00000018 	andeq	r0, r0, r8, lsl r0
  6c:	00000058 	andeq	r0, r0, r8, asr r0
  70:	08001058 	stmdaeq	r0, {r3, r4, r6, ip}
  74:	00000038 	andeq	r0, r0, r8, lsr r0
  78:	84080e48 	strhi	r0, [r8], #-3656	; 0xfffff1b8
  7c:	4c018e02 	stcmi	14, cr8, [r1], {2}
  80:	000ec4ce 	andeq	ip, lr, lr, asr #9
  84:	0000000c 	andeq	r0, r0, ip
  88:	ffffffff 			; <UNDEFINED> instruction: 0xffffffff
  8c:	7c020001 	stcvc	0, cr0, [r2], {1}
  90:	000d0c0e 	andeq	r0, sp, lr, lsl #24
  94:	00000030 	andeq	r0, r0, r0, lsr r0
  98:	00000084 	andeq	r0, r0, r4, lsl #1
  9c:	08001090 	stmdaeq	r0, {r4, r7, ip}
  a0:	00000140 	andeq	r0, r0, r0, asr #2
  a4:	84200e42 	strthi	r0, [r0], #-3650	; 0xfffff1be
  a8:	86078508 	strhi	r8, [r7], -r8, lsl #10
  ac:	88058706 	stmdahi	r5, {r1, r2, r8, r9, sl, pc}
  b0:	8a038904 	bhi	e24c8 <__ram_size__+0xda4c8>
  b4:	02018e02 	andeq	r8, r1, #2, 28
  b8:	cace0a66 	bgt	ff382a58 <_estack+0xdf37aa58>
  bc:	c6c7c8c9 	strbgt	ip, [r7], r9, asr #17
  c0:	000ec4c5 	andeq	ip, lr, r5, asr #9
  c4:	00000b42 	andeq	r0, r0, r2, asr #22
  c8:	0000000c 	andeq	r0, r0, ip
  cc:	ffffffff 			; <UNDEFINED> instruction: 0xffffffff
  d0:	7c020001 	stcvc	0, cr0, [r2], {1}
  d4:	000d0c0e 	andeq	r0, sp, lr, lsl #24
  d8:	00000038 	andeq	r0, r0, r8, lsr r0
  dc:	000000c8 	andeq	r0, r0, r8, asr #1
  e0:	00000000 	andeq	r0, r0, r0
  e4:	00000178 	andeq	r0, r0, r8, ror r1
  e8:	84240e42 	strthi	r0, [r4], #-3650	; 0xfffff1be
  ec:	86088509 	strhi	r8, [r8], -r9, lsl #10
  f0:	88068707 	stmdahi	r6, {r0, r1, r2, r8, r9, sl, pc}
  f4:	8a048905 	bhi	122510 <__ram_size__+0x11a510>
  f8:	8e028b03 	vmlahi.f64	d8, d2, d3
  fc:	300e4401 	andcc	r4, lr, r1, lsl #8
 100:	0e0aa802 	cdpeq	8, 0, cr10, cr10, cr2, {0}
 104:	cbce4224 	blgt	ff39099c <_estack+0xdf38899c>
 108:	c7c8c9ca 	strbgt	ip, [r8, sl, asr #19]
 10c:	0ec4c5c6 	cdpeq	5, 12, cr12, cr4, cr6, {6}
 110:	000b4200 	andeq	r4, fp, r0, lsl #4
